

Microchip MPLAB XC8 Assembler V2.32 build 20210201212658 
                                                                                               Mon Dec 20 10:46:30 2021

Microchip MPLAB XC8 C Compiler v2.32 (Free license) build 20210201212658 Og1 
     1                           	processor	16F15225
     2                           	pagewidth 120
     3                           	opt	flic
     4                           	psect	idataBIGRAM,global,class=CODE,delta=2,noexec
     5                           	psect	idataCOMMON,global,class=CODE,delta=2,noexec
     6                           	psect	idataBANK0,global,class=CODE,delta=2,noexec
     7                           	psect	idataBANK1,global,class=CODE,delta=2,noexec
     8                           	psect	stringtext1,global,class=STRCODE,delta=2,noexec
     9                           	psect	stringtext2,global,class=STRCODE,delta=2,noexec
    10                           	psect	stringtext3,global,class=STRCODE,delta=2,noexec
    11                           	psect	stringtext4,global,class=STRCODE,delta=2,noexec
    12                           	psect	stringtext5,global,class=STRCODE,delta=2,noexec
    13                           	psect	stringtext6,global,class=STRCODE,delta=2,noexec
    14                           	psect	stringtext7,global,class=STRCODE,delta=2,noexec
    15                           	psect	stringtext8,global,class=STRCODE,delta=2,noexec
    16                           	psect	nvCOMMON,global,class=COMMON,space=1,delta=1,noexec
    17                           	psect	nvBANK0,global,class=BANK0,space=1,delta=1,noexec
    18                           	psect	cinit,global,class=CODE,merge=1,delta=2
    19                           	psect	dataBIGRAM,global,delta=1
    20                           	psect	bssCOMMON,global,class=COMMON,space=1,delta=1,noexec
    21                           	psect	dataCOMMON,global,class=COMMON,space=1,delta=1,noexec
    22                           	psect	bssBANK0,global,class=BANK0,space=1,delta=1,noexec
    23                           	psect	dataBANK0,global,class=BANK0,space=1,delta=1,noexec
    24                           	psect	dataBANK1,global,class=BANK1,space=1,delta=1,noexec
    25                           	psect	inittext,global,class=CODE,delta=2
    26                           	psect	cstackBANK1,global,class=BANK1,space=1,delta=1,noexec
    27                           	psect	cstackCOMMON,global,class=COMMON,space=1,delta=1,noexec
    28                           	psect	cstackBANK0,global,class=BANK0,space=1,delta=1,noexec
    29                           	psect	maintext,global,class=CODE,merge=1,split=1,delta=2
    30                           	psect	text1,local,class=CODE,merge=1,delta=2
    31                           	psect	text2,local,class=CODE,merge=1,delta=2
    32                           	psect	text3,local,class=CODE,merge=1,delta=2
    33                           	psect	text4,local,class=CODE,merge=1,delta=2
    34                           	psect	text5,local,class=CODE,merge=1,delta=2
    35                           	psect	text6,local,class=CODE,merge=1,delta=2
    36                           	psect	text7,local,class=CODE,merge=1,delta=2
    37                           	psect	text8,local,class=CODE,merge=1,delta=2
    38                           	psect	text9,local,class=CODE,merge=1,delta=2
    39                           	psect	text10,local,class=CODE,merge=1,delta=2
    40                           	psect	text11,local,class=CODE,merge=1,delta=2
    41                           	psect	text12,local,class=CODE,merge=1,delta=2
    42                           	psect	text13,local,class=CODE,merge=1,delta=2
    43                           	psect	text14,local,class=CODE,merge=1,delta=2
    44                           	psect	text15,local,class=CODE,merge=1,delta=2
    45                           	psect	text16,local,class=CODE,merge=1,delta=2
    46                           	psect	text17,local,class=CODE,merge=1,delta=2
    47                           	psect	intentry,global,class=CODE,delta=2
    48                           	psect	text19,local,class=CODE,merge=1,delta=2
    49                           	psect	text20,local,class=CODE,merge=1,delta=2
    50                           	psect	text21,local,class=CODE,merge=1,delta=2
    51                           	psect	text22,local,class=CODE,merge=1,delta=2
    52                           	psect	text23,local,class=CODE,merge=1,delta=2
    53                           	psect	text24,local,class=CODE,merge=1,delta=2
    54                           	psect	text25,local,class=CODE,merge=1,delta=2
    55                           	psect	text26,local,class=CODE,merge=1,delta=2
    56                           	psect	text27,local,class=CODE,merge=1,delta=2
    57                           	psect	text28,local,class=CODE,merge=1,delta=2
    58                           	psect	text29,local,class=CODE,merge=1,delta=2
    59                           	psect	text30,local,class=CODE,merge=1,delta=2
    60                           	psect	config,global,abs,ovrld,class=CONFIG,space=4,delta=2,noexec
    61                           	dabs	1,0x620,48
    62                           	dabs	1,0x5CA,38
    63                           	dabs	1,0x5A0,42
    64                           	dabs	1,0x521,79
    65                           	dabs	1,0x520,1
    66                           	dabs	1,0x4A0,80
    67                           	dabs	1,0x448,40
    68                           	dabs	1,0x420,40
    69                           	dabs	1,0x3A0,80
    70                           	dabs	1,0x35E,18
    71                           	dabs	1,0x320,62
    72                           	dabs	1,0x2A4,76
    73                           	dabs	1,0x2194,0,_silent_night_pre
    74                           	dabs	1,0x221E,0,_silent_night
    75                           	dabs	1,0x22A8,0,_song3_pre
    76                           	dabs	1,0x2321,0,_song3
    77                           	dabs	1,0x239A,0,_song2
    78                           	dabs	1,0x7E,2
    79  0000                     
    80                           ; Version 2.35
    81                           ; Generated 13/04/2021 GMT
    82                           ; 
    83                           ; Copyright © 2021, Microchip Technology Inc. and its subsidiaries ("Microchip")
    84                           ; All rights reserved.
    85                           ; 
    86                           ; This software is developed by Microchip Technology Inc. and its subsidiaries ("Microch
      +                          ip").
    87                           ; 
    88                           ; Redistribution and use in source and binary forms, with or without modification, are
    89                           ; permitted provided that the following conditions are met:
    90                           ; 
    91                           ;     1. Redistributions of source code must retain the above copyright notice, this lis
      +                          t of
    92                           ;        conditions and the following disclaimer.
    93                           ; 
    94                           ;     2. Redistributions in binary form must reproduce the above copyright notice, this 
      +                          list
    95                           ;        of conditions and the following disclaimer in the documentation and/or other
    96                           ;        materials provided with the distribution. Publication is not required when
    97                           ;        this file is used in an embedded application.
    98                           ; 
    99                           ;     3. Microchip's name may not be used to endorse or promote products derived from th
      +                          is
   100                           ;        software without specific prior written permission.
   101                           ; 
   102                           ; THIS SOFTWARE IS PROVIDED BY MICROCHIP "AS IS" AND ANY EXPRESS OR IMPLIED WARRANTIES,
   103                           ; INCLUDING, BUT NOT LIMITED TO, THE IMPLIED WARRANTIES OF MERCHANTABILITY AND FITNESS F
      +                          OR
   104                           ; PURPOSE ARE DISCLAIMED.  IN NO EVENT SHALL MICROCHIP BE LIABLE FOR ANY DIRECT, INDIREC
      +                          T,
   105                           ; INCIDENTAL, SPECIAL, EXEMPLARY, OR CONSEQUENTIAL DAMAGES (INCLUDING BUT NOT LIMITED TO
   106                           ; PROCUREMENT OF SUBSTITUTE GOODS OR SERVICES; LOSS OF USE, DATA OR PROFITS; OR BUSINESS
   107                           ; INTERRUPTION) HOWSOEVER CAUSED AND ON ANY THEORY OF LIABILITY, WHETHER IN CONTRACT, ST
      +                          RICT
   108                           ; LIABILITY, OR TORT (INCLUDING NEGLIGENCE OR OTHERWISE) ARISING IN ANY WAY OUT OF THE U
      +                          SE OF
   109                           ; THIS SOFTWARE, EVEN IF ADVISED OF THE POSSIBILITY OF SUCH DAMAGE.
   110                           ; 
   111                           ; 
   112                           ; Code-generator required, PIC16F15225 Definitions
   113                           ; 
   114                           ; SFR Addresses
   115  0000                     	;# 
   116  0001                     	;# 
   117  0002                     	;# 
   118  0003                     	;# 
   119  0004                     	;# 
   120  0005                     	;# 
   121  0006                     	;# 
   122  0007                     	;# 
   123  0008                     	;# 
   124  0009                     	;# 
   125  000A                     	;# 
   126  000B                     	;# 
   127  000C                     	;# 
   128  000E                     	;# 
   129  0012                     	;# 
   130  0014                     	;# 
   131  0018                     	;# 
   132  001A                     	;# 
   133  009A                     	;# 
   134  009B                     	;# 
   135  009B                     	;# 
   136  009C                     	;# 
   137  009D                     	;# 
   138  009E                     	;# 
   139  009F                     	;# 
   140  010E                     	;# 
   141  010F                     	;# 
   142  0119                     	;# 
   143  011A                     	;# 
   144  011B                     	;# 
   145  011B                     	;# 
   146  011C                     	;# 
   147  011D                     	;# 
   148  011E                     	;# 
   149  011F                     	;# 
   150  018C                     	;# 
   151  018D                     	;# 
   152  018E                     	;# 
   153  018F                     	;# 
   154  0190                     	;# 
   155  0191                     	;# 
   156  0192                     	;# 
   157  020C                     	;# 
   158  020D                     	;# 
   159  020E                     	;# 
   160  020E                     	;# 
   161  020F                     	;# 
   162  020F                     	;# 
   163  0210                     	;# 
   164  0210                     	;# 
   165  0211                     	;# 
   166  0211                     	;# 
   167  028C                     	;# 
   168  028C                     	;# 
   169  028D                     	;# 
   170  028D                     	;# 
   171  028E                     	;# 
   172  028F                     	;# 
   173  0290                     	;# 
   174  0291                     	;# 
   175  030C                     	;# 
   176  030C                     	;# 
   177  030D                     	;# 
   178  030E                     	;# 
   179  030F                     	;# 
   180  0310                     	;# 
   181  0310                     	;# 
   182  0311                     	;# 
   183  0312                     	;# 
   184  0313                     	;# 
   185  0314                     	;# 
   186  0314                     	;# 
   187  0315                     	;# 
   188  0316                     	;# 
   189  0318                     	;# 
   190  0318                     	;# 
   191  0319                     	;# 
   192  031A                     	;# 
   193  059C                     	;# 
   194  059C                     	;# 
   195  059D                     	;# 
   196  059D                     	;# 
   197  059E                     	;# 
   198  059F                     	;# 
   199  070C                     	;# 
   200  070D                     	;# 
   201  070E                     	;# 
   202  0716                     	;# 
   203  0717                     	;# 
   204  0718                     	;# 
   205  080C                     	;# 
   206  0811                     	;# 
   207  0813                     	;# 
   208  0814                     	;# 
   209  081A                     	;# 
   210  081A                     	;# 
   211  081B                     	;# 
   212  081C                     	;# 
   213  081C                     	;# 
   214  081D                     	;# 
   215  081E                     	;# 
   216  081F                     	;# 
   217  088E                     	;# 
   218  0890                     	;# 
   219  0891                     	;# 
   220  0892                     	;# 
   221  0893                     	;# 
   222  090C                     	;# 
   223  1E8F                     	;# 
   224  1E90                     	;# 
   225  1E91                     	;# 
   226  1E92                     	;# 
   227  1E93                     	;# 
   228  1E9C                     	;# 
   229  1EA1                     	;# 
   230  1EA2                     	;# 
   231  1EC3                     	;# 
   232  1EC5                     	;# 
   233  1EC6                     	;# 
   234  1EC7                     	;# 
   235  1ECB                     	;# 
   236  1ECB                     	;# 
   237  1ECB                     	;# 
   238  1ECC                     	;# 
   239  1ECC                     	;# 
   240  1ECC                     	;# 
   241  1F10                     	;# 
   242  1F11                     	;# 
   243  1F12                     	;# 
   244  1F14                     	;# 
   245  1F15                     	;# 
   246  1F20                     	;# 
   247  1F21                     	;# 
   248  1F22                     	;# 
   249  1F23                     	;# 
   250  1F24                     	;# 
   251  1F25                     	;# 
   252  1F38                     	;# 
   253  1F39                     	;# 
   254  1F3A                     	;# 
   255  1F3B                     	;# 
   256  1F3C                     	;# 
   257  1F3D                     	;# 
   258  1F3E                     	;# 
   259  1F3F                     	;# 
   260  1F4E                     	;# 
   261  1F4F                     	;# 
   262  1F50                     	;# 
   263  1F51                     	;# 
   264  1F52                     	;# 
   265  1F53                     	;# 
   266  1F54                     	;# 
   267  1F55                     	;# 
   268  1FE4                     	;# 
   269  1FE5                     	;# 
   270  1FE6                     	;# 
   271  1FE7                     	;# 
   272  1FE8                     	;# 
   273  1FE8                     	;# 
   274  1FE9                     	;# 
   275  1FEA                     	;# 
   276  1FEB                     	;# 
   277  1FED                     	;# 
   278  1FEE                     	;# 
   279  1FEF                     	;# 
   280  0000                     	;# 
   281  0001                     	;# 
   282  0002                     	;# 
   283  0003                     	;# 
   284  0004                     	;# 
   285  0005                     	;# 
   286  0006                     	;# 
   287  0007                     	;# 
   288  0008                     	;# 
   289  0009                     	;# 
   290  000A                     	;# 
   291  000B                     	;# 
   292  000C                     	;# 
   293  000E                     	;# 
   294  0012                     	;# 
   295  0014                     	;# 
   296  0018                     	;# 
   297  001A                     	;# 
   298  009A                     	;# 
   299  009B                     	;# 
   300  009B                     	;# 
   301  009C                     	;# 
   302  009D                     	;# 
   303  009E                     	;# 
   304  009F                     	;# 
   305  010E                     	;# 
   306  010F                     	;# 
   307  0119                     	;# 
   308  011A                     	;# 
   309  011B                     	;# 
   310  011B                     	;# 
   311  011C                     	;# 
   312  011D                     	;# 
   313  011E                     	;# 
   314  011F                     	;# 
   315  018C                     	;# 
   316  018D                     	;# 
   317  018E                     	;# 
   318  018F                     	;# 
   319  0190                     	;# 
   320  0191                     	;# 
   321  0192                     	;# 
   322  020C                     	;# 
   323  020D                     	;# 
   324  020E                     	;# 
   325  020E                     	;# 
   326  020F                     	;# 
   327  020F                     	;# 
   328  0210                     	;# 
   329  0210                     	;# 
   330  0211                     	;# 
   331  0211                     	;# 
   332  028C                     	;# 
   333  028C                     	;# 
   334  028D                     	;# 
   335  028D                     	;# 
   336  028E                     	;# 
   337  028F                     	;# 
   338  0290                     	;# 
   339  0291                     	;# 
   340  030C                     	;# 
   341  030C                     	;# 
   342  030D                     	;# 
   343  030E                     	;# 
   344  030F                     	;# 
   345  0310                     	;# 
   346  0310                     	;# 
   347  0311                     	;# 
   348  0312                     	;# 
   349  0313                     	;# 
   350  0314                     	;# 
   351  0314                     	;# 
   352  0315                     	;# 
   353  0316                     	;# 
   354  0318                     	;# 
   355  0318                     	;# 
   356  0319                     	;# 
   357  031A                     	;# 
   358  059C                     	;# 
   359  059C                     	;# 
   360  059D                     	;# 
   361  059D                     	;# 
   362  059E                     	;# 
   363  059F                     	;# 
   364  070C                     	;# 
   365  070D                     	;# 
   366  070E                     	;# 
   367  0716                     	;# 
   368  0717                     	;# 
   369  0718                     	;# 
   370  080C                     	;# 
   371  0811                     	;# 
   372  0813                     	;# 
   373  0814                     	;# 
   374  081A                     	;# 
   375  081A                     	;# 
   376  081B                     	;# 
   377  081C                     	;# 
   378  081C                     	;# 
   379  081D                     	;# 
   380  081E                     	;# 
   381  081F                     	;# 
   382  088E                     	;# 
   383  0890                     	;# 
   384  0891                     	;# 
   385  0892                     	;# 
   386  0893                     	;# 
   387  090C                     	;# 
   388  1E8F                     	;# 
   389  1E90                     	;# 
   390  1E91                     	;# 
   391  1E92                     	;# 
   392  1E93                     	;# 
   393  1E9C                     	;# 
   394  1EA1                     	;# 
   395  1EA2                     	;# 
   396  1EC3                     	;# 
   397  1EC5                     	;# 
   398  1EC6                     	;# 
   399  1EC7                     	;# 
   400  1ECB                     	;# 
   401  1ECB                     	;# 
   402  1ECB                     	;# 
   403  1ECC                     	;# 
   404  1ECC                     	;# 
   405  1ECC                     	;# 
   406  1F10                     	;# 
   407  1F11                     	;# 
   408  1F12                     	;# 
   409  1F14                     	;# 
   410  1F15                     	;# 
   411  1F20                     	;# 
   412  1F21                     	;# 
   413  1F22                     	;# 
   414  1F23                     	;# 
   415  1F24                     	;# 
   416  1F25                     	;# 
   417  1F38                     	;# 
   418  1F39                     	;# 
   419  1F3A                     	;# 
   420  1F3B                     	;# 
   421  1F3C                     	;# 
   422  1F3D                     	;# 
   423  1F3E                     	;# 
   424  1F3F                     	;# 
   425  1F4E                     	;# 
   426  1F4F                     	;# 
   427  1F50                     	;# 
   428  1F51                     	;# 
   429  1F52                     	;# 
   430  1F53                     	;# 
   431  1F54                     	;# 
   432  1F55                     	;# 
   433  1FE4                     	;# 
   434  1FE5                     	;# 
   435  1FE6                     	;# 
   436  1FE7                     	;# 
   437  1FE8                     	;# 
   438  1FE8                     	;# 
   439  1FE9                     	;# 
   440  1FEA                     	;# 
   441  1FEB                     	;# 
   442  1FED                     	;# 
   443  1FEE                     	;# 
   444  1FEF                     	;# 
   445  0000                     	;# 
   446  0001                     	;# 
   447  0002                     	;# 
   448  0003                     	;# 
   449  0004                     	;# 
   450  0005                     	;# 
   451  0006                     	;# 
   452  0007                     	;# 
   453  0008                     	;# 
   454  0009                     	;# 
   455  000A                     	;# 
   456  000B                     	;# 
   457  000C                     	;# 
   458  000E                     	;# 
   459  0012                     	;# 
   460  0014                     	;# 
   461  0018                     	;# 
   462  001A                     	;# 
   463  009A                     	;# 
   464  009B                     	;# 
   465  009B                     	;# 
   466  009C                     	;# 
   467  009D                     	;# 
   468  009E                     	;# 
   469  009F                     	;# 
   470  010E                     	;# 
   471  010F                     	;# 
   472  0119                     	;# 
   473  011A                     	;# 
   474  011B                     	;# 
   475  011B                     	;# 
   476  011C                     	;# 
   477  011D                     	;# 
   478  011E                     	;# 
   479  011F                     	;# 
   480  018C                     	;# 
   481  018D                     	;# 
   482  018E                     	;# 
   483  018F                     	;# 
   484  0190                     	;# 
   485  0191                     	;# 
   486  0192                     	;# 
   487  020C                     	;# 
   488  020D                     	;# 
   489  020E                     	;# 
   490  020E                     	;# 
   491  020F                     	;# 
   492  020F                     	;# 
   493  0210                     	;# 
   494  0210                     	;# 
   495  0211                     	;# 
   496  0211                     	;# 
   497  028C                     	;# 
   498  028C                     	;# 
   499  028D                     	;# 
   500  028D                     	;# 
   501  028E                     	;# 
   502  028F                     	;# 
   503  0290                     	;# 
   504  0291                     	;# 
   505  030C                     	;# 
   506  030C                     	;# 
   507  030D                     	;# 
   508  030E                     	;# 
   509  030F                     	;# 
   510  0310                     	;# 
   511  0310                     	;# 
   512  0311                     	;# 
   513  0312                     	;# 
   514  0313                     	;# 
   515  0314                     	;# 
   516  0314                     	;# 
   517  0315                     	;# 
   518  0316                     	;# 
   519  0318                     	;# 
   520  0318                     	;# 
   521  0319                     	;# 
   522  031A                     	;# 
   523  059C                     	;# 
   524  059C                     	;# 
   525  059D                     	;# 
   526  059D                     	;# 
   527  059E                     	;# 
   528  059F                     	;# 
   529  070C                     	;# 
   530  070D                     	;# 
   531  070E                     	;# 
   532  0716                     	;# 
   533  0717                     	;# 
   534  0718                     	;# 
   535  080C                     	;# 
   536  0811                     	;# 
   537  0813                     	;# 
   538  0814                     	;# 
   539  081A                     	;# 
   540  081A                     	;# 
   541  081B                     	;# 
   542  081C                     	;# 
   543  081C                     	;# 
   544  081D                     	;# 
   545  081E                     	;# 
   546  081F                     	;# 
   547  088E                     	;# 
   548  0890                     	;# 
   549  0891                     	;# 
   550  0892                     	;# 
   551  0893                     	;# 
   552  090C                     	;# 
   553  1E8F                     	;# 
   554  1E90                     	;# 
   555  1E91                     	;# 
   556  1E92                     	;# 
   557  1E93                     	;# 
   558  1E9C                     	;# 
   559  1EA1                     	;# 
   560  1EA2                     	;# 
   561  1EC3                     	;# 
   562  1EC5                     	;# 
   563  1EC6                     	;# 
   564  1EC7                     	;# 
   565  1ECB                     	;# 
   566  1ECB                     	;# 
   567  1ECB                     	;# 
   568  1ECC                     	;# 
   569  1ECC                     	;# 
   570  1ECC                     	;# 
   571  1F10                     	;# 
   572  1F11                     	;# 
   573  1F12                     	;# 
   574  1F14                     	;# 
   575  1F15                     	;# 
   576  1F20                     	;# 
   577  1F21                     	;# 
   578  1F22                     	;# 
   579  1F23                     	;# 
   580  1F24                     	;# 
   581  1F25                     	;# 
   582  1F38                     	;# 
   583  1F39                     	;# 
   584  1F3A                     	;# 
   585  1F3B                     	;# 
   586  1F3C                     	;# 
   587  1F3D                     	;# 
   588  1F3E                     	;# 
   589  1F3F                     	;# 
   590  1F4E                     	;# 
   591  1F4F                     	;# 
   592  1F50                     	;# 
   593  1F51                     	;# 
   594  1F52                     	;# 
   595  1F53                     	;# 
   596  1F54                     	;# 
   597  1F55                     	;# 
   598  1FE4                     	;# 
   599  1FE5                     	;# 
   600  1FE6                     	;# 
   601  1FE7                     	;# 
   602  1FE8                     	;# 
   603  1FE8                     	;# 
   604  1FE9                     	;# 
   605  1FEA                     	;# 
   606  1FEB                     	;# 
   607  1FED                     	;# 
   608  1FEE                     	;# 
   609  1FEF                     	;# 
   610  0000                     	;# 
   611  0001                     	;# 
   612  0002                     	;# 
   613  0003                     	;# 
   614  0004                     	;# 
   615  0005                     	;# 
   616  0006                     	;# 
   617  0007                     	;# 
   618  0008                     	;# 
   619  0009                     	;# 
   620  000A                     	;# 
   621  000B                     	;# 
   622  000C                     	;# 
   623  000E                     	;# 
   624  0012                     	;# 
   625  0014                     	;# 
   626  0018                     	;# 
   627  001A                     	;# 
   628  009A                     	;# 
   629  009B                     	;# 
   630  009B                     	;# 
   631  009C                     	;# 
   632  009D                     	;# 
   633  009E                     	;# 
   634  009F                     	;# 
   635  010E                     	;# 
   636  010F                     	;# 
   637  0119                     	;# 
   638  011A                     	;# 
   639  011B                     	;# 
   640  011B                     	;# 
   641  011C                     	;# 
   642  011D                     	;# 
   643  011E                     	;# 
   644  011F                     	;# 
   645  018C                     	;# 
   646  018D                     	;# 
   647  018E                     	;# 
   648  018F                     	;# 
   649  0190                     	;# 
   650  0191                     	;# 
   651  0192                     	;# 
   652  020C                     	;# 
   653  020D                     	;# 
   654  020E                     	;# 
   655  020E                     	;# 
   656  020F                     	;# 
   657  020F                     	;# 
   658  0210                     	;# 
   659  0210                     	;# 
   660  0211                     	;# 
   661  0211                     	;# 
   662  028C                     	;# 
   663  028C                     	;# 
   664  028D                     	;# 
   665  028D                     	;# 
   666  028E                     	;# 
   667  028F                     	;# 
   668  0290                     	;# 
   669  0291                     	;# 
   670  030C                     	;# 
   671  030C                     	;# 
   672  030D                     	;# 
   673  030E                     	;# 
   674  030F                     	;# 
   675  0310                     	;# 
   676  0310                     	;# 
   677  0311                     	;# 
   678  0312                     	;# 
   679  0313                     	;# 
   680  0314                     	;# 
   681  0314                     	;# 
   682  0315                     	;# 
   683  0316                     	;# 
   684  0318                     	;# 
   685  0318                     	;# 
   686  0319                     	;# 
   687  031A                     	;# 
   688  059C                     	;# 
   689  059C                     	;# 
   690  059D                     	;# 
   691  059D                     	;# 
   692  059E                     	;# 
   693  059F                     	;# 
   694  070C                     	;# 
   695  070D                     	;# 
   696  070E                     	;# 
   697  0716                     	;# 
   698  0717                     	;# 
   699  0718                     	;# 
   700  080C                     	;# 
   701  0811                     	;# 
   702  0813                     	;# 
   703  0814                     	;# 
   704  081A                     	;# 
   705  081A                     	;# 
   706  081B                     	;# 
   707  081C                     	;# 
   708  081C                     	;# 
   709  081D                     	;# 
   710  081E                     	;# 
   711  081F                     	;# 
   712  088E                     	;# 
   713  0890                     	;# 
   714  0891                     	;# 
   715  0892                     	;# 
   716  0893                     	;# 
   717  090C                     	;# 
   718  1E8F                     	;# 
   719  1E90                     	;# 
   720  1E91                     	;# 
   721  1E92                     	;# 
   722  1E93                     	;# 
   723  1E9C                     	;# 
   724  1EA1                     	;# 
   725  1EA2                     	;# 
   726  1EC3                     	;# 
   727  1EC5                     	;# 
   728  1EC6                     	;# 
   729  1EC7                     	;# 
   730  1ECB                     	;# 
   731  1ECB                     	;# 
   732  1ECB                     	;# 
   733  1ECC                     	;# 
   734  1ECC                     	;# 
   735  1ECC                     	;# 
   736  1F10                     	;# 
   737  1F11                     	;# 
   738  1F12                     	;# 
   739  1F14                     	;# 
   740  1F15                     	;# 
   741  1F20                     	;# 
   742  1F21                     	;# 
   743  1F22                     	;# 
   744  1F23                     	;# 
   745  1F24                     	;# 
   746  1F25                     	;# 
   747  1F38                     	;# 
   748  1F39                     	;# 
   749  1F3A                     	;# 
   750  1F3B                     	;# 
   751  1F3C                     	;# 
   752  1F3D                     	;# 
   753  1F3E                     	;# 
   754  1F3F                     	;# 
   755  1F4E                     	;# 
   756  1F4F                     	;# 
   757  1F50                     	;# 
   758  1F51                     	;# 
   759  1F52                     	;# 
   760  1F53                     	;# 
   761  1F54                     	;# 
   762  1F55                     	;# 
   763  1FE4                     	;# 
   764  1FE5                     	;# 
   765  1FE6                     	;# 
   766  1FE7                     	;# 
   767  1FE8                     	;# 
   768  1FE8                     	;# 
   769  1FE9                     	;# 
   770  1FEA                     	;# 
   771  1FEB                     	;# 
   772  1FED                     	;# 
   773  1FEE                     	;# 
   774  1FEF                     	;# 
   775  0000                     	;# 
   776  0001                     	;# 
   777  0002                     	;# 
   778  0003                     	;# 
   779  0004                     	;# 
   780  0005                     	;# 
   781  0006                     	;# 
   782  0007                     	;# 
   783  0008                     	;# 
   784  0009                     	;# 
   785  000A                     	;# 
   786  000B                     	;# 
   787  000C                     	;# 
   788  000E                     	;# 
   789  0012                     	;# 
   790  0014                     	;# 
   791  0018                     	;# 
   792  001A                     	;# 
   793  009A                     	;# 
   794  009B                     	;# 
   795  009B                     	;# 
   796  009C                     	;# 
   797  009D                     	;# 
   798  009E                     	;# 
   799  009F                     	;# 
   800  010E                     	;# 
   801  010F                     	;# 
   802  0119                     	;# 
   803  011A                     	;# 
   804  011B                     	;# 
   805  011B                     	;# 
   806  011C                     	;# 
   807  011D                     	;# 
   808  011E                     	;# 
   809  011F                     	;# 
   810  018C                     	;# 
   811  018D                     	;# 
   812  018E                     	;# 
   813  018F                     	;# 
   814  0190                     	;# 
   815  0191                     	;# 
   816  0192                     	;# 
   817  020C                     	;# 
   818  020D                     	;# 
   819  020E                     	;# 
   820  020E                     	;# 
   821  020F                     	;# 
   822  020F                     	;# 
   823  0210                     	;# 
   824  0210                     	;# 
   825  0211                     	;# 
   826  0211                     	;# 
   827  028C                     	;# 
   828  028C                     	;# 
   829  028D                     	;# 
   830  028D                     	;# 
   831  028E                     	;# 
   832  028F                     	;# 
   833  0290                     	;# 
   834  0291                     	;# 
   835  030C                     	;# 
   836  030C                     	;# 
   837  030D                     	;# 
   838  030E                     	;# 
   839  030F                     	;# 
   840  0310                     	;# 
   841  0310                     	;# 
   842  0311                     	;# 
   843  0312                     	;# 
   844  0313                     	;# 
   845  0314                     	;# 
   846  0314                     	;# 
   847  0315                     	;# 
   848  0316                     	;# 
   849  0318                     	;# 
   850  0318                     	;# 
   851  0319                     	;# 
   852  031A                     	;# 
   853  059C                     	;# 
   854  059C                     	;# 
   855  059D                     	;# 
   856  059D                     	;# 
   857  059E                     	;# 
   858  059F                     	;# 
   859  070C                     	;# 
   860  070D                     	;# 
   861  070E                     	;# 
   862  0716                     	;# 
   863  0717                     	;# 
   864  0718                     	;# 
   865  080C                     	;# 
   866  0811                     	;# 
   867  0813                     	;# 
   868  0814                     	;# 
   869  081A                     	;# 
   870  081A                     	;# 
   871  081B                     	;# 
   872  081C                     	;# 
   873  081C                     	;# 
   874  081D                     	;# 
   875  081E                     	;# 
   876  081F                     	;# 
   877  088E                     	;# 
   878  0890                     	;# 
   879  0891                     	;# 
   880  0892                     	;# 
   881  0893                     	;# 
   882  090C                     	;# 
   883  1E8F                     	;# 
   884  1E90                     	;# 
   885  1E91                     	;# 
   886  1E92                     	;# 
   887  1E93                     	;# 
   888  1E9C                     	;# 
   889  1EA1                     	;# 
   890  1EA2                     	;# 
   891  1EC3                     	;# 
   892  1EC5                     	;# 
   893  1EC6                     	;# 
   894  1EC7                     	;# 
   895  1ECB                     	;# 
   896  1ECB                     	;# 
   897  1ECB                     	;# 
   898  1ECC                     	;# 
   899  1ECC                     	;# 
   900  1ECC                     	;# 
   901  1F10                     	;# 
   902  1F11                     	;# 
   903  1F12                     	;# 
   904  1F14                     	;# 
   905  1F15                     	;# 
   906  1F20                     	;# 
   907  1F21                     	;# 
   908  1F22                     	;# 
   909  1F23                     	;# 
   910  1F24                     	;# 
   911  1F25                     	;# 
   912  1F38                     	;# 
   913  1F39                     	;# 
   914  1F3A                     	;# 
   915  1F3B                     	;# 
   916  1F3C                     	;# 
   917  1F3D                     	;# 
   918  1F3E                     	;# 
   919  1F3F                     	;# 
   920  1F4E                     	;# 
   921  1F4F                     	;# 
   922  1F50                     	;# 
   923  1F51                     	;# 
   924  1F52                     	;# 
   925  1F53                     	;# 
   926  1F54                     	;# 
   927  1F55                     	;# 
   928  1FE4                     	;# 
   929  1FE5                     	;# 
   930  1FE6                     	;# 
   931  1FE7                     	;# 
   932  1FE8                     	;# 
   933  1FE8                     	;# 
   934  1FE9                     	;# 
   935  1FEA                     	;# 
   936  1FEB                     	;# 
   937  1FED                     	;# 
   938  1FEE                     	;# 
   939  1FEF                     	;# 
   940  0000                     	;# 
   941  0001                     	;# 
   942  0002                     	;# 
   943  0003                     	;# 
   944  0004                     	;# 
   945  0005                     	;# 
   946  0006                     	;# 
   947  0007                     	;# 
   948  0008                     	;# 
   949  0009                     	;# 
   950  000A                     	;# 
   951  000B                     	;# 
   952  000C                     	;# 
   953  000E                     	;# 
   954  0012                     	;# 
   955  0014                     	;# 
   956  0018                     	;# 
   957  001A                     	;# 
   958  009A                     	;# 
   959  009B                     	;# 
   960  009B                     	;# 
   961  009C                     	;# 
   962  009D                     	;# 
   963  009E                     	;# 
   964  009F                     	;# 
   965  010E                     	;# 
   966  010F                     	;# 
   967  0119                     	;# 
   968  011A                     	;# 
   969  011B                     	;# 
   970  011B                     	;# 
   971  011C                     	;# 
   972  011D                     	;# 
   973  011E                     	;# 
   974  011F                     	;# 
   975  018C                     	;# 
   976  018D                     	;# 
   977  018E                     	;# 
   978  018F                     	;# 
   979  0190                     	;# 
   980  0191                     	;# 
   981  0192                     	;# 
   982  020C                     	;# 
   983  020D                     	;# 
   984  020E                     	;# 
   985  020E                     	;# 
   986  020F                     	;# 
   987  020F                     	;# 
   988  0210                     	;# 
   989  0210                     	;# 
   990  0211                     	;# 
   991  0211                     	;# 
   992  028C                     	;# 
   993  028C                     	;# 
   994  028D                     	;# 
   995  028D                     	;# 
   996  028E                     	;# 
   997  028F                     	;# 
   998  0290                     	;# 
   999  0291                     	;# 
  1000  030C                     	;# 
  1001  030C                     	;# 
  1002  030D                     	;# 
  1003  030E                     	;# 
  1004  030F                     	;# 
  1005  0310                     	;# 
  1006  0310                     	;# 
  1007  0311                     	;# 
  1008  0312                     	;# 
  1009  0313                     	;# 
  1010  0314                     	;# 
  1011  0314                     	;# 
  1012  0315                     	;# 
  1013  0316                     	;# 
  1014  0318                     	;# 
  1015  0318                     	;# 
  1016  0319                     	;# 
  1017  031A                     	;# 
  1018  059C                     	;# 
  1019  059C                     	;# 
  1020  059D                     	;# 
  1021  059D                     	;# 
  1022  059E                     	;# 
  1023  059F                     	;# 
  1024  070C                     	;# 
  1025  070D                     	;# 
  1026  070E                     	;# 
  1027  0716                     	;# 
  1028  0717                     	;# 
  1029  0718                     	;# 
  1030  080C                     	;# 
  1031  0811                     	;# 
  1032  0813                     	;# 
  1033  0814                     	;# 
  1034  081A                     	;# 
  1035  081A                     	;# 
  1036  081B                     	;# 
  1037  081C                     	;# 
  1038  081C                     	;# 
  1039  081D                     	;# 
  1040  081E                     	;# 
  1041  081F                     	;# 
  1042  088E                     	;# 
  1043  0890                     	;# 
  1044  0891                     	;# 
  1045  0892                     	;# 
  1046  0893                     	;# 
  1047  090C                     	;# 
  1048  1E8F                     	;# 
  1049  1E90                     	;# 
  1050  1E91                     	;# 
  1051  1E92                     	;# 
  1052  1E93                     	;# 
  1053  1E9C                     	;# 
  1054  1EA1                     	;# 
  1055  1EA2                     	;# 
  1056  1EC3                     	;# 
  1057  1EC5                     	;# 
  1058  1EC6                     	;# 
  1059  1EC7                     	;# 
  1060  1ECB                     	;# 
  1061  1ECB                     	;# 
  1062  1ECB                     	;# 
  1063  1ECC                     	;# 
  1064  1ECC                     	;# 
  1065  1ECC                     	;# 
  1066  1F10                     	;# 
  1067  1F11                     	;# 
  1068  1F12                     	;# 
  1069  1F14                     	;# 
  1070  1F15                     	;# 
  1071  1F20                     	;# 
  1072  1F21                     	;# 
  1073  1F22                     	;# 
  1074  1F23                     	;# 
  1075  1F24                     	;# 
  1076  1F25                     	;# 
  1077  1F38                     	;# 
  1078  1F39                     	;# 
  1079  1F3A                     	;# 
  1080  1F3B                     	;# 
  1081  1F3C                     	;# 
  1082  1F3D                     	;# 
  1083  1F3E                     	;# 
  1084  1F3F                     	;# 
  1085  1F4E                     	;# 
  1086  1F4F                     	;# 
  1087  1F50                     	;# 
  1088  1F51                     	;# 
  1089  1F52                     	;# 
  1090  1F53                     	;# 
  1091  1F54                     	;# 
  1092  1F55                     	;# 
  1093  1FE4                     	;# 
  1094  1FE5                     	;# 
  1095  1FE6                     	;# 
  1096  1FE7                     	;# 
  1097  1FE8                     	;# 
  1098  1FE8                     	;# 
  1099  1FE9                     	;# 
  1100  1FEA                     	;# 
  1101  1FEB                     	;# 
  1102  1FED                     	;# 
  1103  1FEE                     	;# 
  1104  1FEF                     	;# 
  1105  0000                     	;# 
  1106  0001                     	;# 
  1107  0002                     	;# 
  1108  0003                     	;# 
  1109  0004                     	;# 
  1110  0005                     	;# 
  1111  0006                     	;# 
  1112  0007                     	;# 
  1113  0008                     	;# 
  1114  0009                     	;# 
  1115  000A                     	;# 
  1116  000B                     	;# 
  1117  000C                     	;# 
  1118  000E                     	;# 
  1119  0012                     	;# 
  1120  0014                     	;# 
  1121  0018                     	;# 
  1122  001A                     	;# 
  1123  009A                     	;# 
  1124  009B                     	;# 
  1125  009B                     	;# 
  1126  009C                     	;# 
  1127  009D                     	;# 
  1128  009E                     	;# 
  1129  009F                     	;# 
  1130  010E                     	;# 
  1131  010F                     	;# 
  1132  0119                     	;# 
  1133  011A                     	;# 
  1134  011B                     	;# 
  1135  011B                     	;# 
  1136  011C                     	;# 
  1137  011D                     	;# 
  1138  011E                     	;# 
  1139  011F                     	;# 
  1140  018C                     	;# 
  1141  018D                     	;# 
  1142  018E                     	;# 
  1143  018F                     	;# 
  1144  0190                     	;# 
  1145  0191                     	;# 
  1146  0192                     	;# 
  1147  020C                     	;# 
  1148  020D                     	;# 
  1149  020E                     	;# 
  1150  020E                     	;# 
  1151  020F                     	;# 
  1152  020F                     	;# 
  1153  0210                     	;# 
  1154  0210                     	;# 
  1155  0211                     	;# 
  1156  0211                     	;# 
  1157  028C                     	;# 
  1158  028C                     	;# 
  1159  028D                     	;# 
  1160  028D                     	;# 
  1161  028E                     	;# 
  1162  028F                     	;# 
  1163  0290                     	;# 
  1164  0291                     	;# 
  1165  030C                     	;# 
  1166  030C                     	;# 
  1167  030D                     	;# 
  1168  030E                     	;# 
  1169  030F                     	;# 
  1170  0310                     	;# 
  1171  0310                     	;# 
  1172  0311                     	;# 
  1173  0312                     	;# 
  1174  0313                     	;# 
  1175  0314                     	;# 
  1176  0314                     	;# 
  1177  0315                     	;# 
  1178  0316                     	;# 
  1179  0318                     	;# 
  1180  0318                     	;# 
  1181  0319                     	;# 
  1182  031A                     	;# 
  1183  059C                     	;# 
  1184  059C                     	;# 
  1185  059D                     	;# 
  1186  059D                     	;# 
  1187  059E                     	;# 
  1188  059F                     	;# 
  1189  070C                     	;# 
  1190  070D                     	;# 
  1191  070E                     	;# 
  1192  0716                     	;# 
  1193  0717                     	;# 
  1194  0718                     	;# 
  1195  080C                     	;# 
  1196  0811                     	;# 
  1197  0813                     	;# 
  1198  0814                     	;# 
  1199  081A                     	;# 
  1200  081A                     	;# 
  1201  081B                     	;# 
  1202  081C                     	;# 
  1203  081C                     	;# 
  1204  081D                     	;# 
  1205  081E                     	;# 
  1206  081F                     	;# 
  1207  088E                     	;# 
  1208  0890                     	;# 
  1209  0891                     	;# 
  1210  0892                     	;# 
  1211  0893                     	;# 
  1212  090C                     	;# 
  1213  1E8F                     	;# 
  1214  1E90                     	;# 
  1215  1E91                     	;# 
  1216  1E92                     	;# 
  1217  1E93                     	;# 
  1218  1E9C                     	;# 
  1219  1EA1                     	;# 
  1220  1EA2                     	;# 
  1221  1EC3                     	;# 
  1222  1EC5                     	;# 
  1223  1EC6                     	;# 
  1224  1EC7                     	;# 
  1225  1ECB                     	;# 
  1226  1ECB                     	;# 
  1227  1ECB                     	;# 
  1228  1ECC                     	;# 
  1229  1ECC                     	;# 
  1230  1ECC                     	;# 
  1231  1F10                     	;# 
  1232  1F11                     	;# 
  1233  1F12                     	;# 
  1234  1F14                     	;# 
  1235  1F15                     	;# 
  1236  1F20                     	;# 
  1237  1F21                     	;# 
  1238  1F22                     	;# 
  1239  1F23                     	;# 
  1240  1F24                     	;# 
  1241  1F25                     	;# 
  1242  1F38                     	;# 
  1243  1F39                     	;# 
  1244  1F3A                     	;# 
  1245  1F3B                     	;# 
  1246  1F3C                     	;# 
  1247  1F3D                     	;# 
  1248  1F3E                     	;# 
  1249  1F3F                     	;# 
  1250  1F4E                     	;# 
  1251  1F4F                     	;# 
  1252  1F50                     	;# 
  1253  1F51                     	;# 
  1254  1F52                     	;# 
  1255  1F53                     	;# 
  1256  1F54                     	;# 
  1257  1F55                     	;# 
  1258  1FE4                     	;# 
  1259  1FE5                     	;# 
  1260  1FE6                     	;# 
  1261  1FE7                     	;# 
  1262  1FE8                     	;# 
  1263  1FE8                     	;# 
  1264  1FE9                     	;# 
  1265  1FEA                     	;# 
  1266  1FEB                     	;# 
  1267  1FED                     	;# 
  1268  1FEE                     	;# 
  1269  1FEF                     	;# 
  1270  0000                     	;# 
  1271  0001                     	;# 
  1272  0002                     	;# 
  1273  0003                     	;# 
  1274  0004                     	;# 
  1275  0005                     	;# 
  1276  0006                     	;# 
  1277  0007                     	;# 
  1278  0008                     	;# 
  1279  0009                     	;# 
  1280  000A                     	;# 
  1281  000B                     	;# 
  1282  000C                     	;# 
  1283  000E                     	;# 
  1284  0012                     	;# 
  1285  0014                     	;# 
  1286  0018                     	;# 
  1287  001A                     	;# 
  1288  009A                     	;# 
  1289  009B                     	;# 
  1290  009B                     	;# 
  1291  009C                     	;# 
  1292  009D                     	;# 
  1293  009E                     	;# 
  1294  009F                     	;# 
  1295  010E                     	;# 
  1296  010F                     	;# 
  1297  0119                     	;# 
  1298  011A                     	;# 
  1299  011B                     	;# 
  1300  011B                     	;# 
  1301  011C                     	;# 
  1302  011D                     	;# 
  1303  011E                     	;# 
  1304  011F                     	;# 
  1305  018C                     	;# 
  1306  018D                     	;# 
  1307  018E                     	;# 
  1308  018F                     	;# 
  1309  0190                     	;# 
  1310  0191                     	;# 
  1311  0192                     	;# 
  1312  020C                     	;# 
  1313  020D                     	;# 
  1314  020E                     	;# 
  1315  020E                     	;# 
  1316  020F                     	;# 
  1317  020F                     	;# 
  1318  0210                     	;# 
  1319  0210                     	;# 
  1320  0211                     	;# 
  1321  0211                     	;# 
  1322  028C                     	;# 
  1323  028C                     	;# 
  1324  028D                     	;# 
  1325  028D                     	;# 
  1326  028E                     	;# 
  1327  028F                     	;# 
  1328  0290                     	;# 
  1329  0291                     	;# 
  1330  030C                     	;# 
  1331  030C                     	;# 
  1332  030D                     	;# 
  1333  030E                     	;# 
  1334  030F                     	;# 
  1335  0310                     	;# 
  1336  0310                     	;# 
  1337  0311                     	;# 
  1338  0312                     	;# 
  1339  0313                     	;# 
  1340  0314                     	;# 
  1341  0314                     	;# 
  1342  0315                     	;# 
  1343  0316                     	;# 
  1344  0318                     	;# 
  1345  0318                     	;# 
  1346  0319                     	;# 
  1347  031A                     	;# 
  1348  059C                     	;# 
  1349  059C                     	;# 
  1350  059D                     	;# 
  1351  059D                     	;# 
  1352  059E                     	;# 
  1353  059F                     	;# 
  1354  070C                     	;# 
  1355  070D                     	;# 
  1356  070E                     	;# 
  1357  0716                     	;# 
  1358  0717                     	;# 
  1359  0718                     	;# 
  1360  080C                     	;# 
  1361  0811                     	;# 
  1362  0813                     	;# 
  1363  0814                     	;# 
  1364  081A                     	;# 
  1365  081A                     	;# 
  1366  081B                     	;# 
  1367  081C                     	;# 
  1368  081C                     	;# 
  1369  081D                     	;# 
  1370  081E                     	;# 
  1371  081F                     	;# 
  1372  088E                     	;# 
  1373  0890                     	;# 
  1374  0891                     	;# 
  1375  0892                     	;# 
  1376  0893                     	;# 
  1377  090C                     	;# 
  1378  1E8F                     	;# 
  1379  1E90                     	;# 
  1380  1E91                     	;# 
  1381  1E92                     	;# 
  1382  1E93                     	;# 
  1383  1E9C                     	;# 
  1384  1EA1                     	;# 
  1385  1EA2                     	;# 
  1386  1EC3                     	;# 
  1387  1EC5                     	;# 
  1388  1EC6                     	;# 
  1389  1EC7                     	;# 
  1390  1ECB                     	;# 
  1391  1ECB                     	;# 
  1392  1ECB                     	;# 
  1393  1ECC                     	;# 
  1394  1ECC                     	;# 
  1395  1ECC                     	;# 
  1396  1F10                     	;# 
  1397  1F11                     	;# 
  1398  1F12                     	;# 
  1399  1F14                     	;# 
  1400  1F15                     	;# 
  1401  1F20                     	;# 
  1402  1F21                     	;# 
  1403  1F22                     	;# 
  1404  1F23                     	;# 
  1405  1F24                     	;# 
  1406  1F25                     	;# 
  1407  1F38                     	;# 
  1408  1F39                     	;# 
  1409  1F3A                     	;# 
  1410  1F3B                     	;# 
  1411  1F3C                     	;# 
  1412  1F3D                     	;# 
  1413  1F3E                     	;# 
  1414  1F3F                     	;# 
  1415  1F4E                     	;# 
  1416  1F4F                     	;# 
  1417  1F50                     	;# 
  1418  1F51                     	;# 
  1419  1F52                     	;# 
  1420  1F53                     	;# 
  1421  1F54                     	;# 
  1422  1F55                     	;# 
  1423  1FE4                     	;# 
  1424  1FE5                     	;# 
  1425  1FE6                     	;# 
  1426  1FE7                     	;# 
  1427  1FE8                     	;# 
  1428  1FE8                     	;# 
  1429  1FE9                     	;# 
  1430  1FEA                     	;# 
  1431  1FEB                     	;# 
  1432  1FED                     	;# 
  1433  1FEE                     	;# 
  1434  1FEF                     	;# 
  1435  0000                     	;# 
  1436  0001                     	;# 
  1437  0002                     	;# 
  1438  0003                     	;# 
  1439  0004                     	;# 
  1440  0005                     	;# 
  1441  0006                     	;# 
  1442  0007                     	;# 
  1443  0008                     	;# 
  1444  0009                     	;# 
  1445  000A                     	;# 
  1446  000B                     	;# 
  1447  000C                     	;# 
  1448  000E                     	;# 
  1449  0012                     	;# 
  1450  0014                     	;# 
  1451  0018                     	;# 
  1452  001A                     	;# 
  1453  009A                     	;# 
  1454  009B                     	;# 
  1455  009B                     	;# 
  1456  009C                     	;# 
  1457  009D                     	;# 
  1458  009E                     	;# 
  1459  009F                     	;# 
  1460  010E                     	;# 
  1461  010F                     	;# 
  1462  0119                     	;# 
  1463  011A                     	;# 
  1464  011B                     	;# 
  1465  011B                     	;# 
  1466  011C                     	;# 
  1467  011D                     	;# 
  1468  011E                     	;# 
  1469  011F                     	;# 
  1470  018C                     	;# 
  1471  018D                     	;# 
  1472  018E                     	;# 
  1473  018F                     	;# 
  1474  0190                     	;# 
  1475  0191                     	;# 
  1476  0192                     	;# 
  1477  020C                     	;# 
  1478  020D                     	;# 
  1479  020E                     	;# 
  1480  020E                     	;# 
  1481  020F                     	;# 
  1482  020F                     	;# 
  1483  0210                     	;# 
  1484  0210                     	;# 
  1485  0211                     	;# 
  1486  0211                     	;# 
  1487  028C                     	;# 
  1488  028C                     	;# 
  1489  028D                     	;# 
  1490  028D                     	;# 
  1491  028E                     	;# 
  1492  028F                     	;# 
  1493  0290                     	;# 
  1494  0291                     	;# 
  1495  030C                     	;# 
  1496  030C                     	;# 
  1497  030D                     	;# 
  1498  030E                     	;# 
  1499  030F                     	;# 
  1500  0310                     	;# 
  1501  0310                     	;# 
  1502  0311                     	;# 
  1503  0312                     	;# 
  1504  0313                     	;# 
  1505  0314                     	;# 
  1506  0314                     	;# 
  1507  0315                     	;# 
  1508  0316                     	;# 
  1509  0318                     	;# 
  1510  0318                     	;# 
  1511  0319                     	;# 
  1512  031A                     	;# 
  1513  059C                     	;# 
  1514  059C                     	;# 
  1515  059D                     	;# 
  1516  059D                     	;# 
  1517  059E                     	;# 
  1518  059F                     	;# 
  1519  070C                     	;# 
  1520  070D                     	;# 
  1521  070E                     	;# 
  1522  0716                     	;# 
  1523  0717                     	;# 
  1524  0718                     	;# 
  1525  080C                     	;# 
  1526  0811                     	;# 
  1527  0813                     	;# 
  1528  0814                     	;# 
  1529  081A                     	;# 
  1530  081A                     	;# 
  1531  081B                     	;# 
  1532  081C                     	;# 
  1533  081C                     	;# 
  1534  081D                     	;# 
  1535  081E                     	;# 
  1536  081F                     	;# 
  1537  088E                     	;# 
  1538  0890                     	;# 
  1539  0891                     	;# 
  1540  0892                     	;# 
  1541  0893                     	;# 
  1542  090C                     	;# 
  1543  1E8F                     	;# 
  1544  1E90                     	;# 
  1545  1E91                     	;# 
  1546  1E92                     	;# 
  1547  1E93                     	;# 
  1548  1E9C                     	;# 
  1549  1EA1                     	;# 
  1550  1EA2                     	;# 
  1551  1EC3                     	;# 
  1552  1EC5                     	;# 
  1553  1EC6                     	;# 
  1554  1EC7                     	;# 
  1555  1ECB                     	;# 
  1556  1ECB                     	;# 
  1557  1ECB                     	;# 
  1558  1ECC                     	;# 
  1559  1ECC                     	;# 
  1560  1ECC                     	;# 
  1561  1F10                     	;# 
  1562  1F11                     	;# 
  1563  1F12                     	;# 
  1564  1F14                     	;# 
  1565  1F15                     	;# 
  1566  1F20                     	;# 
  1567  1F21                     	;# 
  1568  1F22                     	;# 
  1569  1F23                     	;# 
  1570  1F24                     	;# 
  1571  1F25                     	;# 
  1572  1F38                     	;# 
  1573  1F39                     	;# 
  1574  1F3A                     	;# 
  1575  1F3B                     	;# 
  1576  1F3C                     	;# 
  1577  1F3D                     	;# 
  1578  1F3E                     	;# 
  1579  1F3F                     	;# 
  1580  1F4E                     	;# 
  1581  1F4F                     	;# 
  1582  1F50                     	;# 
  1583  1F51                     	;# 
  1584  1F52                     	;# 
  1585  1F53                     	;# 
  1586  1F54                     	;# 
  1587  1F55                     	;# 
  1588  1FE4                     	;# 
  1589  1FE5                     	;# 
  1590  1FE6                     	;# 
  1591  1FE7                     	;# 
  1592  1FE8                     	;# 
  1593  1FE8                     	;# 
  1594  1FE9                     	;# 
  1595  1FEA                     	;# 
  1596  1FEB                     	;# 
  1597  1FED                     	;# 
  1598  1FEE                     	;# 
  1599  1FEF                     	;# 
  1600  0000                     	;# 
  1601  0001                     	;# 
  1602  0002                     	;# 
  1603  0003                     	;# 
  1604  0004                     	;# 
  1605  0005                     	;# 
  1606  0006                     	;# 
  1607  0007                     	;# 
  1608  0008                     	;# 
  1609  0009                     	;# 
  1610  000A                     	;# 
  1611  000B                     	;# 
  1612  000C                     	;# 
  1613  000E                     	;# 
  1614  0012                     	;# 
  1615  0014                     	;# 
  1616  0018                     	;# 
  1617  001A                     	;# 
  1618  009A                     	;# 
  1619  009B                     	;# 
  1620  009B                     	;# 
  1621  009C                     	;# 
  1622  009D                     	;# 
  1623  009E                     	;# 
  1624  009F                     	;# 
  1625  010E                     	;# 
  1626  010F                     	;# 
  1627  0119                     	;# 
  1628  011A                     	;# 
  1629  011B                     	;# 
  1630  011B                     	;# 
  1631  011C                     	;# 
  1632  011D                     	;# 
  1633  011E                     	;# 
  1634  011F                     	;# 
  1635  018C                     	;# 
  1636  018D                     	;# 
  1637  018E                     	;# 
  1638  018F                     	;# 
  1639  0190                     	;# 
  1640  0191                     	;# 
  1641  0192                     	;# 
  1642  020C                     	;# 
  1643  020D                     	;# 
  1644  020E                     	;# 
  1645  020E                     	;# 
  1646  020F                     	;# 
  1647  020F                     	;# 
  1648  0210                     	;# 
  1649  0210                     	;# 
  1650  0211                     	;# 
  1651  0211                     	;# 
  1652  028C                     	;# 
  1653  028C                     	;# 
  1654  028D                     	;# 
  1655  028D                     	;# 
  1656  028E                     	;# 
  1657  028F                     	;# 
  1658  0290                     	;# 
  1659  0291                     	;# 
  1660  030C                     	;# 
  1661  030C                     	;# 
  1662  030D                     	;# 
  1663  030E                     	;# 
  1664  030F                     	;# 
  1665  0310                     	;# 
  1666  0310                     	;# 
  1667  0311                     	;# 
  1668  0312                     	;# 
  1669  0313                     	;# 
  1670  0314                     	;# 
  1671  0314                     	;# 
  1672  0315                     	;# 
  1673  0316                     	;# 
  1674  0318                     	;# 
  1675  0318                     	;# 
  1676  0319                     	;# 
  1677  031A                     	;# 
  1678  059C                     	;# 
  1679  059C                     	;# 
  1680  059D                     	;# 
  1681  059D                     	;# 
  1682  059E                     	;# 
  1683  059F                     	;# 
  1684  070C                     	;# 
  1685  070D                     	;# 
  1686  070E                     	;# 
  1687  0716                     	;# 
  1688  0717                     	;# 
  1689  0718                     	;# 
  1690  080C                     	;# 
  1691  0811                     	;# 
  1692  0813                     	;# 
  1693  0814                     	;# 
  1694  081A                     	;# 
  1695  081A                     	;# 
  1696  081B                     	;# 
  1697  081C                     	;# 
  1698  081C                     	;# 
  1699  081D                     	;# 
  1700  081E                     	;# 
  1701  081F                     	;# 
  1702  088E                     	;# 
  1703  0890                     	;# 
  1704  0891                     	;# 
  1705  0892                     	;# 
  1706  0893                     	;# 
  1707  090C                     	;# 
  1708  1E8F                     	;# 
  1709  1E90                     	;# 
  1710  1E91                     	;# 
  1711  1E92                     	;# 
  1712  1E93                     	;# 
  1713  1E9C                     	;# 
  1714  1EA1                     	;# 
  1715  1EA2                     	;# 
  1716  1EC3                     	;# 
  1717  1EC5                     	;# 
  1718  1EC6                     	;# 
  1719  1EC7                     	;# 
  1720  1ECB                     	;# 
  1721  1ECB                     	;# 
  1722  1ECB                     	;# 
  1723  1ECC                     	;# 
  1724  1ECC                     	;# 
  1725  1ECC                     	;# 
  1726  1F10                     	;# 
  1727  1F11                     	;# 
  1728  1F12                     	;# 
  1729  1F14                     	;# 
  1730  1F15                     	;# 
  1731  1F20                     	;# 
  1732  1F21                     	;# 
  1733  1F22                     	;# 
  1734  1F23                     	;# 
  1735  1F24                     	;# 
  1736  1F25                     	;# 
  1737  1F38                     	;# 
  1738  1F39                     	;# 
  1739  1F3A                     	;# 
  1740  1F3B                     	;# 
  1741  1F3C                     	;# 
  1742  1F3D                     	;# 
  1743  1F3E                     	;# 
  1744  1F3F                     	;# 
  1745  1F4E                     	;# 
  1746  1F4F                     	;# 
  1747  1F50                     	;# 
  1748  1F51                     	;# 
  1749  1F52                     	;# 
  1750  1F53                     	;# 
  1751  1F54                     	;# 
  1752  1F55                     	;# 
  1753  1FE4                     	;# 
  1754  1FE5                     	;# 
  1755  1FE6                     	;# 
  1756  1FE7                     	;# 
  1757  1FE8                     	;# 
  1758  1FE8                     	;# 
  1759  1FE9                     	;# 
  1760  1FEA                     	;# 
  1761  1FEB                     	;# 
  1762  1FED                     	;# 
  1763  1FEE                     	;# 
  1764  1FEF                     	;_silent_night_pre
  1765                           
  1766                           	psect	idataBIGRAM
  1767  0555                     __pidataBIGRAM:
  1768                           
  1769                           ;initializer for _silent_night_pre
  1770  0555  34D0               	retlw	208
  1771  0556  34D0               	retlw	208
  1772  0557  34D0               	retlw	208
  1773  0558  34D0               	retlw	208
  1774  0559  34D0               	retlw	208
  1775  055A  34D0               	retlw	208
  1776  055B  34D0               	retlw	208
  1777  055C  34D0               	retlw	208
  1778  055D  34D0               	retlw	208
  1779  055E  34D0               	retlw	208
  1780  055F  34D0               	retlw	208
  1781  0560  34D0               	retlw	208
  1782  0561  34D0               	retlw	208
  1783  0562  34D0               	retlw	208
  1784  0563  34D0               	retlw	208
  1785  0564  34D0               	retlw	208
  1786  0565  34D0               	retlw	208
  1787  0566  34D0               	retlw	208
  1788  0567  34D0               	retlw	208
  1789  0568  34D0               	retlw	208
  1790  0569  34D0               	retlw	208
  1791  056A  34D0               	retlw	208
  1792  056B  34D0               	retlw	208
  1793  056C  34D0               	retlw	208
  1794  056D  34C0               	retlw	192
  1795  056E  34C0               	retlw	192
  1796  056F  34C0               	retlw	192
  1797  0570  34C0               	retlw	192
  1798  0571  34C0               	retlw	192
  1799  0572  34C0               	retlw	192
  1800  0573  34C0               	retlw	192
  1801  0574  34C0               	retlw	192
  1802  0575  34C0               	retlw	192
  1803  0576  34C0               	retlw	192
  1804  0577  34C0               	retlw	192
  1805  0578  34C0               	retlw	192
  1806  0579  34C0               	retlw	192
  1807  057A  34C0               	retlw	192
  1808  057B  34C0               	retlw	192
  1809  057C  34C0               	retlw	192
  1810  057D  34C0               	retlw	192
  1811  057E  34C0               	retlw	192
  1812  057F  34D0               	retlw	208
  1813  0580  34D0               	retlw	208
  1814  0581  34D0               	retlw	208
  1815  0582  34D0               	retlw	208
  1816  0583  34D0               	retlw	208
  1817  0584  34D0               	retlw	208
  1818  0585  34D0               	retlw	208
  1819  0586  34D0               	retlw	208
  1820  0587  34D0               	retlw	208
  1821  0588  34D0               	retlw	208
  1822  0589  34D0               	retlw	208
  1823  058A  34D0               	retlw	208
  1824  058B  34C0               	retlw	192
  1825  058C  34C0               	retlw	192
  1826  058D  34C0               	retlw	192
  1827  058E  34C0               	retlw	192
  1828  058F  34D0               	retlw	208
  1829  0590  34D0               	retlw	208
  1830  0591  34D0               	retlw	208
  1831  0592  34D0               	retlw	208
  1832  0593  34D0               	retlw	208
  1833  0594  34D0               	retlw	208
  1834  0595  34D0               	retlw	208
  1835  0596  34D0               	retlw	208
  1836  0597  34D0               	retlw	208
  1837  0598  34D0               	retlw	208
  1838  0599  34D0               	retlw	208
  1839  059A  34D0               	retlw	208
  1840  059B  34D0               	retlw	208
  1841  059C  34D0               	retlw	208
  1842  059D  34D0               	retlw	208
  1843  059E  34D0               	retlw	208
  1844  059F  34D0               	retlw	208
  1845  05A0  34D0               	retlw	208
  1846  05A1  34D0               	retlw	208
  1847  05A2  34D0               	retlw	208
  1848  05A3  34C0               	retlw	192
  1849  05A4  34C0               	retlw	192
  1850  05A5  34C0               	retlw	192
  1851  05A6  34C0               	retlw	192
  1852  05A7  34D0               	retlw	208
  1853  05A8  34D0               	retlw	208
  1854  05A9  34D0               	retlw	208
  1855  05AA  34D0               	retlw	208
  1856  05AB  34D0               	retlw	208
  1857  05AC  34D0               	retlw	208
  1858  05AD  34D0               	retlw	208
  1859  05AE  34D0               	retlw	208
  1860  05AF  34D0               	retlw	208
  1861  05B0  34D0               	retlw	208
  1862  05B1  34D0               	retlw	208
  1863  05B2  34D0               	retlw	208
  1864  05B3  34D0               	retlw	208
  1865  05B4  34D0               	retlw	208
  1866  05B5  34C0               	retlw	192
  1867  05B6  34C0               	retlw	192
  1868  05B7  34C0               	retlw	192
  1869  05B8  34C0               	retlw	192
  1870  05B9  34C0               	retlw	192
  1871  05BA  34C0               	retlw	192
  1872  05BB  34C0               	retlw	192
  1873  05BC  34C0               	retlw	192
  1874  05BD  34C0               	retlw	192
  1875  05BE  34C0               	retlw	192
  1876  05BF  34C0               	retlw	192
  1877  05C0  34C0               	retlw	192
  1878  05C1  34C0               	retlw	192
  1879  05C2  34C0               	retlw	192
  1880  05C3  34C0               	retlw	192
  1881  05C4  34C0               	retlw	192
  1882  05C5  34C0               	retlw	192
  1883  05C6  34C0               	retlw	192
  1884  05C7  34C0               	retlw	192
  1885  05C8  34C0               	retlw	192
  1886  05C9  34C0               	retlw	192
  1887  05CA  34C0               	retlw	192
  1888  05CB  34C0               	retlw	192
  1889  05CC  34C0               	retlw	192
  1890  05CD  34C0               	retlw	192
  1891  05CE  34C0               	retlw	192
  1892  05CF  34D0               	retlw	208
  1893  05D0  34D0               	retlw	208
  1894  05D1  34D0               	retlw	208
  1895  05D2  34D0               	retlw	208
  1896  05D3  34D0               	retlw	208
  1897  05D4  34D0               	retlw	208
  1898  05D5  34D0               	retlw	208
  1899  05D6  34D0               	retlw	208
  1900  05D7  34D0               	retlw	208
  1901  05D8  34D0               	retlw	208
  1902  05D9  34D0               	retlw	208
  1903  05DA  34D0               	retlw	208
  1904  05DB  34D0               	retlw	208
  1905  05DC  34D0               	retlw	208
  1906  05DD  34D0               	retlw	208
  1907  05DE  34D0               	retlw	208
  1908                           
  1909                           ;initializer for _silent_night
  1910  05DF  349E               	retlw	158
  1911  05E0  349E               	retlw	158
  1912  05E1  349E               	retlw	158
  1913  05E2  348D               	retlw	141
  1914  05E3  349E               	retlw	158
  1915  05E4  349E               	retlw	158
  1916  05E5  34BC               	retlw	188
  1917  05E6  34BC               	retlw	188
  1918  05E7  34BC               	retlw	188
  1919  05E8  34BC               	retlw	188
  1920  05E9  34BC               	retlw	188
  1921  05EA  34BC               	retlw	188
  1922  05EB  349E               	retlw	158
  1923  05EC  349E               	retlw	158
  1924  05ED  349E               	retlw	158
  1925  05EE  348D               	retlw	141
  1926  05EF  349E               	retlw	158
  1927  05F0  349E               	retlw	158
  1928  05F1  34BC               	retlw	188
  1929  05F2  34BC               	retlw	188
  1930  05F3  34BC               	retlw	188
  1931  05F4  34BC               	retlw	188
  1932  05F5  34BC               	retlw	188
  1933  05F6  34BC               	retlw	188
  1934  05F7  34D3               	retlw	211
  1935  05F8  34D3               	retlw	211
  1936  05F9  34D3               	retlw	211
  1937  05FA  34D3               	retlw	211
  1938  05FB  34D3               	retlw	211
  1939  05FC  34D3               	retlw	211
  1940  05FD  34FC               	retlw	252
  1941  05FE  34FC               	retlw	252
  1942  05FF  34FC               	retlw	252
  1943  0600  34FC               	retlw	252
  1944  0601  34FC               	retlw	252
  1945  0602  34FC               	retlw	252
  1946  0603  34EE               	retlw	238
  1947  0604  34EE               	retlw	238
  1948  0605  34EE               	retlw	238
  1949  0606  34EE               	retlw	238
  1950  0607  34EE               	retlw	238
  1951  0608  34EE               	retlw	238
  1952  0609  349E               	retlw	158
  1953  060A  349E               	retlw	158
  1954  060B  349E               	retlw	158
  1955  060C  349E               	retlw	158
  1956  060D  349E               	retlw	158
  1957  060E  349E               	retlw	158
  1958  060F  348D               	retlw	141
  1959  0610  348D               	retlw	141
  1960  0611  348D               	retlw	141
  1961  0612  348D               	retlw	141
  1962  0613  348D               	retlw	141
  1963  0614  348D               	retlw	141
  1964  0615  34ED               	retlw	237
  1965  0616  34ED               	retlw	237
  1966  0617  34ED               	retlw	237
  1967  0618  34FC               	retlw	252
  1968  0619  348D               	retlw	141
  1969  061A  348D               	retlw	141
  1970  061B  349E               	retlw	158
  1971  061C  349E               	retlw	158
  1972  061D  349E               	retlw	158
  1973  061E  348D               	retlw	141
  1974  061F  349E               	retlw	158
  1975  0620  349E               	retlw	158
  1976  0621  34BC               	retlw	188
  1977  0622  34BC               	retlw	188
  1978  0623  34BC               	retlw	188
  1979  0624  34BC               	retlw	188
  1980  0625  34BC               	retlw	188
  1981  0626  34BC               	retlw	188
  1982  0627  348D               	retlw	141
  1983  0628  348D               	retlw	141
  1984  0629  348D               	retlw	141
  1985  062A  348D               	retlw	141
  1986  062B  348D               	retlw	141
  1987  062C  348D               	retlw	141
  1988  062D  34ED               	retlw	237
  1989  062E  34ED               	retlw	237
  1990  062F  34ED               	retlw	237
  1991  0630  34FC               	retlw	252
  1992  0631  348D               	retlw	141
  1993  0632  348D               	retlw	141
  1994  0633  349E               	retlw	158
  1995  0634  349E               	retlw	158
  1996  0635  349E               	retlw	158
  1997  0636  348D               	retlw	141
  1998  0637  349E               	retlw	158
  1999  0638  349E               	retlw	158
  2000  0639  34BC               	retlw	188
  2001  063A  34BC               	retlw	188
  2002  063B  34BC               	retlw	188
  2003  063C  34BC               	retlw	188
  2004  063D  34BC               	retlw	188
  2005  063E  34BC               	retlw	188
  2006  063F  34D3               	retlw	211
  2007  0640  34D3               	retlw	211
  2008  0641  34D3               	retlw	211
  2009  0642  34D3               	retlw	211
  2010  0643  34D3               	retlw	211
  2011  0644  34D3               	retlw	211
  2012  0645  34B1               	retlw	177
  2013  0646  34B1               	retlw	177
  2014  0647  34B1               	retlw	177
  2015  0648  34D3               	retlw	211
  2016  0649  34FC               	retlw	252
  2017  064A  34FC               	retlw	252
  2018  064B  34ED               	retlw	237
  2019  064C  34ED               	retlw	237
  2020  064D  34ED               	retlw	237
  2021  064E  34ED               	retlw	237
  2022  064F  34ED               	retlw	237
  2023  0650  34ED               	retlw	237
  2024  0651  34BC               	retlw	188
  2025  0652  34BC               	retlw	188
  2026  0653  34BC               	retlw	188
  2027  0654  34BC               	retlw	188
  2028  0655  34BC               	retlw	188
  2029  0656  34BC               	retlw	188
  2030  0657  34ED               	retlw	237
  2031  0658  34ED               	retlw	237
  2032  0659  349E               	retlw	158
  2033  065A  349E               	retlw	158
  2034  065B  34BC               	retlw	188
  2035  065C  34BC               	retlw	188
  2036  065D  349E               	retlw	158
  2037  065E  349E               	retlw	158
  2038  065F  349E               	retlw	158
  2039  0660  34B1               	retlw	177
  2040  0661  34D3               	retlw	211
  2041  0662  34D3               	retlw	211
  2042  0663  34EE               	retlw	238
  2043  0664  34EE               	retlw	238
  2044  0665  34EE               	retlw	238
  2045  0666  34EE               	retlw	238
  2046  0667  34EE               	retlw	238
  2047  0668  34EE               	retlw	238
  2048                           
  2049                           ;initializer for _song3_pre
  2050  0669  34E0               	retlw	224
  2051  066A  34E0               	retlw	224
  2052  066B  34D0               	retlw	208
  2053  066C  34D0               	retlw	208
  2054  066D  34E0               	retlw	224
  2055  066E  34E0               	retlw	224
  2056  066F  34D0               	retlw	208
  2057  0670  34D0               	retlw	208
  2058  0671  34E0               	retlw	224
  2059  0672  34E0               	retlw	224
  2060  0673  34D0               	retlw	208
  2061  0674  34E0               	retlw	224
  2062  0675  3400               	retlw	0
  2063  0676  34E0               	retlw	224
  2064  0677  34D0               	retlw	208
  2065  0678  34D0               	retlw	208
  2066  0679  34E0               	retlw	224
  2067  067A  34E0               	retlw	224
  2068  067B  34D0               	retlw	208
  2069  067C  34D0               	retlw	208
  2070  067D  34E0               	retlw	224
  2071  067E  34E0               	retlw	224
  2072  067F  34D0               	retlw	208
  2073  0680  34D0               	retlw	208
  2074  0681  34E0               	retlw	224
  2075  0682  34E0               	retlw	224
  2076  0683  34D0               	retlw	208
  2077  0684  34E0               	retlw	224
  2078  0685  3400               	retlw	0
  2079  0686  34E0               	retlw	224
  2080  0687  34D0               	retlw	208
  2081  0688  34D0               	retlw	208
  2082  0689  34E0               	retlw	224
  2083  068A  34E0               	retlw	224
  2084  068B  34D0               	retlw	208
  2085  068C  34D0               	retlw	208
  2086  068D  34E0               	retlw	224
  2087  068E  34E0               	retlw	224
  2088  068F  34D0               	retlw	208
  2089  0690  34D0               	retlw	208
  2090  0691  34E0               	retlw	224
  2091  0692  34E0               	retlw	224
  2092  0693  34D0               	retlw	208
  2093  0694  34E0               	retlw	224
  2094  0695  3400               	retlw	0
  2095  0696  34E0               	retlw	224
  2096  0697  34D0               	retlw	208
  2097  0698  34D0               	retlw	208
  2098  0699  34E0               	retlw	224
  2099  069A  34E0               	retlw	224
  2100  069B  34D0               	retlw	208
  2101  069C  34D0               	retlw	208
  2102  069D  34E0               	retlw	224
  2103  069E  34E0               	retlw	224
  2104  069F  34D0               	retlw	208
  2105  06A0  34D0               	retlw	208
  2106  06A1  34E0               	retlw	224
  2107  06A2  34E0               	retlw	224
  2108  06A3  34D0               	retlw	208
  2109  06A4  34E0               	retlw	224
  2110  06A5  3400               	retlw	0
  2111  06A6  3400               	retlw	0
  2112  06A7  34D0               	retlw	208
  2113  06A8  34D0               	retlw	208
  2114  06A9  34D0               	retlw	208
  2115  06AA  34D0               	retlw	208
  2116  06AB  34D0               	retlw	208
  2117  06AC  34D0               	retlw	208
  2118  06AD  34D0               	retlw	208
  2119  06AE  34D0               	retlw	208
  2120  06AF  34D0               	retlw	208
  2121  06B0  34D0               	retlw	208
  2122  06B1  34D0               	retlw	208
  2123  06B2  34D0               	retlw	208
  2124  06B3  34D0               	retlw	208
  2125  06B4  34D0               	retlw	208
  2126  06B5  34D0               	retlw	208
  2127  06B6  34D0               	retlw	208
  2128  06B7  34D0               	retlw	208
  2129  06B8  34D0               	retlw	208
  2130  06B9  34D0               	retlw	208
  2131  06BA  34D0               	retlw	208
  2132  06BB  34D0               	retlw	208
  2133  06BC  34D0               	retlw	208
  2134  06BD  34D0               	retlw	208
  2135  06BE  34D0               	retlw	208
  2136  06BF  34D0               	retlw	208
  2137  06C0  34D0               	retlw	208
  2138  06C1  34D0               	retlw	208
  2139  06C2  34D0               	retlw	208
  2140  06C3  34D0               	retlw	208
  2141  06C4  34D0               	retlw	208
  2142  06C5  34D0               	retlw	208
  2143  06C6  34D0               	retlw	208
  2144  06C7  34D0               	retlw	208
  2145  06C8  34D0               	retlw	208
  2146  06C9  34D0               	retlw	208
  2147  06CA  34D0               	retlw	208
  2148  06CB  34D0               	retlw	208
  2149  06CC  34D0               	retlw	208
  2150  06CD  34D0               	retlw	208
  2151  06CE  34D0               	retlw	208
  2152  06CF  34D0               	retlw	208
  2153  06D0  34E0               	retlw	224
  2154  06D1  34E0               	retlw	224
  2155  06D2  34D0               	retlw	208
  2156  06D3  34D0               	retlw	208
  2157  06D4  34D0               	retlw	208
  2158  06D5  34D0               	retlw	208
  2159  06D6  34D0               	retlw	208
  2160  06D7  34D0               	retlw	208
  2161  06D8  34D0               	retlw	208
  2162  06D9  34D0               	retlw	208
  2163  06DA  34D0               	retlw	208
  2164  06DB  34D0               	retlw	208
  2165  06DC  34D0               	retlw	208
  2166  06DD  34D0               	retlw	208
  2167  06DE  34D0               	retlw	208
  2168  06DF  34D0               	retlw	208
  2169  06E0  34D0               	retlw	208
  2170  06E1  34D0               	retlw	208
  2171                           
  2172                           ;initializer for _song3
  2173  06E2  3400               	retlw	0
  2174  06E3  3400               	retlw	0
  2175  06E4  34D4               	retlw	212
  2176  06E5  34D4               	retlw	212
  2177  06E6  34D4               	retlw	212
  2178  06E7  34D4               	retlw	212
  2179  06E8  34D4               	retlw	212
  2180  06E9  34D4               	retlw	212
  2181  06EA  34D4               	retlw	212
  2182  06EB  34D4               	retlw	212
  2183  06EC  34D4               	retlw	212
  2184  06ED  34D4               	retlw	212
  2185  06EE  3400               	retlw	0
  2186  06EF  34D4               	retlw	212
  2187  06F0  34D4               	retlw	212
  2188  06F1  34D4               	retlw	212
  2189  06F2  34D4               	retlw	212
  2190  06F3  34D4               	retlw	212
  2191  06F4  34D4               	retlw	212
  2192  06F5  34D4               	retlw	212
  2193  06F6  34D4               	retlw	212
  2194  06F7  34D4               	retlw	212
  2195  06F8  34D4               	retlw	212
  2196  06F9  34D4               	retlw	212
  2197  06FA  34D4               	retlw	212
  2198  06FB  34D4               	retlw	212
  2199  06FC  34D4               	retlw	212
  2200  06FD  34D4               	retlw	212
  2201  06FE  3400               	retlw	0
  2202  06FF  34D4               	retlw	212
  2203  0700  34D4               	retlw	212
  2204  0701  34D4               	retlw	212
  2205  0702  3400               	retlw	0
  2206  0703  3400               	retlw	0
  2207  0704  34D4               	retlw	212
  2208  0705  34D4               	retlw	212
  2209  0706  34D4               	retlw	212
  2210  0707  34D4               	retlw	212
  2211  0708  34D4               	retlw	212
  2212  0709  34D4               	retlw	212
  2213  070A  34D4               	retlw	212
  2214  070B  34D4               	retlw	212
  2215  070C  34D4               	retlw	212
  2216  070D  34D4               	retlw	212
  2217  070E  3400               	retlw	0
  2218  070F  34D4               	retlw	212
  2219  0710  34D4               	retlw	212
  2220  0711  34D4               	retlw	212
  2221  0712  34D4               	retlw	212
  2222  0713  34D4               	retlw	212
  2223  0714  34D4               	retlw	212
  2224  0715  34D4               	retlw	212
  2225  0716  34D4               	retlw	212
  2226  0717  34D4               	retlw	212
  2227  0718  34D4               	retlw	212
  2228  0719  34D4               	retlw	212
  2229  071A  34D4               	retlw	212
  2230  071B  34D4               	retlw	212
  2231  071C  34D4               	retlw	212
  2232  071D  34D4               	retlw	212
  2233  071E  3400               	retlw	0
  2234  071F  3400               	retlw	0
  2235  0720  34ED               	retlw	237
  2236  0721  34D4               	retlw	212
  2237  0722  34B2               	retlw	178
  2238  0723  34B2               	retlw	178
  2239  0724  34B2               	retlw	178
  2240  0725  34B2               	retlw	178
  2241  0726  34B2               	retlw	178
  2242  0727  34B2               	retlw	178
  2243  0728  34B2               	retlw	178
  2244  0729  34D4               	retlw	212
  2245  072A  34EE               	retlw	238
  2246  072B  34B2               	retlw	178
  2247  072C  34B2               	retlw	178
  2248  072D  34D4               	retlw	212
  2249  072E  34B2               	retlw	178
  2250  072F  34B2               	retlw	178
  2251  0730  34B2               	retlw	178
  2252  0731  34D4               	retlw	212
  2253  0732  34EE               	retlw	238
  2254  0733  34D4               	retlw	212
  2255  0734  34B2               	retlw	178
  2256  0735  3400               	retlw	0
  2257  0736  3400               	retlw	0
  2258  0737  3400               	retlw	0
  2259  0738  3400               	retlw	0
  2260  0739  34D4               	retlw	212
  2261  073A  34EE               	retlw	238
  2262  073B  348D               	retlw	141
  2263  073C  349E               	retlw	158
  2264  073D  34B2               	retlw	178
  2265  073E  34B2               	retlw	178
  2266  073F  34B2               	retlw	178
  2267  0740  34B2               	retlw	178
  2268  0741  34B2               	retlw	178
  2269  0742  34D4               	retlw	212
  2270  0743  34EE               	retlw	238
  2271  0744  34B2               	retlw	178
  2272  0745  3400               	retlw	0
  2273  0746  3400               	retlw	0
  2274  0747  3400               	retlw	0
  2275  0748  3400               	retlw	0
  2276  0749  348D               	retlw	141
  2277  074A  348D               	retlw	141
  2278  074B  348D               	retlw	141
  2279  074C  348D               	retlw	141
  2280  074D  349E               	retlw	158
  2281  074E  349E               	retlw	158
  2282  074F  349E               	retlw	158
  2283  0750  349E               	retlw	158
  2284  0751  34B2               	retlw	178
  2285  0752  348D               	retlw	141
  2286  0753  348D               	retlw	141
  2287  0754  349E               	retlw	158
  2288  0755  34B2               	retlw	178
  2289  0756  34D4               	retlw	212
  2290  0757  34D4               	retlw	212
  2291  0758  34D4               	retlw	212
  2292  0759  3400               	retlw	0
  2293  075A  3400               	retlw	0
  2294                           
  2295                           ;initializer for _song2
  2296  075B  34EE               	retlw	238
  2297  075C  34EE               	retlw	238
  2298  075D  34BD               	retlw	189
  2299  075E  34BD               	retlw	189
  2300  075F  349E               	retlw	158
  2301  0760  349E               	retlw	158
  2302  0761  349E               	retlw	158
  2303  0762  349E               	retlw	158
  2304  0763  349E               	retlw	158
  2305  0764  349E               	retlw	158
  2306  0765  348D               	retlw	141
  2307  0766  348D               	retlw	141
  2308  0767  348D               	retlw	141
  2309  0768  348D               	retlw	141
  2310  0769  349E               	retlw	158
  2311  076A  349E               	retlw	158
  2312  076B  34BD               	retlw	189
  2313  076C  34BD               	retlw	189
  2314  076D  34BD               	retlw	189
  2315  076E  34BD               	retlw	189
  2316  076F  34BD               	retlw	189
  2317  0770  349E               	retlw	158
  2318  0771  348D               	retlw	141
  2319  0772  348D               	retlw	141
  2320  0773  348D               	retlw	141
  2321  0774  348D               	retlw	141
  2322  0775  348D               	retlw	141
  2323  0776  348D               	retlw	141
  2324  0777  349E               	retlw	158
  2325  0778  349E               	retlw	158
  2326  0779  349E               	retlw	158
  2327  077A  349E               	retlw	158
  2328  077B  349E               	retlw	158
  2329  077C  349E               	retlw	158
  2330  077D  3400               	retlw	0
  2331  077E  3400               	retlw	0
  2332  077F  34BD               	retlw	189
  2333  0780  349E               	retlw	158
  2334  0781  348D               	retlw	141
  2335  0782  348D               	retlw	141
  2336  0783  348D               	retlw	141
  2337  0784  348D               	retlw	141
  2338  0785  348D               	retlw	141
  2339  0786  348D               	retlw	141
  2340  0787  349E               	retlw	158
  2341  0788  349E               	retlw	158
  2342  0789  349E               	retlw	158
  2343  078A  349E               	retlw	158
  2344  078B  349E               	retlw	158
  2345  078C  349E               	retlw	158
  2346  078D  349E               	retlw	158
  2347  078E  349E               	retlw	158
  2348  078F  349E               	retlw	158
  2349  0790  34B2               	retlw	178
  2350  0791  34B2               	retlw	178
  2351  0792  34B2               	retlw	178
  2352  0793  34BD               	retlw	189
  2353  0794  34B2               	retlw	178
  2354  0795  34B2               	retlw	178
  2355  0796  34B2               	retlw	178
  2356  0797  349E               	retlw	158
  2357  0798  349E               	retlw	158
  2358  0799  348D               	retlw	141
  2359  079A  348D               	retlw	141
  2360  079B  349E               	retlw	158
  2361  079C  349E               	retlw	158
  2362  079D  34BD               	retlw	189
  2363  079E  34BD               	retlw	189
  2364  079F  349E               	retlw	158
  2365  07A0  349E               	retlw	158
  2366  07A1  349E               	retlw	158
  2367  07A2  349E               	retlw	158
  2368  07A3  349E               	retlw	158
  2369  07A4  349E               	retlw	158
  2370  07A5  348D               	retlw	141
  2371  07A6  348D               	retlw	141
  2372  07A7  349E               	retlw	158
  2373  07A8  349E               	retlw	158
  2374  07A9  349E               	retlw	158
  2375  07AA  349E               	retlw	158
  2376  07AB  34BD               	retlw	189
  2377  07AC  34BD               	retlw	189
  2378  07AD  34BD               	retlw	189
  2379  07AE  34BD               	retlw	189
  2380  07AF  34BD               	retlw	189
  2381  07B0  34BD               	retlw	189
  2382                           
  2383                           	psect	idataCOMMON
  2384  07FE                     __pidataCOMMON:
  2385                           
  2386                           ;initializer for _num_songs
  2387  07FE  3403               	retlw	3
  2388                           
  2389                           	psect	idataBANK0
  2390  0ED7                     __pidataBANK0:
  2391                           
  2392                           ;initializer for _dream_lights
  2393  0ED7  3400               	retlw	0
  2394  0ED8  34E8               	retlw	232
  2395  0ED9  34BE               	retlw	190
  2396  0EDA  34FE               	retlw	254
  2397  0EDB  34BD               	retlw	189
  2398  0EDC  34A0               	retlw	160
  2399  0EDD  3400               	retlw	0
  2400                           
  2401                           ;initializer for _song3_length
  2402  0EDE  3479               	retlw	121
  2403                           
  2404                           ;initializer for _timer_low_3
  2405  0EDF  3434               	retlw	52
  2406                           
  2407                           ;initializer for _timer_high_3
  2408  0EE0  34EA               	retlw	234
  2409                           
  2410                           ;initializer for _song2_length
  2411  0EE1  3485               	retlw	133
  2412                           
  2413                           ;initializer for _timer_low_2
  2414  0EE2  3425               	retlw	37
  2415                           
  2416                           ;initializer for _timer_high_2
  2417  0EE3  34E8               	retlw	232
  2418                           
  2419                           ;initializer for _light_array
  2420  0EE4  34FE               	retlw	254
  2421  0EE5  34FF               	retlw	255
  2422  0EE6  34FE               	retlw	254
  2423  0EE7  34FF               	retlw	255
  2424  0EE8  34FE               	retlw	254
  2425  0EE9  34FF               	retlw	255
  2426  0EEA  34FE               	retlw	254
  2427                           
  2428                           	psect	idataBANK1
  2429  0FCF                     __pidataBANK1:
  2430                           
  2431                           ;initializer for _song2_2
  2432  0FCF  348D               	retlw	141
  2433  0FD0  348D               	retlw	141
  2434  0FD1  348D               	retlw	141
  2435  0FD2  348D               	retlw	141
  2436  0FD3  348D               	retlw	141
  2437  0FD4  348D               	retlw	141
  2438  0FD5  34FC               	retlw	252
  2439  0FD6  34FC               	retlw	252
  2440  0FD7  34BD               	retlw	189
  2441  0FD8  34BD               	retlw	189
  2442  0FD9  34D4               	retlw	212
  2443  0FDA  34D4               	retlw	212
  2444  0FDB  34B2               	retlw	178
  2445  0FDC  34B2               	retlw	178
  2446  0FDD  348D               	retlw	141
  2447  0FDE  348D               	retlw	141
  2448  0FDF  349E               	retlw	158
  2449  0FE0  349E               	retlw	158
  2450  0FE1  349E               	retlw	158
  2451  0FE2  349E               	retlw	158
  2452  0FE3  348D               	retlw	141
  2453  0FE4  348D               	retlw	141
  2454  0FE5  348D               	retlw	141
  2455  0FE6  348D               	retlw	141
  2456  0FE7  349E               	retlw	158
  2457  0FE8  349E               	retlw	158
  2458  0FE9  34BD               	retlw	189
  2459  0FEA  34BD               	retlw	189
  2460  0FEB  34BD               	retlw	189
  2461  0FEC  34BD               	retlw	189
  2462  0FED  34EE               	retlw	238
  2463  0FEE  34D4               	retlw	212
  2464  0FEF  34BD               	retlw	189
  2465  0FF0  34BD               	retlw	189
  2466  0FF1  34BD               	retlw	189
  2467  0FF2  34D4               	retlw	212
  2468  0FF3  34D4               	retlw	212
  2469  0FF4  34D4               	retlw	212
  2470  0FF5  34EE               	retlw	238
  2471  0FF6  34EE               	retlw	238
  2472  0FF7  34EE               	retlw	238
  2473  0FF8  34EE               	retlw	238
  2474  0FF9  34EE               	retlw	238
  2475  0FFA  34EE               	retlw	238
  2476  0FFB  34EE               	retlw	238
  2477  0FFC  34EE               	retlw	238
  2478  0FFD  34EE               	retlw	238
  2479  0FFE  34EE               	retlw	238
  2480  0FFF  3400               	retlw	0
  2481                           
  2482                           	psect	stringtext1
  2483  1000                     __pstringtext1:
  2484  1000                     _spi1_configuration:
  2485  1000  3400               	retlw	0
  2486  1001  3440               	retlw	64
  2487  1002  3401               	retlw	1
  2488  1003  3400               	retlw	0
  2489  1004                     __end_of_spi1_configuration:
  2490                           
  2491                           	psect	stringtext2
  2492  1004                     __pstringtext2:
  2493  1004                     _a:
  2494  1004  348D               	retlw	141
  2495  1005                     __end_of_a:
  2496                           
  2497                           	psect	stringtext3
  2498  1005                     __pstringtext3:
  2499  1005                     _g:
  2500  1005  349E               	retlw	158
  2501  1006                     __end_of_g:
  2502                           
  2503                           	psect	stringtext4
  2504  1006                     __pstringtext4:
  2505  1006                     _f:
  2506  1006  34B2               	retlw	178
  2507  1007                     __end_of_f:
  2508                           
  2509                           	psect	stringtext5
  2510  1007                     __pstringtext5:
  2511  1007                     _e:
  2512  1007  34BD               	retlw	189
  2513  1008                     __end_of_e:
  2514                           
  2515                           	psect	stringtext6
  2516  1008                     __pstringtext6:
  2517  1008                     _d:
  2518  1008  34D4               	retlw	212
  2519  1009                     __end_of_d:
  2520                           
  2521                           	psect	stringtext7
  2522  1009                     __pstringtext7:
  2523  1009                     _c:
  2524  1009  34EE               	retlw	238
  2525  100A                     __end_of_c:
  2526                           
  2527                           	psect	stringtext8
  2528  100A                     __pstringtext8:
  2529  100A                     _b:
  2530  100A  34FC               	retlw	252
  2531  100B                     __end_of_b:
  2532                           
  2533                           	psect	nvCOMMON
  2534  0077                     __pnvCOMMON:
  2535  0077                     _timer0ReloadVal16bit:
  2536  0077                     	ds	2
  2537                           
  2538                           	psect	nvBANK0
  2539  0055                     __pnvBANK0:
  2540  0055                     _TMR1_InterruptHandler:
  2541  0055                     	ds	2
  2542  0057                     _timer1ReloadVal:
  2543  0057                     	ds	2
  2544  0059                     _TMR0_InterruptHandler:
  2545  0059                     	ds	2
  2546  005B                     _INT_InterruptHandler:
  2547  005B                     	ds	2
  2548  001A                     _LATCbits	set	26
  2549  0012                     _TRISAbits	set	18
  2550  000B                     _INTCONbits	set	11
  2551  0014                     _TRISC	set	20
  2552  0012                     _TRISA	set	18
  2553  001A                     _LATC	set	26
  2554  0018                     _LATA	set	24
  2555  0014                     _TRISCbits	set	20
  2556  018C                     _SSP1BUF	set	396
  2557  0191                     _SSP1CON2	set	401
  2558  0190                     _SSP1CON1bits	set	400
  2559  018D                     _SSP1ADD	set	397
  2560  0190                     _SSP1CON1	set	400
  2561  018F                     _SSP1STAT	set	399
  2562  020F                     _T1GCONbits	set	527
  2563  020E                     _T1CONbits	set	526
  2564  020E                     _T1CON	set	526
  2565  020C                     _TMR1L	set	524
  2566  020D                     _TMR1H	set	525
  2567  0211                     _T1CLK	set	529
  2568  0210                     _T1GATE	set	528
  2569  020F                     _T1GCON	set	527
  2570  028D                     _PR2	set	653
  2571  028C                     _TMR2	set	652
  2572  028E                     _T2CONbits	set	654
  2573  0291                     _T2RSTbits	set	657
  2574  028F                     _T2HLTbits	set	655
  2575  028E                     _T2CON	set	654
  2576  028C                     _T2TMR	set	652
  2577  028D                     _T2PR	set	653
  2578  0291                     _T2RST	set	657
  2579  028F                     _T2HLT	set	655
  2580  0290                     _T2CLKCON	set	656
  2581  0314                     _PWM3DCL	set	788
  2582  0315                     _PWM3DCH	set	789
  2583  0316                     _PWM3CON	set	790
  2584  059E                     _T0CON0bits	set	1438
  2585  059E                     _T0CON0	set	1438
  2586  059C                     _TMR0L	set	1436
  2587  059D                     _TMR0H	set	1437
  2588  059F                     _T0CON1	set	1439
  2589  0717                     _PIE1bits	set	1815
  2590  070C                     _PIR0bits	set	1804
  2591  0716                     _PIE0bits	set	1814
  2592  070D                     _PIR1bits	set	1805
  2593  080C                     _WDTCON	set	2060
  2594  0892                     _OSCTUNE	set	2194
  2595  0893                     _OSCFRQ	set	2195
  2596  0891                     _OSCEN	set	2193
  2597  1E90                     _INTPPS	set	7824
  2598  1EC6                     _SSP1DATPPS	set	7878
  2599  1EC5                     _SSP1CLKPPS	set	7877
  2600  1F15                     _RA5PPS	set	7957
  2601  1F52                     _INLVLC	set	8018
  2602  1F3C                     _INLVLA	set	7996
  2603  1F51                     _SLRCONC	set	8017
  2604  1F3B                     _SLRCONA	set	7995
  2605  1F50                     _ODCONC	set	8016
  2606  1F3A                     _ODCONA	set	7994
  2607  1F4F                     _WPUC	set	8015
  2608  1F39                     _WPUA	set	7993
  2609  1F38                     _ANSELA	set	7992
  2610  1F4E                     _ANSELC	set	8014
  2611  1F23                     _RC3PPS	set	7971
  2612  1F25                     _RC5PPS	set	7973
  2613                           
  2614                           	psect	cinit
  2615  0033                     start_initialization:	
  2616                           ; #config settings
  2617                           
  2618  0033                     __initialization:	;BIGRAM
  2619                           
  2620                           ; Initialize objects allocated to BIGRAM
  2621  0033  3055               	movlw	low __pidataBIGRAM
  2622  0034  0084               	movwf	4
  2623  0035  3085               	movlw	(high __pidataBIGRAM)| (0+128)
  2624  0036  0085               	movwf	5
  2625  0037  3094               	movlw	low (0+8596)
  2626  0038  0086               	movwf	6
  2627  0039  3021               	movlw	high (0+8596)
  2628  003A  0087               	movwf	7
  2629  003B  3002               	movlw	2
  2630  003C  00FF               	movwf	btemp+1
  2631  003D  305C               	movlw	92
  2632  003E  318E  2675  3180   	fcall	init_ram
  2633                           
  2634                           ; Initialize objects allocated to COMMON
  2635  0041  3187  27FE  3180   	fcall	__pidataCOMMON	;fetch initializer
  2636  0044  00F9               	movwf	__pdataCOMMON& (0+127)
  2637                           
  2638                           ; Initialize objects allocated to BANK0
  2639  0045  30D7               	movlw	low __pidataBANK0
  2640  0046  0084               	movwf	4
  2641  0047  308E               	movlw	(high __pidataBANK0)| (0+128)
  2642  0048  0085               	movwf	5
  2643  0049  3037               	movlw	low __pdataBANK0
  2644  004A  0086               	movwf	6
  2645  004B  3000               	movlw	high __pdataBANK0
  2646  004C  0087               	movwf	7
  2647  004D  3000               	movlw	0
  2648  004E  00FF               	movwf	btemp+1
  2649  004F  3014               	movlw	20
  2650  0050  318E  2675  3180   	fcall	init_ram
  2651                           
  2652                           ; Initialize objects allocated to BANK1
  2653  0053  30CF               	movlw	low __pidataBANK1
  2654  0054  0084               	movwf	4
  2655  0055  308F               	movlw	(high __pidataBANK1)| (0+128)
  2656  0056  0085               	movwf	5
  2657  0057  30A0               	movlw	low __pdataBANK1
  2658  0058  0086               	movwf	6
  2659  0059  3000               	movlw	high __pdataBANK1
  2660  005A  0087               	movwf	7
  2661  005B  3000               	movlw	0
  2662  005C  00FF               	movwf	btemp+1
  2663  005D  3031               	movlw	49
  2664  005E  318E  2675  3180   	fcall	init_ram
  2665                           
  2666                           ; Clear objects allocated to BANK0
  2667  0061  01CB               	clrf	__pbssBANK0& (0+127)
  2668  0062  01CC               	clrf	(__pbssBANK0+1)& (0+127)
  2669  0063  01CD               	clrf	(__pbssBANK0+2)& (0+127)
  2670  0064  01CE               	clrf	(__pbssBANK0+3)& (0+127)
  2671  0065  01CF               	clrf	(__pbssBANK0+4)& (0+127)
  2672  0066  01D0               	clrf	(__pbssBANK0+5)& (0+127)
  2673  0067  01D1               	clrf	(__pbssBANK0+6)& (0+127)
  2674  0068  01D2               	clrf	(__pbssBANK0+7)& (0+127)
  2675  0069  01D3               	clrf	(__pbssBANK0+8)& (0+127)
  2676  006A  01D4               	clrf	(__pbssBANK0+9)& (0+127)
  2677  006B                     end_of_initialization:	
  2678                           ;End of C runtime variable initialization code
  2679                           
  2680  006B                     __end_of__initialization:
  2681  006B  107E               	bcf	int$flags,0	;clear compiler interrupt flag (level 1)
  2682  006C  0140               	movlb	0
  2683  006D  3180  286F         	ljmp	_main	;jump to C main() function
  2684                           
  2685                           	psect	bssCOMMON
  2686  0000                     __pbssCOMMON:
  2687  0000                     _song2_pre:
  2688  0000                     	ds	0
  2689                           
  2690                           	psect	dataCOMMON
  2691  0079                     __pdataCOMMON:
  2692  0079                     _num_songs:
  2693  0079                     	ds	1
  2694                           
  2695                           	psect	bssBANK0
  2696  004B                     __pbssBANK0:
  2697  004B                     _count:
  2698  004B                     	ds	2
  2699  004D                     _change_lights:
  2700  004D                     	ds	1
  2701  004E                     _presses:
  2702  004E                     	ds	1
  2703  004F                     _last_prescale:
  2704  004F                     	ds	1
  2705  0050                     _last_note:
  2706  0050                     	ds	1
  2707  0051                     _TMR0_complete:
  2708  0051                     	ds	1
  2709  0052                     _song2_playing:
  2710  0052                     	ds	1
  2711  0053                     _song3_playing:
  2712  0053                     	ds	1
  2713  0054                     _silent_night_playing:
  2714  0054                     	ds	1
  2715                           
  2716                           	psect	dataBANK0
  2717  0037                     __pdataBANK0:
  2718  0037                     _dream_lights:
  2719  0037                     	ds	7
  2720  003E                     _song3_length:
  2721  003E                     	ds	1
  2722  003F                     _timer_low_3:
  2723  003F                     	ds	1
  2724  0040                     _timer_high_3:
  2725  0040                     	ds	1
  2726  0041                     _song2_length:
  2727  0041                     	ds	1
  2728  0042                     _timer_low_2:
  2729  0042                     	ds	1
  2730  0043                     _timer_high_2:
  2731  0043                     	ds	1
  2732  0044                     _light_array:
  2733  0044                     	ds	7
  2734                           
  2735                           	psect	dataBANK1
  2736  00A0                     __pdataBANK1:
  2737  00A0                     _song2_2:
  2738  00A0                     	ds	49
  2739                           
  2740                           	psect	inittext
  2741  0E75                     init_ram:
  2742  0E75  00FE               	movwf	btemp
  2743  0E76                     initloop:
  2744  0E76  0012               	moviw fsr0++
  2745  0E77  001E               	movwi fsr1++
  2746  0E78  3001               	movlw	1
  2747  0E79  02FE               	subwf	btemp,f
  2748  0E7A  3000               	movlw	0
  2749  0E7B  3BFF               	subwfb	btemp+1,f
  2750  0E7C  087F               	movf	btemp+1,w
  2751  0E7D  047E               	iorwf	btemp,w
  2752  0E7E  1D03               	skipz
  2753  0E7F  2E76               	goto	initloop
  2754  0E80  3400               	retlw	0
  2755                           
  2756                           	psect	cstackBANK1
  2757  00D1                     __pcstackBANK1:
  2758  00D1                     ??_main:
  2759                           
  2760                           ; 1 bytes @ 0x0
  2761  00D1                     	ds	5
  2762  00D6                     main@light:
  2763                           
  2764                           ; 1 bytes @ 0x5
  2765  00D6                     	ds	1
  2766  00D7                     main@pre:
  2767                           
  2768                           ; 1 bytes @ 0x6
  2769  00D7                     	ds	1
  2770  00D8                     main@j:
  2771                           
  2772                           ; 2 bytes @ 0x7
  2773  00D8                     	ds	2
  2774  00DA                     main@i:
  2775                           
  2776                           ; 2 bytes @ 0x9
  2777  00DA                     	ds	2
  2778  00DC                     main@j_1174:
  2779                           
  2780                           ; 2 bytes @ 0xB
  2781  00DC                     	ds	2
  2782  00DE                     main@j_1176:
  2783                           
  2784                           ; 2 bytes @ 0xD
  2785  00DE                     	ds	2
  2786                           
  2787                           	psect	cstackCOMMON
  2788  0070                     __pcstackCOMMON:
  2789  0070                     ?_SPI1_Initialize:
  2790  0070                     ?_PIN_MANAGER_Initialize:	
  2791                           ; 1 bytes @ 0x0
  2792                           
  2793  0070                     ?_OSCILLATOR_Initialize:	
  2794                           ; 1 bytes @ 0x0
  2795                           
  2796  0070                     ?_WDT_Initialize:	
  2797                           ; 1 bytes @ 0x0
  2798                           
  2799  0070                     ?_PWM3_Initialize:	
  2800                           ; 1 bytes @ 0x0
  2801                           
  2802  0070                     ?_TMR2_Initialize:	
  2803                           ; 1 bytes @ 0x0
  2804                           
  2805  0070                     ?_TMR1_Initialize:	
  2806                           ; 1 bytes @ 0x0
  2807                           
  2808  0070                     ?_EXT_INT_Initialize:	
  2809                           ; 1 bytes @ 0x0
  2810                           
  2811  0070                     ?_TMR0_Initialize:	
  2812                           ; 1 bytes @ 0x0
  2813                           
  2814  0070                     ?_TMR0_ISR:	
  2815                           ; 1 bytes @ 0x0
  2816                           
  2817  0070                     ??_TMR0_ISR:	
  2818                           ; 1 bytes @ 0x0
  2819                           
  2820  0070                     ?_INT_ISR:	
  2821                           ; 1 bytes @ 0x0
  2822                           
  2823  0070                     ?_TMR1_ISR:	
  2824                           ; 1 bytes @ 0x0
  2825                           
  2826  0070                     ?_INT_CallBack:	
  2827                           ; 1 bytes @ 0x0
  2828                           
  2829  0070                     ?_TMR0_DefaultInterruptHandler:	
  2830                           ; 1 bytes @ 0x0
  2831                           
  2832  0070                     ??_TMR0_DefaultInterruptHandler:	
  2833                           ; 1 bytes @ 0x0
  2834                           
  2835  0070                     ?_TMR1_DefaultInterruptHandler:	
  2836                           ; 1 bytes @ 0x0
  2837                           
  2838  0070                     ??_TMR1_DefaultInterruptHandler:	
  2839                           ; 1 bytes @ 0x0
  2840                           
  2841  0070                     ?_EXT_ISR:	
  2842                           ; 1 bytes @ 0x0
  2843                           
  2844  0070                     ??_EXT_ISR:	
  2845                           ; 1 bytes @ 0x0
  2846                           
  2847  0070                     ?_TMR0_ISR_:	
  2848                           ; 1 bytes @ 0x0
  2849                           
  2850  0070                     ??_TMR0_ISR_:	
  2851                           ; 1 bytes @ 0x0
  2852                           
  2853  0070                     ?_TMR1_ISR_:	
  2854                           ; 1 bytes @ 0x0
  2855                           
  2856  0070                     ??_TMR1_ISR_:	
  2857                           ; 1 bytes @ 0x0
  2858                           
  2859  0070                     ?_displayMatrix:	
  2860                           ; 1 bytes @ 0x0
  2861                           
  2862  0070                     ?_SYSTEM_Initialize:	
  2863                           ; 1 bytes @ 0x0
  2864                           
  2865  0070                     ?_SPI1_ExchangeByte:	
  2866                           ; 1 bytes @ 0x0
  2867                           
  2868  0070                     ?_INTERRUPT_InterruptManager:	
  2869                           ; 1 bytes @ 0x0
  2870                           
  2871  0070                     ?_INT_DefaultInterruptHandler:	
  2872                           ; 1 bytes @ 0x0
  2873                           
  2874  0070                     ??_INT_DefaultInterruptHandler:	
  2875                           ; 1 bytes @ 0x0
  2876                           
  2877  0070                     ?_TMR0_Reload:	
  2878                           ; 1 bytes @ 0x0
  2879                           
  2880  0070                     ??_TMR0_Reload:	
  2881                           ; 1 bytes @ 0x0
  2882                           
  2883  0070                     ?_TMR1_WriteTimer:	
  2884                           ; 1 bytes @ 0x0
  2885                           
  2886  0070                     ?_main:	
  2887                           ; 1 bytes @ 0x0
  2888                           
  2889  0070                     TMR1_WriteTimer@timerVal:	
  2890                           ; 1 bytes @ 0x0
  2891                           
  2892                           
  2893                           ; 2 bytes @ 0x0
  2894  0070                     	ds	1
  2895  0071                     ??_INT_ISR:
  2896  0071                     ??_INT_CallBack:	
  2897                           ; 1 bytes @ 0x1
  2898                           
  2899                           
  2900                           ; 1 bytes @ 0x1
  2901  0071                     	ds	1
  2902  0072                     ??_SPI1_Initialize:
  2903  0072                     ??_PIN_MANAGER_Initialize:	
  2904                           ; 1 bytes @ 0x2
  2905                           
  2906  0072                     ??_OSCILLATOR_Initialize:	
  2907                           ; 1 bytes @ 0x2
  2908                           
  2909  0072                     ??_WDT_Initialize:	
  2910                           ; 1 bytes @ 0x2
  2911                           
  2912  0072                     ??_PWM3_Initialize:	
  2913                           ; 1 bytes @ 0x2
  2914                           
  2915  0072                     ??_TMR2_Initialize:	
  2916                           ; 1 bytes @ 0x2
  2917                           
  2918  0072                     ??_TMR1_ISR:	
  2919                           ; 1 bytes @ 0x2
  2920                           
  2921  0072                     ?_TMR0_SetInterruptHandler:	
  2922                           ; 1 bytes @ 0x2
  2923                           
  2924  0072                     ?_TMR1_SetInterruptHandler:	
  2925                           ; 1 bytes @ 0x2
  2926                           
  2927  0072                     ?_playNote:	
  2928                           ; 1 bytes @ 0x2
  2929                           
  2930  0072                     ??_SPI1_ExchangeByte:	
  2931                           ; 1 bytes @ 0x2
  2932                           
  2933  0072                     ??_INTERRUPT_InterruptManager:	
  2934                           ; 1 bytes @ 0x2
  2935                           
  2936  0072                     ?_INT_SetInterruptHandler:	
  2937                           ; 1 bytes @ 0x2
  2938                           
  2939  0072                     ??_TMR1_WriteTimer:	
  2940                           ; 1 bytes @ 0x2
  2941                           
  2942  0072                     SPI1_ExchangeByte@data:	
  2943                           ; 1 bytes @ 0x2
  2944                           
  2945  0072                     playNote@prescale:	
  2946                           ; 1 bytes @ 0x2
  2947                           
  2948  0072                     INT_SetInterruptHandler@InterruptHandler:	
  2949                           ; 1 bytes @ 0x2
  2950                           
  2951  0072                     TMR0_SetInterruptHandler@InterruptHandler:	
  2952                           ; 2 bytes @ 0x2
  2953                           
  2954  0072                     TMR1_SetInterruptHandler@InterruptHandler:	
  2955                           ; 2 bytes @ 0x2
  2956                           
  2957                           
  2958                           ; 2 bytes @ 0x2
  2959  0072                     	ds	1
  2960  0073                     ?_shiftBytes:
  2961  0073                     ??_playNote:	
  2962                           ; 1 bytes @ 0x3
  2963                           
  2964  0073                     shiftBytes@lowSide:	
  2965                           ; 1 bytes @ 0x3
  2966                           
  2967                           
  2968                           ; 1 bytes @ 0x3
  2969  0073                     	ds	1
  2970  0074                     ??_TMR1_Initialize:
  2971  0074                     ??_EXT_INT_Initialize:	
  2972                           ; 1 bytes @ 0x4
  2973                           
  2974  0074                     ??_TMR0_Initialize:	
  2975                           ; 1 bytes @ 0x4
  2976                           
  2977  0074                     ??_TMR0_SetInterruptHandler:	
  2978                           ; 1 bytes @ 0x4
  2979                           
  2980  0074                     ??_TMR1_SetInterruptHandler:	
  2981                           ; 1 bytes @ 0x4
  2982                           
  2983  0074                     ??_shiftBytes:	
  2984                           ; 1 bytes @ 0x4
  2985                           
  2986  0074                     ??_SYSTEM_Initialize:	
  2987                           ; 1 bytes @ 0x4
  2988                           
  2989  0074                     ??_INT_SetInterruptHandler:	
  2990                           ; 1 bytes @ 0x4
  2991                           
  2992  0074                     playNote@note:	
  2993                           ; 1 bytes @ 0x4
  2994                           
  2995  0074                     shiftBytes@highSide:	
  2996                           ; 1 bytes @ 0x4
  2997                           
  2998                           
  2999                           ; 1 bytes @ 0x4
  3000  0074                     	ds	1
  3001  0075                     ??_displayMatrix:
  3002                           
  3003                           ; 1 bytes @ 0x5
  3004  0075                     	ds	2
  3005                           
  3006                           	psect	cstackBANK0
  3007  0020                     __pcstackBANK0:
  3008  0020                     TMR1_ISR_@lights:
  3009                           
  3010                           ; 1 bytes @ 0x0
  3011  0020                     	ds	1
  3012  0021                     TMR1_ISR_@lights_1187:
  3013                           
  3014                           ; 1 bytes @ 0x1
  3015  0021                     	ds	1
  3016  0022                     TMR1_ISR_@dream_sw:
  3017                           
  3018                           ; 1 bytes @ 0x2
  3019  0022                     	ds	1
  3020  0023                     TMR1_ISR_@i_1190:
  3021                           
  3022                           ; 2 bytes @ 0x3
  3023  0023                     	ds	2
  3024  0025                     TMR1_ISR_@i_1193:
  3025                           
  3026                           ; 2 bytes @ 0x5
  3027  0025                     	ds	2
  3028  0027                     TMR1_ISR_@i_1185:
  3029                           
  3030                           ; 2 bytes @ 0x7
  3031  0027                     	ds	2
  3032  0029                     TMR1_ISR_@i_1188:
  3033                           
  3034                           ; 2 bytes @ 0x9
  3035  0029                     	ds	2
  3036  002B                     TMR1_ISR_@i_1189:
  3037                           
  3038                           ; 2 bytes @ 0xB
  3039  002B                     	ds	2
  3040  002D                     TMR1_ISR_@i_1192:
  3041                           
  3042                           ; 2 bytes @ 0xD
  3043  002D                     	ds	2
  3044  002F                     TMR1_ISR_@i:
  3045                           
  3046                           ; 2 bytes @ 0xF
  3047  002F                     	ds	2
  3048  0031                     TMR1_ISR_@i_1186:
  3049                           
  3050                           ; 2 bytes @ 0x11
  3051  0031                     	ds	2
  3052  0033                     displayMatrix@states:
  3053                           
  3054                           ; 1 bytes @ 0x13
  3055  0033                     	ds	1
  3056  0034                     displayMatrix@i:
  3057                           
  3058                           ; 2 bytes @ 0x14
  3059  0034                     	ds	2
  3060  0036                     displayMatrix@lowSide:
  3061                           
  3062                           ; 1 bytes @ 0x16
  3063  0036                     	ds	1
  3064                           
  3065                           	psect	maintext
  3066  006F                     __pmaintext:	
  3067 ;;
  3068 ;;Main: autosize = 0, tempsize = 5, incstack = 0, save=0
  3069 ;;
  3070 ;; *************** function _main *****************
  3071 ;; Defined at:
  3072 ;;		line 282 in file "main.c"
  3073 ;; Parameters:    Size  Location     Type
  3074 ;;		None
  3075 ;; Auto vars:     Size  Location     Type
  3076 ;;  light           1    0        unsigned char 
  3077 ;;  light           1    5[BANK1 ] unsigned char 
  3078 ;;  pre             1    6[BANK1 ] unsigned char 
  3079 ;;  j               2   13[BANK1 ] int 
  3080 ;;  j               2   11[BANK1 ] int 
  3081 ;;  j               2    7[BANK1 ] int 
  3082 ;;  i               2    9[BANK1 ] int 
  3083 ;; Return value:  Size  Location     Type
  3084 ;;                  1    wreg      void 
  3085 ;; Registers used:
  3086 ;;		wreg, fsr0l, fsr0h, fsr1l, fsr1h, status,2, status,0, pclath, cstack
  3087 ;; Tracked objects:
  3088 ;;		On entry : B3F/0
  3089 ;;		On exit  : 0/0
  3090 ;;		Unchanged: 0/0
  3091 ;; Data sizes:     COMMON   BANK0   BANK1   BANK2   BANK3   BANK4   BANK5   BANK6   BANK7   BANK8   BANK9  BANK10  BANK1
      +1  BANK12
  3092 ;;      Params:         0       0       0       0       0       0       0       0       0       0       0       0       
      +0       0
  3093 ;;      Locals:         0       0      10       0       0       0       0       0       0       0       0       0       
      +0       0
  3094 ;;      Temps:          0       0       5       0       0       0       0       0       0       0       0       0       
      +0       0
  3095 ;;      Totals:         0       0      15       0       0       0       0       0       0       0       0       0       
      +0       0
  3096 ;;Total ram usage:       15 bytes
  3097 ;; Hardware stack levels required when called: 8
  3098 ;; This function calls:
  3099 ;;		_EXT_INT_Initialize
  3100 ;;		_INT_SetInterruptHandler
  3101 ;;		_PWM3_Initialize
  3102 ;;		_SPI1_Initialize
  3103 ;;		_SYSTEM_Initialize
  3104 ;;		_TMR0_Initialize
  3105 ;;		_TMR0_SetInterruptHandler
  3106 ;;		_TMR1_Initialize
  3107 ;;		_TMR1_SetInterruptHandler
  3108 ;;		_TMR2_Initialize
  3109 ;;		_displayMatrix
  3110 ;;		_playNote
  3111 ;;		_shiftBytes
  3112 ;; This function is called by:
  3113 ;;		Startup code after reset
  3114 ;; This function uses a non-reentrant model
  3115 ;;
  3116                           
  3117                           
  3118                           ;psect for function _main
  3119  006F                     _main:
  3120  006F                     l2714:	
  3121                           ;incstack = 0
  3122                           ; Regs used in _main: [wreg-fsr1h+status,2+status,0+pclath+cstack]
  3123                           
  3124                           
  3125                           ;main.c: 285:     SYSTEM_Initialize();
  3126  006F  318F  274C  3180   	fcall	_SYSTEM_Initialize
  3127  0072                     l2716:
  3128                           
  3129                           ;main.c: 291:     (INTCONbits.GIE = 1);
  3130  0072  178B               	bsf	11,7	;volatile
  3131  0073                     l2718:
  3132                           
  3133                           ;main.c: 294:     (INTCONbits.PEIE = 1);
  3134  0073  170B               	bsf	11,6	;volatile
  3135                           
  3136                           ;main.c: 303:     SPI1_Initialize();
  3137  0074  318E  26EB  3180   	fcall	_SPI1_Initialize
  3138  0077                     l2720:
  3139                           
  3140                           ;main.c: 304:     SSP1CON1bits.SSPEN = 0;
  3141  0077  0143               	movlb	3	; select bank3
  3142  0078  1290               	bcf	16,5	;volatile
  3143  0079                     l2722:
  3144                           
  3145                           ;main.c: 305:     TRISCbits.TRISC3 = 0;
  3146  0079  0140               	movlb	0	; select bank0
  3147  007A  1194               	bcf	20,3	;volatile
  3148  007B                     l2724:
  3149                           
  3150                           ;main.c: 306:     TRISAbits.TRISA4 = 1;
  3151  007B  1612               	bsf	18,4	;volatile
  3152  007C                     l2726:
  3153                           
  3154                           ;main.c: 307:     TRISCbits.TRISC5 = 0;
  3155  007C  1294               	bcf	20,5	;volatile
  3156  007D                     l2728:
  3157                           
  3158                           ;main.c: 310:     SSP1CON1bits.SSPEN = 1;
  3159  007D  0143               	movlb	3	; select bank3
  3160  007E  1690               	bsf	16,5	;volatile
  3161                           
  3162                           ;main.c: 313:     EXT_INT_Initialize();
  3163  007F  318E  268E  3180   	fcall	_EXT_INT_Initialize
  3164                           
  3165                           ;main.c: 314:     INT_SetInterruptHandler(EXT_ISR);
  3166  0082  3030               	movlw	low _EXT_ISR
  3167  0083  00F2               	movwf	INT_SetInterruptHandler@InterruptHandler
  3168  0084  300F               	movlw	high _EXT_ISR
  3169  0085  00F3               	movwf	INT_SetInterruptHandler@InterruptHandler+1
  3170  0086  318E  2655  3180   	fcall	_INT_SetInterruptHandler
  3171  0089                     l2730:
  3172                           
  3173                           ;main.c: 315:     PIE0bits.INTE = 1;
  3174  0089  014E               	movlb	14	; select bank14
  3175  008A  1416               	bsf	22,0	;volatile
  3176                           
  3177                           ;main.c: 318:     TMR0_Initialize();
  3178  008B  318F  2717  3180   	fcall	_TMR0_Initialize
  3179                           
  3180                           ;main.c: 319:     TMR0_SetInterruptHandler(TMR0_ISR_);
  3181  008E  3045               	movlw	low _TMR0_ISR_
  3182  008F  00F2               	movwf	TMR0_SetInterruptHandler@InterruptHandler
  3183  0090  300E               	movlw	high _TMR0_ISR_
  3184  0091  00F3               	movwf	TMR0_SetInterruptHandler@InterruptHandler+1
  3185  0092  318E  2661  3180   	fcall	_TMR0_SetInterruptHandler
  3186  0095                     l2732:
  3187                           
  3188                           ;main.c: 320:     T0CON0bits.T0EN = 0;
  3189  0095  014B               	movlb	11	; select bank11
  3190  0096  139E               	bcf	30,7	;volatile
  3191                           
  3192                           ;main.c: 323:     TMR1_Initialize();
  3193  0097  318F  2787  3180   	fcall	_TMR1_Initialize
  3194                           
  3195                           ;main.c: 324:     TMR1_SetInterruptHandler(TMR1_ISR_);
  3196  009A  30E5               	movlw	low _TMR1_ISR_
  3197  009B  00F2               	movwf	TMR1_SetInterruptHandler@InterruptHandler
  3198  009C  3002               	movlw	high _TMR1_ISR_
  3199  009D  00F3               	movwf	TMR1_SetInterruptHandler@InterruptHandler+1
  3200  009E  318E  2667  3180   	fcall	_TMR1_SetInterruptHandler
  3201  00A1                     l2734:
  3202                           
  3203                           ;main.c: 325:     T1CONbits.TMR1ON = 0;
  3204  00A1  0144               	movlb	4	; select bank4
  3205  00A2  100E               	bcf	14,0	;volatile
  3206                           
  3207                           ;main.c: 328:     TMR2_Initialize();
  3208  00A3  318E  26B5  3180   	fcall	_TMR2_Initialize
  3209  00A6                     l2736:
  3210                           
  3211                           ;main.c: 329:     T2CONbits.TMR2ON = 0;
  3212  00A6  0145               	movlb	5	; select bank5
  3213  00A7  138E               	bcf	14,7	;volatile
  3214                           
  3215                           ;main.c: 332:     PWM3_Initialize();
  3216  00A8  318E  266D  3180   	fcall	_PWM3_Initialize
  3217  00AB                     l2738:
  3218  00AB  0140               	movlb	0	; select bank0
  3219  00AC  111A               	bcf	26,2	;volatile
  3220  00AD                     l2740:
  3221  00AD  121A               	bcf	26,4	;volatile
  3222  00AE                     l2742:
  3223  00AE  101A               	bcf	26,0	;volatile
  3224  00AF                     l2744:
  3225                           
  3226                           ;main.c: 342:     for (int i = 0; i < 15; i++)
  3227  00AF  0141               	movlb	1	; select bank1
  3228  00B0  01DA               	clrf	main@i^(0+128)
  3229  00B1  01DB               	clrf	(main@i+1)^(0+128)
  3230  00B2                     l2750:
  3231                           
  3232                           ;main.c: 343:     {;main.c: 344:         for (int j = 0; j < 12; j++)
  3233  00B2  0141               	movlb	1	; select bank1
  3234  00B3  01D8               	clrf	main@j^(0+128)
  3235  00B4  01D9               	clrf	(main@j+1)^(0+128)
  3236  00B5                     l2756:
  3237                           
  3238                           ;main.c: 345:         {;main.c: 346:             displayMatrix(light_array);
  3239  00B5  3044               	movlw	(low (_light_array| 0))& (0+255)
  3240  00B6  3187  27B1  3180   	fcall	_displayMatrix
  3241  00B9                     l2758:
  3242                           
  3243                           ;main.c: 347:         }
  3244  00B9  3001               	movlw	1
  3245  00BA  0141               	movlb	1	; select bank1
  3246  00BB  07D8               	addwf	main@j^(0+128),f
  3247  00BC  3000               	movlw	0
  3248  00BD  3DD9               	addwfc	(main@j+1)^(0+128),f
  3249  00BE                     l2760:
  3250  00BE  0859               	movf	(main@j+1)^(0+128),w
  3251  00BF  3A80               	xorlw	128
  3252  00C0  00D1               	movwf	??_main^(0+128)
  3253  00C1  3080               	movlw	128
  3254  00C2  0251               	subwf	??_main^(0+128),w
  3255  00C3  1D03               	skipz
  3256  00C4  28C7               	goto	u1555
  3257  00C5  300C               	movlw	12
  3258  00C6  0258               	subwf	main@j^(0+128),w
  3259  00C7                     u1555:
  3260  00C7  1C03               	skipc
  3261  00C8  28CA               	goto	u1551
  3262  00C9  28CB               	goto	u1550
  3263  00CA                     u1551:
  3264  00CA  28B5               	goto	l2756
  3265  00CB                     u1550:
  3266  00CB                     l2762:
  3267                           
  3268                           ;main.c: 348:         if (i < 7)
  3269  00CB  0141               	movlb	1	; select bank1
  3270  00CC  085B               	movf	(main@i+1)^(0+128),w
  3271  00CD  3A80               	xorlw	128
  3272  00CE  00D1               	movwf	??_main^(0+128)
  3273  00CF  3080               	movlw	128
  3274  00D0  0251               	subwf	??_main^(0+128),w
  3275  00D1  1D03               	skipz
  3276  00D2  28D5               	goto	u1565
  3277  00D3  3007               	movlw	7
  3278  00D4  025A               	subwf	main@i^(0+128),w
  3279  00D5                     u1565:
  3280  00D5  1803               	skipnc
  3281  00D6  28D8               	goto	u1561
  3282  00D7  28D9               	goto	u1560
  3283  00D8                     u1561:
  3284  00D8  2911               	goto	l2776
  3285  00D9                     u1560:
  3286  00D9                     l2764:
  3287                           
  3288                           ;main.c: 349:         {;main.c: 350:             for (int j = 0; j < 7; j++)
  3289  00D9  0141               	movlb	1	; select bank1
  3290  00DA  01DC               	clrf	main@j_1174^(0+128)
  3291  00DB  01DD               	clrf	(main@j_1174+1)^(0+128)
  3292  00DC                     l2770:
  3293                           
  3294                           ;main.c: 351:             {;main.c: 352:                 uint8_t light = (~light_array[j
      +                          ]) << 7;
  3295  00DC  0141               	movlb	1	; select bank1
  3296  00DD  085C               	movf	main@j_1174^(0+128),w
  3297  00DE  3E44               	addlw	(low (_light_array| 0))& (0+255)
  3298  00DF  0086               	movwf	6
  3299  00E0  0187               	clrf	7
  3300  00E1  0901               	comf	1,w
  3301  00E2  00D1               	movwf	??_main^(0+128)
  3302  00E3  3006               	movlw	6
  3303  00E4                     u1575:
  3304  00E4  35D1               	lslf	??_main^(0+128),f
  3305  00E5  3EFF               	addlw	-1
  3306  00E6  1D03               	skipz
  3307  00E7  28E4               	goto	u1575
  3308  00E8  3551               	lslf	??_main^(0+128),w
  3309  00E9  00D2               	movwf	(??_main+1)^(0+128)
  3310  00EA  0852               	movf	(??_main+1)^(0+128),w
  3311  00EB  00D6               	movwf	main@light^(0+128)
  3312                           
  3313                           ;main.c: 353:                 light_array[j] = (light_array[j] << 1) + (light >> 7);
  3314  00EC  0856               	movf	main@light^(0+128),w
  3315  00ED  00D1               	movwf	??_main^(0+128)
  3316  00EE  3007               	movlw	7
  3317  00EF                     u1585:
  3318  00EF  36D1               	lsrf	??_main^(0+128),f
  3319  00F0  0B89               	decfsz	9,f
  3320  00F1  28EF               	goto	u1585
  3321  00F2  085C               	movf	main@j_1174^(0+128),w
  3322  00F3  3E44               	addlw	(low (_light_array| 0))& (0+255)
  3323  00F4  0086               	movwf	6
  3324  00F5  0187               	clrf	7
  3325  00F6  3501               	lslf	1,w
  3326  00F7  0751               	addwf	??_main^(0+128),w
  3327  00F8  00D2               	movwf	(??_main+1)^(0+128)
  3328  00F9  085C               	movf	main@j_1174^(0+128),w
  3329  00FA  3E44               	addlw	(low (_light_array| 0))& (0+255)
  3330  00FB  0086               	movwf	6
  3331  00FC  0187               	clrf	7
  3332  00FD  0852               	movf	(??_main+1)^(0+128),w
  3333  00FE  0081               	movwf	1
  3334  00FF                     l2772:
  3335                           
  3336                           ;main.c: 354:             }
  3337  00FF  3001               	movlw	1
  3338  0100  07DC               	addwf	main@j_1174^(0+128),f
  3339  0101  3000               	movlw	0
  3340  0102  3DDD               	addwfc	(main@j_1174+1)^(0+128),f
  3341  0103                     l2774:
  3342  0103  085D               	movf	(main@j_1174+1)^(0+128),w
  3343  0104  3A80               	xorlw	128
  3344  0105  00D1               	movwf	??_main^(0+128)
  3345  0106  3080               	movlw	128
  3346  0107  0251               	subwf	??_main^(0+128),w
  3347  0108  1D03               	skipz
  3348  0109  290C               	goto	u1595
  3349  010A  3007               	movlw	7
  3350  010B  025C               	subwf	main@j_1174^(0+128),w
  3351  010C                     u1595:
  3352  010C  1C03               	skipc
  3353  010D  290F               	goto	u1591
  3354  010E  2910               	goto	u1590
  3355  010F                     u1591:
  3356  010F  28DC               	goto	l2770
  3357  0110                     u1590:
  3358  0110  2933               	goto	l2788
  3359  0111                     l2776:
  3360                           
  3361                           ;main.c: 357:         {;main.c: 358:             for (int j = 0; j < 7; j++)
  3362  0111  0141               	movlb	1	; select bank1
  3363  0112  01DE               	clrf	main@j_1176^(0+128)
  3364  0113  01DF               	clrf	(main@j_1176+1)^(0+128)
  3365  0114                     l2782:
  3366                           
  3367                           ;main.c: 361:                 light_array[j] = (light_array[j] << 1) + 1;
  3368  0114  0141               	movlb	1	; select bank1
  3369  0115  085E               	movf	main@j_1176^(0+128),w
  3370  0116  3E44               	addlw	(low (_light_array| 0))& (0+255)
  3371  0117  0086               	movwf	6
  3372  0118  0187               	clrf	7
  3373  0119  1403               	setc
  3374  011A  0D01               	rlf	1,w
  3375  011B  00D1               	movwf	??_main^(0+128)
  3376  011C  085E               	movf	main@j_1176^(0+128),w
  3377  011D  3E44               	addlw	(low (_light_array| 0))& (0+255)
  3378  011E  0086               	movwf	6
  3379  011F  0187               	clrf	7
  3380  0120  0851               	movf	??_main^(0+128),w
  3381  0121  0081               	movwf	1
  3382  0122                     l2784:
  3383                           
  3384                           ;main.c: 362:             }
  3385  0122  3001               	movlw	1
  3386  0123  07DE               	addwf	main@j_1176^(0+128),f
  3387  0124  3000               	movlw	0
  3388  0125  3DDF               	addwfc	(main@j_1176+1)^(0+128),f
  3389  0126                     l2786:
  3390  0126  085F               	movf	(main@j_1176+1)^(0+128),w
  3391  0127  3A80               	xorlw	128
  3392  0128  00D1               	movwf	??_main^(0+128)
  3393  0129  3080               	movlw	128
  3394  012A  0251               	subwf	??_main^(0+128),w
  3395  012B  1D03               	skipz
  3396  012C  292F               	goto	u1605
  3397  012D  3007               	movlw	7
  3398  012E  025E               	subwf	main@j_1176^(0+128),w
  3399  012F                     u1605:
  3400  012F  1C03               	skipc
  3401  0130  2932               	goto	u1601
  3402  0131  2933               	goto	u1600
  3403  0132                     u1601:
  3404  0132  2914               	goto	l2782
  3405  0133                     u1600:
  3406  0133                     l2788:
  3407                           
  3408                           ;main.c: 364:     }
  3409  0133  3001               	movlw	1
  3410  0134  0141               	movlb	1	; select bank1
  3411  0135  07DA               	addwf	main@i^(0+128),f
  3412  0136  3000               	movlw	0
  3413  0137  3DDB               	addwfc	(main@i+1)^(0+128),f
  3414  0138  085B               	movf	(main@i+1)^(0+128),w
  3415  0139  3A80               	xorlw	128
  3416  013A  00D1               	movwf	??_main^(0+128)
  3417  013B  3080               	movlw	128
  3418  013C  0251               	subwf	??_main^(0+128),w
  3419  013D  1D03               	skipz
  3420  013E  2941               	goto	u1615
  3421  013F  300F               	movlw	15
  3422  0140  025A               	subwf	main@i^(0+128),w
  3423  0141                     u1615:
  3424  0141  1C03               	skipc
  3425  0142  2944               	goto	u1611
  3426  0143  2945               	goto	u1610
  3427  0144                     u1611:
  3428  0144  28B2               	goto	l2750
  3429  0145                     u1610:
  3430  0145                     l549:	
  3431                           ;main.c: 372:     while (1)
  3432                           
  3433                           
  3434                           ;main.c: 373:     {;main.c: 374:         T0CON0bits.T0EN = 1;
  3435  0145  014B               	movlb	11	; select bank11
  3436  0146  179E               	bsf	30,7	;volatile
  3437  0147                     l2790:
  3438                           
  3439                           ;main.c: 375:         shiftBytes(0x02, 0x01);
  3440  0147  01F3               	clrf	shiftBytes@lowSide
  3441  0148  0AF3               	incf	shiftBytes@lowSide,f
  3442  0149  3002               	movlw	2
  3443  014A  318E  26A8  3180   	fcall	_shiftBytes
  3444  014D                     l2792:
  3445  014D  0140               	movlb	0	; select bank0
  3446  014E  111A               	bcf	26,2	;volatile
  3447  014F                     l2794:
  3448  014F  101A               	bcf	26,0	;volatile
  3449  0150                     l2796:
  3450                           
  3451                           ;main.c: 378:         if (presses && TMR0_complete)
  3452  0150  084E               	movf	_presses,w
  3453  0151  1903               	btfsc	3,2
  3454  0152  2954               	goto	u1621
  3455  0153  2955               	goto	u1620
  3456  0154                     u1621:
  3457  0154  2ACA               	goto	l2862
  3458  0155                     u1620:
  3459  0155                     l2798:
  3460  0155  0851               	movf	_TMR0_complete,w
  3461  0156  1903               	btfsc	3,2
  3462  0157  2959               	goto	u1631
  3463  0158  295A               	goto	u1630
  3464  0159                     u1631:
  3465  0159  2ACA               	goto	l2862
  3466  015A                     u1630:
  3467  015A                     l2800:
  3468                           
  3469                           ;main.c: 379:         {;main.c: 380:             T0CON0bits.T0EN = 0;
  3470  015A  014B               	movlb	11	; select bank11
  3471  015B  139E               	bcf	30,7	;volatile
  3472                           
  3473                           ;main.c: 383:             switch (presses)
  3474  015C  29D9               	goto	l2828
  3475  015D                     l2802:
  3476                           
  3477                           ;main.c: 386:                     light_array[0] = 0x88;
  3478  015D  3088               	movlw	136
  3479  015E  00D1               	movwf	??_main^(0+128)
  3480  015F  0851               	movf	??_main^(0+128),w
  3481  0160  0140               	movlb	0	; select bank0
  3482  0161  00C4               	movwf	_light_array
  3483                           
  3484                           ;main.c: 387:                     light_array[1] = 0x44;
  3485  0162  3044               	movlw	68
  3486  0163  0141               	movlb	1	; select bank1
  3487  0164  00D1               	movwf	??_main^(0+128)
  3488  0165  0851               	movf	??_main^(0+128),w
  3489  0166  0140               	movlb	0	; select bank0
  3490  0167  00C5               	movwf	_light_array+1
  3491                           
  3492                           ;main.c: 388:                     light_array[2] = 0x22;
  3493  0168  3022               	movlw	34
  3494  0169  0141               	movlb	1	; select bank1
  3495  016A  00D1               	movwf	??_main^(0+128)
  3496  016B  0851               	movf	??_main^(0+128),w
  3497  016C  0140               	movlb	0	; select bank0
  3498  016D  00C6               	movwf	_light_array+2
  3499                           
  3500                           ;main.c: 389:                     light_array[3] = 0x11;
  3501  016E  3011               	movlw	17
  3502  016F  0141               	movlb	1	; select bank1
  3503  0170  00D1               	movwf	??_main^(0+128)
  3504  0171  0851               	movf	??_main^(0+128),w
  3505  0172  0140               	movlb	0	; select bank0
  3506  0173  00C7               	movwf	_light_array+3
  3507                           
  3508                           ;main.c: 390:                     light_array[4] = 0x88;
  3509  0174  3088               	movlw	136
  3510  0175  0141               	movlb	1	; select bank1
  3511  0176  00D1               	movwf	??_main^(0+128)
  3512  0177  0851               	movf	??_main^(0+128),w
  3513  0178  0140               	movlb	0	; select bank0
  3514  0179  00C8               	movwf	_light_array+4
  3515                           
  3516                           ;main.c: 391:                     light_array[5] = 0x44;
  3517  017A  3044               	movlw	68
  3518  017B  0141               	movlb	1	; select bank1
  3519  017C  00D1               	movwf	??_main^(0+128)
  3520  017D  0851               	movf	??_main^(0+128),w
  3521  017E  0140               	movlb	0	; select bank0
  3522  017F  00C9               	movwf	_light_array+5
  3523                           
  3524                           ;main.c: 392:                     light_array[6] = 0x22;
  3525  0180  3022               	movlw	34
  3526  0181  0141               	movlb	1	; select bank1
  3527  0182  00D1               	movwf	??_main^(0+128)
  3528  0183  0851               	movf	??_main^(0+128),w
  3529  0184  0140               	movlb	0	; select bank0
  3530  0185  00CA               	movwf	_light_array+6
  3531  0186                     l2804:
  3532                           
  3533                           ;main.c: 393:                     silent_night_playing = 1;
  3534  0186  01D4               	clrf	_silent_night_playing
  3535  0187  0AD4               	incf	_silent_night_playing,f
  3536                           
  3537                           ;main.c: 394:                     break;
  3538  0188  29EE               	goto	l557
  3539  0189                     l2806:
  3540                           
  3541                           ;main.c: 396:                     light_array[0] = 0xFE;
  3542  0189  30FE               	movlw	254
  3543  018A  00D1               	movwf	??_main^(0+128)
  3544  018B  0851               	movf	??_main^(0+128),w
  3545  018C  0140               	movlb	0	; select bank0
  3546  018D  00C4               	movwf	_light_array
  3547                           
  3548                           ;main.c: 397:                     light_array[1] = 0xFE;
  3549  018E  30FE               	movlw	254
  3550  018F  0141               	movlb	1	; select bank1
  3551  0190  00D1               	movwf	??_main^(0+128)
  3552  0191  0851               	movf	??_main^(0+128),w
  3553  0192  0140               	movlb	0	; select bank0
  3554  0193  00C5               	movwf	_light_array+1
  3555                           
  3556                           ;main.c: 398:                     light_array[2] = 0xFE;
  3557  0194  30FE               	movlw	254
  3558  0195  0141               	movlb	1	; select bank1
  3559  0196  00D1               	movwf	??_main^(0+128)
  3560  0197  0851               	movf	??_main^(0+128),w
  3561  0198  0140               	movlb	0	; select bank0
  3562  0199  00C6               	movwf	_light_array+2
  3563                           
  3564                           ;main.c: 399:                     light_array[3] = 0xFE;
  3565  019A  30FE               	movlw	254
  3566  019B  0141               	movlb	1	; select bank1
  3567  019C  00D1               	movwf	??_main^(0+128)
  3568  019D  0851               	movf	??_main^(0+128),w
  3569  019E  0140               	movlb	0	; select bank0
  3570  019F  00C7               	movwf	_light_array+3
  3571                           
  3572                           ;main.c: 400:                     light_array[4] = 0xFE;
  3573  01A0  30FE               	movlw	254
  3574  01A1  0141               	movlb	1	; select bank1
  3575  01A2  00D1               	movwf	??_main^(0+128)
  3576  01A3  0851               	movf	??_main^(0+128),w
  3577  01A4  0140               	movlb	0	; select bank0
  3578  01A5  00C8               	movwf	_light_array+4
  3579                           
  3580                           ;main.c: 401:                     light_array[5] = 0xFE;
  3581  01A6  30FE               	movlw	254
  3582  01A7  0141               	movlb	1	; select bank1
  3583  01A8  00D1               	movwf	??_main^(0+128)
  3584  01A9  0851               	movf	??_main^(0+128),w
  3585  01AA  0140               	movlb	0	; select bank0
  3586  01AB  00C9               	movwf	_light_array+5
  3587                           
  3588                           ;main.c: 402:                     light_array[6] = 0xFE;
  3589  01AC  30FE               	movlw	254
  3590  01AD  0141               	movlb	1	; select bank1
  3591  01AE  00D1               	movwf	??_main^(0+128)
  3592  01AF  0851               	movf	??_main^(0+128),w
  3593  01B0  0140               	movlb	0	; select bank0
  3594  01B1  00CA               	movwf	_light_array+6
  3595  01B2                     l2808:
  3596                           
  3597                           ;main.c: 403:                     song2_playing = 1;
  3598  01B2  01D2               	clrf	_song2_playing
  3599  01B3  0AD2               	incf	_song2_playing,f
  3600                           
  3601                           ;main.c: 404:                     break;
  3602  01B4  29EE               	goto	l557
  3603  01B5                     l2810:
  3604                           
  3605                           ;main.c: 407:                     light_array[0] = 0x00;
  3606  01B5  0140               	movlb	0	; select bank0
  3607  01B6  01C4               	clrf	_light_array
  3608  01B7                     l2812:
  3609                           
  3610                           ;main.c: 408:                     light_array[1] = 0xE8;
  3611  01B7  30E8               	movlw	232
  3612  01B8  0141               	movlb	1	; select bank1
  3613  01B9  00D1               	movwf	??_main^(0+128)
  3614  01BA  0851               	movf	??_main^(0+128),w
  3615  01BB  0140               	movlb	0	; select bank0
  3616  01BC  00C5               	movwf	_light_array+1
  3617  01BD                     l2814:
  3618                           
  3619                           ;main.c: 409:                     light_array[2] = 0xBE;
  3620  01BD  30BE               	movlw	190
  3621  01BE  0141               	movlb	1	; select bank1
  3622  01BF  00D1               	movwf	??_main^(0+128)
  3623  01C0  0851               	movf	??_main^(0+128),w
  3624  01C1  0140               	movlb	0	; select bank0
  3625  01C2  00C6               	movwf	_light_array+2
  3626  01C3                     l2816:
  3627                           
  3628                           ;main.c: 410:                     light_array[3] = 0xFE;
  3629  01C3  30FE               	movlw	254
  3630  01C4  0141               	movlb	1	; select bank1
  3631  01C5  00D1               	movwf	??_main^(0+128)
  3632  01C6  0851               	movf	??_main^(0+128),w
  3633  01C7  0140               	movlb	0	; select bank0
  3634  01C8  00C7               	movwf	_light_array+3
  3635  01C9                     l2818:
  3636                           
  3637                           ;main.c: 411:                     light_array[4] = 0xBD;
  3638  01C9  30BD               	movlw	189
  3639  01CA  0141               	movlb	1	; select bank1
  3640  01CB  00D1               	movwf	??_main^(0+128)
  3641  01CC  0851               	movf	??_main^(0+128),w
  3642  01CD  0140               	movlb	0	; select bank0
  3643  01CE  00C8               	movwf	_light_array+4
  3644  01CF                     l2820:
  3645                           
  3646                           ;main.c: 412:                     light_array[5] = 0xA0;
  3647  01CF  30A0               	movlw	160
  3648  01D0  0141               	movlb	1	; select bank1
  3649  01D1  00D1               	movwf	??_main^(0+128)
  3650  01D2  0851               	movf	??_main^(0+128),w
  3651  01D3  0140               	movlb	0	; select bank0
  3652  01D4  00C9               	movwf	_light_array+5
  3653  01D5                     l2822:
  3654                           
  3655                           ;main.c: 413:                     light_array[6] = 0x00;
  3656  01D5  01CA               	clrf	_light_array+6
  3657  01D6                     l2824:
  3658                           
  3659                           ;main.c: 426:                     song3_playing = 1;
  3660  01D6  01D3               	clrf	_song3_playing
  3661  01D7  0AD3               	incf	_song3_playing,f
  3662                           
  3663                           ;main.c: 427:                     break;
  3664  01D8  29EE               	goto	l557
  3665  01D9                     l2828:
  3666  01D9  0140               	movlb	0	; select bank0
  3667  01DA  084E               	movf	_presses,w
  3668  01DB  0141               	movlb	1	; select bank1
  3669  01DC  00D1               	movwf	??_main^(0+128)
  3670  01DD  01D2               	clrf	(??_main^(0+128)+1)
  3671                           
  3672                           ; Switch on 2 bytes has been partitioned into a top level switch of size 1, and 1 sub-sw
      +                          itches
  3673                           ; Switch size 1, requested type "simple"
  3674                           ; Number of cases is 1, Range of values is 0 to 0
  3675                           ; switch strategies available:
  3676                           ; Name         Instructions Cycles
  3677                           ; simple_byte            4     3 (average)
  3678                           ; direct_byte            8     6 (fixed)
  3679                           ; jumptable            260     6 (fixed)
  3680                           ;	Chosen strategy is simple_byte
  3681  01DE  0852               	movf	(??_main+1)^(0+128),w
  3682  01DF  3A00               	xorlw	0	; case 0
  3683  01E0  1903               	skipnz
  3684  01E1  29E3               	goto	l2916
  3685  01E2  29EE               	goto	l557
  3686  01E3                     l2916:
  3687                           
  3688                           ; Switch size 1, requested type "simple"
  3689                           ; Number of cases is 3, Range of values is 1 to 3
  3690                           ; switch strategies available:
  3691                           ; Name         Instructions Cycles
  3692                           ; simple_byte           10     6 (average)
  3693                           ; direct_byte           15     9 (fixed)
  3694                           ; jumptable            263     9 (fixed)
  3695                           ;	Chosen strategy is simple_byte
  3696  01E3  0851               	movf	??_main^(0+128),w
  3697  01E4  3A01               	xorlw	1	; case 1
  3698  01E5  1903               	skipnz
  3699  01E6  295D               	goto	l2802
  3700  01E7  3A03               	xorlw	3	; case 2
  3701  01E8  1903               	skipnz
  3702  01E9  2989               	goto	l2806
  3703  01EA  3A01               	xorlw	1	; case 3
  3704  01EB  1903               	skipnz
  3705  01EC  29B5               	goto	l2810
  3706  01ED  29EE               	goto	l557
  3707  01EE                     l557:
  3708                           
  3709                           ;main.c: 429:             T1CONbits.TMR1ON = 1;
  3710  01EE  0144               	movlb	4	; select bank4
  3711  01EF  140E               	bsf	14,0	;volatile
  3712                           
  3713                           ;main.c: 430:             T2CONbits.TMR2ON = 1;
  3714  01F0  0145               	movlb	5	; select bank5
  3715  01F1  178E               	bsf	14,7	;volatile
  3716                           
  3717                           ;main.c: 433:             while (presses == 1)
  3718  01F2  2A1C               	goto	l2832
  3719  01F3                     l2830:
  3720                           
  3721                           ;main.c: 434:             {;main.c: 435:                 playNote(silent_night[count], s
      +                          ilent_night_pre[count]);
  3722  01F3  3094               	movlw	148
  3723  01F4  0141               	movlb	1	; select bank1
  3724  01F5  00D1               	movwf	??_main^(0+128)
  3725  01F6  3021               	movlw	33
  3726  01F7  00D2               	movwf	(??_main^(0+128)+1)
  3727  01F8  0140               	movlb	0	; select bank0
  3728  01F9  084B               	movf	_count,w
  3729  01FA  0141               	movlb	1	; select bank1
  3730  01FB  0751               	addwf	??_main^(0+128),w
  3731  01FC  0086               	movwf	6
  3732  01FD  0140               	movlb	0	; select bank0
  3733  01FE  084C               	movf	_count+1,w
  3734  01FF  0141               	movlb	1	; select bank1
  3735  0200  3D52               	addwfc	(??_main+1)^(0+128),w
  3736  0201  0087               	movwf	7
  3737  0202  0801               	movf	1,w
  3738  0203  00D3               	movwf	(??_main+2)^(0+128)
  3739  0204  0853               	movf	(??_main+2)^(0+128),w
  3740  0205  00F2               	movwf	playNote@prescale
  3741  0206  301E               	movlw	30
  3742  0207  00D4               	movwf	(??_main+3)^(0+128)
  3743  0208  3022               	movlw	34
  3744  0209  00D5               	movwf	((??_main+3)^(0+128)+1)
  3745  020A  0140               	movlb	0	; select bank0
  3746  020B  084B               	movf	_count,w
  3747  020C  0141               	movlb	1	; select bank1
  3748  020D  0754               	addwf	(??_main+3)^(0+128),w
  3749  020E  0086               	movwf	6
  3750  020F  0140               	movlb	0	; select bank0
  3751  0210  084C               	movf	_count+1,w
  3752  0211  0141               	movlb	1	; select bank1
  3753  0212  3D55               	addwfc	(??_main+4)^(0+128),w
  3754  0213  0087               	movwf	7
  3755  0214  0801               	movf	1,w
  3756  0215  318F  2768  3180   	fcall	_playNote
  3757                           
  3758                           ;main.c: 436:                 displayMatrix(light_array);
  3759  0218  3044               	movlw	(low (_light_array| 0))& (0+255)
  3760  0219  3187  27B1  3180   	fcall	_displayMatrix
  3761  021C                     l2832:
  3762                           
  3763                           ;main.c: 433:             while (presses == 1)
  3764  021C  0140               	movlb	0	; select bank0
  3765  021D  034E               	decf	_presses,w
  3766  021E  1903               	btfsc	3,2
  3767  021F  2A21               	goto	u1641
  3768  0220  2A22               	goto	u1640
  3769  0221                     u1641:
  3770  0221  29F3               	goto	l2830
  3771  0222                     u1640:
  3772  0222  2A8A               	goto	l2850
  3773  0223                     l2834:
  3774                           
  3775                           ;main.c: 440:             {;main.c: 442:                 if (count > 84)
  3776  0223  084C               	movf	_count+1,w
  3777  0224  3A80               	xorlw	128
  3778  0225  0141               	movlb	1	; select bank1
  3779  0226  00D1               	movwf	??_main^(0+128)
  3780  0227  3080               	movlw	128
  3781  0228  0251               	subwf	??_main^(0+128),w
  3782  0229  1D03               	skipz
  3783  022A  2A2E               	goto	u1655
  3784  022B  3055               	movlw	85
  3785  022C  0140               	movlb	0	; select bank0
  3786  022D  024B               	subwf	_count,w
  3787  022E                     u1655:
  3788  022E  1C03               	skipc
  3789  022F  2A31               	goto	u1651
  3790  0230  2A32               	goto	u1650
  3791  0231                     u1651:
  3792  0231  2A6F               	goto	l2848
  3793  0232                     u1650:
  3794  0232                     l2836:
  3795                           
  3796                           ;main.c: 445:                     if ((count >= 91) && (count <= 96))
  3797  0232  0140               	movlb	0	; select bank0
  3798  0233  084C               	movf	_count+1,w
  3799  0234  3A80               	xorlw	128
  3800  0235  0141               	movlb	1	; select bank1
  3801  0236  00D1               	movwf	??_main^(0+128)
  3802  0237  3080               	movlw	128
  3803  0238  0251               	subwf	??_main^(0+128),w
  3804  0239  1D03               	skipz
  3805  023A  2A3E               	goto	u1665
  3806  023B  305B               	movlw	91
  3807  023C  0140               	movlb	0	; select bank0
  3808  023D  024B               	subwf	_count,w
  3809  023E                     u1665:
  3810  023E  1C03               	skipc
  3811  023F  2A41               	goto	u1661
  3812  0240  2A42               	goto	u1660
  3813  0241                     u1661:
  3814  0241  2A58               	goto	l2842
  3815  0242                     u1660:
  3816  0242                     l2838:
  3817  0242  0140               	movlb	0	; select bank0
  3818  0243  084C               	movf	_count+1,w
  3819  0244  3A80               	xorlw	128
  3820  0245  0141               	movlb	1	; select bank1
  3821  0246  00D1               	movwf	??_main^(0+128)
  3822  0247  3080               	movlw	128
  3823  0248  0251               	subwf	??_main^(0+128),w
  3824  0249  1D03               	skipz
  3825  024A  2A4E               	goto	u1675
  3826  024B  3061               	movlw	97
  3827  024C  0140               	movlb	0	; select bank0
  3828  024D  024B               	subwf	_count,w
  3829  024E                     u1675:
  3830  024E  1803               	skipnc
  3831  024F  2A51               	goto	u1671
  3832  0250  2A52               	goto	u1670
  3833  0251                     u1671:
  3834  0251  2A58               	goto	l2842
  3835  0252                     u1670:
  3836  0252                     l2840:
  3837                           
  3838                           ;main.c: 446:                     {;main.c: 447:                         pre = 0xC0;
  3839  0252  30C0               	movlw	192
  3840  0253  0141               	movlb	1	; select bank1
  3841  0254  00D1               	movwf	??_main^(0+128)
  3842  0255  0851               	movf	??_main^(0+128),w
  3843  0256  00D7               	movwf	main@pre^(0+128)
  3844                           
  3845                           ;main.c: 448:                     }
  3846  0257  2A5D               	goto	l2844
  3847  0258                     l2842:
  3848                           
  3849                           ;main.c: 450:                     {;main.c: 451:                         pre = 0xD0;
  3850  0258  30D0               	movlw	208
  3851  0259  0141               	movlb	1	; select bank1
  3852  025A  00D1               	movwf	??_main^(0+128)
  3853  025B  0851               	movf	??_main^(0+128),w
  3854  025C  00D7               	movwf	main@pre^(0+128)
  3855  025D                     l2844:
  3856                           
  3857                           ;main.c: 453:                     playNote(song2_2[count - 85], pre);
  3858  025D  0857               	movf	main@pre^(0+128),w
  3859  025E  00D1               	movwf	??_main^(0+128)
  3860  025F  0851               	movf	??_main^(0+128),w
  3861  0260  00F2               	movwf	playNote@prescale
  3862  0261  0140               	movlb	0	; select bank0
  3863  0262  084B               	movf	_count,w
  3864  0263  3E4B               	addlw	(low ((_song2_2| 0+171)))& (0+255)
  3865  0264  0086               	movwf	6
  3866  0265  0187               	clrf	7
  3867  0266  0801               	movf	1,w
  3868  0267  318F  2768  3180   	fcall	_playNote
  3869  026A                     l2846:
  3870                           
  3871                           ;main.c: 454:                     displayMatrix(light_array);
  3872  026A  3044               	movlw	(low (_light_array| 0))& (0+255)
  3873  026B  3187  27B1  3180   	fcall	_displayMatrix
  3874                           
  3875                           ;main.c: 455:                 }
  3876  026E  2A8A               	goto	l2850
  3877  026F                     l2848:
  3878                           
  3879                           ;main.c: 457:                 {;main.c: 458:                     playNote(song2[count], 
      +                          0xD0);
  3880  026F  30D0               	movlw	208
  3881  0270  0141               	movlb	1	; select bank1
  3882  0271  00D1               	movwf	??_main^(0+128)
  3883  0272  0851               	movf	??_main^(0+128),w
  3884  0273  00F2               	movwf	playNote@prescale
  3885  0274  309A               	movlw	154
  3886  0275  00D2               	movwf	(??_main+1)^(0+128)
  3887  0276  3023               	movlw	35
  3888  0277  00D3               	movwf	((??_main+1)^(0+128)+1)
  3889  0278  0140               	movlb	0	; select bank0
  3890  0279  084B               	movf	_count,w
  3891  027A  0141               	movlb	1	; select bank1
  3892  027B  0752               	addwf	(??_main+1)^(0+128),w
  3893  027C  0086               	movwf	6
  3894  027D  0140               	movlb	0	; select bank0
  3895  027E  084C               	movf	_count+1,w
  3896  027F  0141               	movlb	1	; select bank1
  3897  0280  3D53               	addwfc	(??_main+2)^(0+128),w
  3898  0281  0087               	movwf	7
  3899  0282  0801               	movf	1,w
  3900  0283  318F  2768  3180   	fcall	_playNote
  3901                           
  3902                           ;main.c: 459:                     displayMatrix(light_array);
  3903  0286  3044               	movlw	(low (_light_array| 0))& (0+255)
  3904  0287  3187  27B1  3180   	fcall	_displayMatrix
  3905  028A                     l2850:
  3906                           
  3907                           ;main.c: 439:             while (presses == 2)
  3908  028A  3002               	movlw	2
  3909  028B  0140               	movlb	0	; select bank0
  3910  028C  064E               	xorwf	_presses,w
  3911  028D  1903               	btfsc	3,2
  3912  028E  2A90               	goto	u1681
  3913  028F  2A91               	goto	u1680
  3914  0290                     u1681:
  3915  0290  2A23               	goto	l2834
  3916  0291                     u1680:
  3917  0291  2ABB               	goto	l2854
  3918  0292                     l2852:
  3919                           
  3920                           ;main.c: 468:             {;main.c: 469:                 playNote(song3[count], song3_pr
      +                          e[count]);
  3921  0292  30A8               	movlw	168
  3922  0293  0141               	movlb	1	; select bank1
  3923  0294  00D1               	movwf	??_main^(0+128)
  3924  0295  3022               	movlw	34
  3925  0296  00D2               	movwf	(??_main^(0+128)+1)
  3926  0297  0140               	movlb	0	; select bank0
  3927  0298  084B               	movf	_count,w
  3928  0299  0141               	movlb	1	; select bank1
  3929  029A  0751               	addwf	??_main^(0+128),w
  3930  029B  0086               	movwf	6
  3931  029C  0140               	movlb	0	; select bank0
  3932  029D  084C               	movf	_count+1,w
  3933  029E  0141               	movlb	1	; select bank1
  3934  029F  3D52               	addwfc	(??_main+1)^(0+128),w
  3935  02A0  0087               	movwf	7
  3936  02A1  0801               	movf	1,w
  3937  02A2  00D3               	movwf	(??_main+2)^(0+128)
  3938  02A3  0853               	movf	(??_main+2)^(0+128),w
  3939  02A4  00F2               	movwf	playNote@prescale
  3940  02A5  3021               	movlw	33
  3941  02A6  00D4               	movwf	(??_main+3)^(0+128)
  3942  02A7  3023               	movlw	35
  3943  02A8  00D5               	movwf	((??_main+3)^(0+128)+1)
  3944  02A9  0140               	movlb	0	; select bank0
  3945  02AA  084B               	movf	_count,w
  3946  02AB  0141               	movlb	1	; select bank1
  3947  02AC  0754               	addwf	(??_main+3)^(0+128),w
  3948  02AD  0086               	movwf	6
  3949  02AE  0140               	movlb	0	; select bank0
  3950  02AF  084C               	movf	_count+1,w
  3951  02B0  0141               	movlb	1	; select bank1
  3952  02B1  3D55               	addwfc	(??_main+4)^(0+128),w
  3953  02B2  0087               	movwf	7
  3954  02B3  0801               	movf	1,w
  3955  02B4  318F  2768  3180   	fcall	_playNote
  3956                           
  3957                           ;main.c: 470:                 displayMatrix(light_array);
  3958  02B7  3044               	movlw	(low (_light_array| 0))& (0+255)
  3959  02B8  3187  27B1  3180   	fcall	_displayMatrix
  3960  02BB                     l2854:
  3961                           
  3962                           ;main.c: 467:             while (presses == 3)
  3963  02BB  3003               	movlw	3
  3964  02BC  0140               	movlb	0	; select bank0
  3965  02BD  064E               	xorwf	_presses,w
  3966  02BE  1903               	btfsc	3,2
  3967  02BF  2AC1               	goto	u1691
  3968  02C0  2AC2               	goto	u1690
  3969  02C1                     u1691:
  3970  02C1  2A92               	goto	l2852
  3971  02C2                     u1690:
  3972  02C2                     l2856:
  3973                           
  3974                           ;main.c: 472:             presses = 0;
  3975  02C2  01CE               	clrf	_presses
  3976                           
  3977                           ;main.c: 473:             silent_night_playing = 0;
  3978  02C3  01D4               	clrf	_silent_night_playing
  3979                           
  3980                           ;main.c: 474:             song2_playing = 0;
  3981  02C4  01D2               	clrf	_song2_playing
  3982                           
  3983                           ;main.c: 475:             song3_playing = 0;
  3984  02C5  01D3               	clrf	_song3_playing
  3985  02C6                     l2858:
  3986                           
  3987                           ;main.c: 476:             T1CONbits.TMR1ON = 0;
  3988  02C6  0144               	movlb	4	; select bank4
  3989  02C7  100E               	bcf	14,0	;volatile
  3990  02C8                     l2860:
  3991                           
  3992                           ;main.c: 477:             T2CONbits.TMR2ON = 0;
  3993  02C8  0145               	movlb	5	; select bank5
  3994  02C9  138E               	bcf	14,7	;volatile
  3995  02CA                     l2862:
  3996                           
  3997                           ;main.c: 480:         if (TMR0_complete && (!presses))
  3998  02CA  0140               	movlb	0	; select bank0
  3999  02CB  0851               	movf	_TMR0_complete,w
  4000  02CC  1903               	btfsc	3,2
  4001  02CD  2ACF               	goto	u1701
  4002  02CE  2AD0               	goto	u1700
  4003  02CF                     u1701:
  4004  02CF  2945               	goto	l549
  4005  02D0                     u1700:
  4006  02D0                     l2864:
  4007  02D0  084E               	movf	_presses,w
  4008  02D1  1D03               	btfss	3,2
  4009  02D2  2AD4               	goto	u1711
  4010  02D3  2AD5               	goto	u1710
  4011  02D4                     u1711:
  4012  02D4  2945               	goto	l549
  4013  02D5                     u1710:
  4014  02D5                     l2866:
  4015                           
  4016                           ;main.c: 481:         {;main.c: 482:             T0CON0bits.T0EN = 0;
  4017  02D5  014B               	movlb	11	; select bank11
  4018  02D6  139E               	bcf	30,7	;volatile
  4019                           
  4020                           ;main.c: 483:             T1CONbits.TMR1ON = 0;
  4021  02D7  0144               	movlb	4	; select bank4
  4022  02D8  100E               	bcf	14,0	;volatile
  4023                           
  4024                           ;main.c: 484:             T2CONbits.TMR2ON = 0;
  4025  02D9  0145               	movlb	5	; select bank5
  4026  02DA  138E               	bcf	14,7	;volatile
  4027                           
  4028                           ;main.c: 485:             PIR0bits.INTF = 0;
  4029  02DB  014E               	movlb	14	; select bank14
  4030  02DC  100C               	bcf	12,0	;volatile
  4031                           
  4032                           ;main.c: 486:             PIE0bits.INTE = 1;
  4033  02DD  1416               	bsf	22,0	;volatile
  4034  02DE                     l574:	
  4035                           ;main.c: 487:             do { LATCbits.LATC2 = 1; } while(0);
  4036                           
  4037  02DE  0140               	movlb	0	; select bank0
  4038  02DF  151A               	bsf	26,2	;volatile
  4039  02E0                     l576:	
  4040                           ;main.c: 488:             do { LATCbits.LATC0 = 1; } while(0);
  4041                           
  4042  02E0  141A               	bsf	26,0	;volatile
  4043  02E1                     l577:
  4044  02E1  0063               	sleep	;# 
  4045  02E2  2945               	goto	l549
  4046  02E3  3180  2831         	ljmp	start
  4047  02E5                     __end_of_main:
  4048                           
  4049                           	psect	text1
  4050  0F68                     __ptext1:	
  4051 ;; *************** function _playNote *****************
  4052 ;; Defined at:
  4053 ;;		line 751 in file "main.c"
  4054 ;; Parameters:    Size  Location     Type
  4055 ;;  note            1    wreg     unsigned char 
  4056 ;;  prescale        1    2[COMMON] unsigned char 
  4057 ;; Auto vars:     Size  Location     Type
  4058 ;;  note            1    4[COMMON] unsigned char 
  4059 ;; Return value:  Size  Location     Type
  4060 ;;                  1    wreg      void 
  4061 ;; Registers used:
  4062 ;;		wreg
  4063 ;; Tracked objects:
  4064 ;;		On entry : 0/0
  4065 ;;		On exit  : 0/0
  4066 ;;		Unchanged: 0/0
  4067 ;; Data sizes:     COMMON   BANK0   BANK1   BANK2   BANK3   BANK4   BANK5   BANK6   BANK7   BANK8   BANK9  BANK10  BANK1
      +1  BANK12
  4068 ;;      Params:         1       0       0       0       0       0       0       0       0       0       0       0       
      +0       0
  4069 ;;      Locals:         1       0       0       0       0       0       0       0       0       0       0       0       
      +0       0
  4070 ;;      Temps:          1       0       0       0       0       0       0       0       0       0       0       0       
      +0       0
  4071 ;;      Totals:         3       0       0       0       0       0       0       0       0       0       0       0       
      +0       0
  4072 ;;Total ram usage:        3 bytes
  4073 ;; Hardware stack levels used: 1
  4074 ;; Hardware stack levels required when called: 5
  4075 ;; This function calls:
  4076 ;;		Nothing
  4077 ;; This function is called by:
  4078 ;;		_main
  4079 ;; This function uses a non-reentrant model
  4080 ;;
  4081                           
  4082                           
  4083                           ;psect for function _playNote
  4084  0F68                     _playNote:
  4085                           
  4086                           ;incstack = 0
  4087                           ; Regs used in _playNote: [wreg]
  4088                           ;playNote@note stored from wreg
  4089  0F68  00F4               	movwf	playNote@note
  4090  0F69                     l2692:
  4091                           
  4092                           ;main.c: 751: void playNote(uint8_t note, uint8_t prescale);main.c: 752: {;main.c: 754: 
      +                              if (note != last_note)
  4093  0F69  0874               	movf	playNote@note,w
  4094  0F6A  0140               	movlb	0	; select bank0
  4095  0F6B  0650               	xorwf	_last_note,w
  4096  0F6C  1903               	skipnz
  4097  0F6D  2F6F               	goto	u1511
  4098  0F6E  2F70               	goto	u1510
  4099  0F6F                     u1511:
  4100  0F6F  2F73               	goto	l641
  4101  0F70                     u1510:
  4102  0F70                     l2694:
  4103                           
  4104                           ;main.c: 755:     {;main.c: 756:         T2PR = note;
  4105  0F70  0874               	movf	playNote@note,w
  4106  0F71  0145               	movlb	5	; select bank5
  4107  0F72  008D               	movwf	13	;volatile
  4108  0F73                     l641:	
  4109                           ;main.c: 757:     }
  4110                           
  4111                           
  4112                           ;main.c: 759:     if (prescale != last_prescale)
  4113  0F73  0872               	movf	playNote@prescale,w
  4114  0F74  0140               	movlb	0	; select bank0
  4115  0F75  064F               	xorwf	_last_prescale,w
  4116  0F76  1903               	skipnz
  4117  0F77  2F79               	goto	u1521
  4118  0F78  2F7A               	goto	u1520
  4119  0F79                     u1521:
  4120  0F79  2F7D               	goto	l642
  4121  0F7A                     u1520:
  4122  0F7A                     l2696:
  4123                           
  4124                           ;main.c: 760:     {;main.c: 761:         T2CON = prescale;
  4125  0F7A  0872               	movf	playNote@prescale,w
  4126  0F7B  0145               	movlb	5	; select bank5
  4127  0F7C  008E               	movwf	14	;volatile
  4128  0F7D                     l642:	
  4129                           ;main.c: 762:     }
  4130                           
  4131                           
  4132                           ;main.c: 763:     last_note = note;
  4133  0F7D  0874               	movf	playNote@note,w
  4134  0F7E  00F3               	movwf	??_playNote
  4135  0F7F  0873               	movf	??_playNote,w
  4136  0F80  0140               	movlb	0	; select bank0
  4137  0F81  00D0               	movwf	_last_note
  4138                           
  4139                           ;main.c: 764:     last_prescale = prescale;
  4140  0F82  0872               	movf	playNote@prescale,w
  4141  0F83  00F3               	movwf	??_playNote
  4142  0F84  0873               	movf	??_playNote,w
  4143  0F85  00CF               	movwf	_last_prescale
  4144  0F86                     l643:
  4145  0F86  0008               	return
  4146  0F87                     __end_of_playNote:
  4147                           
  4148                           	psect	text2
  4149  07B1                     __ptext2:	
  4150 ;; *************** function _displayMatrix *****************
  4151 ;; Defined at:
  4152 ;;		line 789 in file "main.c"
  4153 ;; Parameters:    Size  Location     Type
  4154 ;;  states          1    wreg     PTR unsigned char 
  4155 ;;		 -> light_array(7), 
  4156 ;; Auto vars:     Size  Location     Type
  4157 ;;  states          1   19[BANK0 ] PTR unsigned char 
  4158 ;;		 -> light_array(7), 
  4159 ;;  i               2   20[BANK0 ] int 
  4160 ;;  lowSide         1   22[BANK0 ] unsigned char 
  4161 ;; Return value:  Size  Location     Type
  4162 ;;                  1    wreg      void 
  4163 ;; Registers used:
  4164 ;;		wreg, fsr1l, fsr1h, status,2, status,0, pclath, cstack
  4165 ;; Tracked objects:
  4166 ;;		On entry : 0/0
  4167 ;;		On exit  : 0/0
  4168 ;;		Unchanged: 0/0
  4169 ;; Data sizes:     COMMON   BANK0   BANK1   BANK2   BANK3   BANK4   BANK5   BANK6   BANK7   BANK8   BANK9  BANK10  BANK1
      +1  BANK12
  4170 ;;      Params:         0       0       0       0       0       0       0       0       0       0       0       0       
      +0       0
  4171 ;;      Locals:         0       4       0       0       0       0       0       0       0       0       0       0       
      +0       0
  4172 ;;      Temps:          2       0       0       0       0       0       0       0       0       0       0       0       
      +0       0
  4173 ;;      Totals:         2       4       0       0       0       0       0       0       0       0       0       0       
      +0       0
  4174 ;;Total ram usage:        6 bytes
  4175 ;; Hardware stack levels used: 1
  4176 ;; Hardware stack levels required when called: 7
  4177 ;; This function calls:
  4178 ;;		_shiftBytes
  4179 ;; This function is called by:
  4180 ;;		_main
  4181 ;; This function uses a non-reentrant model
  4182 ;;
  4183                           
  4184                           
  4185                           ;psect for function _displayMatrix
  4186  07B1                     _displayMatrix:
  4187                           
  4188                           ;incstack = 0
  4189                           ; Regs used in _displayMatrix: [wreg+fsr1l+fsr1h+status,2+status,0+pclath+cstack]
  4190                           ;displayMatrix@states stored from wreg
  4191  07B1  0140               	movlb	0	; select bank0
  4192  07B2  00B3               	movwf	displayMatrix@states
  4193  07B3                     l2672:
  4194                           
  4195                           ;main.c: 789: void displayMatrix(uint8_t states[8]);main.c: 790: {;main.c: 793:     uint
      +                          8_t lowSide = 0x00;
  4196  07B3  01B6               	clrf	displayMatrix@lowSide
  4197                           
  4198                           ;main.c: 794:     for (int i = 0; i < 7; i++)
  4199  07B4  01B4               	clrf	displayMatrix@i
  4200  07B5  01B5               	clrf	displayMatrix@i+1
  4201  07B6                     l2678:
  4202                           
  4203                           ;main.c: 795:     {;main.c: 796:         if (!lowSide)
  4204  07B6  0140               	movlb	0	; select bank0
  4205  07B7  0836               	movf	displayMatrix@lowSide,w
  4206  07B8  1D03               	btfss	3,2
  4207  07B9  2FBB               	goto	u1491
  4208  07BA  2FBC               	goto	u1490
  4209  07BB                     u1491:
  4210  07BB  2FC1               	goto	l2682
  4211  07BC                     u1490:
  4212  07BC                     l2680:
  4213                           
  4214                           ;main.c: 797:         {;main.c: 798:             lowSide++;
  4215  07BC  3001               	movlw	1
  4216  07BD  00F5               	movwf	??_displayMatrix
  4217  07BE  0875               	movf	??_displayMatrix,w
  4218  07BF  07B6               	addwf	displayMatrix@lowSide,f
  4219                           
  4220                           ;main.c: 799:         }
  4221  07C0  2FC5               	goto	l2684
  4222  07C1                     l2682:
  4223                           
  4224                           ;main.c: 801:         {;main.c: 802:             lowSide = lowSide << 1;
  4225  07C1  3536               	lslf	displayMatrix@lowSide,w
  4226  07C2  00F5               	movwf	??_displayMatrix
  4227  07C3  0875               	movf	??_displayMatrix,w
  4228  07C4  00B6               	movwf	displayMatrix@lowSide
  4229  07C5                     l2684:
  4230                           
  4231                           ;main.c: 805:         shiftBytes(states[i], lowSide);
  4232  07C5  0836               	movf	displayMatrix@lowSide,w
  4233  07C6  00F5               	movwf	??_displayMatrix
  4234  07C7  0875               	movf	??_displayMatrix,w
  4235  07C8  00F3               	movwf	shiftBytes@lowSide
  4236  07C9  0834               	movf	displayMatrix@i,w
  4237  07CA  0733               	addwf	displayMatrix@states,w
  4238  07CB  00F6               	movwf	??_displayMatrix+1
  4239  07CC  0876               	movf	??_displayMatrix+1,w
  4240  07CD  0086               	movwf	6
  4241  07CE  0187               	clrf	7
  4242  07CF  0801               	movf	1,w
  4243  07D0  318E  26A8  3187   	fcall	_shiftBytes
  4244  07D3                     l2686:
  4245                           
  4246                           ;main.c: 806:         _delay((unsigned long)((1)*(8000000/4000.0)));
  4247  07D3  3003               	movlw	3
  4248  07D4  00F5               	movwf	??_displayMatrix
  4249  07D5  3098               	movlw	152
  4250  07D6                     u1727:
  4251  07D6  0B89               	decfsz	9,f
  4252  07D7  2FD6               	goto	u1727
  4253  07D8  0BF5               	decfsz	??_displayMatrix,f
  4254  07D9  2FD6               	goto	u1727
  4255  07DA                     l2688:
  4256                           
  4257                           ;main.c: 807:     }
  4258  07DA  3001               	movlw	1
  4259  07DB  0140               	movlb	0	; select bank0
  4260  07DC  07B4               	addwf	displayMatrix@i,f
  4261  07DD  3000               	movlw	0
  4262  07DE  3DB5               	addwfc	displayMatrix@i+1,f
  4263  07DF                     l2690:
  4264  07DF  0835               	movf	displayMatrix@i+1,w
  4265  07E0  3A80               	xorlw	128
  4266  07E1  00F5               	movwf	??_displayMatrix
  4267  07E2  3080               	movlw	128
  4268  07E3  0275               	subwf	??_displayMatrix,w
  4269  07E4  1D03               	skipz
  4270  07E5  2FE8               	goto	u1505
  4271  07E6  3007               	movlw	7
  4272  07E7  0234               	subwf	displayMatrix@i,w
  4273  07E8                     u1505:
  4274  07E8  1C03               	skipc
  4275  07E9  2FEB               	goto	u1501
  4276  07EA  2FEC               	goto	u1500
  4277  07EB                     u1501:
  4278  07EB  2FB6               	goto	l2678
  4279  07EC                     u1500:
  4280  07EC                     l664:
  4281  07EC  0008               	return
  4282  07ED                     __end_of_displayMatrix:
  4283                           
  4284                           	psect	text3
  4285  0EA8                     __ptext3:	
  4286 ;; *************** function _shiftBytes *****************
  4287 ;; Defined at:
  4288 ;;		line 777 in file "main.c"
  4289 ;; Parameters:    Size  Location     Type
  4290 ;;  highSide        1    wreg     unsigned char 
  4291 ;;  lowSide         1    3[COMMON] unsigned char 
  4292 ;; Auto vars:     Size  Location     Type
  4293 ;;  highSide        1    4[COMMON] unsigned char 
  4294 ;; Return value:  Size  Location     Type
  4295 ;;                  1    wreg      void 
  4296 ;; Registers used:
  4297 ;;		wreg, status,2, status,0, pclath, cstack
  4298 ;; Tracked objects:
  4299 ;;		On entry : 0/0
  4300 ;;		On exit  : 0/0
  4301 ;;		Unchanged: 0/0
  4302 ;; Data sizes:     COMMON   BANK0   BANK1   BANK2   BANK3   BANK4   BANK5   BANK6   BANK7   BANK8   BANK9  BANK10  BANK1
      +1  BANK12
  4303 ;;      Params:         1       0       0       0       0       0       0       0       0       0       0       0       
      +0       0
  4304 ;;      Locals:         1       0       0       0       0       0       0       0       0       0       0       0       
      +0       0
  4305 ;;      Temps:          0       0       0       0       0       0       0       0       0       0       0       0       
      +0       0
  4306 ;;      Totals:         2       0       0       0       0       0       0       0       0       0       0       0       
      +0       0
  4307 ;;Total ram usage:        2 bytes
  4308 ;; Hardware stack levels used: 1
  4309 ;; Hardware stack levels required when called: 6
  4310 ;; This function calls:
  4311 ;;		_SPI1_ExchangeByte
  4312 ;; This function is called by:
  4313 ;;		_main
  4314 ;;		_displayMatrix
  4315 ;;		_Initialize_Matrix
  4316 ;; This function uses a non-reentrant model
  4317 ;;
  4318                           
  4319                           
  4320                           ;psect for function _shiftBytes
  4321  0EA8                     _shiftBytes:
  4322                           
  4323                           ;incstack = 0
  4324                           ; Regs used in _shiftBytes: [wreg+status,2+status,0+pclath+cstack]
  4325                           ;shiftBytes@highSide stored from wreg
  4326  0EA8  00F4               	movwf	shiftBytes@highSide
  4327  0EA9                     l2652:
  4328                           
  4329                           ;main.c: 777: void shiftBytes(uint8_t highSide, uint8_t lowSide);main.c: 778: {;main.c: 
      +                          780:     SPI1_ExchangeByte(lowSide);
  4330  0EA9  0873               	movf	shiftBytes@lowSide,w
  4331  0EAA  318E  269B  318E   	fcall	_SPI1_ExchangeByte
  4332                           
  4333                           ;main.c: 781:     SPI1_ExchangeByte(highSide);
  4334  0EAD  0874               	movf	shiftBytes@highSide,w
  4335  0EAE  318E  269B  318E   	fcall	_SPI1_ExchangeByte
  4336  0EB1                     l2654:
  4337  0EB1  0140               	movlb	0	; select bank0
  4338  0EB2  161A               	bsf	26,4	;volatile
  4339  0EB3                     l2656:
  4340  0EB3  121A               	bcf	26,4	;volatile
  4341  0EB4                     l657:
  4342  0EB4  0008               	return
  4343  0EB5                     __end_of_shiftBytes:
  4344                           
  4345                           	psect	text4
  4346  0E9B                     __ptext4:	
  4347 ;; *************** function _SPI1_ExchangeByte *****************
  4348 ;; Defined at:
  4349 ;;		line 97 in file "mcc_generated_files/spi1.c"
  4350 ;; Parameters:    Size  Location     Type
  4351 ;;  data            1    wreg     unsigned char 
  4352 ;; Auto vars:     Size  Location     Type
  4353 ;;  data            1    2[COMMON] unsigned char 
  4354 ;; Return value:  Size  Location     Type
  4355 ;;                  1    wreg      unsigned char 
  4356 ;; Registers used:
  4357 ;;		wreg
  4358 ;; Tracked objects:
  4359 ;;		On entry : 0/0
  4360 ;;		On exit  : 0/0
  4361 ;;		Unchanged: 0/0
  4362 ;; Data sizes:     COMMON   BANK0   BANK1   BANK2   BANK3   BANK4   BANK5   BANK6   BANK7   BANK8   BANK9  BANK10  BANK1
      +1  BANK12
  4363 ;;      Params:         0       0       0       0       0       0       0       0       0       0       0       0       
      +0       0
  4364 ;;      Locals:         1       0       0       0       0       0       0       0       0       0       0       0       
      +0       0
  4365 ;;      Temps:          0       0       0       0       0       0       0       0       0       0       0       0       
      +0       0
  4366 ;;      Totals:         1       0       0       0       0       0       0       0       0       0       0       0       
      +0       0
  4367 ;;Total ram usage:        1 bytes
  4368 ;; Hardware stack levels used: 1
  4369 ;; Hardware stack levels required when called: 5
  4370 ;; This function calls:
  4371 ;;		Nothing
  4372 ;; This function is called by:
  4373 ;;		_shiftBytes
  4374 ;;		_SPI1_WriteBlock
  4375 ;;		_SPI1_ReadBlock
  4376 ;; This function uses a non-reentrant model
  4377 ;;
  4378                           
  4379                           
  4380                           ;psect for function _SPI1_ExchangeByte
  4381  0E9B                     _SPI1_ExchangeByte:
  4382                           
  4383                           ;incstack = 0
  4384                           ; Regs used in _SPI1_ExchangeByte: [wreg]
  4385                           ;SPI1_ExchangeByte@data stored from wreg
  4386  0E9B  00F2               	movwf	SPI1_ExchangeByte@data
  4387  0E9C                     l2544:
  4388                           
  4389                           ;mcc_generated_files/spi1.c: 97: uint8_t SPI1_ExchangeByte(uint8_t data);mcc_generated_f
      +                          iles/spi1.c: 98: {;mcc_generated_files/spi1.c: 99:     SSP1BUF = data;
  4390  0E9C  0872               	movf	SPI1_ExchangeByte@data,w
  4391  0E9D  0143               	movlb	3	; select bank3
  4392  0E9E  008C               	movwf	12	;volatile
  4393  0E9F                     l74:	
  4394                           ;mcc_generated_files/spi1.c: 100:     while(!PIR1bits.SSP1IF);
  4395                           
  4396  0E9F  014E               	movlb	14	; select bank14
  4397  0EA0  1C8D               	btfss	13,1	;volatile
  4398  0EA1  2EA3               	goto	u1481
  4399  0EA2  2EA4               	goto	u1480
  4400  0EA3                     u1481:
  4401  0EA3  2E9F               	goto	l74
  4402  0EA4                     u1480:
  4403  0EA4                     l76:
  4404                           
  4405                           ;mcc_generated_files/spi1.c: 101:     PIR1bits.SSP1IF = 0;
  4406  0EA4  108D               	bcf	13,1	;volatile
  4407  0EA5                     l2546:
  4408                           
  4409                           ;mcc_generated_files/spi1.c: 102:     return SSP1BUF;
  4410  0EA5  0143               	movlb	3	; select bank3
  4411  0EA6  080C               	movf	12,w	;volatile
  4412  0EA7                     l77:
  4413  0EA7  0008               	return
  4414  0EA8                     __end_of_SPI1_ExchangeByte:
  4415                           
  4416                           	psect	text5
  4417  0F4C                     __ptext5:	
  4418 ;; *************** function _SYSTEM_Initialize *****************
  4419 ;; Defined at:
  4420 ;;		line 50 in file "mcc_generated_files/mcc.c"
  4421 ;; Parameters:    Size  Location     Type
  4422 ;;		None
  4423 ;; Auto vars:     Size  Location     Type
  4424 ;;		None
  4425 ;; Return value:  Size  Location     Type
  4426 ;;                  1    wreg      void 
  4427 ;; Registers used:
  4428 ;;		wreg, status,2, status,0, pclath, cstack
  4429 ;; Tracked objects:
  4430 ;;		On entry : 0/0
  4431 ;;		On exit  : 0/0
  4432 ;;		Unchanged: 0/0
  4433 ;; Data sizes:     COMMON   BANK0   BANK1   BANK2   BANK3   BANK4   BANK5   BANK6   BANK7   BANK8   BANK9  BANK10  BANK1
      +1  BANK12
  4434 ;;      Params:         0       0       0       0       0       0       0       0       0       0       0       0       
      +0       0
  4435 ;;      Locals:         0       0       0       0       0       0       0       0       0       0       0       0       
      +0       0
  4436 ;;      Temps:          0       0       0       0       0       0       0       0       0       0       0       0       
      +0       0
  4437 ;;      Totals:         0       0       0       0       0       0       0       0       0       0       0       0       
      +0       0
  4438 ;;Total ram usage:        0 bytes
  4439 ;; Hardware stack levels used: 1
  4440 ;; Hardware stack levels required when called: 7
  4441 ;; This function calls:
  4442 ;;		_EXT_INT_Initialize
  4443 ;;		_OSCILLATOR_Initialize
  4444 ;;		_PIN_MANAGER_Initialize
  4445 ;;		_PWM3_Initialize
  4446 ;;		_SPI1_Initialize
  4447 ;;		_TMR0_Initialize
  4448 ;;		_TMR1_Initialize
  4449 ;;		_TMR2_Initialize
  4450 ;;		_WDT_Initialize
  4451 ;; This function is called by:
  4452 ;;		_main
  4453 ;; This function uses a non-reentrant model
  4454 ;;
  4455                           
  4456                           
  4457                           ;psect for function _SYSTEM_Initialize
  4458  0F4C                     _SYSTEM_Initialize:
  4459  0F4C                     l2658:	
  4460                           ;incstack = 0
  4461                           ; Regs used in _SYSTEM_Initialize: [wreg+status,2+status,0+pclath+cstack]
  4462                           
  4463                           
  4464                           ;mcc_generated_files/mcc.c: 53:     SPI1_Initialize();
  4465  0F4C  318E  26EB  318F   	fcall	_SPI1_Initialize
  4466                           
  4467                           ;mcc_generated_files/mcc.c: 54:     PIN_MANAGER_Initialize();
  4468  0F4F  318F  27A7  318F   	fcall	_PIN_MANAGER_Initialize
  4469                           
  4470                           ;mcc_generated_files/mcc.c: 55:     OSCILLATOR_Initialize();
  4471  0F52  318E  265B  318F   	fcall	_OSCILLATOR_Initialize
  4472  0F55                     l2660:
  4473                           
  4474                           ;mcc_generated_files/mcc.c: 56:     WDT_Initialize();
  4475  0F55  318E  2642  318F   	fcall	_WDT_Initialize
  4476  0F58                     l2662:
  4477                           
  4478                           ;mcc_generated_files/mcc.c: 57:     PWM3_Initialize();
  4479  0F58  318E  266D  318F   	fcall	_PWM3_Initialize
  4480  0F5B                     l2664:
  4481                           
  4482                           ;mcc_generated_files/mcc.c: 58:     TMR2_Initialize();
  4483  0F5B  318E  26B5  318F   	fcall	_TMR2_Initialize
  4484  0F5E                     l2666:
  4485                           
  4486                           ;mcc_generated_files/mcc.c: 59:     TMR1_Initialize();
  4487  0F5E  318F  2787  318F   	fcall	_TMR1_Initialize
  4488  0F61                     l2668:
  4489                           
  4490                           ;mcc_generated_files/mcc.c: 60:     EXT_INT_Initialize();
  4491  0F61  318E  268E  318F   	fcall	_EXT_INT_Initialize
  4492  0F64                     l2670:
  4493                           
  4494                           ;mcc_generated_files/mcc.c: 61:     TMR0_Initialize();
  4495  0F64  318F  2717  318F   	fcall	_TMR0_Initialize
  4496  0F67                     l29:
  4497  0F67  0008               	return
  4498  0F68                     __end_of_SYSTEM_Initialize:
  4499                           
  4500                           	psect	text6
  4501  0E42                     __ptext6:	
  4502 ;; *************** function _WDT_Initialize *****************
  4503 ;; Defined at:
  4504 ;;		line 74 in file "mcc_generated_files/mcc.c"
  4505 ;; Parameters:    Size  Location     Type
  4506 ;;		None
  4507 ;; Auto vars:     Size  Location     Type
  4508 ;;		None
  4509 ;; Return value:  Size  Location     Type
  4510 ;;                  1    wreg      void 
  4511 ;; Registers used:
  4512 ;;		status,2
  4513 ;; Tracked objects:
  4514 ;;		On entry : 0/0
  4515 ;;		On exit  : 0/0
  4516 ;;		Unchanged: 0/0
  4517 ;; Data sizes:     COMMON   BANK0   BANK1   BANK2   BANK3   BANK4   BANK5   BANK6   BANK7   BANK8   BANK9  BANK10  BANK1
      +1  BANK12
  4518 ;;      Params:         0       0       0       0       0       0       0       0       0       0       0       0       
      +0       0
  4519 ;;      Locals:         0       0       0       0       0       0       0       0       0       0       0       0       
      +0       0
  4520 ;;      Temps:          0       0       0       0       0       0       0       0       0       0       0       0       
      +0       0
  4521 ;;      Totals:         0       0       0       0       0       0       0       0       0       0       0       0       
      +0       0
  4522 ;;Total ram usage:        0 bytes
  4523 ;; Hardware stack levels used: 1
  4524 ;; Hardware stack levels required when called: 5
  4525 ;; This function calls:
  4526 ;;		Nothing
  4527 ;; This function is called by:
  4528 ;;		_SYSTEM_Initialize
  4529 ;; This function uses a non-reentrant model
  4530 ;;
  4531                           
  4532                           
  4533                           ;psect for function _WDT_Initialize
  4534  0E42                     _WDT_Initialize:
  4535  0E42                     l2602:	
  4536                           ;incstack = 0
  4537                           ; Regs used in _WDT_Initialize: [status,2]
  4538                           
  4539                           
  4540                           ;mcc_generated_files/mcc.c: 77:     WDTCON = 0x00;
  4541  0E42  0150               	movlb	16	; select bank16
  4542  0E43  018C               	clrf	12	;volatile
  4543  0E44                     l35:
  4544  0E44  0008               	return
  4545  0E45                     __end_of_WDT_Initialize:
  4546                           
  4547                           	psect	text7
  4548  0EB5                     __ptext7:	
  4549 ;; *************** function _TMR2_Initialize *****************
  4550 ;; Defined at:
  4551 ;;		line 62 in file "mcc_generated_files/tmr2.c"
  4552 ;; Parameters:    Size  Location     Type
  4553 ;;		None
  4554 ;; Auto vars:     Size  Location     Type
  4555 ;;		None
  4556 ;; Return value:  Size  Location     Type
  4557 ;;                  1    wreg      void 
  4558 ;; Registers used:
  4559 ;;		wreg, status,2
  4560 ;; Tracked objects:
  4561 ;;		On entry : 0/0
  4562 ;;		On exit  : 0/0
  4563 ;;		Unchanged: 0/0
  4564 ;; Data sizes:     COMMON   BANK0   BANK1   BANK2   BANK3   BANK4   BANK5   BANK6   BANK7   BANK8   BANK9  BANK10  BANK1
      +1  BANK12
  4565 ;;      Params:         0       0       0       0       0       0       0       0       0       0       0       0       
      +0       0
  4566 ;;      Locals:         0       0       0       0       0       0       0       0       0       0       0       0       
      +0       0
  4567 ;;      Temps:          0       0       0       0       0       0       0       0       0       0       0       0       
      +0       0
  4568 ;;      Totals:         0       0       0       0       0       0       0       0       0       0       0       0       
      +0       0
  4569 ;;Total ram usage:        0 bytes
  4570 ;; Hardware stack levels used: 1
  4571 ;; Hardware stack levels required when called: 5
  4572 ;; This function calls:
  4573 ;;		Nothing
  4574 ;; This function is called by:
  4575 ;;		_SYSTEM_Initialize
  4576 ;;		_main
  4577 ;; This function uses a non-reentrant model
  4578 ;;
  4579                           
  4580                           
  4581                           ;psect for function _TMR2_Initialize
  4582  0EB5                     _TMR2_Initialize:
  4583  0EB5                     l2606:	
  4584                           ;incstack = 0
  4585                           ; Regs used in _TMR2_Initialize: [wreg+status,2]
  4586                           
  4587                           
  4588                           ;mcc_generated_files/tmr2.c: 67:     T2CLKCON = 0x01;
  4589  0EB5  3001               	movlw	1
  4590  0EB6  0145               	movlb	5	; select bank5
  4591  0EB7  0090               	movwf	16	;volatile
  4592  0EB8                     l2608:
  4593                           
  4594                           ;mcc_generated_files/tmr2.c: 70:     T2HLT = 0x00;
  4595  0EB8  018F               	clrf	15	;volatile
  4596  0EB9                     l2610:
  4597                           
  4598                           ;mcc_generated_files/tmr2.c: 73:     T2RST = 0x00;
  4599  0EB9  0191               	clrf	17	;volatile
  4600                           
  4601                           ;mcc_generated_files/tmr2.c: 76:     T2PR = 0xFF;
  4602  0EBA  30FF               	movlw	255
  4603  0EBB  008D               	movwf	13	;volatile
  4604  0EBC                     l2612:
  4605                           
  4606                           ;mcc_generated_files/tmr2.c: 79:     T2TMR = 0x00;
  4607  0EBC  018C               	clrf	12	;volatile
  4608  0EBD                     l2614:
  4609                           
  4610                           ;mcc_generated_files/tmr2.c: 82:     PIR1bits.TMR2IF = 0;
  4611  0EBD  014E               	movlb	14	; select bank14
  4612  0EBE  130D               	bcf	13,6	;volatile
  4613  0EBF                     l2616:
  4614                           
  4615                           ;mcc_generated_files/tmr2.c: 85:     T2CON = 0xB0;
  4616  0EBF  30B0               	movlw	176
  4617  0EC0  0145               	movlb	5	; select bank5
  4618  0EC1  008E               	movwf	14	;volatile
  4619  0EC2                     l177:
  4620  0EC2  0008               	return
  4621  0EC3                     __end_of_TMR2_Initialize:
  4622                           
  4623                           	psect	text8
  4624  0F87                     __ptext8:	
  4625 ;; *************** function _TMR1_Initialize *****************
  4626 ;; Defined at:
  4627 ;;		line 64 in file "mcc_generated_files/tmr1.c"
  4628 ;; Parameters:    Size  Location     Type
  4629 ;;		None
  4630 ;; Auto vars:     Size  Location     Type
  4631 ;;		None
  4632 ;; Return value:  Size  Location     Type
  4633 ;;                  1    wreg      void 
  4634 ;; Registers used:
  4635 ;;		wreg, status,2, status,0, pclath, cstack
  4636 ;; Tracked objects:
  4637 ;;		On entry : 0/0
  4638 ;;		On exit  : 0/0
  4639 ;;		Unchanged: 0/0
  4640 ;; Data sizes:     COMMON   BANK0   BANK1   BANK2   BANK3   BANK4   BANK5   BANK6   BANK7   BANK8   BANK9  BANK10  BANK1
      +1  BANK12
  4641 ;;      Params:         0       0       0       0       0       0       0       0       0       0       0       0       
      +0       0
  4642 ;;      Locals:         0       0       0       0       0       0       0       0       0       0       0       0       
      +0       0
  4643 ;;      Temps:          0       0       0       0       0       0       0       0       0       0       0       0       
      +0       0
  4644 ;;      Totals:         0       0       0       0       0       0       0       0       0       0       0       0       
      +0       0
  4645 ;;Total ram usage:        0 bytes
  4646 ;; Hardware stack levels used: 1
  4647 ;; Hardware stack levels required when called: 6
  4648 ;; This function calls:
  4649 ;;		_TMR1_SetInterruptHandler
  4650 ;; This function is called by:
  4651 ;;		_SYSTEM_Initialize
  4652 ;;		_main
  4653 ;; This function uses a non-reentrant model
  4654 ;;
  4655                           
  4656                           
  4657                           ;psect for function _TMR1_Initialize
  4658  0F87                     _TMR1_Initialize:
  4659  0F87                     l2618:	
  4660                           ;incstack = 0
  4661                           ; Regs used in _TMR1_Initialize: [wreg+status,2+status,0+pclath+cstack]
  4662                           
  4663                           
  4664                           ;mcc_generated_files/tmr1.c: 69:     T1GCON = 0x00;
  4665  0F87  0144               	movlb	4	; select bank4
  4666  0F88  018F               	clrf	15	;volatile
  4667                           
  4668                           ;mcc_generated_files/tmr1.c: 72:     T1GATE = 0x00;
  4669  0F89  0190               	clrf	16	;volatile
  4670  0F8A                     l2620:
  4671                           
  4672                           ;mcc_generated_files/tmr1.c: 75:     T1CLK = 0x04;
  4673  0F8A  3004               	movlw	4
  4674  0F8B  0091               	movwf	17	;volatile
  4675  0F8C                     l2622:
  4676                           
  4677                           ;mcc_generated_files/tmr1.c: 78:     TMR1H = 0xE1;
  4678  0F8C  30E1               	movlw	225
  4679  0F8D  008D               	movwf	13	;volatile
  4680  0F8E                     l2624:
  4681                           
  4682                           ;mcc_generated_files/tmr1.c: 81:     TMR1L = 0xBA;
  4683  0F8E  30BA               	movlw	186
  4684  0F8F  008C               	movwf	12	;volatile
  4685  0F90                     l2626:
  4686                           
  4687                           ;mcc_generated_files/tmr1.c: 84:     PIR1bits.TMR1IF = 0;
  4688  0F90  014E               	movlb	14	; select bank14
  4689  0F91  128D               	bcf	13,5	;volatile
  4690  0F92                     l2628:
  4691                           
  4692                           ;mcc_generated_files/tmr1.c: 87:     timer1ReloadVal=(uint16_t)((TMR1H << 8) | TMR1L);
  4693  0F92  0144               	movlb	4	; select bank4
  4694  0F93  080D               	movf	13,w	;volatile
  4695  0F94  0140               	movlb	0	; select bank0
  4696  0F95  00D8               	movwf	_timer1ReloadVal+1	;volatile
  4697  0F96  0144               	movlb	4	; select bank4
  4698  0F97  080C               	movf	12,w	;volatile
  4699  0F98  0140               	movlb	0	; select bank0
  4700  0F99  00D7               	movwf	_timer1ReloadVal	;volatile
  4701  0F9A                     l2630:
  4702                           
  4703                           ;mcc_generated_files/tmr1.c: 90:     PIE1bits.TMR1IE = 1;
  4704  0F9A  014E               	movlb	14	; select bank14
  4705  0F9B  1697               	bsf	23,5	;volatile
  4706  0F9C                     l2632:
  4707                           
  4708                           ;mcc_generated_files/tmr1.c: 93:     TMR1_SetInterruptHandler(TMR1_DefaultInterruptHandl
      +                          er);
  4709  0F9C  30FF               	movlw	low _TMR1_DefaultInterruptHandler
  4710  0F9D  00F2               	movwf	TMR1_SetInterruptHandler@InterruptHandler
  4711  0F9E  3007               	movlw	high _TMR1_DefaultInterruptHandler
  4712  0F9F  00F3               	movwf	TMR1_SetInterruptHandler@InterruptHandler+1
  4713  0FA0  318E  2667  318F   	fcall	_TMR1_SetInterruptHandler
  4714  0FA3                     l2634:
  4715                           
  4716                           ;mcc_generated_files/tmr1.c: 96:     T1CON = 0x05;
  4717  0FA3  3005               	movlw	5
  4718  0FA4  0144               	movlb	4	; select bank4
  4719  0FA5  008E               	movwf	14	;volatile
  4720  0FA6                     l365:
  4721  0FA6  0008               	return
  4722  0FA7                     __end_of_TMR1_Initialize:
  4723                           
  4724                           	psect	text9
  4725  0E67                     __ptext9:	
  4726 ;; *************** function _TMR1_SetInterruptHandler *****************
  4727 ;; Defined at:
  4728 ;;		line 178 in file "mcc_generated_files/tmr1.c"
  4729 ;; Parameters:    Size  Location     Type
  4730 ;;  InterruptHan    2    2[COMMON] PTR FTN()void 
  4731 ;;		 -> TMR1_ISR_(1), TMR1_DefaultInterruptHandler(1), 
  4732 ;; Auto vars:     Size  Location     Type
  4733 ;;		None
  4734 ;; Return value:  Size  Location     Type
  4735 ;;                  1    wreg      void 
  4736 ;; Registers used:
  4737 ;;		wreg
  4738 ;; Tracked objects:
  4739 ;;		On entry : 0/0
  4740 ;;		On exit  : 0/0
  4741 ;;		Unchanged: 0/0
  4742 ;; Data sizes:     COMMON   BANK0   BANK1   BANK2   BANK3   BANK4   BANK5   BANK6   BANK7   BANK8   BANK9  BANK10  BANK1
      +1  BANK12
  4743 ;;      Params:         2       0       0       0       0       0       0       0       0       0       0       0       
      +0       0
  4744 ;;      Locals:         0       0       0       0       0       0       0       0       0       0       0       0       
      +0       0
  4745 ;;      Temps:          0       0       0       0       0       0       0       0       0       0       0       0       
      +0       0
  4746 ;;      Totals:         2       0       0       0       0       0       0       0       0       0       0       0       
      +0       0
  4747 ;;Total ram usage:        2 bytes
  4748 ;; Hardware stack levels used: 1
  4749 ;; Hardware stack levels required when called: 5
  4750 ;; This function calls:
  4751 ;;		Nothing
  4752 ;; This function is called by:
  4753 ;;		_TMR1_Initialize
  4754 ;;		_main
  4755 ;; This function uses a non-reentrant model
  4756 ;;
  4757                           
  4758                           
  4759                           ;psect for function _TMR1_SetInterruptHandler
  4760  0E67                     _TMR1_SetInterruptHandler:
  4761  0E67                     l2554:	
  4762                           ;incstack = 0
  4763                           ; Regs used in _TMR1_SetInterruptHandler: [wreg]
  4764                           
  4765                           
  4766                           ;mcc_generated_files/tmr1.c: 179:     TMR1_InterruptHandler = InterruptHandler;
  4767  0E67  0873               	movf	TMR1_SetInterruptHandler@InterruptHandler+1,w
  4768  0E68  0140               	movlb	0	; select bank0
  4769  0E69  00D6               	movwf	_TMR1_InterruptHandler+1
  4770  0E6A  0872               	movf	TMR1_SetInterruptHandler@InterruptHandler,w
  4771  0E6B  00D5               	movwf	_TMR1_InterruptHandler
  4772  0E6C                     l395:
  4773  0E6C  0008               	return
  4774  0E6D                     __end_of_TMR1_SetInterruptHandler:
  4775                           
  4776                           	psect	text10
  4777  0F17                     __ptext10:	
  4778 ;; *************** function _TMR0_Initialize *****************
  4779 ;; Defined at:
  4780 ;;		line 66 in file "mcc_generated_files/tmr0.c"
  4781 ;; Parameters:    Size  Location     Type
  4782 ;;		None
  4783 ;; Auto vars:     Size  Location     Type
  4784 ;;		None
  4785 ;; Return value:  Size  Location     Type
  4786 ;;                  1    wreg      void 
  4787 ;; Registers used:
  4788 ;;		wreg, status,2, status,0, pclath, cstack
  4789 ;; Tracked objects:
  4790 ;;		On entry : 0/0
  4791 ;;		On exit  : 0/0
  4792 ;;		Unchanged: 0/0
  4793 ;; Data sizes:     COMMON   BANK0   BANK1   BANK2   BANK3   BANK4   BANK5   BANK6   BANK7   BANK8   BANK9  BANK10  BANK1
      +1  BANK12
  4794 ;;      Params:         0       0       0       0       0       0       0       0       0       0       0       0       
      +0       0
  4795 ;;      Locals:         0       0       0       0       0       0       0       0       0       0       0       0       
      +0       0
  4796 ;;      Temps:          0       0       0       0       0       0       0       0       0       0       0       0       
      +0       0
  4797 ;;      Totals:         0       0       0       0       0       0       0       0       0       0       0       0       
      +0       0
  4798 ;;Total ram usage:        0 bytes
  4799 ;; Hardware stack levels used: 1
  4800 ;; Hardware stack levels required when called: 6
  4801 ;; This function calls:
  4802 ;;		_TMR0_SetInterruptHandler
  4803 ;; This function is called by:
  4804 ;;		_SYSTEM_Initialize
  4805 ;;		_main
  4806 ;; This function uses a non-reentrant model
  4807 ;;
  4808                           
  4809                           
  4810                           ;psect for function _TMR0_Initialize
  4811  0F17                     _TMR0_Initialize:
  4812  0F17                     l2642:	
  4813                           ;incstack = 0
  4814                           ; Regs used in _TMR0_Initialize: [wreg+status,2+status,0+pclath+cstack]
  4815                           
  4816                           
  4817                           ;mcc_generated_files/tmr0.c: 71:     T0CON1 = 0x90;
  4818  0F17  3090               	movlw	144
  4819  0F18  014B               	movlb	11	; select bank11
  4820  0F19  009F               	movwf	31	;volatile
  4821                           
  4822                           ;mcc_generated_files/tmr0.c: 74:     TMR0H = 0x86;
  4823  0F1A  3086               	movlw	134
  4824  0F1B  009D               	movwf	29	;volatile
  4825                           
  4826                           ;mcc_generated_files/tmr0.c: 77:     TMR0L = 0xE8;
  4827  0F1C  30E8               	movlw	232
  4828  0F1D  009C               	movwf	28	;volatile
  4829                           
  4830                           ;mcc_generated_files/tmr0.c: 80:     timer0ReloadVal16bit = (TMR0H << 8) | TMR0L;
  4831  0F1E  081D               	movf	29,w	;volatile
  4832  0F1F  00F8               	movwf	_timer0ReloadVal16bit+1	;volatile
  4833  0F20  081C               	movf	28,w	;volatile
  4834  0F21  00F7               	movwf	_timer0ReloadVal16bit	;volatile
  4835  0F22                     l2644:
  4836                           
  4837                           ;mcc_generated_files/tmr0.c: 83:     PIR0bits.TMR0IF = 0;
  4838  0F22  014E               	movlb	14	; select bank14
  4839  0F23  128C               	bcf	12,5	;volatile
  4840  0F24                     l2646:
  4841                           
  4842                           ;mcc_generated_files/tmr0.c: 86:     PIE0bits.TMR0IE = 1;
  4843  0F24  1696               	bsf	22,5	;volatile
  4844  0F25                     l2648:
  4845                           
  4846                           ;mcc_generated_files/tmr0.c: 89:     TMR0_SetInterruptHandler(TMR0_DefaultInterruptHandl
      +                          er);
  4847  0F25  3003               	movlw	low _TMR0_DefaultInterruptHandler
  4848  0F26  00F2               	movwf	TMR0_SetInterruptHandler@InterruptHandler
  4849  0F27  3000               	movlw	high _TMR0_DefaultInterruptHandler
  4850  0F28  00F3               	movwf	TMR0_SetInterruptHandler@InterruptHandler+1
  4851  0F29  318E  2661  318F   	fcall	_TMR0_SetInterruptHandler
  4852  0F2C                     l2650:
  4853                           
  4854                           ;mcc_generated_files/tmr0.c: 92:     T0CON0 = 0x90;
  4855  0F2C  3090               	movlw	144
  4856  0F2D  014B               	movlb	11	; select bank11
  4857  0F2E  009E               	movwf	30	;volatile
  4858  0F2F                     l309:
  4859  0F2F  0008               	return
  4860  0F30                     __end_of_TMR0_Initialize:
  4861                           
  4862                           	psect	text11
  4863  0E61                     __ptext11:	
  4864 ;; *************** function _TMR0_SetInterruptHandler *****************
  4865 ;; Defined at:
  4866 ;;		line 151 in file "mcc_generated_files/tmr0.c"
  4867 ;; Parameters:    Size  Location     Type
  4868 ;;  InterruptHan    2    2[COMMON] PTR FTN()void 
  4869 ;;		 -> TMR0_ISR_(1), TMR0_DefaultInterruptHandler(1), 
  4870 ;; Auto vars:     Size  Location     Type
  4871 ;;		None
  4872 ;; Return value:  Size  Location     Type
  4873 ;;                  1    wreg      void 
  4874 ;; Registers used:
  4875 ;;		wreg
  4876 ;; Tracked objects:
  4877 ;;		On entry : 0/0
  4878 ;;		On exit  : 0/0
  4879 ;;		Unchanged: 0/0
  4880 ;; Data sizes:     COMMON   BANK0   BANK1   BANK2   BANK3   BANK4   BANK5   BANK6   BANK7   BANK8   BANK9  BANK10  BANK1
      +1  BANK12
  4881 ;;      Params:         2       0       0       0       0       0       0       0       0       0       0       0       
      +0       0
  4882 ;;      Locals:         0       0       0       0       0       0       0       0       0       0       0       0       
      +0       0
  4883 ;;      Temps:          0       0       0       0       0       0       0       0       0       0       0       0       
      +0       0
  4884 ;;      Totals:         2       0       0       0       0       0       0       0       0       0       0       0       
      +0       0
  4885 ;;Total ram usage:        2 bytes
  4886 ;; Hardware stack levels used: 1
  4887 ;; Hardware stack levels required when called: 5
  4888 ;; This function calls:
  4889 ;;		Nothing
  4890 ;; This function is called by:
  4891 ;;		_TMR0_Initialize
  4892 ;;		_main
  4893 ;; This function uses a non-reentrant model
  4894 ;;
  4895                           
  4896                           
  4897                           ;psect for function _TMR0_SetInterruptHandler
  4898  0E61                     _TMR0_SetInterruptHandler:
  4899  0E61                     l2552:	
  4900                           ;incstack = 0
  4901                           ; Regs used in _TMR0_SetInterruptHandler: [wreg]
  4902                           
  4903                           
  4904                           ;mcc_generated_files/tmr0.c: 152:     TMR0_InterruptHandler = InterruptHandler;
  4905  0E61  0873               	movf	TMR0_SetInterruptHandler@InterruptHandler+1,w
  4906  0E62  0140               	movlb	0	; select bank0
  4907  0E63  00DA               	movwf	_TMR0_InterruptHandler+1
  4908  0E64  0872               	movf	TMR0_SetInterruptHandler@InterruptHandler,w
  4909  0E65  00D9               	movwf	_TMR0_InterruptHandler
  4910  0E66                     l331:
  4911  0E66  0008               	return
  4912  0E67                     __end_of_TMR0_SetInterruptHandler:
  4913                           
  4914                           	psect	text12
  4915  0EEB                     __ptext12:	
  4916 ;; *************** function _SPI1_Initialize *****************
  4917 ;; Defined at:
  4918 ;;		line 62 in file "mcc_generated_files/spi1.c"
  4919 ;; Parameters:    Size  Location     Type
  4920 ;;		None
  4921 ;; Auto vars:     Size  Location     Type
  4922 ;;		None
  4923 ;; Return value:  Size  Location     Type
  4924 ;;                  1    wreg      void 
  4925 ;; Registers used:
  4926 ;;		wreg, status,2
  4927 ;; Tracked objects:
  4928 ;;		On entry : 0/0
  4929 ;;		On exit  : 0/0
  4930 ;;		Unchanged: 0/0
  4931 ;; Data sizes:     COMMON   BANK0   BANK1   BANK2   BANK3   BANK4   BANK5   BANK6   BANK7   BANK8   BANK9  BANK10  BANK1
      +1  BANK12
  4932 ;;      Params:         0       0       0       0       0       0       0       0       0       0       0       0       
      +0       0
  4933 ;;      Locals:         0       0       0       0       0       0       0       0       0       0       0       0       
      +0       0
  4934 ;;      Temps:          0       0       0       0       0       0       0       0       0       0       0       0       
      +0       0
  4935 ;;      Totals:         0       0       0       0       0       0       0       0       0       0       0       0       
      +0       0
  4936 ;;Total ram usage:        0 bytes
  4937 ;; Hardware stack levels used: 1
  4938 ;; Hardware stack levels required when called: 5
  4939 ;; This function calls:
  4940 ;;		Nothing
  4941 ;; This function is called by:
  4942 ;;		_SYSTEM_Initialize
  4943 ;;		_main
  4944 ;; This function uses a non-reentrant model
  4945 ;;
  4946                           
  4947                           
  4948                           ;psect for function _SPI1_Initialize
  4949  0EEB                     _SPI1_Initialize:
  4950  0EEB                     l2556:	
  4951                           ;incstack = 0
  4952                           ; Regs used in _SPI1_Initialize: [wreg+status,2]
  4953                           
  4954                           
  4955                           ;mcc_generated_files/spi1.c: 65:     SSP1CLKPPS = 21;
  4956  0EEB  3015               	movlw	21
  4957  0EEC  017D               	movlb	61	; select bank61
  4958  0EED  00C5               	movwf	69	;volatile
  4959                           
  4960                           ;mcc_generated_files/spi1.c: 66:     SSP1DATPPS = 4;
  4961  0EEE  3004               	movlw	4
  4962  0EEF  00C6               	movwf	70	;volatile
  4963                           
  4964                           ;mcc_generated_files/spi1.c: 67:     RC5PPS = 7;
  4965  0EF0  3007               	movlw	7
  4966  0EF1  017E               	movlb	62	; select bank62
  4967  0EF2  00A5               	movwf	37	;volatile
  4968                           
  4969                           ;mcc_generated_files/spi1.c: 68:     RC3PPS = 8;
  4970  0EF3  3008               	movlw	8
  4971  0EF4  00A3               	movwf	35	;volatile
  4972                           
  4973                           ;mcc_generated_files/spi1.c: 70:     SSP1STAT = 0x40;
  4974  0EF5  3040               	movlw	64
  4975  0EF6  0143               	movlb	3	; select bank3
  4976  0EF7  008F               	movwf	15	;volatile
  4977  0EF8                     l2558:
  4978                           
  4979                           ;mcc_generated_files/spi1.c: 71:     SSP1CON1 = 0x00;
  4980  0EF8  0190               	clrf	16	;volatile
  4981  0EF9                     l2560:
  4982                           
  4983                           ;mcc_generated_files/spi1.c: 72:     SSP1ADD = 0x01;
  4984  0EF9  3001               	movlw	1
  4985  0EFA  008D               	movwf	13	;volatile
  4986  0EFB                     l2562:
  4987                           
  4988                           ;mcc_generated_files/spi1.c: 73:     TRISCbits.TRISC5 = 0;
  4989  0EFB  0140               	movlb	0	; select bank0
  4990  0EFC  1294               	bcf	20,5	;volatile
  4991  0EFD                     l2564:
  4992                           
  4993                           ;mcc_generated_files/spi1.c: 74:     SSP1CON1bits.SSPEN = 0;
  4994  0EFD  0143               	movlb	3	; select bank3
  4995  0EFE  1290               	bcf	16,5	;volatile
  4996  0EFF                     l64:
  4997  0EFF  0008               	return
  4998  0F00                     __end_of_SPI1_Initialize:
  4999                           
  5000                           	psect	text13
  5001  0E6D                     __ptext13:	
  5002 ;; *************** function _PWM3_Initialize *****************
  5003 ;; Defined at:
  5004 ;;		line 58 in file "mcc_generated_files/pwm3.c"
  5005 ;; Parameters:    Size  Location     Type
  5006 ;;		None
  5007 ;; Auto vars:     Size  Location     Type
  5008 ;;		None
  5009 ;; Return value:  Size  Location     Type
  5010 ;;                  1    wreg      void 
  5011 ;; Registers used:
  5012 ;;		wreg
  5013 ;; Tracked objects:
  5014 ;;		On entry : 0/0
  5015 ;;		On exit  : 0/0
  5016 ;;		Unchanged: 0/0
  5017 ;; Data sizes:     COMMON   BANK0   BANK1   BANK2   BANK3   BANK4   BANK5   BANK6   BANK7   BANK8   BANK9  BANK10  BANK1
      +1  BANK12
  5018 ;;      Params:         0       0       0       0       0       0       0       0       0       0       0       0       
      +0       0
  5019 ;;      Locals:         0       0       0       0       0       0       0       0       0       0       0       0       
      +0       0
  5020 ;;      Temps:          0       0       0       0       0       0       0       0       0       0       0       0       
      +0       0
  5021 ;;      Totals:         0       0       0       0       0       0       0       0       0       0       0       0       
      +0       0
  5022 ;;Total ram usage:        0 bytes
  5023 ;; Hardware stack levels used: 1
  5024 ;; Hardware stack levels required when called: 5
  5025 ;; This function calls:
  5026 ;;		Nothing
  5027 ;; This function is called by:
  5028 ;;		_SYSTEM_Initialize
  5029 ;;		_main
  5030 ;; This function uses a non-reentrant model
  5031 ;;
  5032                           
  5033                           
  5034                           ;psect for function _PWM3_Initialize
  5035  0E6D                     _PWM3_Initialize:
  5036  0E6D                     l2604:	
  5037                           ;incstack = 0
  5038                           ; Regs used in _PWM3_Initialize: [wreg]
  5039                           
  5040                           
  5041                           ;mcc_generated_files/pwm3.c: 62:     PWM3CON = 0x80;
  5042  0E6D  3080               	movlw	128
  5043  0E6E  0146               	movlb	6	; select bank6
  5044  0E6F  0096               	movwf	22	;volatile
  5045                           
  5046                           ;mcc_generated_files/pwm3.c: 65:     PWM3DCH = 0x7F;
  5047  0E70  307F               	movlw	127
  5048  0E71  0095               	movwf	21	;volatile
  5049                           
  5050                           ;mcc_generated_files/pwm3.c: 68:     PWM3DCL = 0xC0;
  5051  0E72  30C0               	movlw	192
  5052  0E73  0094               	movwf	20	;volatile
  5053  0E74                     l226:
  5054  0E74  0008               	return
  5055  0E75                     __end_of_PWM3_Initialize:
  5056                           
  5057                           	psect	text14
  5058  0FA7                     __ptext14:	
  5059 ;; *************** function _PIN_MANAGER_Initialize *****************
  5060 ;; Defined at:
  5061 ;;		line 55 in file "mcc_generated_files/pin_manager.c"
  5062 ;; Parameters:    Size  Location     Type
  5063 ;;		None
  5064 ;; Auto vars:     Size  Location     Type
  5065 ;;		None
  5066 ;; Return value:  Size  Location     Type
  5067 ;;                  1    wreg      void 
  5068 ;; Registers used:
  5069 ;;		wreg, status,2
  5070 ;; Tracked objects:
  5071 ;;		On entry : 0/0
  5072 ;;		On exit  : 0/0
  5073 ;;		Unchanged: 0/0
  5074 ;; Data sizes:     COMMON   BANK0   BANK1   BANK2   BANK3   BANK4   BANK5   BANK6   BANK7   BANK8   BANK9  BANK10  BANK1
      +1  BANK12
  5075 ;;      Params:         0       0       0       0       0       0       0       0       0       0       0       0       
      +0       0
  5076 ;;      Locals:         0       0       0       0       0       0       0       0       0       0       0       0       
      +0       0
  5077 ;;      Temps:          0       0       0       0       0       0       0       0       0       0       0       0       
      +0       0
  5078 ;;      Totals:         0       0       0       0       0       0       0       0       0       0       0       0       
      +0       0
  5079 ;;Total ram usage:        0 bytes
  5080 ;; Hardware stack levels used: 1
  5081 ;; Hardware stack levels required when called: 5
  5082 ;; This function calls:
  5083 ;;		Nothing
  5084 ;; This function is called by:
  5085 ;;		_SYSTEM_Initialize
  5086 ;; This function uses a non-reentrant model
  5087 ;;
  5088                           
  5089                           
  5090                           ;psect for function _PIN_MANAGER_Initialize
  5091  0FA7                     _PIN_MANAGER_Initialize:
  5092  0FA7                     l2566:	
  5093                           ;incstack = 0
  5094                           ; Regs used in _PIN_MANAGER_Initialize: [wreg+status,2]
  5095                           
  5096                           
  5097                           ;mcc_generated_files/pin_manager.c: 60:     LATA = 0x00;
  5098  0FA7  0140               	movlb	0	; select bank0
  5099  0FA8  0198               	clrf	24	;volatile
  5100                           
  5101                           ;mcc_generated_files/pin_manager.c: 61:     LATC = 0x00;
  5102  0FA9  019A               	clrf	26	;volatile
  5103  0FAA                     l2568:
  5104                           
  5105                           ;mcc_generated_files/pin_manager.c: 66:     TRISA = 0x1F;
  5106  0FAA  301F               	movlw	31
  5107  0FAB  0092               	movwf	18	;volatile
  5108  0FAC                     l2570:
  5109                           
  5110                           ;mcc_generated_files/pin_manager.c: 67:     TRISC = 0x02;
  5111  0FAC  3002               	movlw	2
  5112  0FAD  0094               	movwf	20	;volatile
  5113  0FAE                     l2572:
  5114                           
  5115                           ;mcc_generated_files/pin_manager.c: 72:     ANSELC = 0x1F;
  5116  0FAE  301F               	movlw	31
  5117  0FAF  017E               	movlb	62	; select bank62
  5118  0FB0  00CE               	movwf	78	;volatile
  5119  0FB1                     l2574:
  5120                           
  5121                           ;mcc_generated_files/pin_manager.c: 73:     ANSELA = 0x23;
  5122  0FB1  3023               	movlw	35
  5123  0FB2  00B8               	movwf	56	;volatile
  5124                           
  5125                           ;mcc_generated_files/pin_manager.c: 78:     WPUA = 0x00;
  5126  0FB3  01B9               	clrf	57	;volatile
  5127                           
  5128                           ;mcc_generated_files/pin_manager.c: 79:     WPUC = 0x00;
  5129  0FB4  01CF               	clrf	79	;volatile
  5130                           
  5131                           ;mcc_generated_files/pin_manager.c: 84:     ODCONA = 0x00;
  5132  0FB5  01BA               	clrf	58	;volatile
  5133                           
  5134                           ;mcc_generated_files/pin_manager.c: 85:     ODCONC = 0x00;
  5135  0FB6  01D0               	clrf	80	;volatile
  5136  0FB7                     l2576:
  5137                           
  5138                           ;mcc_generated_files/pin_manager.c: 90:     SLRCONA = 0x37;
  5139  0FB7  3037               	movlw	55
  5140  0FB8  00BB               	movwf	59	;volatile
  5141  0FB9                     l2578:
  5142                           
  5143                           ;mcc_generated_files/pin_manager.c: 91:     SLRCONC = 0x3F;
  5144  0FB9  303F               	movlw	63
  5145  0FBA  00D1               	movwf	81	;volatile
  5146  0FBB                     l2580:
  5147                           
  5148                           ;mcc_generated_files/pin_manager.c: 96:     INLVLA = 0x3F;
  5149  0FBB  303F               	movlw	63
  5150  0FBC  00BC               	movwf	60	;volatile
  5151  0FBD                     l2582:
  5152                           
  5153                           ;mcc_generated_files/pin_manager.c: 97:     INLVLC = 0x3F;
  5154  0FBD  303F               	movlw	63
  5155  0FBE  00D2               	movwf	82	;volatile
  5156  0FBF                     l2584:
  5157                           
  5158                           ;mcc_generated_files/pin_manager.c: 106:     INTPPS = 0x02;
  5159  0FBF  3002               	movlw	2
  5160  0FC0  017D               	movlb	61	; select bank61
  5161  0FC1  0090               	movwf	16	;volatile
  5162  0FC2                     l2586:
  5163                           
  5164                           ;mcc_generated_files/pin_manager.c: 107:     SSP1CLKPPS = 0x15;
  5165  0FC2  3015               	movlw	21
  5166  0FC3  00C5               	movwf	69	;volatile
  5167  0FC4                     l2588:
  5168                           
  5169                           ;mcc_generated_files/pin_manager.c: 108:     RC3PPS = 0x08;
  5170  0FC4  3008               	movlw	8
  5171  0FC5  017E               	movlb	62	; select bank62
  5172  0FC6  00A3               	movwf	35	;volatile
  5173  0FC7                     l2590:
  5174                           
  5175                           ;mcc_generated_files/pin_manager.c: 109:     RA5PPS = 0x03;
  5176  0FC7  3003               	movlw	3
  5177  0FC8  0095               	movwf	21	;volatile
  5178  0FC9                     l2592:
  5179                           
  5180                           ;mcc_generated_files/pin_manager.c: 110:     RC5PPS = 0x07;
  5181  0FC9  3007               	movlw	7
  5182  0FCA  00A5               	movwf	37	;volatile
  5183  0FCB                     l2594:
  5184                           
  5185                           ;mcc_generated_files/pin_manager.c: 111:     SSP1DATPPS = 0x04;
  5186  0FCB  3004               	movlw	4
  5187  0FCC  017D               	movlb	61	; select bank61
  5188  0FCD  00C6               	movwf	70	;volatile
  5189  0FCE                     l147:
  5190  0FCE  0008               	return
  5191  0FCF                     __end_of_PIN_MANAGER_Initialize:
  5192                           
  5193                           	psect	text15
  5194  0E5B                     __ptext15:	
  5195 ;; *************** function _OSCILLATOR_Initialize *****************
  5196 ;; Defined at:
  5197 ;;		line 64 in file "mcc_generated_files/mcc.c"
  5198 ;; Parameters:    Size  Location     Type
  5199 ;;		None
  5200 ;; Auto vars:     Size  Location     Type
  5201 ;;		None
  5202 ;; Return value:  Size  Location     Type
  5203 ;;                  1    wreg      void 
  5204 ;; Registers used:
  5205 ;;		wreg, status,2
  5206 ;; Tracked objects:
  5207 ;;		On entry : 0/0
  5208 ;;		On exit  : 0/0
  5209 ;;		Unchanged: 0/0
  5210 ;; Data sizes:     COMMON   BANK0   BANK1   BANK2   BANK3   BANK4   BANK5   BANK6   BANK7   BANK8   BANK9  BANK10  BANK1
      +1  BANK12
  5211 ;;      Params:         0       0       0       0       0       0       0       0       0       0       0       0       
      +0       0
  5212 ;;      Locals:         0       0       0       0       0       0       0       0       0       0       0       0       
      +0       0
  5213 ;;      Temps:          0       0       0       0       0       0       0       0       0       0       0       0       
      +0       0
  5214 ;;      Totals:         0       0       0       0       0       0       0       0       0       0       0       0       
      +0       0
  5215 ;;Total ram usage:        0 bytes
  5216 ;; Hardware stack levels used: 1
  5217 ;; Hardware stack levels required when called: 5
  5218 ;; This function calls:
  5219 ;;		Nothing
  5220 ;; This function is called by:
  5221 ;;		_SYSTEM_Initialize
  5222 ;; This function uses a non-reentrant model
  5223 ;;
  5224                           
  5225                           
  5226                           ;psect for function _OSCILLATOR_Initialize
  5227  0E5B                     _OSCILLATOR_Initialize:
  5228  0E5B                     l2596:	
  5229                           ;incstack = 0
  5230                           ; Regs used in _OSCILLATOR_Initialize: [wreg+status,2]
  5231                           
  5232                           
  5233                           ;mcc_generated_files/mcc.c: 67:     OSCEN = 0x00;
  5234  0E5B  0151               	movlb	17	; select bank17
  5235  0E5C  0191               	clrf	17	;volatile
  5236  0E5D                     l2598:
  5237                           
  5238                           ;mcc_generated_files/mcc.c: 69:     OSCFRQ = 0x03;
  5239  0E5D  3003               	movlw	3
  5240  0E5E  0093               	movwf	19	;volatile
  5241  0E5F                     l2600:
  5242                           
  5243                           ;mcc_generated_files/mcc.c: 71:     OSCTUNE = 0x00;
  5244  0E5F  0192               	clrf	18	;volatile
  5245  0E60                     l32:
  5246  0E60  0008               	return
  5247  0E61                     __end_of_OSCILLATOR_Initialize:
  5248                           
  5249                           	psect	text16
  5250  0E8E                     __ptext16:	
  5251 ;; *************** function _EXT_INT_Initialize *****************
  5252 ;; Defined at:
  5253 ;;		line 72 in file "mcc_generated_files/ext_int.c"
  5254 ;; Parameters:    Size  Location     Type
  5255 ;;		None
  5256 ;; Auto vars:     Size  Location     Type
  5257 ;;		None
  5258 ;; Return value:  Size  Location     Type
  5259 ;;                  1    wreg      void 
  5260 ;; Registers used:
  5261 ;;		wreg, status,2, status,0, pclath, cstack
  5262 ;; Tracked objects:
  5263 ;;		On entry : 0/0
  5264 ;;		On exit  : 0/0
  5265 ;;		Unchanged: 0/0
  5266 ;; Data sizes:     COMMON   BANK0   BANK1   BANK2   BANK3   BANK4   BANK5   BANK6   BANK7   BANK8   BANK9  BANK10  BANK1
      +1  BANK12
  5267 ;;      Params:         0       0       0       0       0       0       0       0       0       0       0       0       
      +0       0
  5268 ;;      Locals:         0       0       0       0       0       0       0       0       0       0       0       0       
      +0       0
  5269 ;;      Temps:          0       0       0       0       0       0       0       0       0       0       0       0       
      +0       0
  5270 ;;      Totals:         0       0       0       0       0       0       0       0       0       0       0       0       
      +0       0
  5271 ;;Total ram usage:        0 bytes
  5272 ;; Hardware stack levels used: 1
  5273 ;; Hardware stack levels required when called: 6
  5274 ;; This function calls:
  5275 ;;		_INT_SetInterruptHandler
  5276 ;; This function is called by:
  5277 ;;		_SYSTEM_Initialize
  5278 ;;		_main
  5279 ;; This function uses a non-reentrant model
  5280 ;;
  5281                           
  5282                           
  5283                           ;psect for function _EXT_INT_Initialize
  5284  0E8E                     _EXT_INT_Initialize:
  5285  0E8E                     l2636:	
  5286                           ;incstack = 0
  5287                           ; Regs used in _EXT_INT_Initialize: [wreg+status,2+status,0+pclath+cstack]
  5288                           
  5289                           
  5290                           ;mcc_generated_files/ext_int.c: 77:     (PIR0bits.INTF = 0);
  5291  0E8E  014E               	movlb	14	; select bank14
  5292  0E8F  100C               	bcf	12,0	;volatile
  5293                           
  5294                           ;mcc_generated_files/ext_int.c: 78:     (INTCONbits.INTEDG = 1);
  5295  0E90  140B               	bsf	11,0	;volatile
  5296  0E91                     l2638:
  5297                           
  5298                           ;mcc_generated_files/ext_int.c: 80:     INT_SetInterruptHandler(INT_DefaultInterruptHand
      +                          ler);
  5299  0E91  3002               	movlw	low _INT_DefaultInterruptHandler
  5300  0E92  00F2               	movwf	INT_SetInterruptHandler@InterruptHandler
  5301  0E93  3000               	movlw	high _INT_DefaultInterruptHandler
  5302  0E94  00F3               	movwf	INT_SetInterruptHandler@InterruptHandler+1
  5303  0E95  318E  2655  318E   	fcall	_INT_SetInterruptHandler
  5304  0E98                     l2640:
  5305                           
  5306                           ;mcc_generated_files/ext_int.c: 81:     (PIE0bits.INTE = 1);
  5307  0E98  014E               	movlb	14	; select bank14
  5308  0E99  1416               	bsf	22,0	;volatile
  5309  0E9A                     l284:
  5310  0E9A  0008               	return
  5311  0E9B                     __end_of_EXT_INT_Initialize:
  5312                           
  5313                           	psect	text17
  5314  0E55                     __ptext17:	
  5315 ;; *************** function _INT_SetInterruptHandler *****************
  5316 ;; Defined at:
  5317 ;;		line 63 in file "mcc_generated_files/ext_int.c"
  5318 ;; Parameters:    Size  Location     Type
  5319 ;;  InterruptHan    2    2[COMMON] PTR FTN()void 
  5320 ;;		 -> EXT_ISR(1), INT_DefaultInterruptHandler(1), 
  5321 ;; Auto vars:     Size  Location     Type
  5322 ;;		None
  5323 ;; Return value:  Size  Location     Type
  5324 ;;                  1    wreg      void 
  5325 ;; Registers used:
  5326 ;;		wreg
  5327 ;; Tracked objects:
  5328 ;;		On entry : 0/0
  5329 ;;		On exit  : 0/0
  5330 ;;		Unchanged: 0/0
  5331 ;; Data sizes:     COMMON   BANK0   BANK1   BANK2   BANK3   BANK4   BANK5   BANK6   BANK7   BANK8   BANK9  BANK10  BANK1
      +1  BANK12
  5332 ;;      Params:         2       0       0       0       0       0       0       0       0       0       0       0       
      +0       0
  5333 ;;      Locals:         0       0       0       0       0       0       0       0       0       0       0       0       
      +0       0
  5334 ;;      Temps:          0       0       0       0       0       0       0       0       0       0       0       0       
      +0       0
  5335 ;;      Totals:         2       0       0       0       0       0       0       0       0       0       0       0       
      +0       0
  5336 ;;Total ram usage:        2 bytes
  5337 ;; Hardware stack levels used: 1
  5338 ;; Hardware stack levels required when called: 5
  5339 ;; This function calls:
  5340 ;;		Nothing
  5341 ;; This function is called by:
  5342 ;;		_EXT_INT_Initialize
  5343 ;;		_main
  5344 ;; This function uses a non-reentrant model
  5345 ;;
  5346                           
  5347                           
  5348                           ;psect for function _INT_SetInterruptHandler
  5349  0E55                     _INT_SetInterruptHandler:
  5350  0E55                     l2550:	
  5351                           ;incstack = 0
  5352                           ; Regs used in _INT_SetInterruptHandler: [wreg]
  5353                           
  5354                           
  5355                           ;mcc_generated_files/ext_int.c: 64:     INT_InterruptHandler = InterruptHandler;
  5356  0E55  0873               	movf	INT_SetInterruptHandler@InterruptHandler+1,w
  5357  0E56  0140               	movlb	0	; select bank0
  5358  0E57  00DC               	movwf	_INT_InterruptHandler+1
  5359  0E58  0872               	movf	INT_SetInterruptHandler@InterruptHandler,w
  5360  0E59  00DB               	movwf	_INT_InterruptHandler
  5361  0E5A                     l278:
  5362  0E5A  0008               	return
  5363  0E5B                     __end_of_INT_SetInterruptHandler:
  5364                           
  5365                           	psect	intentry
  5366  0004                     __pintentry:	
  5367 ;; *************** function _INTERRUPT_InterruptManager *****************
  5368 ;; Defined at:
  5369 ;;		line 52 in file "mcc_generated_files/interrupt_manager.c"
  5370 ;; Parameters:    Size  Location     Type
  5371 ;;		None
  5372 ;; Auto vars:     Size  Location     Type
  5373 ;;		None
  5374 ;; Return value:  Size  Location     Type
  5375 ;;                  1    wreg      void 
  5376 ;; Registers used:
  5377 ;;		wreg, fsr0l, fsr0h, fsr1l, fsr1h, status,2, status,0, pclath, cstack
  5378 ;; Tracked objects:
  5379 ;;		On entry : 0/0
  5380 ;;		On exit  : 0/0
  5381 ;;		Unchanged: 0/0
  5382 ;; Data sizes:     COMMON   BANK0   BANK1   BANK2   BANK3   BANK4   BANK5   BANK6   BANK7   BANK8   BANK9  BANK10  BANK1
      +1  BANK12
  5383 ;;      Params:         0       0       0       0       0       0       0       0       0       0       0       0       
      +0       0
  5384 ;;      Locals:         0       0       0       0       0       0       0       0       0       0       0       0       
      +0       0
  5385 ;;      Temps:          0       0       0       0       0       0       0       0       0       0       0       0       
      +0       0
  5386 ;;      Totals:         0       0       0       0       0       0       0       0       0       0       0       0       
      +0       0
  5387 ;;Total ram usage:        0 bytes
  5388 ;; Hardware stack levels used: 1
  5389 ;; Hardware stack levels required when called: 4
  5390 ;; This function calls:
  5391 ;;		_INT_ISR
  5392 ;;		_TMR0_ISR
  5393 ;;		_TMR1_ISR
  5394 ;; This function is called by:
  5395 ;;		Interrupt level 1
  5396 ;; This function uses a non-reentrant model
  5397 ;;
  5398                           
  5399  0004                     _INTERRUPT_InterruptManager:
  5400                           
  5401                           ;incstack = 0
  5402  0004  147E               	bsf	int$flags,0	;set compiler interrupt flag (level 1)
  5403                           
  5404                           ; Regs used in _INTERRUPT_InterruptManager: [wreg-fsr1h+status,2+status,0+pclath+cstack]
  5405  0005  3180               	pagesel	$
  5406  0006                     i1l2324:
  5407                           
  5408                           ;mcc_generated_files/interrupt_manager.c: 55:     if(PIE0bits.TMR0IE == 1 && PIR0bits.TM
      +                          R0IF == 1)
  5409  0006  014E               	movlb	14	; select bank14
  5410  0007  1E96               	btfss	22,5	;volatile
  5411  0008  280A               	goto	u124_21
  5412  0009  280B               	goto	u124_20
  5413  000A                     u124_21:
  5414  000A  2813               	goto	i1l250
  5415  000B                     u124_20:
  5416  000B                     i1l2326:
  5417  000B  1E8C               	btfss	12,5	;volatile
  5418  000C  280E               	goto	u125_21
  5419  000D  280F               	goto	u125_20
  5420  000E                     u125_21:
  5421  000E  2813               	goto	i1l250
  5422  000F                     u125_20:
  5423  000F                     i1l2328:
  5424                           
  5425                           ;mcc_generated_files/interrupt_manager.c: 56:     {;mcc_generated_files/interrupt_manage
      +                          r.c: 57:         TMR0_ISR();
  5426  000F  318E  26C3  3180   	fcall	_TMR0_ISR
  5427                           
  5428                           ;mcc_generated_files/interrupt_manager.c: 58:     }
  5429  0012  282F               	goto	i1l258
  5430  0013                     i1l250:	
  5431                           ;mcc_generated_files/interrupt_manager.c: 59:     else if(PIE0bits.INTE == 1 && PIR0bits
      +                          .INTF == 1)
  5432                           
  5433  0013  1C16               	btfss	22,0	;volatile
  5434  0014  2816               	goto	u126_21
  5435  0015  2817               	goto	u126_20
  5436  0016                     u126_21:
  5437  0016  281F               	goto	i1l252
  5438  0017                     u126_20:
  5439  0017                     i1l2330:
  5440  0017  1C0C               	btfss	12,0	;volatile
  5441  0018  281A               	goto	u127_21
  5442  0019  281B               	goto	u127_20
  5443  001A                     u127_21:
  5444  001A  281F               	goto	i1l252
  5445  001B                     u127_20:
  5446  001B                     i1l2332:
  5447                           
  5448                           ;mcc_generated_files/interrupt_manager.c: 60:     {;mcc_generated_files/interrupt_manage
      +                          r.c: 61:         INT_ISR();
  5449  001B  318E  264F  3180   	fcall	_INT_ISR
  5450                           
  5451                           ;mcc_generated_files/interrupt_manager.c: 62:     }
  5452  001E  282F               	goto	i1l258
  5453  001F                     i1l252:	
  5454                           ;mcc_generated_files/interrupt_manager.c: 63:     else if(INTCONbits.PEIE == 1)
  5455                           
  5456  001F  1F0B               	btfss	11,6	;volatile
  5457  0020  2822               	goto	u128_21
  5458  0021  2823               	goto	u128_20
  5459  0022                     u128_21:
  5460  0022  282F               	goto	i1l253
  5461  0023                     u128_20:
  5462  0023                     i1l2334:
  5463                           
  5464                           ;mcc_generated_files/interrupt_manager.c: 64:     {;mcc_generated_files/interrupt_manage
      +                          r.c: 65:         if(PIE1bits.TMR1IE == 1 && PIR1bits.TMR1IF == 1)
  5465  0023  1E97               	btfss	23,5	;volatile
  5466  0024  2826               	goto	u129_21
  5467  0025  2827               	goto	u129_20
  5468  0026                     u129_21:
  5469  0026  282F               	goto	i1l253
  5470  0027                     u129_20:
  5471  0027                     i1l2336:
  5472  0027  1E8D               	btfss	13,5	;volatile
  5473  0028  282A               	goto	u130_21
  5474  0029  282B               	goto	u130_20
  5475  002A                     u130_21:
  5476  002A  282F               	goto	i1l253
  5477  002B                     u130_20:
  5478  002B                     i1l2338:
  5479                           
  5480                           ;mcc_generated_files/interrupt_manager.c: 66:         {;mcc_generated_files/interrupt_ma
      +                          nager.c: 67:             TMR1_ISR();
  5481  002B  318F  2700  3180   	fcall	_TMR1_ISR
  5482                           
  5483                           ;mcc_generated_files/interrupt_manager.c: 68:         }
  5484  002E  282F               	goto	i1l258
  5485  002F                     i1l253:
  5486  002F                     i1l258:
  5487  002F  107E               	bcf	int$flags,0	;clear compiler interrupt flag (level 1)
  5488  0030  0009               	retfie
  5489  0031                     __end_of_INTERRUPT_InterruptManager:
  5490                           
  5491                           	psect	text19
  5492  0F00                     __ptext19:	
  5493 ;; *************** function _TMR1_ISR *****************
  5494 ;; Defined at:
  5495 ;;		line 164 in file "mcc_generated_files/tmr1.c"
  5496 ;; Parameters:    Size  Location     Type
  5497 ;;		None
  5498 ;; Auto vars:     Size  Location     Type
  5499 ;;		None
  5500 ;; Return value:  Size  Location     Type
  5501 ;;                  1    wreg      void 
  5502 ;; Registers used:
  5503 ;;		wreg, fsr0l, fsr0h, fsr1l, fsr1h, status,2, status,0, pclath, cstack
  5504 ;; Tracked objects:
  5505 ;;		On entry : 0/0
  5506 ;;		On exit  : 0/0
  5507 ;;		Unchanged: 0/0
  5508 ;; Data sizes:     COMMON   BANK0   BANK1   BANK2   BANK3   BANK4   BANK5   BANK6   BANK7   BANK8   BANK9  BANK10  BANK1
      +1  BANK12
  5509 ;;      Params:         0       0       0       0       0       0       0       0       0       0       0       0       
      +0       0
  5510 ;;      Locals:         0       0       0       0       0       0       0       0       0       0       0       0       
      +0       0
  5511 ;;      Temps:          0       0       0       0       0       0       0       0       0       0       0       0       
      +0       0
  5512 ;;      Totals:         0       0       0       0       0       0       0       0       0       0       0       0       
      +0       0
  5513 ;;Total ram usage:        0 bytes
  5514 ;; Hardware stack levels used: 1
  5515 ;; Hardware stack levels required when called: 1
  5516 ;; This function calls:
  5517 ;;		Absolute function
  5518 ;;		_TMR1_DefaultInterruptHandler
  5519 ;;		_TMR1_ISR_
  5520 ;;		_TMR1_WriteTimer
  5521 ;; This function is called by:
  5522 ;;		_INTERRUPT_InterruptManager
  5523 ;; This function uses a non-reentrant model
  5524 ;;
  5525                           
  5526                           
  5527                           ;psect for function _TMR1_ISR
  5528  0F00                     _TMR1_ISR:
  5529  0F00                     i1l2274:	
  5530                           ;incstack = 0
  5531                           ; Regs used in _TMR1_ISR: [wreg-fsr1h+status,2+status,0+pclath+cstack]
  5532                           
  5533                           
  5534                           ;mcc_generated_files/tmr1.c: 168:     PIR1bits.TMR1IF = 0;
  5535  0F00  014E               	movlb	14	; select bank14
  5536  0F01  128D               	bcf	13,5	;volatile
  5537  0F02                     i1l2276:
  5538                           
  5539                           ;mcc_generated_files/tmr1.c: 169:     TMR1_WriteTimer(timer1ReloadVal);
  5540  0F02  0140               	movlb	0	; select bank0
  5541  0F03  0858               	movf	_timer1ReloadVal+1,w	;volatile
  5542  0F04  00F1               	movwf	TMR1_WriteTimer@timerVal+1
  5543  0F05  0857               	movf	_timer1ReloadVal,w	;volatile
  5544  0F06  00F0               	movwf	TMR1_WriteTimer@timerVal
  5545  0F07  3187  27ED  318F   	fcall	_TMR1_WriteTimer
  5546  0F0A                     i1l2278:
  5547                           
  5548                           ;mcc_generated_files/tmr1.c: 171:     if(TMR1_InterruptHandler)
  5549  0F0A  0140               	movlb	0	; select bank0
  5550  0F0B  0855               	movf	_TMR1_InterruptHandler,w
  5551  0F0C  0456               	iorwf	_TMR1_InterruptHandler+1,w
  5552  0F0D  1903               	btfsc	3,2
  5553  0F0E  2F10               	goto	u117_21
  5554  0F0F  2F11               	goto	u117_20
  5555  0F10                     u117_21:
  5556  0F10  2F16               	goto	i1l392
  5557  0F11                     u117_20:
  5558  0F11                     i1l2280:
  5559                           
  5560                           ;mcc_generated_files/tmr1.c: 172:     {;mcc_generated_files/tmr1.c: 173:         TMR1_In
      +                          terruptHandler();
  5561  0F11  0856               	movf	_TMR1_InterruptHandler+1,w
  5562  0F12  008A               	movwf	10
  5563  0F13  0855               	movf	_TMR1_InterruptHandler,w
  5564  0F14  000A               	callw
  5565  0F15  318F               	pagesel	$
  5566  0F16                     i1l392:
  5567  0F16  0008               	return
  5568  0F17                     __end_of_TMR1_ISR:
  5569                           
  5570                           	psect	text20
  5571  07ED                     __ptext20:	
  5572 ;; *************** function _TMR1_WriteTimer *****************
  5573 ;; Defined at:
  5574 ;;		line 127 in file "mcc_generated_files/tmr1.c"
  5575 ;; Parameters:    Size  Location     Type
  5576 ;;  timerVal        2    0[COMMON] unsigned short 
  5577 ;; Auto vars:     Size  Location     Type
  5578 ;;		None
  5579 ;; Return value:  Size  Location     Type
  5580 ;;                  1    wreg      void 
  5581 ;; Registers used:
  5582 ;;		wreg, status,2
  5583 ;; Tracked objects:
  5584 ;;		On entry : 0/0
  5585 ;;		On exit  : 0/0
  5586 ;;		Unchanged: 0/0
  5587 ;; Data sizes:     COMMON   BANK0   BANK1   BANK2   BANK3   BANK4   BANK5   BANK6   BANK7   BANK8   BANK9  BANK10  BANK1
      +1  BANK12
  5588 ;;      Params:         2       0       0       0       0       0       0       0       0       0       0       0       
      +0       0
  5589 ;;      Locals:         0       0       0       0       0       0       0       0       0       0       0       0       
      +0       0
  5590 ;;      Temps:          0       0       0       0       0       0       0       0       0       0       0       0       
      +0       0
  5591 ;;      Totals:         2       0       0       0       0       0       0       0       0       0       0       0       
      +0       0
  5592 ;;Total ram usage:        2 bytes
  5593 ;; Hardware stack levels used: 1
  5594 ;; This function calls:
  5595 ;;		Nothing
  5596 ;; This function is called by:
  5597 ;;		_TMR1_ISR
  5598 ;;		_TMR1_Reload
  5599 ;; This function uses a non-reentrant model
  5600 ;;
  5601                           
  5602                           
  5603                           ;psect for function _TMR1_WriteTimer
  5604  07ED                     _TMR1_WriteTimer:
  5605  07ED                     i1l2058:	
  5606                           ;incstack = 0
  5607                           ; Regs used in _TMR1_WriteTimer: [wreg+status,2]
  5608                           
  5609                           
  5610                           ;mcc_generated_files/tmr1.c: 127: void TMR1_WriteTimer(uint16_t timerVal);mcc_generated_
      +                          files/tmr1.c: 128: {;mcc_generated_files/tmr1.c: 129:     if (T1CONbits.NOT_SYNC == 1)
  5611  07ED  0144               	movlb	4	; select bank4
  5612  07EE  1D0E               	btfss	14,2	;volatile
  5613  07EF  2FF1               	goto	u81_21
  5614  07F0  2FF2               	goto	u81_20
  5615  07F1                     u81_21:
  5616  07F1  2FF9               	goto	i1l2068
  5617  07F2                     u81_20:
  5618  07F2                     i1l2060:
  5619                           
  5620                           ;mcc_generated_files/tmr1.c: 130:     {;mcc_generated_files/tmr1.c: 132:         T1CONbi
      +                          ts.TMR1ON = 0;
  5621  07F2  100E               	bcf	14,0	;volatile
  5622  07F3                     i1l2062:
  5623                           
  5624                           ;mcc_generated_files/tmr1.c: 135:         TMR1H = (uint8_t)(timerVal >> 8);
  5625  07F3  0871               	movf	TMR1_WriteTimer@timerVal+1,w
  5626  07F4  008D               	movwf	13	;volatile
  5627  07F5                     i1l2064:
  5628                           
  5629                           ;mcc_generated_files/tmr1.c: 136:         TMR1L = (uint8_t)timerVal;
  5630  07F5  0870               	movf	TMR1_WriteTimer@timerVal,w
  5631  07F6  008C               	movwf	12	;volatile
  5632  07F7                     i1l2066:
  5633                           
  5634                           ;mcc_generated_files/tmr1.c: 139:         T1CONbits.TMR1ON =1;
  5635  07F7  140E               	bsf	14,0	;volatile
  5636                           
  5637                           ;mcc_generated_files/tmr1.c: 140:     }
  5638  07F8  2FFD               	goto	i1l379
  5639  07F9                     i1l2068:
  5640                           
  5641                           ;mcc_generated_files/tmr1.c: 142:     {;mcc_generated_files/tmr1.c: 144:         TMR1H =
      +                           (uint8_t)(timerVal >> 8);
  5642  07F9  0871               	movf	TMR1_WriteTimer@timerVal+1,w
  5643  07FA  008D               	movwf	13	;volatile
  5644  07FB                     i1l2070:
  5645                           
  5646                           ;mcc_generated_files/tmr1.c: 145:         TMR1L = (uint8_t)timerVal;
  5647  07FB  0870               	movf	TMR1_WriteTimer@timerVal,w
  5648  07FC  008C               	movwf	12	;volatile
  5649  07FD                     i1l379:
  5650  07FD  0008               	return
  5651  07FE                     __end_of_TMR1_WriteTimer:
  5652                           
  5653                           	psect	text21
  5654  07FF                     __ptext21:	
  5655 ;; *************** function _TMR1_DefaultInterruptHandler *****************
  5656 ;; Defined at:
  5657 ;;		line 182 in file "mcc_generated_files/tmr1.c"
  5658 ;; Parameters:    Size  Location     Type
  5659 ;;		None
  5660 ;; Auto vars:     Size  Location     Type
  5661 ;;		None
  5662 ;; Return value:  Size  Location     Type
  5663 ;;                  1    wreg      void 
  5664 ;; Registers used:
  5665 ;;		None
  5666 ;; Tracked objects:
  5667 ;;		On entry : 0/0
  5668 ;;		On exit  : 0/0
  5669 ;;		Unchanged: 0/0
  5670 ;; Data sizes:     COMMON   BANK0   BANK1   BANK2   BANK3   BANK4   BANK5   BANK6   BANK7   BANK8   BANK9  BANK10  BANK1
      +1  BANK12
  5671 ;;      Params:         0       0       0       0       0       0       0       0       0       0       0       0       
      +0       0
  5672 ;;      Locals:         0       0       0       0       0       0       0       0       0       0       0       0       
      +0       0
  5673 ;;      Temps:          0       0       0       0       0       0       0       0       0       0       0       0       
      +0       0
  5674 ;;      Totals:         0       0       0       0       0       0       0       0       0       0       0       0       
      +0       0
  5675 ;;Total ram usage:        0 bytes
  5676 ;; Hardware stack levels used: 1
  5677 ;; This function calls:
  5678 ;;		Nothing
  5679 ;; This function is called by:
  5680 ;;		_TMR1_Initialize
  5681 ;;		_TMR1_ISR
  5682 ;; This function uses a non-reentrant model
  5683 ;;
  5684                           
  5685                           
  5686                           ;psect for function _TMR1_DefaultInterruptHandler
  5687  07FF                     _TMR1_DefaultInterruptHandler:
  5688  07FF                     i1l398:	
  5689                           ;incstack = 0
  5690                           ; Regs used in _TMR1_DefaultInterruptHandler: []
  5691                           
  5692  07FF  0008               	return
  5693  0800                     __end_of_TMR1_DefaultInterruptHandler:
  5694                           
  5695                           	psect	text22
  5696  02E5                     __ptext22:	
  5697 ;; *************** function _TMR1_ISR_ *****************
  5698 ;; Defined at:
  5699 ;;		line 528 in file "main.c"
  5700 ;; Parameters:    Size  Location     Type
  5701 ;;		None
  5702 ;; Auto vars:     Size  Location     Type
  5703 ;;  i               2   11[BANK0 ] int 
  5704 ;;  i               2    9[BANK0 ] int 
  5705 ;;  lights          1    0[BANK0 ] unsigned char 
  5706 ;;  i               2    5[BANK0 ] int 
  5707 ;;  i               2   13[BANK0 ] int 
  5708 ;;  lights          1    1[BANK0 ] unsigned char 
  5709 ;;  i               2   15[BANK0 ] int 
  5710 ;;  i               2    3[BANK0 ] int 
  5711 ;;  i               2   17[BANK0 ] int 
  5712 ;;  i               2    7[BANK0 ] int 
  5713 ;;  dream_sw        1    2[BANK0 ] unsigned char 
  5714 ;; Return value:  Size  Location     Type
  5715 ;;                  1    wreg      void 
  5716 ;; Registers used:
  5717 ;;		wreg, fsr0l, fsr0h, fsr1l, fsr1h, status,2, status,0
  5718 ;; Tracked objects:
  5719 ;;		On entry : 0/0
  5720 ;;		On exit  : 0/0
  5721 ;;		Unchanged: 0/0
  5722 ;; Data sizes:     COMMON   BANK0   BANK1   BANK2   BANK3   BANK4   BANK5   BANK6   BANK7   BANK8   BANK9  BANK10  BANK1
      +1  BANK12
  5723 ;;      Params:         0       0       0       0       0       0       0       0       0       0       0       0       
      +0       0
  5724 ;;      Locals:         0      19       0       0       0       0       0       0       0       0       0       0       
      +0       0
  5725 ;;      Temps:          2       0       0       0       0       0       0       0       0       0       0       0       
      +0       0
  5726 ;;      Totals:         2      19       0       0       0       0       0       0       0       0       0       0       
      +0       0
  5727 ;;Total ram usage:       21 bytes
  5728 ;; Hardware stack levels used: 1
  5729 ;; This function calls:
  5730 ;;		Nothing
  5731 ;; This function is called by:
  5732 ;;		_main
  5733 ;;		_TMR1_ISR
  5734 ;; This function uses a non-reentrant model
  5735 ;;
  5736                           
  5737                           
  5738                           ;psect for function _TMR1_ISR_
  5739  02E5                     _TMR1_ISR_:
  5740  02E5                     i1l2080:	
  5741                           ;incstack = 0
  5742                           ; Regs used in _TMR1_ISR_: [wreg-fsr1h+status,2+status,0]
  5743                           
  5744                           
  5745                           ;main.c: 530:     count++;
  5746  02E5  3001               	movlw	1
  5747  02E6  0140               	movlb	0	; select bank0
  5748  02E7  07CB               	addwf	_count,f
  5749  02E8  3000               	movlw	0
  5750  02E9  3DCC               	addwfc	_count+1,f
  5751  02EA                     i1l2082:
  5752                           
  5753                           ;main.c: 533:     if (silent_night_playing)
  5754  02EA  0854               	movf	_silent_night_playing,w
  5755  02EB  1903               	btfsc	3,2
  5756  02EC  2AEE               	goto	u82_21
  5757  02ED  2AEF               	goto	u82_20
  5758  02EE                     u82_21:
  5759  02EE  2BD9               	goto	i1l2136
  5760  02EF                     u82_20:
  5761  02EF                     i1l2084:
  5762                           
  5763                           ;main.c: 534:     {;main.c: 535:         if (count < 24 || ((count > 48) && (count < 96)
      +                          ))
  5764  02EF  084C               	movf	_count+1,w
  5765  02F0  3A80               	xorlw	128
  5766  02F1  00F0               	movwf	??_TMR1_ISR_
  5767  02F2  3080               	movlw	128
  5768  02F3  0270               	subwf	??_TMR1_ISR_,w
  5769  02F4  1D03               	skipz
  5770  02F5  2AF8               	goto	u83_25
  5771  02F6  3018               	movlw	24
  5772  02F7  024B               	subwf	_count,w
  5773  02F8                     u83_25:
  5774  02F8  1C03               	skipc
  5775  02F9  2AFB               	goto	u83_21
  5776  02FA  2AFC               	goto	u83_20
  5777  02FB                     u83_21:
  5778  02FB  2B18               	goto	i1l2090
  5779  02FC                     u83_20:
  5780  02FC                     i1l2086:
  5781  02FC  0140               	movlb	0	; select bank0
  5782  02FD  084C               	movf	_count+1,w
  5783  02FE  3A80               	xorlw	128
  5784  02FF  00F0               	movwf	??_TMR1_ISR_
  5785  0300  3080               	movlw	128
  5786  0301  0270               	subwf	??_TMR1_ISR_,w
  5787  0302  1D03               	skipz
  5788  0303  2B06               	goto	u84_25
  5789  0304  3031               	movlw	49
  5790  0305  024B               	subwf	_count,w
  5791  0306                     u84_25:
  5792  0306  1C03               	skipc
  5793  0307  2B09               	goto	u84_21
  5794  0308  2B0A               	goto	u84_20
  5795  0309                     u84_21:
  5796  0309  2B59               	goto	i1l2104
  5797  030A                     u84_20:
  5798  030A                     i1l2088:
  5799  030A  0140               	movlb	0	; select bank0
  5800  030B  084C               	movf	_count+1,w
  5801  030C  3A80               	xorlw	128
  5802  030D  00F0               	movwf	??_TMR1_ISR_
  5803  030E  3080               	movlw	128
  5804  030F  0270               	subwf	??_TMR1_ISR_,w
  5805  0310  1D03               	skipz
  5806  0311  2B14               	goto	u85_25
  5807  0312  3060               	movlw	96
  5808  0313  024B               	subwf	_count,w
  5809  0314                     u85_25:
  5810  0314  1803               	skipnc
  5811  0315  2B17               	goto	u85_21
  5812  0316  2B18               	goto	u85_20
  5813  0317                     u85_21:
  5814  0317  2B59               	goto	i1l2104
  5815  0318                     u85_20:
  5816  0318                     i1l2090:
  5817                           
  5818                           ;main.c: 536:         {;main.c: 537:             if (last_note != silent_night[count])
  5819  0318  301E               	movlw	30
  5820  0319  00F0               	movwf	??_TMR1_ISR_
  5821  031A  3022               	movlw	34
  5822  031B  00F1               	movwf	??_TMR1_ISR_+1
  5823  031C  0140               	movlb	0	; select bank0
  5824  031D  084B               	movf	_count,w
  5825  031E  0770               	addwf	??_TMR1_ISR_,w
  5826  031F  0086               	movwf	6
  5827  0320  084C               	movf	_count+1,w
  5828  0321  3D71               	addwfc	??_TMR1_ISR_+1,w
  5829  0322  0087               	movwf	7
  5830  0323  0801               	movf	1,w
  5831  0324  0650               	xorwf	_last_note,w
  5832  0325  1903               	skipnz
  5833  0326  2B28               	goto	u86_21
  5834  0327  2B29               	goto	u86_20
  5835  0328                     u86_21:
  5836  0328  2BD9               	goto	i1l2136
  5837  0329                     u86_20:
  5838  0329                     i1l2092:
  5839                           
  5840                           ;main.c: 538:             {;main.c: 539:                 for (int i = 0; i < 7; i++)
  5841  0329  01AF               	clrf	TMR1_ISR_@i
  5842  032A  01B0               	clrf	TMR1_ISR_@i+1
  5843  032B                     i1l2098:
  5844                           
  5845                           ;main.c: 540:                 {;main.c: 541:                     uint8_t lights = light_
      +                          array[i] >> 7;
  5846  032B  0140               	movlb	0	; select bank0
  5847  032C  082F               	movf	TMR1_ISR_@i,w
  5848  032D  3E44               	addlw	(low (_light_array| 0))& (0+255)
  5849  032E  0086               	movwf	6
  5850  032F  0187               	clrf	7
  5851  0330  0801               	movf	1,w
  5852  0331  00F0               	movwf	??_TMR1_ISR_
  5853  0332  3007               	movlw	7
  5854  0333                     u87_25:
  5855  0333  36F0               	lsrf	??_TMR1_ISR_,f
  5856  0334  0B89               	decfsz	9,f
  5857  0335  2B33               	goto	u87_25
  5858  0336  0870               	movf	??_TMR1_ISR_,w
  5859  0337  00F1               	movwf	??_TMR1_ISR_+1
  5860  0338  0871               	movf	??_TMR1_ISR_+1,w
  5861  0339  00A0               	movwf	TMR1_ISR_@lights
  5862                           
  5863                           ;main.c: 542:                     light_array[i] = (light_array[i] << 1) + lights;
  5864  033A  082F               	movf	TMR1_ISR_@i,w
  5865  033B  3E44               	addlw	(low (_light_array| 0))& (0+255)
  5866  033C  0086               	movwf	6
  5867  033D  0187               	clrf	7
  5868  033E  3501               	lslf	1,w
  5869  033F  0720               	addwf	TMR1_ISR_@lights,w
  5870  0340  00F0               	movwf	??_TMR1_ISR_
  5871  0341  082F               	movf	TMR1_ISR_@i,w
  5872  0342  3E44               	addlw	(low (_light_array| 0))& (0+255)
  5873  0343  0086               	movwf	6
  5874  0344  0187               	clrf	7
  5875  0345  0870               	movf	??_TMR1_ISR_,w
  5876  0346  0081               	movwf	1
  5877  0347                     i1l2100:
  5878                           
  5879                           ;main.c: 543:                 }
  5880  0347  3001               	movlw	1
  5881  0348  07AF               	addwf	TMR1_ISR_@i,f
  5882  0349  3000               	movlw	0
  5883  034A  3DB0               	addwfc	TMR1_ISR_@i+1,f
  5884  034B                     i1l2102:
  5885  034B  0830               	movf	TMR1_ISR_@i+1,w
  5886  034C  3A80               	xorlw	128
  5887  034D  00F0               	movwf	??_TMR1_ISR_
  5888  034E  3080               	movlw	128
  5889  034F  0270               	subwf	??_TMR1_ISR_,w
  5890  0350  1D03               	skipz
  5891  0351  2B54               	goto	u88_25
  5892  0352  3007               	movlw	7
  5893  0353  022F               	subwf	TMR1_ISR_@i,w
  5894  0354                     u88_25:
  5895  0354  1C03               	skipc
  5896  0355  2B57               	goto	u88_21
  5897  0356  2B58               	goto	u88_20
  5898  0357                     u88_21:
  5899  0357  2B2B               	goto	i1l2098
  5900  0358                     u88_20:
  5901  0358  2BD9               	goto	i1l2136
  5902  0359                     i1l2104:
  5903  0359  0140               	movlb	0	; select bank0
  5904  035A  084C               	movf	_count+1,w
  5905  035B  3A80               	xorlw	128
  5906  035C  00F0               	movwf	??_TMR1_ISR_
  5907  035D  3080               	movlw	128
  5908  035E  0270               	subwf	??_TMR1_ISR_,w
  5909  035F  1D03               	skipz
  5910  0360  2B63               	goto	u89_25
  5911  0361  3078               	movlw	120
  5912  0362  024B               	subwf	_count,w
  5913  0363                     u89_25:
  5914  0363  1C03               	skipc
  5915  0364  2B66               	goto	u89_21
  5916  0365  2B67               	goto	u89_20
  5917  0366                     u89_21:
  5918  0366  2B9A               	goto	i1l2120
  5919  0367                     u89_20:
  5920  0367                     i1l2106:
  5921  0367  301E               	movlw	30
  5922  0368  00F0               	movwf	??_TMR1_ISR_
  5923  0369  3022               	movlw	34
  5924  036A  00F1               	movwf	??_TMR1_ISR_+1
  5925  036B  0140               	movlb	0	; select bank0
  5926  036C  084B               	movf	_count,w
  5927  036D  0770               	addwf	??_TMR1_ISR_,w
  5928  036E  0086               	movwf	6
  5929  036F  084C               	movf	_count+1,w
  5930  0370  3D71               	addwfc	??_TMR1_ISR_+1,w
  5931  0371  0087               	movwf	7
  5932  0372  0801               	movf	1,w
  5933  0373  0650               	xorwf	_last_note,w
  5934  0374  1903               	skipnz
  5935  0375  2B77               	goto	u90_21
  5936  0376  2B78               	goto	u90_20
  5937  0377                     u90_21:
  5938  0377  2B9A               	goto	i1l2120
  5939  0378                     u90_20:
  5940  0378                     i1l2108:
  5941                           
  5942                           ;main.c: 547:         {;main.c: 548:             for (int i = 0; i < 7; i++)
  5943  0378  01A7               	clrf	TMR1_ISR_@i_1185
  5944  0379  01A8               	clrf	TMR1_ISR_@i_1185+1
  5945  037A                     i1l2114:
  5946                           
  5947                           ;main.c: 549:             {;main.c: 550:                 light_array[i] = (light_array[i
      +                          ] << 1) + 1;
  5948  037A  0140               	movlb	0	; select bank0
  5949  037B  0827               	movf	TMR1_ISR_@i_1185,w
  5950  037C  3E44               	addlw	(low (_light_array| 0))& (0+255)
  5951  037D  0086               	movwf	6
  5952  037E  0187               	clrf	7
  5953  037F  1403               	setc
  5954  0380  0D01               	rlf	1,w
  5955  0381  00F0               	movwf	??_TMR1_ISR_
  5956  0382  0827               	movf	TMR1_ISR_@i_1185,w
  5957  0383  3E44               	addlw	(low (_light_array| 0))& (0+255)
  5958  0384  0086               	movwf	6
  5959  0385  0187               	clrf	7
  5960  0386  0870               	movf	??_TMR1_ISR_,w
  5961  0387  0081               	movwf	1
  5962  0388                     i1l2116:
  5963                           
  5964                           ;main.c: 551:             }
  5965  0388  3001               	movlw	1
  5966  0389  07A7               	addwf	TMR1_ISR_@i_1185,f
  5967  038A  3000               	movlw	0
  5968  038B  3DA8               	addwfc	TMR1_ISR_@i_1185+1,f
  5969  038C                     i1l2118:
  5970  038C  0828               	movf	TMR1_ISR_@i_1185+1,w
  5971  038D  3A80               	xorlw	128
  5972  038E  00F0               	movwf	??_TMR1_ISR_
  5973  038F  3080               	movlw	128
  5974  0390  0270               	subwf	??_TMR1_ISR_,w
  5975  0391  1D03               	skipz
  5976  0392  2B95               	goto	u91_25
  5977  0393  3007               	movlw	7
  5978  0394  0227               	subwf	TMR1_ISR_@i_1185,w
  5979  0395                     u91_25:
  5980  0395  1C03               	skipc
  5981  0396  2B98               	goto	u91_21
  5982  0397  2B99               	goto	u91_20
  5983  0398                     u91_21:
  5984  0398  2B7A               	goto	i1l2114
  5985  0399                     u91_20:
  5986  0399  2BD9               	goto	i1l2136
  5987  039A                     i1l2120:
  5988  039A  0140               	movlb	0	; select bank0
  5989  039B  084C               	movf	_count+1,w
  5990  039C  3A80               	xorlw	128
  5991  039D  00F0               	movwf	??_TMR1_ISR_
  5992  039E  3080               	movlw	128
  5993  039F  0270               	subwf	??_TMR1_ISR_,w
  5994  03A0  1D03               	skipz
  5995  03A1  2BA4               	goto	u92_25
  5996  03A2  3078               	movlw	120
  5997  03A3  024B               	subwf	_count,w
  5998  03A4                     u92_25:
  5999  03A4  1803               	skipnc
  6000  03A5  2BA7               	goto	u92_21
  6001  03A6  2BA8               	goto	u92_20
  6002  03A7                     u92_21:
  6003  03A7  2BD9               	goto	i1l592
  6004  03A8                     u92_20:
  6005  03A8                     i1l2122:
  6006                           
  6007                           ;main.c: 554:         {;main.c: 555:             for (int i = 0; i < 7; i++)
  6008  03A8  0140               	movlb	0	; select bank0
  6009  03A9  01B1               	clrf	TMR1_ISR_@i_1186
  6010  03AA  01B2               	clrf	TMR1_ISR_@i_1186+1
  6011  03AB                     i1l2128:
  6012                           
  6013                           ;main.c: 556:             {;main.c: 557:                 uint8_t lights = light_array[i]
      +                           >> 7;
  6014  03AB  0140               	movlb	0	; select bank0
  6015  03AC  0831               	movf	TMR1_ISR_@i_1186,w
  6016  03AD  3E44               	addlw	(low (_light_array| 0))& (0+255)
  6017  03AE  0086               	movwf	6
  6018  03AF  0187               	clrf	7
  6019  03B0  0801               	movf	1,w
  6020  03B1  00F0               	movwf	??_TMR1_ISR_
  6021  03B2  3007               	movlw	7
  6022  03B3                     u93_25:
  6023  03B3  36F0               	lsrf	??_TMR1_ISR_,f
  6024  03B4  0B89               	decfsz	9,f
  6025  03B5  2BB3               	goto	u93_25
  6026  03B6  0870               	movf	??_TMR1_ISR_,w
  6027  03B7  00F1               	movwf	??_TMR1_ISR_+1
  6028  03B8  0871               	movf	??_TMR1_ISR_+1,w
  6029  03B9  00A1               	movwf	TMR1_ISR_@lights_1187
  6030                           
  6031                           ;main.c: 558:                 light_array[i] = (light_array[i] << 1) + lights;
  6032  03BA  0831               	movf	TMR1_ISR_@i_1186,w
  6033  03BB  3E44               	addlw	(low (_light_array| 0))& (0+255)
  6034  03BC  0086               	movwf	6
  6035  03BD  0187               	clrf	7
  6036  03BE  3501               	lslf	1,w
  6037  03BF  0721               	addwf	TMR1_ISR_@lights_1187,w
  6038  03C0  00F0               	movwf	??_TMR1_ISR_
  6039  03C1  0831               	movf	TMR1_ISR_@i_1186,w
  6040  03C2  3E44               	addlw	(low (_light_array| 0))& (0+255)
  6041  03C3  0086               	movwf	6
  6042  03C4  0187               	clrf	7
  6043  03C5  0870               	movf	??_TMR1_ISR_,w
  6044  03C6  0081               	movwf	1
  6045  03C7                     i1l2130:
  6046                           
  6047                           ;main.c: 559:             }
  6048  03C7  3001               	movlw	1
  6049  03C8  07B1               	addwf	TMR1_ISR_@i_1186,f
  6050  03C9  3000               	movlw	0
  6051  03CA  3DB2               	addwfc	TMR1_ISR_@i_1186+1,f
  6052  03CB                     i1l2132:
  6053  03CB  0832               	movf	TMR1_ISR_@i_1186+1,w
  6054  03CC  3A80               	xorlw	128
  6055  03CD  00F0               	movwf	??_TMR1_ISR_
  6056  03CE  3080               	movlw	128
  6057  03CF  0270               	subwf	??_TMR1_ISR_,w
  6058  03D0  1D03               	skipz
  6059  03D1  2BD4               	goto	u94_25
  6060  03D2  3007               	movlw	7
  6061  03D3  0231               	subwf	TMR1_ISR_@i_1186,w
  6062  03D4                     u94_25:
  6063  03D4  1C03               	skipc
  6064  03D5  2BD7               	goto	u94_21
  6065  03D6  2BD8               	goto	u94_20
  6066  03D7                     u94_21:
  6067  03D7  2BAB               	goto	i1l2128
  6068  03D8                     u94_20:
  6069  03D8  2BD9               	goto	i1l2136
  6070  03D9                     i1l592:	
  6071                           ;main.c: 561:     }
  6072                           
  6073  03D9                     i1l2136:
  6074                           
  6075                           ;main.c: 596:     if (song3_playing)
  6076  03D9  0140               	movlb	0	; select bank0
  6077  03DA  0853               	movf	_song3_playing,w
  6078  03DB  1903               	btfsc	3,2
  6079  03DC  2BDE               	goto	u95_21
  6080  03DD  2BDF               	goto	u95_20
  6081  03DE                     u95_21:
  6082  03DE  2CFC               	goto	i1l2218
  6083  03DF                     u95_20:
  6084  03DF                     i1l2138:
  6085                           
  6086                           ;main.c: 597:     {;main.c: 599:        if (count < 58)
  6087  03DF  084C               	movf	_count+1,w
  6088  03E0  3A80               	xorlw	128
  6089  03E1  00F0               	movwf	??_TMR1_ISR_
  6090  03E2  3080               	movlw	128
  6091  03E3  0270               	subwf	??_TMR1_ISR_,w
  6092  03E4  1D03               	skipz
  6093  03E5  2BE8               	goto	u96_25
  6094  03E6  303A               	movlw	58
  6095  03E7  024B               	subwf	_count,w
  6096  03E8                     u96_25:
  6097  03E8  1803               	skipnc
  6098  03E9  2BEB               	goto	u96_21
  6099  03EA  2BEC               	goto	u96_20
  6100  03EB                     u96_21:
  6101  03EB  2C58               	goto	i1l2172
  6102  03EC                     u96_20:
  6103  03EC                     i1l2140:
  6104                           
  6105                           ;main.c: 600:        {;main.c: 601:            if ((last_prescale != song3_pre[count]) &
      +                          & (song3[count] != 0))
  6106  03EC  30A8               	movlw	168
  6107  03ED  00F0               	movwf	??_TMR1_ISR_
  6108  03EE  3022               	movlw	34
  6109  03EF  00F1               	movwf	??_TMR1_ISR_+1
  6110  03F0  0140               	movlb	0	; select bank0
  6111  03F1  084B               	movf	_count,w
  6112  03F2  0770               	addwf	??_TMR1_ISR_,w
  6113  03F3  0086               	movwf	6
  6114  03F4  084C               	movf	_count+1,w
  6115  03F5  3D71               	addwfc	??_TMR1_ISR_+1,w
  6116  03F6  0087               	movwf	7
  6117  03F7  0801               	movf	1,w
  6118  03F8  064F               	xorwf	_last_prescale,w
  6119  03F9  1903               	skipnz
  6120  03FA  2BFC               	goto	u97_21
  6121  03FB  2BFD               	goto	u97_20
  6122  03FC                     u97_21:
  6123  03FC  2CFC               	goto	i1l2218
  6124  03FD                     u97_20:
  6125  03FD                     i1l2142:
  6126  03FD  3021               	movlw	33
  6127  03FE  00F0               	movwf	??_TMR1_ISR_
  6128  03FF  3023               	movlw	35
  6129  0400  00F1               	movwf	??_TMR1_ISR_+1
  6130  0401  084B               	movf	_count,w
  6131  0402  0770               	addwf	??_TMR1_ISR_,w
  6132  0403  0086               	movwf	6
  6133  0404  084C               	movf	_count+1,w
  6134  0405  3D71               	addwfc	??_TMR1_ISR_+1,w
  6135  0406  0087               	movwf	7
  6136  0407  0801               	movf	1,w
  6137  0408  1903               	btfsc	3,2
  6138  0409  2C0B               	goto	u98_21
  6139  040A  2C0C               	goto	u98_20
  6140  040B                     u98_21:
  6141  040B  2CFC               	goto	i1l2218
  6142  040C                     u98_20:
  6143  040C                     i1l2144:
  6144                           
  6145                           ;main.c: 602:            {;main.c: 603:                if (change_lights)
  6146  040C  084D               	movf	_change_lights,w
  6147  040D  1903               	btfsc	3,2
  6148  040E  2C10               	goto	u99_21
  6149  040F  2C11               	goto	u99_20
  6150  0410                     u99_21:
  6151  0410  2C34               	goto	i1l2160
  6152  0411                     u99_20:
  6153  0411                     i1l2146:
  6154                           
  6155                           ;main.c: 604:                {;main.c: 605:                    for (int i = 0; i < 7; i+
      +                          +)
  6156  0411  01A9               	clrf	TMR1_ISR_@i_1188
  6157  0412  01AA               	clrf	TMR1_ISR_@i_1188+1
  6158  0413                     i1l2152:
  6159                           
  6160                           ;main.c: 606:                     {;main.c: 607:                         light_array[i] 
      +                          = dream_lights[i];
  6161  0413  0140               	movlb	0	; select bank0
  6162  0414  0829               	movf	TMR1_ISR_@i_1188,w
  6163  0415  3E37               	addlw	(low (_dream_lights| 0))& (0+255)
  6164  0416  0086               	movwf	6
  6165  0417  0187               	clrf	7
  6166  0418  0801               	movf	1,w
  6167  0419  00F0               	movwf	??_TMR1_ISR_
  6168  041A  0829               	movf	TMR1_ISR_@i_1188,w
  6169  041B  3E44               	addlw	(low (_light_array| 0))& (0+255)
  6170  041C  0086               	movwf	6
  6171  041D  0187               	clrf	7
  6172  041E  0870               	movf	??_TMR1_ISR_,w
  6173  041F  0081               	movwf	1
  6174  0420                     i1l2154:
  6175                           
  6176                           ;main.c: 608:                     }
  6177  0420  3001               	movlw	1
  6178  0421  07A9               	addwf	TMR1_ISR_@i_1188,f
  6179  0422  3000               	movlw	0
  6180  0423  3DAA               	addwfc	TMR1_ISR_@i_1188+1,f
  6181  0424                     i1l2156:
  6182  0424  082A               	movf	TMR1_ISR_@i_1188+1,w
  6183  0425  3A80               	xorlw	128
  6184  0426  00F0               	movwf	??_TMR1_ISR_
  6185  0427  3080               	movlw	128
  6186  0428  0270               	subwf	??_TMR1_ISR_,w
  6187  0429  1D03               	skipz
  6188  042A  2C2D               	goto	u100_25
  6189  042B  3007               	movlw	7
  6190  042C  0229               	subwf	TMR1_ISR_@i_1188,w
  6191  042D                     u100_25:
  6192  042D  1C03               	skipc
  6193  042E  2C30               	goto	u100_21
  6194  042F  2C31               	goto	u100_20
  6195  0430                     u100_21:
  6196  0430  2C13               	goto	i1l2152
  6197  0431                     u100_20:
  6198  0431                     i1l2158:
  6199                           
  6200                           ;main.c: 609:                    change_lights = 0;
  6201  0431  0140               	movlb	0	; select bank0
  6202  0432  01CD               	clrf	_change_lights
  6203                           
  6204                           ;main.c: 610:                }
  6205  0433  2CFC               	goto	i1l2218
  6206  0434                     i1l2160:
  6207                           
  6208                           ;main.c: 612:                {;main.c: 613:                    for (int i = 0; i < 7; i+
      +                          +)
  6209  0434  01AB               	clrf	TMR1_ISR_@i_1189
  6210  0435  01AC               	clrf	TMR1_ISR_@i_1189+1
  6211  0436                     i1l2166:
  6212                           
  6213                           ;main.c: 614:                     {;main.c: 615:                         light_array[i] 
      +                          = ~dream_lights[i];
  6214  0436  0140               	movlb	0	; select bank0
  6215  0437  082B               	movf	TMR1_ISR_@i_1189,w
  6216  0438  3E37               	addlw	(low (_dream_lights| 0))& (0+255)
  6217  0439  0086               	movwf	6
  6218  043A  0187               	clrf	7
  6219  043B  0901               	comf	1,w
  6220  043C  00F0               	movwf	??_TMR1_ISR_
  6221  043D  082B               	movf	TMR1_ISR_@i_1189,w
  6222  043E  3E44               	addlw	(low (_light_array| 0))& (0+255)
  6223  043F  0086               	movwf	6
  6224  0440  0187               	clrf	7
  6225  0441  0870               	movf	??_TMR1_ISR_,w
  6226  0442  0081               	movwf	1
  6227  0443                     i1l2168:
  6228                           
  6229                           ;main.c: 616:                     }
  6230  0443  3001               	movlw	1
  6231  0444  07AB               	addwf	TMR1_ISR_@i_1189,f
  6232  0445  3000               	movlw	0
  6233  0446  3DAC               	addwfc	TMR1_ISR_@i_1189+1,f
  6234  0447                     i1l2170:
  6235  0447  082C               	movf	TMR1_ISR_@i_1189+1,w
  6236  0448  3A80               	xorlw	128
  6237  0449  00F0               	movwf	??_TMR1_ISR_
  6238  044A  3080               	movlw	128
  6239  044B  0270               	subwf	??_TMR1_ISR_,w
  6240  044C  1D03               	skipz
  6241  044D  2C50               	goto	u101_25
  6242  044E  3007               	movlw	7
  6243  044F  022B               	subwf	TMR1_ISR_@i_1189,w
  6244  0450                     u101_25:
  6245  0450  1C03               	skipc
  6246  0451  2C53               	goto	u101_21
  6247  0452  2C54               	goto	u101_20
  6248  0453                     u101_21:
  6249  0453  2C36               	goto	i1l2166
  6250  0454                     u101_20:
  6251  0454                     i1l616:
  6252                           
  6253                           ;main.c: 617:                    change_lights = 1;
  6254  0454  0140               	movlb	0	; select bank0
  6255  0455  01CD               	clrf	_change_lights
  6256  0456  0ACD               	incf	_change_lights,f
  6257  0457  2CFC               	goto	i1l2218
  6258  0458                     i1l2172:
  6259  0458  0140               	movlb	0	; select bank0
  6260  0459  084C               	movf	_count+1,w
  6261  045A  3A80               	xorlw	128
  6262  045B  00F0               	movwf	??_TMR1_ISR_
  6263  045C  3080               	movlw	128
  6264  045D  0270               	subwf	??_TMR1_ISR_,w
  6265  045E  1D03               	skipz
  6266  045F  2C62               	goto	u102_25
  6267  0460  303E               	movlw	62
  6268  0461  024B               	subwf	_count,w
  6269  0462                     u102_25:
  6270  0462  1803               	skipnc
  6271  0463  2C65               	goto	u102_21
  6272  0464  2C66               	goto	u102_20
  6273  0465                     u102_21:
  6274  0465  2C84               	goto	i1l2186
  6275  0466                     u102_20:
  6276  0466                     i1l2174:
  6277                           
  6278                           ;main.c: 622:        {;main.c: 623:            for (int i = 0; i < 7; i++)
  6279  0466  0140               	movlb	0	; select bank0
  6280  0467  01A3               	clrf	TMR1_ISR_@i_1190
  6281  0468  01A4               	clrf	TMR1_ISR_@i_1190+1
  6282  0469                     i1l2180:
  6283                           
  6284                           ;main.c: 624:             {;main.c: 625:                 light_array[i] = 0xFF;
  6285  0469  30FF               	movlw	255
  6286  046A  00F0               	movwf	??_TMR1_ISR_
  6287  046B  0140               	movlb	0	; select bank0
  6288  046C  0823               	movf	TMR1_ISR_@i_1190,w
  6289  046D  3E44               	addlw	(low (_light_array| 0))& (0+255)
  6290  046E  0086               	movwf	6
  6291  046F  0187               	clrf	7
  6292  0470  0870               	movf	??_TMR1_ISR_,w
  6293  0471  0081               	movwf	1
  6294  0472                     i1l2182:
  6295                           
  6296                           ;main.c: 626:             }
  6297  0472  3001               	movlw	1
  6298  0473  07A3               	addwf	TMR1_ISR_@i_1190,f
  6299  0474  3000               	movlw	0
  6300  0475  3DA4               	addwfc	TMR1_ISR_@i_1190+1,f
  6301  0476                     i1l2184:
  6302  0476  0824               	movf	TMR1_ISR_@i_1190+1,w
  6303  0477  3A80               	xorlw	128
  6304  0478  00F0               	movwf	??_TMR1_ISR_
  6305  0479  3080               	movlw	128
  6306  047A  0270               	subwf	??_TMR1_ISR_,w
  6307  047B  1D03               	skipz
  6308  047C  2C7F               	goto	u103_25
  6309  047D  3007               	movlw	7
  6310  047E  0223               	subwf	TMR1_ISR_@i_1190,w
  6311  047F                     u103_25:
  6312  047F  1C03               	skipc
  6313  0480  2C82               	goto	u103_21
  6314  0481  2C83               	goto	u103_20
  6315  0482                     u103_21:
  6316  0482  2C69               	goto	i1l2180
  6317  0483                     u103_20:
  6318  0483  2CFC               	goto	i1l2218
  6319  0484                     i1l2186:
  6320                           
  6321                           ;main.c: 629:        {;main.c: 630:            uint8_t dream_sw = count - 61;
  6322  0484  0140               	movlb	0	; select bank0
  6323  0485  084B               	movf	_count,w
  6324  0486  3EC3               	addlw	195
  6325  0487  00F0               	movwf	??_TMR1_ISR_
  6326  0488  0870               	movf	??_TMR1_ISR_,w
  6327  0489  00A2               	movwf	TMR1_ISR_@dream_sw
  6328                           
  6329                           ;main.c: 631:            switch(dream_sw)
  6330  048A  2CE9               	goto	i1l2216
  6331  048B                     i1l2188:
  6332                           
  6333                           ;main.c: 634:                    light_array[0] = 0xFF;
  6334  048B  30FF               	movlw	255
  6335  048C  00F0               	movwf	??_TMR1_ISR_
  6336  048D  0870               	movf	??_TMR1_ISR_,w
  6337  048E  00C4               	movwf	_light_array
  6338                           
  6339                           ;main.c: 635:                    light_array[1] = 0xFF;
  6340  048F  30FF               	movlw	255
  6341  0490  00F0               	movwf	??_TMR1_ISR_
  6342  0491  0870               	movf	??_TMR1_ISR_,w
  6343  0492  00C5               	movwf	_light_array+1
  6344                           
  6345                           ;main.c: 636:                    light_array[2] = 0xF3;
  6346  0493  30F3               	movlw	243
  6347  0494  00F0               	movwf	??_TMR1_ISR_
  6348  0495  0870               	movf	??_TMR1_ISR_,w
  6349  0496  00C6               	movwf	_light_array+2
  6350                           
  6351                           ;main.c: 637:                    light_array[3] = 0xE3;
  6352  0497  30E3               	movlw	227
  6353  0498  00F0               	movwf	??_TMR1_ISR_
  6354  0499  0870               	movf	??_TMR1_ISR_,w
  6355  049A  00C7               	movwf	_light_array+3
  6356                           
  6357                           ;main.c: 638:                    light_array[4] = 0xE3;
  6358  049B  30E3               	movlw	227
  6359  049C  00F0               	movwf	??_TMR1_ISR_
  6360  049D  0870               	movf	??_TMR1_ISR_,w
  6361  049E  00C8               	movwf	_light_array+4
  6362                           
  6363                           ;main.c: 639:                    light_array[5] = 0xFF;
  6364  049F  30FF               	movlw	255
  6365  04A0  00F0               	movwf	??_TMR1_ISR_
  6366  04A1  0870               	movf	??_TMR1_ISR_,w
  6367  04A2  00C9               	movwf	_light_array+5
  6368                           
  6369                           ;main.c: 640:                    light_array[6] = 0xFF;
  6370  04A3  30FF               	movlw	255
  6371  04A4  00F0               	movwf	??_TMR1_ISR_
  6372  04A5  0870               	movf	??_TMR1_ISR_,w
  6373  04A6  00CA               	movwf	_light_array+6
  6374                           
  6375                           ;main.c: 641:                    break;
  6376  04A7  2CFC               	goto	i1l2218
  6377  04A8                     i1l2190:
  6378                           
  6379                           ;main.c: 643:                    for (int i = 0; i < 7; i++)
  6380  04A8  01AD               	clrf	TMR1_ISR_@i_1192
  6381  04A9  01AE               	clrf	TMR1_ISR_@i_1192+1
  6382  04AA                     i1l2196:
  6383                           
  6384                           ;main.c: 644:                     {;main.c: 645:                         light_array[i] 
      +                          = !dream_lights[i];
  6385  04AA  0140               	movlb	0	; select bank0
  6386  04AB  082D               	movf	TMR1_ISR_@i_1192,w
  6387  04AC  3E37               	addlw	(low (_dream_lights| 0))& (0+255)
  6388  04AD  0086               	movwf	6
  6389  04AE  0187               	clrf	7
  6390  04AF  0801               	movf	1,w
  6391  04B0  1903               	btfsc	3,2
  6392  04B1  2CB3               	goto	u104_21
  6393  04B2  2CB5               	goto	u104_20
  6394  04B3                     u104_21:
  6395  04B3  3001               	movlw	1
  6396  04B4  2CB6               	goto	u105_20
  6397  04B5                     u104_20:
  6398  04B5  3000               	movlw	0
  6399  04B6                     u105_20:
  6400  04B6  00F0               	movwf	??_TMR1_ISR_
  6401  04B7  082D               	movf	TMR1_ISR_@i_1192,w
  6402  04B8  3E44               	addlw	(low (_light_array| 0))& (0+255)
  6403  04B9  0086               	movwf	6
  6404  04BA  0187               	clrf	7
  6405  04BB  0870               	movf	??_TMR1_ISR_,w
  6406  04BC  0081               	movwf	1
  6407  04BD                     i1l2198:
  6408                           
  6409                           ;main.c: 646:                     }
  6410  04BD  3001               	movlw	1
  6411  04BE  07AD               	addwf	TMR1_ISR_@i_1192,f
  6412  04BF  3000               	movlw	0
  6413  04C0  3DAE               	addwfc	TMR1_ISR_@i_1192+1,f
  6414  04C1                     i1l2200:
  6415  04C1  082E               	movf	TMR1_ISR_@i_1192+1,w
  6416  04C2  3A80               	xorlw	128
  6417  04C3  00F0               	movwf	??_TMR1_ISR_
  6418  04C4  3080               	movlw	128
  6419  04C5  0270               	subwf	??_TMR1_ISR_,w
  6420  04C6  1D03               	skipz
  6421  04C7  2CCA               	goto	u106_25
  6422  04C8  3007               	movlw	7
  6423  04C9  022D               	subwf	TMR1_ISR_@i_1192,w
  6424  04CA                     u106_25:
  6425  04CA  1C03               	skipc
  6426  04CB  2CCD               	goto	u106_21
  6427  04CC  2CCE               	goto	u106_20
  6428  04CD                     u106_21:
  6429  04CD  2CAA               	goto	i1l2196
  6430  04CE                     u106_20:
  6431  04CE  2CFC               	goto	i1l2218
  6432  04CF                     i1l2202:
  6433                           
  6434                           ;main.c: 649:                    for (int i = 0; i < 7; i++)
  6435  04CF  01A5               	clrf	TMR1_ISR_@i_1193
  6436  04D0  01A6               	clrf	TMR1_ISR_@i_1193+1
  6437  04D1                     i1l2208:
  6438                           
  6439                           ;main.c: 650:                     {;main.c: 651:                         light_array[i] 
      +                          = 0x00;
  6440  04D1  0140               	movlb	0	; select bank0
  6441  04D2  0825               	movf	TMR1_ISR_@i_1193,w
  6442  04D3  3E44               	addlw	(low (_light_array| 0))& (0+255)
  6443  04D4  0086               	movwf	6
  6444  04D5  0187               	clrf	7
  6445  04D6  0181               	clrf	1
  6446  04D7                     i1l2210:
  6447                           
  6448                           ;main.c: 652:                     }
  6449  04D7  3001               	movlw	1
  6450  04D8  07A5               	addwf	TMR1_ISR_@i_1193,f
  6451  04D9  3000               	movlw	0
  6452  04DA  3DA6               	addwfc	TMR1_ISR_@i_1193+1,f
  6453  04DB                     i1l2212:
  6454  04DB  0826               	movf	TMR1_ISR_@i_1193+1,w
  6455  04DC  3A80               	xorlw	128
  6456  04DD  00F0               	movwf	??_TMR1_ISR_
  6457  04DE  3080               	movlw	128
  6458  04DF  0270               	subwf	??_TMR1_ISR_,w
  6459  04E0  1D03               	skipz
  6460  04E1  2CE4               	goto	u107_25
  6461  04E2  3007               	movlw	7
  6462  04E3  0225               	subwf	TMR1_ISR_@i_1193,w
  6463  04E4                     u107_25:
  6464  04E4  1C03               	skipc
  6465  04E5  2CE7               	goto	u107_21
  6466  04E6  2CE8               	goto	u107_20
  6467  04E7                     u107_21:
  6468  04E7  2CD1               	goto	i1l2208
  6469  04E8                     u107_20:
  6470  04E8  2CFC               	goto	i1l2218
  6471  04E9                     i1l2216:
  6472  04E9  0822               	movf	TMR1_ISR_@dream_sw,w
  6473  04EA  00F0               	movwf	??_TMR1_ISR_
  6474  04EB  01F1               	clrf	??_TMR1_ISR_+1
  6475                           
  6476                           ; Switch on 2 bytes has been partitioned into a top level switch of size 1, and 1 sub-sw
      +                          itches
  6477                           ; Switch size 1, requested type "simple"
  6478                           ; Number of cases is 1, Range of values is 0 to 0
  6479                           ; switch strategies available:
  6480                           ; Name         Instructions Cycles
  6481                           ; simple_byte            4     3 (average)
  6482                           ; direct_byte            8     6 (fixed)
  6483                           ; jumptable            260     6 (fixed)
  6484                           ;	Chosen strategy is simple_byte
  6485  04EC  0871               	movf	??_TMR1_ISR_+1,w
  6486  04ED  3A00               	xorlw	0	; case 0
  6487  04EE  1903               	skipnz
  6488  04EF  2CF1               	goto	i1l2918
  6489  04F0  2CFC               	goto	i1l617
  6490  04F1                     i1l2918:
  6491                           
  6492                           ; Switch size 1, requested type "simple"
  6493                           ; Number of cases is 3, Range of values is 1 to 3
  6494                           ; switch strategies available:
  6495                           ; Name         Instructions Cycles
  6496                           ; simple_byte           10     6 (average)
  6497                           ; direct_byte           15     9 (fixed)
  6498                           ; jumptable            263     9 (fixed)
  6499                           ;	Chosen strategy is simple_byte
  6500  04F1  0870               	movf	??_TMR1_ISR_,w
  6501  04F2  3A01               	xorlw	1	; case 1
  6502  04F3  1903               	skipnz
  6503  04F4  2C8B               	goto	i1l2188
  6504  04F5  3A03               	xorlw	3	; case 2
  6505  04F6  1903               	skipnz
  6506  04F7  2CA8               	goto	i1l2190
  6507  04F8  3A01               	xorlw	1	; case 3
  6508  04F9  1903               	skipnz
  6509  04FA  2CCF               	goto	i1l2202
  6510  04FB  2CFC               	goto	i1l617
  6511  04FC                     i1l617:
  6512  04FC                     i1l2218:
  6513                           
  6514                           ;main.c: 702:     if (song2_playing)
  6515  04FC  0140               	movlb	0	; select bank0
  6516  04FD  0852               	movf	_song2_playing,w
  6517  04FE  1903               	btfsc	3,2
  6518  04FF  2D01               	goto	u108_21
  6519  0500  2D02               	goto	u108_20
  6520  0501                     u108_21:
  6521  0501  2D09               	goto	i1l2222
  6522  0502                     u108_20:
  6523  0502                     i1l2220:
  6524                           
  6525                           ;main.c: 703:     {;main.c: 707:         TMR1H = timer_high_2;
  6526  0502  0843               	movf	_timer_high_2,w
  6527  0503  0144               	movlb	4	; select bank4
  6528  0504  008D               	movwf	13	;volatile
  6529                           
  6530                           ;main.c: 708:         TMR1L = timer_low_2;
  6531  0505  0140               	movlb	0	; select bank0
  6532  0506  0842               	movf	_timer_low_2,w
  6533  0507  0144               	movlb	4	; select bank4
  6534  0508  008C               	movwf	12	;volatile
  6535  0509                     i1l2222:
  6536                           
  6537                           ;main.c: 712:     if (song3_playing)
  6538  0509  0140               	movlb	0	; select bank0
  6539  050A  0853               	movf	_song3_playing,w
  6540  050B  1903               	btfsc	3,2
  6541  050C  2D0E               	goto	u109_21
  6542  050D  2D0F               	goto	u109_20
  6543  050E                     u109_21:
  6544  050E  2D16               	goto	i1l632
  6545  050F                     u109_20:
  6546  050F                     i1l2224:
  6547                           
  6548                           ;main.c: 713:     {;main.c: 714:         TMR1H = timer_high_3;
  6549  050F  0840               	movf	_timer_high_3,w
  6550  0510  0144               	movlb	4	; select bank4
  6551  0511  008D               	movwf	13	;volatile
  6552                           
  6553                           ;main.c: 715:         TMR1L = timer_low_3;
  6554  0512  0140               	movlb	0	; select bank0
  6555  0513  083F               	movf	_timer_low_3,w
  6556  0514  0144               	movlb	4	; select bank4
  6557  0515  008C               	movwf	12	;volatile
  6558  0516                     i1l632:	
  6559                           ;main.c: 716:     }
  6560                           
  6561                           
  6562                           ;main.c: 719:     if ((count > 138) && silent_night_playing)
  6563  0516  0140               	movlb	0	; select bank0
  6564  0517  084C               	movf	_count+1,w
  6565  0518  3A80               	xorlw	128
  6566  0519  00F0               	movwf	??_TMR1_ISR_
  6567  051A  3080               	movlw	128
  6568  051B  0270               	subwf	??_TMR1_ISR_,w
  6569  051C  1D03               	skipz
  6570  051D  2D20               	goto	u110_25
  6571  051E  308B               	movlw	139
  6572  051F  024B               	subwf	_count,w
  6573  0520                     u110_25:
  6574  0520  1C03               	skipc
  6575  0521  2D23               	goto	u110_21
  6576  0522  2D24               	goto	u110_20
  6577  0523                     u110_21:
  6578  0523  2D2E               	goto	i1l2230
  6579  0524                     u110_20:
  6580  0524                     i1l2226:
  6581  0524  0140               	movlb	0	; select bank0
  6582  0525  0854               	movf	_silent_night_playing,w
  6583  0526  1903               	btfsc	3,2
  6584  0527  2D29               	goto	u111_21
  6585  0528  2D2A               	goto	u111_20
  6586  0529                     u111_21:
  6587  0529  2D2E               	goto	i1l2230
  6588  052A                     u111_20:
  6589  052A                     i1l2228:
  6590                           
  6591                           ;main.c: 720:     {;main.c: 721:         presses = 0;
  6592  052A  01CE               	clrf	_presses
  6593                           
  6594                           ;main.c: 722:         count = 0;
  6595  052B  01CB               	clrf	_count
  6596  052C  01CC               	clrf	_count+1
  6597                           
  6598                           ;main.c: 723:     }
  6599  052D  2D54               	goto	i1l638
  6600  052E                     i1l2230:
  6601  052E  0140               	movlb	0	; select bank0
  6602  052F  084C               	movf	_count+1,w
  6603  0530  3A80               	xorlw	128
  6604  0531  3C80               	sublw	128
  6605  0532  1D03               	skipz
  6606  0533  2D36               	goto	u112_25
  6607  0534  084B               	movf	_count,w
  6608  0535  0241               	subwf	_song2_length,w
  6609  0536                     u112_25:
  6610  0536  1803               	skipnc
  6611  0537  2D39               	goto	u112_21
  6612  0538  2D3A               	goto	u112_20
  6613  0539                     u112_21:
  6614  0539  2D41               	goto	i1l2236
  6615  053A                     u112_20:
  6616  053A                     i1l2232:
  6617  053A  0140               	movlb	0	; select bank0
  6618  053B  0852               	movf	_song2_playing,w
  6619  053C  1903               	btfsc	3,2
  6620  053D  2D3F               	goto	u113_21
  6621  053E  2D40               	goto	u113_20
  6622  053F                     u113_21:
  6623  053F  2D41               	goto	i1l2236
  6624  0540                     u113_20:
  6625  0540  2D2A               	goto	i1l2228
  6626  0541                     i1l2236:
  6627  0541  0140               	movlb	0	; select bank0
  6628  0542  084C               	movf	_count+1,w
  6629  0543  3A80               	xorlw	128
  6630  0544  3C80               	sublw	128
  6631  0545  1D03               	skipz
  6632  0546  2D49               	goto	u114_25
  6633  0547  084B               	movf	_count,w
  6634  0548  023E               	subwf	_song3_length,w
  6635  0549                     u114_25:
  6636  0549  1803               	skipnc
  6637  054A  2D4C               	goto	u114_21
  6638  054B  2D4D               	goto	u114_20
  6639  054C                     u114_21:
  6640  054C  2D54               	goto	i1l638
  6641  054D                     u114_20:
  6642  054D                     i1l2238:
  6643  054D  0140               	movlb	0	; select bank0
  6644  054E  0853               	movf	_song3_playing,w
  6645  054F  1903               	btfsc	3,2
  6646  0550  2D52               	goto	u115_21
  6647  0551  2D53               	goto	u115_20
  6648  0552                     u115_21:
  6649  0552  2D54               	goto	i1l638
  6650  0553                     u115_20:
  6651  0553  2D2A               	goto	i1l2228
  6652  0554                     i1l638:
  6653  0554  0008               	return
  6654  0555                     __end_of_TMR1_ISR_:
  6655                           
  6656                           	psect	text23
  6657  0EC3                     __ptext23:	
  6658 ;; *************** function _TMR0_ISR *****************
  6659 ;; Defined at:
  6660 ;;		line 134 in file "mcc_generated_files/tmr0.c"
  6661 ;; Parameters:    Size  Location     Type
  6662 ;;		None
  6663 ;; Auto vars:     Size  Location     Type
  6664 ;;		None
  6665 ;; Return value:  Size  Location     Type
  6666 ;;                  1    wreg      void 
  6667 ;; Registers used:
  6668 ;;		wreg, status,2, status,0, pclath, cstack
  6669 ;; Tracked objects:
  6670 ;;		On entry : 0/0
  6671 ;;		On exit  : 0/0
  6672 ;;		Unchanged: 0/0
  6673 ;; Data sizes:     COMMON   BANK0   BANK1   BANK2   BANK3   BANK4   BANK5   BANK6   BANK7   BANK8   BANK9  BANK10  BANK1
      +1  BANK12
  6674 ;;      Params:         0       0       0       0       0       0       0       0       0       0       0       0       
      +0       0
  6675 ;;      Locals:         0       0       0       0       0       0       0       0       0       0       0       0       
      +0       0
  6676 ;;      Temps:          0       0       0       0       0       0       0       0       0       0       0       0       
      +0       0
  6677 ;;      Totals:         0       0       0       0       0       0       0       0       0       0       0       0       
      +0       0
  6678 ;;Total ram usage:        0 bytes
  6679 ;; Hardware stack levels used: 1
  6680 ;; Hardware stack levels required when called: 1
  6681 ;; This function calls:
  6682 ;;		Absolute function
  6683 ;;		_TMR0_DefaultInterruptHandler
  6684 ;;		_TMR0_ISR_
  6685 ;; This function is called by:
  6686 ;;		_INTERRUPT_InterruptManager
  6687 ;; This function uses a non-reentrant model
  6688 ;;
  6689                           
  6690                           
  6691                           ;psect for function _TMR0_ISR
  6692  0EC3                     _TMR0_ISR:
  6693  0EC3                     i1l2260:	
  6694                           ;incstack = 0
  6695                           ; Regs used in _TMR0_ISR: [wreg+status,2+status,0+pclath+cstack]
  6696                           
  6697                           
  6698                           ;mcc_generated_files/tmr0.c: 137:     PIR0bits.TMR0IF = 0;
  6699  0EC3  014E               	movlb	14	; select bank14
  6700  0EC4  128C               	bcf	12,5	;volatile
  6701  0EC5                     i1l2262:
  6702                           
  6703                           ;mcc_generated_files/tmr0.c: 139:     TMR0H = timer0ReloadVal16bit >> 8;
  6704  0EC5  0878               	movf	_timer0ReloadVal16bit+1,w	;volatile
  6705  0EC6  014B               	movlb	11	; select bank11
  6706  0EC7  009D               	movwf	29	;volatile
  6707  0EC8                     i1l2264:
  6708                           
  6709                           ;mcc_generated_files/tmr0.c: 140:     TMR0L = (uint8_t) timer0ReloadVal16bit;
  6710  0EC8  0877               	movf	_timer0ReloadVal16bit,w	;volatile
  6711  0EC9  009C               	movwf	28	;volatile
  6712  0ECA                     i1l2266:
  6713                           
  6714                           ;mcc_generated_files/tmr0.c: 142:     if(TMR0_InterruptHandler)
  6715  0ECA  0140               	movlb	0	; select bank0
  6716  0ECB  0859               	movf	_TMR0_InterruptHandler,w
  6717  0ECC  045A               	iorwf	_TMR0_InterruptHandler+1,w
  6718  0ECD  1903               	btfsc	3,2
  6719  0ECE  2ED0               	goto	u116_21
  6720  0ECF  2ED1               	goto	u116_20
  6721  0ED0                     u116_21:
  6722  0ED0  2ED6               	goto	i1l328
  6723  0ED1                     u116_20:
  6724  0ED1                     i1l2268:
  6725                           
  6726                           ;mcc_generated_files/tmr0.c: 143:     {;mcc_generated_files/tmr0.c: 144:         TMR0_In
      +                          terruptHandler();
  6727  0ED1  085A               	movf	_TMR0_InterruptHandler+1,w
  6728  0ED2  008A               	movwf	10
  6729  0ED3  0859               	movf	_TMR0_InterruptHandler,w
  6730  0ED4  000A               	callw
  6731  0ED5  318E               	pagesel	$
  6732  0ED6                     i1l328:
  6733  0ED6  0008               	return
  6734  0ED7                     __end_of_TMR0_ISR:
  6735                           
  6736                           	psect	text24
  6737  0003                     __ptext24:	
  6738 ;; *************** function _TMR0_DefaultInterruptHandler *****************
  6739 ;; Defined at:
  6740 ;;		line 155 in file "mcc_generated_files/tmr0.c"
  6741 ;; Parameters:    Size  Location     Type
  6742 ;;		None
  6743 ;; Auto vars:     Size  Location     Type
  6744 ;;		None
  6745 ;; Return value:  Size  Location     Type
  6746 ;;                  1    wreg      void 
  6747 ;; Registers used:
  6748 ;;		None
  6749 ;; Tracked objects:
  6750 ;;		On entry : 0/0
  6751 ;;		On exit  : 0/0
  6752 ;;		Unchanged: 0/0
  6753 ;; Data sizes:     COMMON   BANK0   BANK1   BANK2   BANK3   BANK4   BANK5   BANK6   BANK7   BANK8   BANK9  BANK10  BANK1
      +1  BANK12
  6754 ;;      Params:         0       0       0       0       0       0       0       0       0       0       0       0       
      +0       0
  6755 ;;      Locals:         0       0       0       0       0       0       0       0       0       0       0       0       
      +0       0
  6756 ;;      Temps:          0       0       0       0       0       0       0       0       0       0       0       0       
      +0       0
  6757 ;;      Totals:         0       0       0       0       0       0       0       0       0       0       0       0       
      +0       0
  6758 ;;Total ram usage:        0 bytes
  6759 ;; Hardware stack levels used: 1
  6760 ;; This function calls:
  6761 ;;		Nothing
  6762 ;; This function is called by:
  6763 ;;		_TMR0_Initialize
  6764 ;;		_TMR0_ISR
  6765 ;; This function uses a non-reentrant model
  6766 ;;
  6767                           
  6768                           
  6769                           ;psect for function _TMR0_DefaultInterruptHandler
  6770  0003                     _TMR0_DefaultInterruptHandler:
  6771  0003                     i1l334:	
  6772                           ;incstack = 0
  6773                           ; Regs used in _TMR0_DefaultInterruptHandler: []
  6774                           
  6775  0003  0008               	return
  6776  0004                     __end_of_TMR0_DefaultInterruptHandler:
  6777                           
  6778                           	psect	text25
  6779  0E45                     __ptext25:	
  6780 ;; *************** function _TMR0_ISR_ *****************
  6781 ;; Defined at:
  6782 ;;		line 522 in file "main.c"
  6783 ;; Parameters:    Size  Location     Type
  6784 ;;		None
  6785 ;; Auto vars:     Size  Location     Type
  6786 ;;		None
  6787 ;; Return value:  Size  Location     Type
  6788 ;;                  1    wreg      void 
  6789 ;; Registers used:
  6790 ;;		None
  6791 ;; Tracked objects:
  6792 ;;		On entry : 0/0
  6793 ;;		On exit  : 0/0
  6794 ;;		Unchanged: 0/0
  6795 ;; Data sizes:     COMMON   BANK0   BANK1   BANK2   BANK3   BANK4   BANK5   BANK6   BANK7   BANK8   BANK9  BANK10  BANK1
      +1  BANK12
  6796 ;;      Params:         0       0       0       0       0       0       0       0       0       0       0       0       
      +0       0
  6797 ;;      Locals:         0       0       0       0       0       0       0       0       0       0       0       0       
      +0       0
  6798 ;;      Temps:          0       0       0       0       0       0       0       0       0       0       0       0       
      +0       0
  6799 ;;      Totals:         0       0       0       0       0       0       0       0       0       0       0       0       
      +0       0
  6800 ;;Total ram usage:        0 bytes
  6801 ;; Hardware stack levels used: 1
  6802 ;; This function calls:
  6803 ;;		Nothing
  6804 ;; This function is called by:
  6805 ;;		_main
  6806 ;;		_TMR0_ISR
  6807 ;; This function uses a non-reentrant model
  6808 ;;
  6809                           
  6810                           
  6811                           ;psect for function _TMR0_ISR_
  6812  0E45                     _TMR0_ISR_:
  6813  0E45                     i1l2078:	
  6814                           ;incstack = 0
  6815                           ; Regs used in _TMR0_ISR_: []
  6816                           
  6817                           
  6818                           ;main.c: 524:     TMR0_complete = 1;
  6819  0E45  0140               	movlb	0	; select bank0
  6820  0E46  01D1               	clrf	_TMR0_complete
  6821  0E47  0AD1               	incf	_TMR0_complete,f
  6822  0E48                     i1l589:
  6823  0E48  0008               	return
  6824  0E49                     __end_of_TMR0_ISR_:
  6825                           
  6826                           	psect	text26
  6827  0E4F                     __ptext26:	
  6828 ;; *************** function _INT_ISR *****************
  6829 ;; Defined at:
  6830 ;;		line 33 in file "mcc_generated_files/ext_int.c"
  6831 ;; Parameters:    Size  Location     Type
  6832 ;;		None
  6833 ;; Auto vars:     Size  Location     Type
  6834 ;;		None
  6835 ;; Return value:  Size  Location     Type
  6836 ;;                  1    wreg      void 
  6837 ;; Registers used:
  6838 ;;		wreg, status,2, status,0, pclath, cstack
  6839 ;; Tracked objects:
  6840 ;;		On entry : 0/0
  6841 ;;		On exit  : 0/0
  6842 ;;		Unchanged: 0/0
  6843 ;; Data sizes:     COMMON   BANK0   BANK1   BANK2   BANK3   BANK4   BANK5   BANK6   BANK7   BANK8   BANK9  BANK10  BANK1
      +1  BANK12
  6844 ;;      Params:         0       0       0       0       0       0       0       0       0       0       0       0       
      +0       0
  6845 ;;      Locals:         0       0       0       0       0       0       0       0       0       0       0       0       
      +0       0
  6846 ;;      Temps:          0       0       0       0       0       0       0       0       0       0       0       0       
      +0       0
  6847 ;;      Totals:         0       0       0       0       0       0       0       0       0       0       0       0       
      +0       0
  6848 ;;Total ram usage:        0 bytes
  6849 ;; Hardware stack levels used: 1
  6850 ;; Hardware stack levels required when called: 3
  6851 ;; This function calls:
  6852 ;;		_INT_CallBack
  6853 ;; This function is called by:
  6854 ;;		_INTERRUPT_InterruptManager
  6855 ;; This function uses a non-reentrant model
  6856 ;;
  6857                           
  6858                           
  6859                           ;psect for function _INT_ISR
  6860  0E4F                     _INT_ISR:
  6861  0E4F                     i1l2270:	
  6862                           ;incstack = 0
  6863                           ; Regs used in _INT_ISR: [wreg+status,2+status,0+pclath+cstack]
  6864                           
  6865                           
  6866                           ;mcc_generated_files/ext_int.c: 47:     (PIR0bits.INTF = 0);
  6867  0E4F  014E               	movlb	14	; select bank14
  6868  0E50  100C               	bcf	12,0	;volatile
  6869  0E51                     i1l2272:
  6870                           
  6871                           ;mcc_generated_files/ext_int.c: 50:     INT_CallBack();
  6872  0E51  318E  2681  318E   	fcall	_INT_CallBack
  6873  0E54                     i1l271:
  6874  0E54  0008               	return
  6875  0E55                     __end_of_INT_ISR:
  6876                           
  6877                           	psect	text27
  6878  0E81                     __ptext27:	
  6879 ;; *************** function _INT_CallBack *****************
  6880 ;; Defined at:
  6881 ;;		line 54 in file "mcc_generated_files/ext_int.c"
  6882 ;; Parameters:    Size  Location     Type
  6883 ;;		None
  6884 ;; Auto vars:     Size  Location     Type
  6885 ;;		None
  6886 ;; Return value:  Size  Location     Type
  6887 ;;                  1    wreg      void 
  6888 ;; Registers used:
  6889 ;;		wreg, status,2, status,0, pclath, cstack
  6890 ;; Tracked objects:
  6891 ;;		On entry : 0/0
  6892 ;;		On exit  : 0/0
  6893 ;;		Unchanged: 0/0
  6894 ;; Data sizes:     COMMON   BANK0   BANK1   BANK2   BANK3   BANK4   BANK5   BANK6   BANK7   BANK8   BANK9  BANK10  BANK1
      +1  BANK12
  6895 ;;      Params:         0       0       0       0       0       0       0       0       0       0       0       0       
      +0       0
  6896 ;;      Locals:         0       0       0       0       0       0       0       0       0       0       0       0       
      +0       0
  6897 ;;      Temps:          0       0       0       0       0       0       0       0       0       0       0       0       
      +0       0
  6898 ;;      Totals:         0       0       0       0       0       0       0       0       0       0       0       0       
      +0       0
  6899 ;;Total ram usage:        0 bytes
  6900 ;; Hardware stack levels used: 1
  6901 ;; Hardware stack levels required when called: 2
  6902 ;; This function calls:
  6903 ;;		Absolute function
  6904 ;;		_EXT_ISR
  6905 ;;		_INT_DefaultInterruptHandler
  6906 ;; This function is called by:
  6907 ;;		_INT_ISR
  6908 ;; This function uses a non-reentrant model
  6909 ;;
  6910                           
  6911                           
  6912                           ;psect for function _INT_CallBack
  6913  0E81                     _INT_CallBack:
  6914  0E81                     i1l2054:	
  6915                           ;incstack = 0
  6916                           ; Regs used in _INT_CallBack: [wreg+status,2+status,0+pclath+cstack]
  6917                           
  6918                           
  6919                           ;mcc_generated_files/ext_int.c: 57:     if(INT_InterruptHandler)
  6920  0E81  0140               	movlb	0	; select bank0
  6921  0E82  085B               	movf	_INT_InterruptHandler,w
  6922  0E83  045C               	iorwf	_INT_InterruptHandler+1,w
  6923  0E84  1903               	btfsc	3,2
  6924  0E85  2E87               	goto	u80_21
  6925  0E86  2E88               	goto	u80_20
  6926  0E87                     u80_21:
  6927  0E87  2E8D               	goto	i1l275
  6928  0E88                     u80_20:
  6929  0E88                     i1l2056:
  6930                           
  6931                           ;mcc_generated_files/ext_int.c: 58:     {;mcc_generated_files/ext_int.c: 59:         INT
      +                          _InterruptHandler();
  6932  0E88  085C               	movf	_INT_InterruptHandler+1,w
  6933  0E89  008A               	movwf	10
  6934  0E8A  085B               	movf	_INT_InterruptHandler,w
  6935  0E8B  000A               	callw
  6936  0E8C  318E               	pagesel	$
  6937  0E8D                     i1l275:
  6938  0E8D  0008               	return
  6939  0E8E                     __end_of_INT_CallBack:
  6940                           
  6941                           	psect	text28
  6942  0F30                     __ptext28:	
  6943 ;; *************** function _EXT_ISR *****************
  6944 ;; Defined at:
  6945 ;;		line 498 in file "main.c"
  6946 ;; Parameters:    Size  Location     Type
  6947 ;;		None
  6948 ;; Auto vars:     Size  Location     Type
  6949 ;;		None
  6950 ;; Return value:  Size  Location     Type
  6951 ;;                  1    wreg      void 
  6952 ;; Registers used:
  6953 ;;		wreg, status,2, status,0, pclath, cstack
  6954 ;; Tracked objects:
  6955 ;;		On entry : 0/0
  6956 ;;		On exit  : 0/0
  6957 ;;		Unchanged: 0/0
  6958 ;; Data sizes:     COMMON   BANK0   BANK1   BANK2   BANK3   BANK4   BANK5   BANK6   BANK7   BANK8   BANK9  BANK10  BANK1
      +1  BANK12
  6959 ;;      Params:         0       0       0       0       0       0       0       0       0       0       0       0       
      +0       0
  6960 ;;      Locals:         0       0       0       0       0       0       0       0       0       0       0       0       
      +0       0
  6961 ;;      Temps:          1       0       0       0       0       0       0       0       0       0       0       0       
      +0       0
  6962 ;;      Totals:         1       0       0       0       0       0       0       0       0       0       0       0       
      +0       0
  6963 ;;Total ram usage:        1 bytes
  6964 ;; Hardware stack levels used: 1
  6965 ;; Hardware stack levels required when called: 1
  6966 ;; This function calls:
  6967 ;;		_TMR0_Reload
  6968 ;; This function is called by:
  6969 ;;		_main
  6970 ;;		_INT_CallBack
  6971 ;; This function uses a non-reentrant model
  6972 ;;
  6973                           
  6974                           
  6975                           ;psect for function _EXT_ISR
  6976  0F30                     _EXT_ISR:
  6977  0F30                     i1l1944:	
  6978                           ;incstack = 0
  6979                           ; Regs used in _EXT_ISR: [wreg+status,2+status,0+pclath+cstack]
  6980                           
  6981                           
  6982                           ;main.c: 500:     presses++;
  6983  0F30  3001               	movlw	1
  6984  0F31  00F0               	movwf	??_EXT_ISR
  6985  0F32  0870               	movf	??_EXT_ISR,w
  6986  0F33  0140               	movlb	0	; select bank0
  6987  0F34  07CE               	addwf	_presses,f
  6988  0F35                     i1l1946:
  6989                           
  6990                           ;main.c: 501:     TMR0_Reload();
  6991  0F35  318E  2649  318F   	fcall	_TMR0_Reload
  6992  0F38                     i1l1948:
  6993                           
  6994                           ;main.c: 504:     if (T1CONbits.TMR1ON)
  6995  0F38  0144               	movlb	4	; select bank4
  6996  0F39  1C0E               	btfss	14,0	;volatile
  6997  0F3A  2F3C               	goto	u78_21
  6998  0F3B  2F3D               	goto	u78_20
  6999  0F3C                     u78_21:
  7000  0F3C  2F42               	goto	i1l1952
  7001  0F3D                     u78_20:
  7002  0F3D                     i1l1950:
  7003                           
  7004                           ;main.c: 505:     {;main.c: 506:         presses = 0;
  7005  0F3D  0140               	movlb	0	; select bank0
  7006  0F3E  01CE               	clrf	_presses
  7007                           
  7008                           ;main.c: 507:         count = 0;
  7009  0F3F  01CB               	clrf	_count
  7010  0F40  01CC               	clrf	_count+1
  7011                           
  7012                           ;main.c: 508:     }
  7013  0F41  2F44               	goto	i1l1954
  7014  0F42                     i1l1952:
  7015                           
  7016                           ;main.c: 511:     {;main.c: 512:         TMR0_complete = 0;
  7017  0F42  0140               	movlb	0	; select bank0
  7018  0F43  01D1               	clrf	_TMR0_complete
  7019  0F44                     i1l1954:
  7020                           
  7021                           ;main.c: 515:     if (presses > num_songs)
  7022  0F44  084E               	movf	_presses,w
  7023  0F45  0279               	subwf	_num_songs,w
  7024  0F46  1803               	skipnc
  7025  0F47  2F49               	goto	u79_21
  7026  0F48  2F4A               	goto	u79_20
  7027  0F49                     u79_21:
  7028  0F49  2F4B               	goto	i1l586
  7029  0F4A                     u79_20:
  7030  0F4A                     i1l1956:
  7031                           
  7032                           ;main.c: 516:     {;main.c: 517:         presses = 0;
  7033  0F4A  01CE               	clrf	_presses
  7034  0F4B                     i1l586:
  7035  0F4B  0008               	return
  7036  0F4C                     __end_of_EXT_ISR:
  7037                           
  7038                           	psect	text29
  7039  0002                     __ptext29:	
  7040 ;; *************** function _INT_DefaultInterruptHandler *****************
  7041 ;; Defined at:
  7042 ;;		line 67 in file "mcc_generated_files/ext_int.c"
  7043 ;; Parameters:    Size  Location     Type
  7044 ;;		None
  7045 ;; Auto vars:     Size  Location     Type
  7046 ;;		None
  7047 ;; Return value:  Size  Location     Type
  7048 ;;                  1    wreg      void 
  7049 ;; Registers used:
  7050 ;;		None
  7051 ;; Tracked objects:
  7052 ;;		On entry : 0/0
  7053 ;;		On exit  : 0/0
  7054 ;;		Unchanged: 0/0
  7055 ;; Data sizes:     COMMON   BANK0   BANK1   BANK2   BANK3   BANK4   BANK5   BANK6   BANK7   BANK8   BANK9  BANK10  BANK1
      +1  BANK12
  7056 ;;      Params:         0       0       0       0       0       0       0       0       0       0       0       0       
      +0       0
  7057 ;;      Locals:         0       0       0       0       0       0       0       0       0       0       0       0       
      +0       0
  7058 ;;      Temps:          0       0       0       0       0       0       0       0       0       0       0       0       
      +0       0
  7059 ;;      Totals:         0       0       0       0       0       0       0       0       0       0       0       0       
      +0       0
  7060 ;;Total ram usage:        0 bytes
  7061 ;; Hardware stack levels used: 1
  7062 ;; This function calls:
  7063 ;;		Nothing
  7064 ;; This function is called by:
  7065 ;;		_EXT_INT_Initialize
  7066 ;;		_INT_CallBack
  7067 ;; This function uses a non-reentrant model
  7068 ;;
  7069                           
  7070                           
  7071                           ;psect for function _INT_DefaultInterruptHandler
  7072  0002                     _INT_DefaultInterruptHandler:
  7073  0002                     i1l281:	
  7074                           ;incstack = 0
  7075                           ; Regs used in _INT_DefaultInterruptHandler: []
  7076                           
  7077  0002  0008               	return
  7078  0003                     __end_of_INT_DefaultInterruptHandler:
  7079                           
  7080                           	psect	text30
  7081  0E49                     __ptext30:	
  7082 ;; *************** function _TMR0_Reload *****************
  7083 ;; Defined at:
  7084 ;;		line 127 in file "mcc_generated_files/tmr0.c"
  7085 ;; Parameters:    Size  Location     Type
  7086 ;;		None
  7087 ;; Auto vars:     Size  Location     Type
  7088 ;;		None
  7089 ;; Return value:  Size  Location     Type
  7090 ;;                  1    wreg      void 
  7091 ;; Registers used:
  7092 ;;		wreg, status,2
  7093 ;; Tracked objects:
  7094 ;;		On entry : 0/0
  7095 ;;		On exit  : 0/0
  7096 ;;		Unchanged: 0/0
  7097 ;; Data sizes:     COMMON   BANK0   BANK1   BANK2   BANK3   BANK4   BANK5   BANK6   BANK7   BANK8   BANK9  BANK10  BANK1
      +1  BANK12
  7098 ;;      Params:         0       0       0       0       0       0       0       0       0       0       0       0       
      +0       0
  7099 ;;      Locals:         0       0       0       0       0       0       0       0       0       0       0       0       
      +0       0
  7100 ;;      Temps:          0       0       0       0       0       0       0       0       0       0       0       0       
      +0       0
  7101 ;;      Totals:         0       0       0       0       0       0       0       0       0       0       0       0       
      +0       0
  7102 ;;Total ram usage:        0 bytes
  7103 ;; Hardware stack levels used: 1
  7104 ;; This function calls:
  7105 ;;		Nothing
  7106 ;; This function is called by:
  7107 ;;		_EXT_ISR
  7108 ;; This function uses a non-reentrant model
  7109 ;;
  7110                           
  7111                           
  7112                           ;psect for function _TMR0_Reload
  7113  0E49                     _TMR0_Reload:
  7114  0E49                     i1l1928:	
  7115                           ;incstack = 0
  7116                           ; Regs used in _TMR0_Reload: [wreg+status,2]
  7117                           
  7118                           
  7119                           ;mcc_generated_files/tmr0.c: 130:     TMR0H = timer0ReloadVal16bit >> 8;
  7120  0E49  0878               	movf	_timer0ReloadVal16bit+1,w	;volatile
  7121  0E4A  014B               	movlb	11	; select bank11
  7122  0E4B  009D               	movwf	29	;volatile
  7123  0E4C                     i1l1930:
  7124                           
  7125                           ;mcc_generated_files/tmr0.c: 131:     TMR0L = (uint8_t) timer0ReloadVal16bit;
  7126  0E4C  0877               	movf	_timer0ReloadVal16bit,w	;volatile
  7127  0E4D  009C               	movwf	28	;volatile
  7128  0E4E                     i1l324:
  7129  0E4E  0008               	return
  7130  0E4F                     __end_of_TMR0_Reload:
  7131  007E                     btemp	set	126	;btemp
  7132  007E                     int$flags	set	126
  7133  007E                     wtemp0	set	126
  7134  2194                     
  7135                           	psect	config
  7136                           
  7137                           ;Config register CONFIG1 @ 0x8007
  7138                           ;	External Oscillator Mode Selection bits
  7139                           ;	FEXTOSC = OFF, Oscillator not enabled
  7140                           ;	Power-up Default Value for COSC bits
  7141                           ;	RSTOSC = HFINTOSC_1MHZ, HFINTOSC (1 MHz)
  7142                           ;	Clock Out Enable bit
  7143                           ;	CLKOUTEN = OFF, CLKOUT function is disabled; I/O function on RA4
  7144                           ;	VDD Range Analog Calibration Selection bit
  7145                           ;	VDDAR = HI, Internal analog systems are calibrated for operation between VDD = 2.3V - 
      +                          5.5V
  7146  8007                     	org	32775
  7147  8007  3FED               	dw	16365
  7148                           
  7149                           ;Config register CONFIG2 @ 0x8008
  7150                           ;	Master Clear Enable bit
  7151                           ;	MCLRE = EXTMCLR, If LVP = 0, MCLR pin is MCLR; If LVP = 1, RA3 pin function is MCLR
  7152                           ;	Power-up Timer Selection bits
  7153                           ;	PWRTS = PWRT_OFF, PWRT is disabled
  7154                           ;	WDT Operating Mode bits
  7155                           ;	WDTE = OFF, WDT disabled; SEN is ignored
  7156                           ;	Brown-out Reset Enable bits
  7157                           ;	BOREN = ON, Brown-out Reset Enabled, SBOREN bit is ignored
  7158                           ;	Brown-out Reset Voltage Selection bit
  7159                           ;	BORV = LO, Brown-out Reset Voltage (VBOR) set to 1.9V
  7160                           ;	PPSLOCKED One-Way Set Enable bit
  7161                           ;	PPS1WAY = ON, The PPSLOCKED bit can be set once after an unlocking sequence is execute
      +                          d; once PPSLOCKED is set, all future changes to PPS registers are prevented
  7162                           ;	Stack Overflow/Underflow Reset Enable bit
  7163                           ;	STVREN = ON, Stack Overflow or Underflow will cause a reset
  7164  8008                     	org	32776
  7165  8008  3FE7               	dw	16359
  7166                           
  7167                           ;Config register CONFIG4 @ 0x800A
  7168                           ;	Boot Block Size Selection bits
  7169                           ;	BBSIZE = BB512, 512 words boot block size
  7170                           ;	Boot Block Enable bit
  7171                           ;	BBEN = OFF, Boot Block is disabled
  7172                           ;	SAF Enable bit
  7173                           ;	SAFEN = OFF, SAF is disabled
  7174                           ;	Application Block Write Protection bit
  7175                           ;	WRTAPP = OFF, Application Block is not write-protected
  7176                           ;	Boot Block Write Protection bit
  7177                           ;	WRTB = OFF, Boot Block is not write-protected
  7178                           ;	Configuration Registers Write Protection bit
  7179                           ;	WRTC = OFF, Configuration Registers are not write-protected
  7180                           ;	Storage Area Flash (SAF) Write Protection bit
  7181                           ;	WRTSAF = OFF, SAF is not write-protected
  7182                           ;	Low Voltage Programming Enable bit
  7183                           ;	LVP = ON, Low Voltage programming enabled. MCLR/Vpp pin function is MCLR. MCLRE Config
      +                          uration bit is ignored.
  7184  800A                     	org	32778
  7185  800A  3FFF               	dw	16383
  7186                           
  7187                           ;Config register CONFIG5 @ 0x800B
  7188                           ;	User Program Flash Memory Code Protection bit
  7189                           ;	CP = OFF, User Program Flash Memory code protection is disabled
  7190  800B                     	org	32779
  7191  800B  3FFF               	dw	16383

Data Sizes:
    Strings     0
    Constant    11
    Data        674
    BSS         10
    Persistent  42
    Stack       0

Auto Spaces:
    Space          Size  Autos    Used
    COMMON           14      7      10
    BANK0            80     23      61
    BANK1            80     15      64
    BANK2            80      0       0
    BANK3            80      0       0
    BANK4            80      0       0
    BANK5             4      0       0
    BANK6             0      0       0
    BANK7             0      0       0
    BANK8             0      0       0
    BANK9             0      0       0
    BANK10            0      0       0
    BANK11            0      0       0
    BANK12            0      0       0

Pointer List with Targets:

    displayMatrix@states	PTR unsigned char  size(1) Largest target is 7
		 -> light_array(BANK0[7]), 

    TMR1_SetInterruptHandler@InterruptHandler	PTR FTN()void  size(2) Largest target is 1
		 -> TMR1_ISR_(), TMR1_DefaultInterruptHandler(), 

    TMR1_InterruptHandler	PTR FTN()void  size(2) Largest target is 1
		 -> TMR1_ISR_(), TMR1_DefaultInterruptHandler(), Absolute function(), 

    TMR0_SetInterruptHandler@InterruptHandler	PTR FTN()void  size(2) Largest target is 1
		 -> TMR0_ISR_(), TMR0_DefaultInterruptHandler(), 

    TMR0_InterruptHandler	PTR FTN()void  size(2) Largest target is 1
		 -> TMR0_ISR_(), TMR0_DefaultInterruptHandler(), Absolute function(), 

    INT_SetInterruptHandler@InterruptHandler	PTR FTN()void  size(2) Largest target is 1
		 -> EXT_ISR(), INT_DefaultInterruptHandler(), 

    INT_InterruptHandler	PTR FTN()void  size(2) Largest target is 1
		 -> EXT_ISR(), INT_DefaultInterruptHandler(), Absolute function(), 


Critical Paths under _main in COMMON

    _main->_displayMatrix
    _displayMatrix->_shiftBytes
    _shiftBytes->_SPI1_ExchangeByte
    _TMR1_Initialize->_TMR1_SetInterruptHandler
    _TMR0_Initialize->_TMR0_SetInterruptHandler
    _EXT_INT_Initialize->_INT_SetInterruptHandler

Critical Paths under _INTERRUPT_InterruptManager in COMMON

    _TMR1_ISR->_TMR1_ISR_
    _TMR1_ISR->_TMR1_WriteTimer
    _INT_CallBack->_EXT_ISR

Critical Paths under _main in BANK0

    _main->_displayMatrix

Critical Paths under _INTERRUPT_InterruptManager in BANK0

    _TMR1_ISR->_TMR1_ISR_

Critical Paths under _main in BANK1

    None.

Critical Paths under _INTERRUPT_InterruptManager in BANK1

    None.

Critical Paths under _main in BANK2

    None.

Critical Paths under _INTERRUPT_InterruptManager in BANK2

    None.

Critical Paths under _main in BANK3

    None.

Critical Paths under _INTERRUPT_InterruptManager in BANK3

    None.

Critical Paths under _main in BANK4

    None.

Critical Paths under _INTERRUPT_InterruptManager in BANK4

    None.

Critical Paths under _main in BANK5

    None.

Critical Paths under _INTERRUPT_InterruptManager in BANK5

    None.

Critical Paths under _main in BANK6

    None.

Critical Paths under _INTERRUPT_InterruptManager in BANK6

    None.

Critical Paths under _main in BANK7

    None.

Critical Paths under _INTERRUPT_InterruptManager in BANK7

    None.

Critical Paths under _main in BANK8

    None.

Critical Paths under _INTERRUPT_InterruptManager in BANK8

    None.

Critical Paths under _main in BANK9

    None.

Critical Paths under _INTERRUPT_InterruptManager in BANK9

    None.

Critical Paths under _main in BANK10

    None.

Critical Paths under _INTERRUPT_InterruptManager in BANK10

    None.

Critical Paths under _main in BANK11

    None.

Critical Paths under _INTERRUPT_InterruptManager in BANK11

    None.

Critical Paths under _main in BANK12

    None.

Critical Paths under _INTERRUPT_InterruptManager in BANK12

    None.

Call Graph Tables:

 ---------------------------------------------------------------------------------
 (Depth) Function   	        Calls       Base Space   Used Autos Params    Refs
 ---------------------------------------------------------------------------------
 (0) _main                                                16    16      0    4149
                                              0 BANK1     15    15      0
                 _EXT_INT_Initialize
            _INT_SetInterruptHandler
                    _PWM3_Initialize
                    _SPI1_Initialize
                  _SYSTEM_Initialize
                    _TMR0_Initialize
           _TMR0_SetInterruptHandler
                    _TMR1_Initialize
           _TMR1_SetInterruptHandler
                    _TMR2_Initialize
                      _displayMatrix
                           _playNote
                         _shiftBytes
 ---------------------------------------------------------------------------------
 (1) _playNote                                             3     2      1     546
                                              2 COMMON     3     2      1
 ---------------------------------------------------------------------------------
 (1) _displayMatrix                                        6     6      0     775
                                              5 COMMON     2     2      0
                                             19 BANK0      4     4      0
                         _shiftBytes
 ---------------------------------------------------------------------------------
 (1) _shiftBytes                                           2     1      1     363
                                              3 COMMON     2     1      1
                  _SPI1_ExchangeByte
 ---------------------------------------------------------------------------------
 (2) _SPI1_ExchangeByte                                    1     1      0      31
                                              2 COMMON     1     1      0
 ---------------------------------------------------------------------------------
 (1) _SYSTEM_Initialize                                    0     0      0     633
                 _EXT_INT_Initialize
              _OSCILLATOR_Initialize
             _PIN_MANAGER_Initialize
                    _PWM3_Initialize
                    _SPI1_Initialize
                    _TMR0_Initialize
                    _TMR1_Initialize
                    _TMR2_Initialize
                     _WDT_Initialize
 ---------------------------------------------------------------------------------
 (2) _WDT_Initialize                                       0     0      0       0
 ---------------------------------------------------------------------------------
 (1) _TMR2_Initialize                                      0     0      0       0
 ---------------------------------------------------------------------------------
 (1) _TMR1_Initialize                                      0     0      0     211
           _TMR1_SetInterruptHandler
 ---------------------------------------------------------------------------------
 (1) _TMR1_SetInterruptHandler                             2     0      2     211
                                              2 COMMON     2     0      2
 ---------------------------------------------------------------------------------
 (1) _TMR0_Initialize                                      0     0      0     211
           _TMR0_SetInterruptHandler
 ---------------------------------------------------------------------------------
 (1) _TMR0_SetInterruptHandler                             2     0      2     211
                                              2 COMMON     2     0      2
 ---------------------------------------------------------------------------------
 (2) _SPI1_Initialize                                      0     0      0       0
 ---------------------------------------------------------------------------------
 (2) _PWM3_Initialize                                      0     0      0       0
 ---------------------------------------------------------------------------------
 (2) _PIN_MANAGER_Initialize                               0     0      0       0
 ---------------------------------------------------------------------------------
 (2) _OSCILLATOR_Initialize                                0     0      0       0
 ---------------------------------------------------------------------------------
 (2) _EXT_INT_Initialize                                   0     0      0     211
            _INT_SetInterruptHandler
 ---------------------------------------------------------------------------------
 (3) _INT_SetInterruptHandler                              2     0      2     211
                                              2 COMMON     2     0      2
 ---------------------------------------------------------------------------------
 Estimated maximum stack depth 3
 ---------------------------------------------------------------------------------
 (Depth) Function   	        Calls       Base Space   Used Autos Params    Refs
 ---------------------------------------------------------------------------------
 (4) _INTERRUPT_InterruptManager                           0     0      0    1029
                            _INT_ISR
                           _TMR0_ISR
                           _TMR1_ISR
 ---------------------------------------------------------------------------------
 (5) _TMR1_ISR                                             0     0      0    1029
                   Absolute function *
       _TMR1_DefaultInterruptHandler *
                          _TMR1_ISR_ *
                    _TMR1_WriteTimer
 ---------------------------------------------------------------------------------
 (6) _TMR1_WriteTimer                                      2     0      2     240
                                              0 COMMON     2     0      2
 ---------------------------------------------------------------------------------
 (6) _TMR1_ISR_                                           21    21      0     789
                                              0 COMMON     2     2      0
                                              0 BANK0     19    19      0
 ---------------------------------------------------------------------------------
 (6) _TMR1_DefaultInterruptHandler                         0     0      0       0
 ---------------------------------------------------------------------------------
 (5) _TMR0_ISR                                             0     0      0       0
                   Absolute function *
       _TMR0_DefaultInterruptHandler *
                          _TMR0_ISR_ *
 ---------------------------------------------------------------------------------
 (6) _TMR0_ISR_                                            0     0      0       0
 ---------------------------------------------------------------------------------
 (6) _TMR0_DefaultInterruptHandler                         0     0      0       0
 ---------------------------------------------------------------------------------
 (5) _INT_ISR                                              0     0      0       0
                       _INT_CallBack
 ---------------------------------------------------------------------------------
 (6) _INT_CallBack                                         0     0      0       0
                   Absolute function *
                            _EXT_ISR *
        _INT_DefaultInterruptHandler *
 ---------------------------------------------------------------------------------
 (7) _INT_DefaultInterruptHandler                          0     0      0       0
 ---------------------------------------------------------------------------------
 (7) _EXT_ISR                                              1     1      0       0
                                              0 COMMON     1     1      0
                        _TMR0_Reload
 ---------------------------------------------------------------------------------
 (8) _TMR0_Reload                                          0     0      0       0
 ---------------------------------------------------------------------------------
 (6) Absolute function(Fake)                               0     0      0       0
 ---------------------------------------------------------------------------------
 Estimated maximum stack depth 8
 ---------------------------------------------------------------------------------

 Call Graph Graphs:

 _main (ROOT)
   _EXT_INT_Initialize
     _INT_SetInterruptHandler
   _INT_SetInterruptHandler
   _PWM3_Initialize
   _SPI1_Initialize
   _SYSTEM_Initialize
     _EXT_INT_Initialize
     _OSCILLATOR_Initialize
     _PIN_MANAGER_Initialize
     _PWM3_Initialize
     _SPI1_Initialize
     _TMR0_Initialize
       _TMR0_SetInterruptHandler
     _TMR1_Initialize
       _TMR1_SetInterruptHandler
     _TMR2_Initialize
     _WDT_Initialize
   _TMR0_Initialize
   _TMR0_SetInterruptHandler
   _TMR1_Initialize
   _TMR1_SetInterruptHandler
   _TMR2_Initialize
   _displayMatrix
     _shiftBytes
       _SPI1_ExchangeByte
   _playNote
   _shiftBytes

 _INTERRUPT_InterruptManager (ROOT)
   _INT_ISR
     _INT_CallBack
       Absolute function(Fake) *
       _EXT_ISR *
         _TMR0_Reload
       _INT_DefaultInterruptHandler *
   _TMR0_ISR
     Absolute function(Fake) *
     _TMR0_DefaultInterruptHandler *
     _TMR0_ISR_ *
   _TMR1_ISR
     Absolute function(Fake) *
     _TMR1_DefaultInterruptHandler *
     _TMR1_ISR_ *
     _TMR1_WriteTimer *

 Address spaces:
Name               Size   Autos  Total    Cost      Usage
BIGRAM             3F0      0       0       0        0.0%
NULL                 0      0       0       0        0.0%
CODE                 0      0       0       0        0.0%
BITCOMMON            E      0       0       1        0.0%
BITSFR0              0      0       0       1        0.0%
SFR0                 0      0       0       1        0.0%
COMMON               E      7       A       2       71.4%
BITSFR1              0      0       0       2        0.0%
SFR1                 0      0       0       2        0.0%
BITSFR2              0      0       0       3        0.0%
SFR2                 0      0       0       3        0.0%
STACK                0      0       0       3        0.0%
BITSFR3              0      0       0       4        0.0%
SFR3                 0      0       0       4        0.0%
ABS                  0      0      87       4        0.0%
BITBANK0            50      0       0       5        0.0%
BITSFR4              0      0       0       5        0.0%
SFR4                 0      0       0       5        0.0%
BANK0               50     17      3D       6       76.2%
BITSFR5              0      0       0       6        0.0%
SFR5                 0      0       0       6        0.0%
BITBANK1            50      0       0       7        0.0%
BITSFR6              0      0       0       7        0.0%
SFR6                 0      0       0       7        0.0%
BANK1               50      F      40       8       80.0%
BITSFR7              0      0       0       8        0.0%
SFR7                 0      0       0       8        0.0%
BITBANK2            50      0       0       9        0.0%
BITSFR8              0      0       0       9        0.0%
SFR8                 0      0       0       9        0.0%
BANK2               50      0       0      10        0.0%
BITSFR9              0      0       0      10        0.0%
SFR9                 0      0       0      10        0.0%
BITBANK3            50      0       0      11        0.0%
BITSFR10             0      0       0      11        0.0%
SFR10                0      0       0      11        0.0%
BANK3               50      0       0      12        0.0%
BITSFR11             0      0       0      12        0.0%
SFR11                0      0       0      12        0.0%
BITBANK4            50      0       0      13        0.0%
BITSFR12             0      0       0      13        0.0%
SFR12                0      0       0      13        0.0%
BANK4               50      0       0      14        0.0%
BITSFR13             0      0       0      14        0.0%
SFR13                0      0       0      14        0.0%
BITBANK5            50      0       0      15        0.0%
BITSFR14             0      0       0      15        0.0%
SFR14                0      0       0      15        0.0%
BANK5                4      0       0      16        0.0%
BITSFR15             0      0       0      16        0.0%
SFR15                0      0       0      16        0.0%
BITBANK6            50      0       0      17        0.0%
BITSFR16             0      0       0      17        0.0%
SFR16                0      0       0      17        0.0%
BITSFR17             0      0       0      18        0.0%
SFR17                0      0       0      18        0.0%
BANK6                0      0       0      18        0.0%
BITBANK7            50      0       0      19        0.0%
BITSFR18             0      0       0      19        0.0%
SFR18                0      0       0      19        0.0%
BITSFR19             0      0       0      20        0.0%
SFR19                0      0       0      20        0.0%
BANK7                0      0       0      20        0.0%
BITBANK8            50      0       0      21        0.0%
BITSFR20             0      0       0      21        0.0%
SFR20                0      0       0      21        0.0%
BITSFR21             0      0       0      22        0.0%
SFR21                0      0       0      22        0.0%
BANK8                0      0       0      22        0.0%
BITBANK9            50      0       0      23        0.0%
BITSFR22             0      0       0      23        0.0%
SFR22                0      0       0      23        0.0%
BITSFR23             0      0       0      24        0.0%
SFR23                0      0       0      24        0.0%
BANK9                0      0       0      24        0.0%
BITBANK10           50      0       0      25        0.0%
BITSFR24             0      0       0      25        0.0%
SFR24                0      0       0      25        0.0%
BITSFR25             0      0       0      26        0.0%
SFR25                0      0       0      26        0.0%
BANK10               0      0       0      26        0.0%
BITBANK11           50      0       0      27        0.0%
BITSFR26             0      0       0      27        0.0%
SFR26                0      0       0      27        0.0%
BITSFR27             0      0       0      28        0.0%
SFR27                0      0       0      28        0.0%
BANK11               0      0       0      28        0.0%
BITBANK12           30      0       0      29        0.0%
BITSFR28             0      0       0      29        0.0%
SFR28                0      0       0      29        0.0%
BITSFR29             0      0       0      30        0.0%
SFR29                0      0       0      30        0.0%
BANK12               0      0       0      30        0.0%
BITSFR30             0      0       0      31        0.0%
SFR30                0      0       0      31        0.0%
DATA                 0      0      87      31        0.0%
BITSFR31             0      0       0      32        0.0%
SFR31                0      0       0      32        0.0%
BITSFR32             0      0       0      33        0.0%
SFR32                0      0       0      33        0.0%
BITSFR33             0      0       0      34        0.0%
SFR33                0      0       0      34        0.0%
BITSFR34             0      0       0      35        0.0%
SFR34                0      0       0      35        0.0%
BITSFR35             0      0       0      36        0.0%
SFR35                0      0       0      36        0.0%
BITSFR36             0      0       0      37        0.0%
SFR36                0      0       0      37        0.0%
BITSFR37             0      0       0      38        0.0%
SFR37                0      0       0      38        0.0%
BITSFR38             0      0       0      39        0.0%
SFR38                0      0       0      39        0.0%
BITSFR39             0      0       0      40        0.0%
SFR39                0      0       0      40        0.0%
BITSFR40             0      0       0      41        0.0%
SFR40                0      0       0      41        0.0%
BITSFR41             0      0       0      42        0.0%
SFR41                0      0       0      42        0.0%
BITSFR42             0      0       0      43        0.0%
SFR42                0      0       0      43        0.0%
BITSFR43             0      0       0      44        0.0%
SFR43                0      0       0      44        0.0%
BITSFR44             0      0       0      45        0.0%
SFR44                0      0       0      45        0.0%
BITSFR45             0      0       0      46        0.0%
SFR45                0      0       0      46        0.0%
BITSFR46             0      0       0      47        0.0%
SFR46                0      0       0      47        0.0%
BITSFR47             0      0       0      48        0.0%
SFR47                0      0       0      48        0.0%
BITSFR48             0      0       0      49        0.0%
SFR48                0      0       0      49        0.0%
BITSFR49             0      0       0      50        0.0%
SFR49                0      0       0      50        0.0%
BITSFR50             0      0       0      51        0.0%
SFR50                0      0       0      51        0.0%
BITSFR51             0      0       0      52        0.0%
SFR51                0      0       0      52        0.0%
BITSFR52             0      0       0      53        0.0%
SFR52                0      0       0      53        0.0%
BITSFR53             0      0       0      54        0.0%
SFR53                0      0       0      54        0.0%
BITSFR54             0      0       0      55        0.0%
SFR54                0      0       0      55        0.0%
BITSFR55             0      0       0      56        0.0%
SFR55                0      0       0      56        0.0%
BITSFR56             0      0       0      57        0.0%
SFR56                0      0       0      57        0.0%
BITSFR57             0      0       0      58        0.0%
SFR57                0      0       0      58        0.0%
BITSFR58             0      0       0      59        0.0%
SFR58                0      0       0      59        0.0%
BITSFR59             0      0       0      60        0.0%
SFR59                0      0       0      60        0.0%
BITSFR60             0      0       0      61        0.0%
SFR60                0      0       0      61        0.0%
BITSFR61             0      0       0      62        0.0%
SFR61                0      0       0      62        0.0%
BITSFR62             0      0       0      63        0.0%
SFR62                0      0       0      63        0.0%
BITSFR63             0      0       0      64        0.0%
SFR63                0      0       0      64        0.0%


Microchip Technology PIC Macro Assembler V2.32 build 20210201212658 
Symbol Table                                                                                   Mon Dec 20 10:46:30 2021

                       _SPI1_ExchangeByte 0E9B                                         _a 1004  
                                       _b 100A                                         _c 1009  
                                       _d 1008                                         _e 1007  
                                       _f 1006                                         _g 1005  
                                      l32 0E60                                        l35 0E44  
                                      l29 0F67                                        l64 0EFF  
                                      l74 0E9F                                        l76 0EA4  
                                      l77 0EA7                        ?_SPI1_ExchangeByte 0070  
                                     l226 0E74                                       l147 0FCE  
                                     l331 0E66                                       l309 0F2F  
                                     l177 0EC2                                       l284 0E9A  
                                     l365 0FA6                                       l278 0E5A  
                                     l641 0F73                                       l642 0F7D  
                                     l395 0E6C                                       l643 0F86  
                                     l557 01EE                                       l549 0145  
                                     l574 02DE                                       l664 07EC  
                                     l576 02E0                                       l657 0EB4  
                                     l577 02E1                                       _PR2 028D  
                         _timer1ReloadVal 0057                       ??_SPI1_ExchangeByte 0072  
                         _TMR2_Initialize 0EB5                                       wreg 0009  
                          ?_displayMatrix 0070                                      l2600 0E5F  
                                    l2610 0EB9                                      l2602 0E42  
                                    l2604 0E6D                                      l2620 0F8A  
                                    l2612 0EBC                                      l2550 0E55  
                                    l2630 0F9A                                      l2622 0F8C  
                                    l2614 0EBD                                      l2606 0EB5  
                                    l2640 0E98                                      l2560 0EF9  
                                    l2552 0E61                                      l2632 0F9C  
                                    l2624 0F8E                                      l2616 0EBF  
                                    l2608 0EB8                                      l2544 0E9C  
                                    l2800 015A                                      l2720 0077  
                                    l2570 0FAC                                      l2562 0EFB  
                                    l2650 0F2C                                      l2642 0F17  
                                    l2554 0E67                                      l2634 0FA3  
                                    l2626 0F90                                      l2618 0F87  
                                    l2546 0EA5                                      l2810 01B5  
                                    l2802 015D                                      l2730 0089  
                                    l2722 0079                                      l2714 006F  
                                    l2636 0E8E                                      l2580 0FBB  
                                    l2572 0FAE                                      l2564 0EFD  
                                    l2556 0EEB                                      l2644 0F22  
                                    l2628 0F92                                      l2660 0F55  
                                    l2652 0EA9                                      l2820 01CF  
                                    l2812 01B7                                      l2804 0186  
                                    l2740 00AD                                      l2732 0095  
                                    l2724 007B                                      l2716 0072  
                                    l2638 0E91                                      l2590 0FC7  
                                    l2582 0FBD                                      l2574 0FB1  
                                    l2566 0FA7                                      l2558 0EF8  
                                    l2646 0F24                                      l2670 0F64  
                                    l2662 0F58                                      l2654 0EB1  
                                    l2830 01F3                                      l2822 01D5  
                                    l2814 01BD                                      l2806 0189  
                                    l2750 00B2                                      l2742 00AE  
                                    l2734 00A1                                      l2726 007C  
                                    l2718 0073                                      l2592 0FC9  
                                    l2584 0FBF                                      l2576 0FB7  
                                    l2568 0FAA                                      l2648 0F25  
                                    l2664 0F5B                                      l2656 0EB3  
                                    l2680 07BC                                      l2672 07B3  
                                    l2840 0252                                      l2832 021C  
                                    l2824 01D6                                      l2816 01C3  
                                    l2808 01B2                                      l2760 00BE  
                                    l2744 00AF                                      l2736 00A6  
                                    l2728 007D                                      l2594 0FCB  
                                    l2586 0FC2                                      l2578 0FB9  
                                    l2666 0F5E                                      l2658 0F4C  
                                    l2690 07DF                                      l2682 07C1  
                                    l2842 0258                                      l2834 0223  
                                    l2850 028A                                      l2818 01C9  
                                    l2770 00DC                                      l2762 00CB  
                                    l2738 00AB                                      l2596 0E5B  
                                    l2588 0FC4                                      l2668 0F61  
                                    l2684 07C5                                      l2692 0F69  
                                    l2860 02C8                                      l2852 0292  
                                    l2844 025D                                      l2836 0232  
                                    l2916 01E3                                      l2828 01D9  
                                    l2772 00FF                                      l2764 00D9  
                                    l2756 00B5                                      l2598 0E5D  
                                    l2686 07D3                                      l2678 07B6  
                                    l2694 0F70                                      l2854 02BB  
                                    l2846 026A                                      l2838 0242  
                                    l2862 02CA                                      l2790 0147  
                                    l2782 0114                                      l2774 0103  
                                    l2758 00B9                                      l2688 07DA  
                                    l2696 0F7A                                      l2864 02D0  
                                    l2856 02C2                                      l2848 026F  
                                    l2792 014D                                      l2784 0122  
                                    l2776 0111                                      l2866 02D5  
                                    l2858 02C6                                      l2794 014F  
                                    l2786 0126                                      l2796 0150  
                                    l2788 0133                                      l2798 0155  
                                    u1500 07EC                                      u1501 07EB  
                                    _LATA 0018                                      u1510 0F70  
                         __end_of_INT_ISR 0E55                                      u1511 0F6F  
                                    _LATC 001A                                      u1520 0F7A  
                                    u1600 0133                                      u1505 07E8  
                                    u1521 0F79                                      u1601 0132  
                                    u1610 0145                                      u1611 0144  
                                    u1700 02D0                                      u1620 0155  
                                    u1701 02CF                                      u1621 0154  
                                    u1605 012F                                      u1710 02D5  
                                    u1630 015A                                      u1550 00CB  
                                    u1711 02D4                                      u1631 0159  
                                    u1615 0141                                      u1551 00CA  
                                    u1480 0EA4                                      u1640 0222  
                                    u1560 00D9                                      u1481 0EA3  
                                    u1641 0221                                      u1561 00D8  
                                    u1490 07BC                                      u1650 0232  
                                    _T2PR 028D                                      u1491 07BB  
                                    u1651 0231                                      u1555 00C7  
                                    u1660 0242                                      u1661 0241  
                                    u1565 00D5                                      u1670 0252  
                                    u1590 0110                                      u1727 07D6  
                                    u1671 0251                                      u1655 022E  
                                    u1591 010F                                      u1575 00E4  
                                    u1680 0291                                      u1681 0290  
                                    u1665 023E                                      u1585 00EF  
                                    u1690 02C2                                      u1691 02C1  
                                    u1675 024E                                      u1595 010C  
                         __end_of_EXT_ISR 0F4C                                      _TMR2 028C  
                                    _WPUA 1F39                                      _WPUC 1F4F  
                                    _main 006F                                      fsr0h 0005  
                                    fsr1h 0007                                      fsr0l 0004  
                                    indf1 0001                                      fsr1l 0006  
                                    btemp 007E       __end_of_INT_DefaultInterruptHandler 0003  
             _INT_DefaultInterruptHandler 0002                                      start 0031  
         __end_of_INT_SetInterruptHandler 0E5B                 __end_of_SPI1_ExchangeByte 0EA8  
              ??_TMR1_SetInterruptHandler 0074                   __end_of_TMR0_Initialize 0F30  
          ??_TMR0_DefaultInterruptHandler 0070            __size_of_OSCILLATOR_Initialize 0006  
           __end_of_OSCILLATOR_Initialize 0E61                                     ?_main 0070  
                                   _T1CLK 0211                                     _T1CON 020E  
                                   _T2CON 028E                                     _T2HLT 028F  
                                   _T2TMR 028C                                     i1l250 0013  
                                   _T2RST 0291                                     i1l324 0E4E  
                                   i1l252 001F                                     i1l253 002F  
                                   i1l334 0003                                     i1l271 0E54  
                                   i1l328 0ED6                                     i1l281 0002  
                                   i1l258 002F                                     i1l275 0E8D  
                                   i1l632 0516                                     i1l616 0454  
                                   i1l392 0F16                                     i1l617 04FC  
                                   i1l379 07FD                                     i1l638 0554  
                                   i1l398 07FF                                     i1l592 03D9  
                                   i1l586 0F4B                                     i1l589 0E48  
                                   _OSCEN 0891                                     _TMR0H 059D  
                        playNote@prescale 0072                                     _TMR1H 020D  
                                   _TMR0L 059C                                     _TMR1L 020C  
                                   u80_20 0E88                                     u80_21 0E87  
                                   u81_20 07F2                                     u81_21 07F1  
                                   _TRISA 0012                                     _TRISC 0014  
                                   u90_20 0378                                     u82_20 02EF  
                                   u90_21 0377                                     u82_21 02EE  
                                   u91_20 0399                                     u83_20 02FC  
                                   u91_21 0398                                     u83_21 02FB  
                                   u91_25 0395                                     u83_25 02F8  
                                   u92_20 03A8                                     u84_20 030A  
                                   u92_21 03A7                                     u84_21 0309  
                                   u92_25 03A4                                     u84_25 0306  
                                   u85_20 0318                                     u85_21 0317  
                                   u93_25 03B3                                     u85_25 0314  
                                   u78_20 0F3D                                     u94_20 03D8  
                                   u86_20 0329                                     u78_21 0F3C  
                                   u94_21 03D7                                     u86_21 0328  
                                   u94_25 03D4                                     u79_20 0F4A  
                                   u95_20 03DF                                     u79_21 0F49  
                                   u95_21 03DE                                     u87_25 0333  
                                   u96_20 03EC                                     u88_20 0358  
                                   u96_21 03EB                                     u88_21 0357  
                                   u96_25 03E8                                     u88_25 0354  
                                   u97_20 03FD                                     u89_20 0367  
                                   u97_21 03FC                                     u89_21 0366  
                                   u89_25 0363                                     u98_20 040C  
                                   u98_21 040B                                     u99_20 0411  
                                   u99_21 0410         __size_of_TMR0_SetInterruptHandler 0006  
               ?_TMR0_SetInterruptHandler 0072                        __size_of_TMR0_ISR_ 0004  
                      __size_of_TMR1_ISR_ 0270                          __end_of_TMR0_ISR 0ED7  
                        __end_of_TMR1_ISR 0F17                            _WDT_Initialize 0E42  
                                   _count 004B                                     _song2 239A  
                                   _song3 2321                                     main@i 00DA  
                                   main@j 00D8                   __end_of_PWM3_Initialize 0E75  
                 __end_of_TMR1_Initialize 0FA7                                     pclath 000A  
                                   status 0003                                     wtemp0 007E  
                         _TMR1_WriteTimer 07ED                  __size_of_SPI1_Initialize 0015  
                         __initialization 0033                              __end_of_main 02E5  
                 __end_of_TMR2_Initialize 0EC3               ?_INTERRUPT_InterruptManager 0070  
                    TMR1_ISR_@lights_1187 0021                                    ??_main 00D1  
                         ??_displayMatrix 0075                    __end_of_WDT_Initialize 0E45  
                               ??_INT_ISR 0071                                 ??_EXT_ISR 0070  
                                  _ANSELA 1F38                                    _ANSELC 1F4E  
                                  _T0CON0 059E                                    _T0CON1 059F  
                                  _T1GATE 0210                                    _T1GCON 020F  
                                  _RA5PPS 1F15                                    u100_20 0431  
                                  u100_21 0430                                    u100_25 042D  
                                  u101_20 0454                                    u101_21 0453  
                                  _RC3PPS 1F23                                    u101_25 0450  
                                  u110_20 0524                                    u102_20 0466  
                                  u110_21 0523                                    u102_21 0465  
                 TMR1_WriteTimer@timerVal 0070                                    i1l2100 0347  
                                  u110_25 0520                                    u102_25 0462  
                                  i1l2102 034B                                    u111_20 052A  
                                  i1l2200 04C1                                    u103_20 0483  
                                  i1l2120 039A                                    i1l2104 0359  
                                  u111_21 0529                                    u103_21 0482  
                                  i1l2210 04D7                                    i1l2202 04CF  
                                  i1l2130 03C7                                    i1l2122 03A8  
                                  i1l2114 037A                                    i1l2106 0367  
                                  _RC5PPS 1F25                                    i1l2220 0502  
                                  i1l2212 04DB                                    i1l2140 03EC  
                                  i1l2132 03CB                                    i1l2116 0388  
                                  i1l2108 0378                                    i1l2060 07F2  
                                  u103_25 047F                                    i1l2054 0E81  
                                  i1l2230 052E                                    i1l2222 0509  
                                  i1l2142 03FD                                    i1l2118 038C  
                                  i1l2070 07FB                                    i1l2062 07F3  
                                  i1l2056 0E88                                    i1l2232 053A  
                                  u112_20 053A                                    i1l2224 050F  
                                  i1l2208 04D1                                    u104_20 04B5  
                                  i1l2216 04E9                                    i1l2152 0413  
                                  i1l2160 0434                                    i1l2144 040C  
                                  i1l2128 03AB                                    i1l2136 03D9  
                                  i1l2080 02E5                                    i1l2064 07F5  
                                  u112_21 0539                                    u104_21 04B3  
                                  _ODCONA 1F3A                                    i1l2226 0524  
                                  i1l2170 0447                                    i1l2154 0420  
                                  i1l2146 0411                                    i1l2138 03DF  
                                  i1l2218 04FC                                    i1l2090 0318  
                                  i1l2082 02EA                                    i1l2066 07F7  
                                  i1l2058 07ED                                    i1l2330 0017  
                                  _ODCONC 1F50                                    i1l2260 0EC3  
                                  i1l2236 0541                                    i1l2228 052A  
                                  i1l2180 0469                                    i1l2156 0424  
                                  i1l2172 0458                                    i1l2092 0329  
                                  i1l2084 02EF                                    i1l2068 07F9  
                                  i1l2332 001B                                    i1l2324 0006  
                                  u112_25 0536                                    i1l2270 0E4F  
                                  i1l2078 0E45                                    i1l2262 0EC5  
                                  i1l2238 054D                                    i1l2190 04A8  
                                  i1l2182 0472                                    i1l2174 0466  
                                  i1l2166 0436                                    i1l2158 0431  
                                  i1l2086 02FC                                    i1l2334 0023  
                                  i1l2326 000B                                    i1l2272 0E51  
                                  i1l2264 0EC8                                    u113_20 0540  
                                  u105_20 04B6                                    i1l2184 0476  
                                  i1l2168 0443                                    i1l2088 030A  
                                  i1l2280 0F11                                    i1l2336 0027  
                                  i1l2328 000F                                    u113_21 053F  
                                  i1l2266 0ECA                                    i1l2186 0484  
                                  i1l2098 032B                                    i1l2274 0F00  
                                  i1l2338 002B                                    i1l2268 0ED1  
                                  i1l2196 04AA                                    i1l2188 048B  
                                  i1l2276 0F02                                    i1l2198 04BD  
                                  i1l2278 0F0A                                    u114_20 054D  
                                  u106_20 04CE                                    u130_20 002B  
                                  u114_21 054C                                    u106_21 04CD  
                                  u130_21 002A                                    i1l1930 0E4C  
                                  u114_25 0549                                    u106_25 04CA  
                                  i1l1950 0F3D                                    i1l1928 0E49  
                                  i1l1952 0F42                                    i1l1944 0F30  
                                  u115_20 0553                                    u107_20 04E8  
                                  u115_21 0552                                    u107_21 04E7  
                                  i1l1954 0F44                                    i1l1946 0F35  
                                  i1l1956 0F4A                                    i1l1948 0F38  
                                  u107_25 04E4                                    i1l2918 04F1  
                                  u116_20 0ED1                                    u108_20 0502  
                                  u124_20 000B                                    u116_21 0ED0  
                                  u108_21 0501                                    u124_21 000A  
                                  u109_20 050F                                    u117_20 0F11  
                                  u125_20 000F                                    u109_21 050E  
                                  u117_21 0F10                                    u125_21 000E  
                                  u126_20 0017                                    u126_21 0016  
                                  u127_20 001B                                    u127_21 001A  
                                  u128_20 0023                                    u128_21 0022  
                                  _INLVLA 1F3C                                    _INLVLC 1F52  
                                  u129_20 0027                                    u129_21 0026  
                                  _INTPPS 1E90                                    _OSCFRQ 0893  
                                  _WDTCON 080C                __size_of_SPI1_ExchangeByte 000D  
    __end_of_TMR1_DefaultInterruptHandler 0800     __size_of_TMR1_DefaultInterruptHandler 0001  
            _TMR1_DefaultInterruptHandler 07FF                         __end_of_TMR0_ISR_ 0E49  
                       __end_of_TMR1_ISR_ 0555                              ?_TMR0_Reload 0070  
                        ?_TMR0_Initialize 0070                             ?_INT_CallBack 0070  
                        __end_of_playNote 0F87                              __pdataBIGRAM 2194  
                            __pdataCOMMON 0079                           ?_WDT_Initialize 0070  
        __size_of_INT_SetInterruptHandler 0006  TMR1_SetInterruptHandler@InterruptHandler 0072  
TMR0_SetInterruptHandler@InterruptHandler 0072   INT_SetInterruptHandler@InterruptHandler 0072  
                 __end_of_TMR1_WriteTimer 07FE                          ?_TMR1_Initialize 0070  
                        ?_PWM3_Initialize 0070                         _SYSTEM_Initialize 0F4C  
                 __end_of__initialization 006B                        ?_SYSTEM_Initialize 0070  
                           _last_prescale 004F                      _silent_night_playing 0054  
                          __pcstackCOMMON 0070                              __pidataBANK0 0ED7  
                            __pidataBANK1 0FCF                       ??_SYSTEM_Initialize 0074  
                               ?_TMR0_ISR 0070                                 ?_TMR1_ISR 0070  
           ?_TMR1_DefaultInterruptHandler 0070                         ??_SPI1_Initialize 0072  
                        ?_TMR2_Initialize 0070                            ??_INT_CallBack 0071  
                   SPI1_ExchangeByte@data 0072                         shiftBytes@lowSide 0073  
                      _spi1_configuration 1000               __size_of_EXT_INT_Initialize 000D  
               __end_of_SYSTEM_Initialize 0F68                                __pbssBANK0 004B  
                              __pnvCOMMON 0077                                __pmaintext 006F  
        __end_of_TMR0_SetInterruptHandler 0E67                                ??_TMR0_ISR 0070  
                              ??_TMR1_ISR 0072                                __pintentry 0004  
                    displayMatrix@lowSide 0036                                   _INT_ISR 0E4F  
                                 _EXT_ISR 0F30                                   _OSCTUNE 0892  
                                 _PWM3DCH 0315                                   _PWM3DCL 0314  
                                 _PWM3CON 0316                                   _SSP1ADD 018D  
                                 _SLRCONA 1F3B                                   _SLRCONC 1F51  
                                 _SSP1BUF 018C                          ?_TMR1_WriteTimer 0070  
                               ?_playNote 0072                      __size_of_TMR0_Reload 0006  
                                 __ptext1 0F68                                   __ptext2 07B1  
                                 __ptext3 0EA8                                   __ptext4 0E9B  
                                 __ptext5 0F4C                                   __ptext6 0E42  
                                 __ptext7 0EB5                                   __ptext8 0F87  
                                 __ptext9 0E67            ??_TMR1_DefaultInterruptHandler 0070  
                               _T1CONbits 020E                     _OSCILLATOR_Initialize 0E5B  
                               _T2CONbits 028E                            displayMatrix@i 0034  
       __size_of_TMR1_SetInterruptHandler 0006                  ??_PIN_MANAGER_Initialize 0072  
               ?_TMR1_SetInterruptHandler 0072                                 _T2HLTbits 028F  
                 _INT_SetInterruptHandler 0E55                                   _song2_2 00A0  
                                 _presses 004E                __size_of_SYSTEM_Initialize 001C  
                                 main@pre 00D7                      end_of_initialization 006B  
                               _T2RSTbits 0291                                   init_ram 0E75  
                                 initloop 0E76                      __end_of_INT_CallBack 0E8E  
                            _dream_lights 0037                                _shiftBytes 0EA8  
                              ??_playNote 0073                                 _TMR0_ISR_ 0E45  
                               _TMR1_ISR_ 02E5                          ??_WDT_Initialize 0072  
                _TMR0_SetInterruptHandler 0E61                                 _TRISAbits 0012  
                               _TRISCbits 0014                     __end_of_displayMatrix 07ED  
                              main@j_1174 00DC                                main@j_1176 00DE  
                        _silent_night_pre 2194                           _SPI1_Initialize 0EEB  
                           _change_lights 004D                      _timer0ReloadVal16bit 0077  
                           __pidataBIGRAM 0555                                ?_TMR0_ISR_ 0070  
                              ?_TMR1_ISR_ 0070                             __pidataCOMMON 07FE  
                       __size_of_TMR0_ISR 0014                         __size_of_TMR1_ISR 0017  
                  ?_OSCILLATOR_Initialize 0070                 ??_INT_SetInterruptHandler 0074  
                      shiftBytes@highSide 0074                       start_initialization 0033  
                __size_of_TMR0_Initialize 0019           __size_of_PIN_MANAGER_Initialize 0028  
            ?_INT_DefaultInterruptHandler 0070                               ?_shiftBytes 0073  
                __size_of_PWM3_Initialize 0008                  __size_of_TMR1_Initialize 0020  
                             __pdataBANK0 0037                               __pdataBANK1 00A0  
              __end_of_EXT_INT_Initialize 0E9B                               __pbssCOMMON 0000  
                               ___latbits 0002                                  ?_INT_ISR 0070  
                           __pcstackBANK0 0020                             __pcstackBANK1 00D1  
                                ?_EXT_ISR 0070                         TMR1_ISR_@dream_sw 0022  
                __size_of_TMR2_Initialize 000E                   __end_of_SPI1_Initialize 0F00  
                   __size_of_INT_CallBack 000D                                 __end_of_a 1005  
                               __end_of_b 100B                                 __end_of_c 100A  
                               __end_of_d 1009                                 __end_of_e 1008  
                               __end_of_f 1007                                 __end_of_g 1006  
                         TMR1_ISR_@i_1190 0023                           TMR1_ISR_@i_1192 002D  
                         TMR1_ISR_@i_1185 0027                           TMR1_ISR_@i_1193 0025  
                         TMR1_ISR_@i_1186 0031                           TMR1_ISR_@i_1188 0029  
                         TMR1_ISR_@i_1189 002B                     _TMR0_InterruptHandler 0059  
                               __pnvBANK0 0055                           TMR1_ISR_@lights 0020  
                  _PIN_MANAGER_Initialize 0FA7             ??_INT_DefaultInterruptHandler 0070  
                       __size_of_playNote 001F          __end_of_TMR1_SetInterruptHandler 0E6D  
                             ??_TMR0_ISR_ 0070                               ??_TMR1_ISR_ 0070  
            ??_INTERRUPT_InterruptManager 0072                       displayMatrix@states 0033  
                            _INT_CallBack 0E81                              playNote@note 0074  
                     __size_of_shiftBytes 000D                                 _last_note 0050  
                              TMR1_ISR_@i 002F                                  _T2CLKCON 0290  
                       ??_TMR0_Initialize 0074                                  _LATCbits 001A  
                                _PIE0bits 0716                                  _PIE1bits 0717  
                __size_of_TMR1_WriteTimer 0011       __size_of_INTERRUPT_InterruptManager 002D  
              ??_TMR0_SetInterruptHandler 0074                                  _PIR0bits 070C  
                                _PIR1bits 070D                             ??_TMR0_Reload 0070  
                               _song2_pre 0000                                 _song3_pre 22A8  
                                _SSP1CON1 0190                                  _SSP1CON2 0191  
                                _TMR0_ISR 0EC3                                  _TMR1_ISR 0F00  
                               _num_songs 0079                                  _SSP1STAT 018F  
                       ??_TMR1_Initialize 0074                         ??_PWM3_Initialize 0072  
                               main@light 00D6      __size_of_INT_DefaultInterruptHandler 0001  
                        __size_of_INT_ISR 0006                          __size_of_EXT_ISR 001C  
                        ?_SPI1_Initialize 0070                         ??_TMR2_Initialize 0072  
                           _song2_playing 0052                             _song3_playing 0053  
                           _TMR0_complete 0051                   ??_OSCILLATOR_Initialize 0072  
                             _light_array 0044                  _TMR1_SetInterruptHandler 0E67  
                     __end_of_TMR0_Reload 0E4F                     _TMR1_InterruptHandler 0055  
                              _T0CON0bits 059E                                  __ptext10 0F17  
                                __ptext11 0E61                                  __ptext20 07ED  
                                __ptext12 0EEB                                  __ptext21 07FF  
                                __ptext13 0E6D                                _T1GCONbits 020F  
                                __ptext30 0E49                                  __ptext22 02E5  
                                __ptext14 0FA7                                  __ptext23 0EC3  
                                __ptext15 0E5B                                  __ptext24 0003  
                                __ptext16 0E8E                                  __ptext25 0E45  
                                __ptext17 0E55                                  __ptext26 0E4F  
                                __ptext27 0E81                                  __ptext19 0F00  
                                __ptext28 0F30                                  __ptext29 0002  
                            _SSP1CON1bits 0190                             __size_of_main 0276  
    __end_of_TMR0_DefaultInterruptHandler 0004     __size_of_TMR0_DefaultInterruptHandler 0001  
            _TMR0_DefaultInterruptHandler 0003                              ??_shiftBytes 0074  
                                _playNote 0F68                    __size_of_displayMatrix 003C  
                                int$flags 007E        __end_of_INTERRUPT_InterruptManager 0031  
              _INTERRUPT_InterruptManager 0004                         ??_TMR1_WriteTimer 0072  
                            _song2_length 0041                              _song3_length 003E  
                              _INTCONbits 000B                      _INT_InterruptHandler 005B  
                      __end_of_shiftBytes 0EB5                              _silent_night 221E  
                      _EXT_INT_Initialize 0E8E                   __size_of_WDT_Initialize 0003  
                                intlevel1 0000                   ?_PIN_MANAGER_Initialize 0070  
                     ?_EXT_INT_Initialize 0070             ?_TMR0_DefaultInterruptHandler 0070  
                             _TMR0_Reload 0E49                              _timer_high_2 0043  
                            _timer_high_3 0040                  ?_INT_SetInterruptHandler 0072  
                           __pstringtext1 1000                             __pstringtext2 1004  
                           __pstringtext3 1005                             __pstringtext4 1006  
                           __pstringtext5 1007                             __pstringtext6 1008  
                           __pstringtext7 1009                             __pstringtext8 100A  
                    ??_EXT_INT_Initialize 0074                                _SSP1DATPPS 1EC6  
                              _SSP1CLKPPS 1EC5                           _TMR0_Initialize 0F17  
                             _timer_low_2 0042                               _timer_low_3 003F  
                           _displayMatrix 07B1            __end_of_PIN_MANAGER_Initialize 0FCF  
                         _TMR1_Initialize 0F87                           _PWM3_Initialize 0E6D  
              __end_of_spi1_configuration 1004  
