

Microchip MPLAB XC8 Assembler V2.32 build 20210201212658 
                                                                                               Sun Dec 12 19:46:32 2021

Microchip MPLAB XC8 C Compiler v2.32 (Free license) build 20210201212658 Og1 
     1                           	processor	16F15225
     2                           	pagewidth 120
     3                           	opt	flic
     4                           	psect	idataBIGRAM,global,class=CODE,delta=2,noexec
     5                           	psect	idataBANK0,global,class=CODE,delta=2,noexec
     6                           	psect	idataBANK1,global,class=CODE,delta=2,noexec
     7                           	psect	idataBANK2,global,class=CODE,delta=2,noexec
     8                           	psect	idataBANK3,global,class=CODE,delta=2,noexec
     9                           	psect	stringtext1,global,class=STRCODE,delta=2,noexec
    10                           	psect	nvBANK0,global,class=BANK0,space=1,delta=1,noexec
    11                           	psect	cinit,global,class=CODE,merge=1,delta=2
    12                           	psect	dataBIGRAM,global,delta=1
    13                           	psect	bssCOMMON,global,class=COMMON,space=1,delta=1,noexec
    14                           	psect	bssBANK0,global,class=BANK0,space=1,delta=1,noexec
    15                           	psect	dataBANK0,global,class=BANK0,space=1,delta=1,noexec
    16                           	psect	dataBANK1,global,class=BANK1,space=1,delta=1,noexec
    17                           	psect	dataBANK2,global,class=BANK2,space=1,delta=1,noexec
    18                           	psect	dataBANK3,global,class=BANK3,space=1,delta=1,noexec
    19                           	psect	inittext,global,class=CODE,delta=2
    20                           	psect	cstackBANK1,global,class=BANK1,space=1,delta=1,noexec
    21                           	psect	cstackCOMMON,global,class=COMMON,space=1,delta=1,noexec
    22                           	psect	cstackBANK0,global,class=BANK0,space=1,delta=1,noexec
    23                           	psect	maintext,global,class=CODE,merge=1,split=1,delta=2
    24                           	psect	text1,local,class=CODE,merge=1,delta=2
    25                           	psect	text2,local,class=CODE,merge=1,delta=2
    26                           	psect	text3,local,class=CODE,merge=1,delta=2
    27                           	psect	text4,local,class=CODE,merge=1,delta=2
    28                           	psect	text5,local,class=CODE,merge=1,delta=2
    29                           	psect	text6,local,class=CODE,merge=1,delta=2
    30                           	psect	text7,local,class=CODE,merge=1,delta=2
    31                           	psect	text8,local,class=CODE,merge=1,delta=2
    32                           	psect	text9,local,class=CODE,merge=1,delta=2
    33                           	psect	text10,local,class=CODE,merge=1,delta=2
    34                           	psect	text11,local,class=CODE,merge=1,delta=2
    35                           	psect	text12,local,class=CODE,merge=1,delta=2
    36                           	psect	text13,local,class=CODE,merge=1,delta=2
    37                           	psect	text14,local,class=CODE,merge=1,delta=2
    38                           	psect	text15,local,class=CODE,merge=1,delta=2
    39                           	psect	text16,local,class=CODE,merge=1,delta=2
    40                           	psect	text17,local,class=CODE,merge=1,delta=2
    41                           	psect	intentry,global,class=CODE,delta=2
    42                           	psect	text19,local,class=CODE,merge=1,delta=2
    43                           	psect	text20,local,class=CODE,merge=1,delta=2
    44                           	psect	text21,local,class=CODE,merge=1,delta=2
    45                           	psect	text22,local,class=CODE,merge=1,delta=2
    46                           	psect	text23,local,class=CODE,merge=1,delta=2
    47                           	psect	text24,local,class=CODE,merge=1,delta=2
    48                           	psect	text25,local,class=CODE,merge=1,delta=2
    49                           	psect	text26,local,class=CODE,merge=1,delta=2
    50                           	psect	text27,local,class=CODE,merge=1,delta=2
    51                           	psect	text28,local,class=CODE,merge=1,delta=2
    52                           	psect	text29,local,class=CODE,merge=1,delta=2
    53                           	psect	text30,local,class=CODE,merge=1,delta=2
    54                           	psect	config,global,abs,ovrld,class=CONFIG,space=4,delta=2,noexec
    55                           	dabs	1,0x620,48
    56                           	dabs	1,0x5A0,80
    57                           	dabs	1,0x566,10
    58                           	dabs	1,0x520,70
    59                           	dabs	1,0x4AC,68
    60                           	dabs	1,0x22DC,0,_silent_night_pre
    61                           	dabs	1,0x2366,0,_silent_night
    62                           	dabs	1,0x7E,2
    63  0000                     
    64                           ; Version 2.35
    65                           ; Generated 13/04/2021 GMT
    66                           ; 
    67                           ; Copyright © 2021, Microchip Technology Inc. and its subsidiaries ("Microchip")
    68                           ; All rights reserved.
    69                           ; 
    70                           ; This software is developed by Microchip Technology Inc. and its subsidiaries ("Microch
      +                          ip").
    71                           ; 
    72                           ; Redistribution and use in source and binary forms, with or without modification, are
    73                           ; permitted provided that the following conditions are met:
    74                           ; 
    75                           ;     1. Redistributions of source code must retain the above copyright notice, this lis
      +                          t of
    76                           ;        conditions and the following disclaimer.
    77                           ; 
    78                           ;     2. Redistributions in binary form must reproduce the above copyright notice, this 
      +                          list
    79                           ;        of conditions and the following disclaimer in the documentation and/or other
    80                           ;        materials provided with the distribution. Publication is not required when
    81                           ;        this file is used in an embedded application.
    82                           ; 
    83                           ;     3. Microchip's name may not be used to endorse or promote products derived from th
      +                          is
    84                           ;        software without specific prior written permission.
    85                           ; 
    86                           ; THIS SOFTWARE IS PROVIDED BY MICROCHIP "AS IS" AND ANY EXPRESS OR IMPLIED WARRANTIES,
    87                           ; INCLUDING, BUT NOT LIMITED TO, THE IMPLIED WARRANTIES OF MERCHANTABILITY AND FITNESS F
      +                          OR
    88                           ; PURPOSE ARE DISCLAIMED.  IN NO EVENT SHALL MICROCHIP BE LIABLE FOR ANY DIRECT, INDIREC
      +                          T,
    89                           ; INCIDENTAL, SPECIAL, EXEMPLARY, OR CONSEQUENTIAL DAMAGES (INCLUDING BUT NOT LIMITED TO
    90                           ; PROCUREMENT OF SUBSTITUTE GOODS OR SERVICES; LOSS OF USE, DATA OR PROFITS; OR BUSINESS
    91                           ; INTERRUPTION) HOWSOEVER CAUSED AND ON ANY THEORY OF LIABILITY, WHETHER IN CONTRACT, ST
      +                          RICT
    92                           ; LIABILITY, OR TORT (INCLUDING NEGLIGENCE OR OTHERWISE) ARISING IN ANY WAY OUT OF THE U
      +                          SE OF
    93                           ; THIS SOFTWARE, EVEN IF ADVISED OF THE POSSIBILITY OF SUCH DAMAGE.
    94                           ; 
    95                           ; 
    96                           ; Code-generator required, PIC16F15225 Definitions
    97                           ; 
    98                           ; SFR Addresses
    99  0000                     	;# 
   100  0001                     	;# 
   101  0002                     	;# 
   102  0003                     	;# 
   103  0004                     	;# 
   104  0005                     	;# 
   105  0006                     	;# 
   106  0007                     	;# 
   107  0008                     	;# 
   108  0009                     	;# 
   109  000A                     	;# 
   110  000B                     	;# 
   111  000C                     	;# 
   112  000E                     	;# 
   113  0012                     	;# 
   114  0014                     	;# 
   115  0018                     	;# 
   116  001A                     	;# 
   117  009A                     	;# 
   118  009B                     	;# 
   119  009B                     	;# 
   120  009C                     	;# 
   121  009D                     	;# 
   122  009E                     	;# 
   123  009F                     	;# 
   124  010E                     	;# 
   125  010F                     	;# 
   126  0119                     	;# 
   127  011A                     	;# 
   128  011B                     	;# 
   129  011B                     	;# 
   130  011C                     	;# 
   131  011D                     	;# 
   132  011E                     	;# 
   133  011F                     	;# 
   134  018C                     	;# 
   135  018D                     	;# 
   136  018E                     	;# 
   137  018F                     	;# 
   138  0190                     	;# 
   139  0191                     	;# 
   140  0192                     	;# 
   141  020C                     	;# 
   142  020D                     	;# 
   143  020E                     	;# 
   144  020E                     	;# 
   145  020F                     	;# 
   146  020F                     	;# 
   147  0210                     	;# 
   148  0210                     	;# 
   149  0211                     	;# 
   150  0211                     	;# 
   151  028C                     	;# 
   152  028C                     	;# 
   153  028D                     	;# 
   154  028D                     	;# 
   155  028E                     	;# 
   156  028F                     	;# 
   157  0290                     	;# 
   158  0291                     	;# 
   159  030C                     	;# 
   160  030C                     	;# 
   161  030D                     	;# 
   162  030E                     	;# 
   163  030F                     	;# 
   164  0310                     	;# 
   165  0310                     	;# 
   166  0311                     	;# 
   167  0312                     	;# 
   168  0313                     	;# 
   169  0314                     	;# 
   170  0314                     	;# 
   171  0315                     	;# 
   172  0316                     	;# 
   173  0318                     	;# 
   174  0318                     	;# 
   175  0319                     	;# 
   176  031A                     	;# 
   177  059C                     	;# 
   178  059C                     	;# 
   179  059D                     	;# 
   180  059D                     	;# 
   181  059E                     	;# 
   182  059F                     	;# 
   183  070C                     	;# 
   184  070D                     	;# 
   185  070E                     	;# 
   186  0716                     	;# 
   187  0717                     	;# 
   188  0718                     	;# 
   189  080C                     	;# 
   190  0811                     	;# 
   191  0813                     	;# 
   192  0814                     	;# 
   193  081A                     	;# 
   194  081A                     	;# 
   195  081B                     	;# 
   196  081C                     	;# 
   197  081C                     	;# 
   198  081D                     	;# 
   199  081E                     	;# 
   200  081F                     	;# 
   201  088E                     	;# 
   202  0890                     	;# 
   203  0891                     	;# 
   204  0892                     	;# 
   205  0893                     	;# 
   206  090C                     	;# 
   207  1E8F                     	;# 
   208  1E90                     	;# 
   209  1E91                     	;# 
   210  1E92                     	;# 
   211  1E93                     	;# 
   212  1E9C                     	;# 
   213  1EA1                     	;# 
   214  1EA2                     	;# 
   215  1EC3                     	;# 
   216  1EC5                     	;# 
   217  1EC6                     	;# 
   218  1EC7                     	;# 
   219  1ECB                     	;# 
   220  1ECB                     	;# 
   221  1ECB                     	;# 
   222  1ECC                     	;# 
   223  1ECC                     	;# 
   224  1ECC                     	;# 
   225  1F10                     	;# 
   226  1F11                     	;# 
   227  1F12                     	;# 
   228  1F14                     	;# 
   229  1F15                     	;# 
   230  1F20                     	;# 
   231  1F21                     	;# 
   232  1F22                     	;# 
   233  1F23                     	;# 
   234  1F24                     	;# 
   235  1F25                     	;# 
   236  1F38                     	;# 
   237  1F39                     	;# 
   238  1F3A                     	;# 
   239  1F3B                     	;# 
   240  1F3C                     	;# 
   241  1F3D                     	;# 
   242  1F3E                     	;# 
   243  1F3F                     	;# 
   244  1F4E                     	;# 
   245  1F4F                     	;# 
   246  1F50                     	;# 
   247  1F51                     	;# 
   248  1F52                     	;# 
   249  1F53                     	;# 
   250  1F54                     	;# 
   251  1F55                     	;# 
   252  1FE4                     	;# 
   253  1FE5                     	;# 
   254  1FE6                     	;# 
   255  1FE7                     	;# 
   256  1FE8                     	;# 
   257  1FE8                     	;# 
   258  1FE9                     	;# 
   259  1FEA                     	;# 
   260  1FEB                     	;# 
   261  1FED                     	;# 
   262  1FEE                     	;# 
   263  1FEF                     	;# 
   264  0000                     	;# 
   265  0001                     	;# 
   266  0002                     	;# 
   267  0003                     	;# 
   268  0004                     	;# 
   269  0005                     	;# 
   270  0006                     	;# 
   271  0007                     	;# 
   272  0008                     	;# 
   273  0009                     	;# 
   274  000A                     	;# 
   275  000B                     	;# 
   276  000C                     	;# 
   277  000E                     	;# 
   278  0012                     	;# 
   279  0014                     	;# 
   280  0018                     	;# 
   281  001A                     	;# 
   282  009A                     	;# 
   283  009B                     	;# 
   284  009B                     	;# 
   285  009C                     	;# 
   286  009D                     	;# 
   287  009E                     	;# 
   288  009F                     	;# 
   289  010E                     	;# 
   290  010F                     	;# 
   291  0119                     	;# 
   292  011A                     	;# 
   293  011B                     	;# 
   294  011B                     	;# 
   295  011C                     	;# 
   296  011D                     	;# 
   297  011E                     	;# 
   298  011F                     	;# 
   299  018C                     	;# 
   300  018D                     	;# 
   301  018E                     	;# 
   302  018F                     	;# 
   303  0190                     	;# 
   304  0191                     	;# 
   305  0192                     	;# 
   306  020C                     	;# 
   307  020D                     	;# 
   308  020E                     	;# 
   309  020E                     	;# 
   310  020F                     	;# 
   311  020F                     	;# 
   312  0210                     	;# 
   313  0210                     	;# 
   314  0211                     	;# 
   315  0211                     	;# 
   316  028C                     	;# 
   317  028C                     	;# 
   318  028D                     	;# 
   319  028D                     	;# 
   320  028E                     	;# 
   321  028F                     	;# 
   322  0290                     	;# 
   323  0291                     	;# 
   324  030C                     	;# 
   325  030C                     	;# 
   326  030D                     	;# 
   327  030E                     	;# 
   328  030F                     	;# 
   329  0310                     	;# 
   330  0310                     	;# 
   331  0311                     	;# 
   332  0312                     	;# 
   333  0313                     	;# 
   334  0314                     	;# 
   335  0314                     	;# 
   336  0315                     	;# 
   337  0316                     	;# 
   338  0318                     	;# 
   339  0318                     	;# 
   340  0319                     	;# 
   341  031A                     	;# 
   342  059C                     	;# 
   343  059C                     	;# 
   344  059D                     	;# 
   345  059D                     	;# 
   346  059E                     	;# 
   347  059F                     	;# 
   348  070C                     	;# 
   349  070D                     	;# 
   350  070E                     	;# 
   351  0716                     	;# 
   352  0717                     	;# 
   353  0718                     	;# 
   354  080C                     	;# 
   355  0811                     	;# 
   356  0813                     	;# 
   357  0814                     	;# 
   358  081A                     	;# 
   359  081A                     	;# 
   360  081B                     	;# 
   361  081C                     	;# 
   362  081C                     	;# 
   363  081D                     	;# 
   364  081E                     	;# 
   365  081F                     	;# 
   366  088E                     	;# 
   367  0890                     	;# 
   368  0891                     	;# 
   369  0892                     	;# 
   370  0893                     	;# 
   371  090C                     	;# 
   372  1E8F                     	;# 
   373  1E90                     	;# 
   374  1E91                     	;# 
   375  1E92                     	;# 
   376  1E93                     	;# 
   377  1E9C                     	;# 
   378  1EA1                     	;# 
   379  1EA2                     	;# 
   380  1EC3                     	;# 
   381  1EC5                     	;# 
   382  1EC6                     	;# 
   383  1EC7                     	;# 
   384  1ECB                     	;# 
   385  1ECB                     	;# 
   386  1ECB                     	;# 
   387  1ECC                     	;# 
   388  1ECC                     	;# 
   389  1ECC                     	;# 
   390  1F10                     	;# 
   391  1F11                     	;# 
   392  1F12                     	;# 
   393  1F14                     	;# 
   394  1F15                     	;# 
   395  1F20                     	;# 
   396  1F21                     	;# 
   397  1F22                     	;# 
   398  1F23                     	;# 
   399  1F24                     	;# 
   400  1F25                     	;# 
   401  1F38                     	;# 
   402  1F39                     	;# 
   403  1F3A                     	;# 
   404  1F3B                     	;# 
   405  1F3C                     	;# 
   406  1F3D                     	;# 
   407  1F3E                     	;# 
   408  1F3F                     	;# 
   409  1F4E                     	;# 
   410  1F4F                     	;# 
   411  1F50                     	;# 
   412  1F51                     	;# 
   413  1F52                     	;# 
   414  1F53                     	;# 
   415  1F54                     	;# 
   416  1F55                     	;# 
   417  1FE4                     	;# 
   418  1FE5                     	;# 
   419  1FE6                     	;# 
   420  1FE7                     	;# 
   421  1FE8                     	;# 
   422  1FE8                     	;# 
   423  1FE9                     	;# 
   424  1FEA                     	;# 
   425  1FEB                     	;# 
   426  1FED                     	;# 
   427  1FEE                     	;# 
   428  1FEF                     	;# 
   429  0000                     	;# 
   430  0001                     	;# 
   431  0002                     	;# 
   432  0003                     	;# 
   433  0004                     	;# 
   434  0005                     	;# 
   435  0006                     	;# 
   436  0007                     	;# 
   437  0008                     	;# 
   438  0009                     	;# 
   439  000A                     	;# 
   440  000B                     	;# 
   441  000C                     	;# 
   442  000E                     	;# 
   443  0012                     	;# 
   444  0014                     	;# 
   445  0018                     	;# 
   446  001A                     	;# 
   447  009A                     	;# 
   448  009B                     	;# 
   449  009B                     	;# 
   450  009C                     	;# 
   451  009D                     	;# 
   452  009E                     	;# 
   453  009F                     	;# 
   454  010E                     	;# 
   455  010F                     	;# 
   456  0119                     	;# 
   457  011A                     	;# 
   458  011B                     	;# 
   459  011B                     	;# 
   460  011C                     	;# 
   461  011D                     	;# 
   462  011E                     	;# 
   463  011F                     	;# 
   464  018C                     	;# 
   465  018D                     	;# 
   466  018E                     	;# 
   467  018F                     	;# 
   468  0190                     	;# 
   469  0191                     	;# 
   470  0192                     	;# 
   471  020C                     	;# 
   472  020D                     	;# 
   473  020E                     	;# 
   474  020E                     	;# 
   475  020F                     	;# 
   476  020F                     	;# 
   477  0210                     	;# 
   478  0210                     	;# 
   479  0211                     	;# 
   480  0211                     	;# 
   481  028C                     	;# 
   482  028C                     	;# 
   483  028D                     	;# 
   484  028D                     	;# 
   485  028E                     	;# 
   486  028F                     	;# 
   487  0290                     	;# 
   488  0291                     	;# 
   489  030C                     	;# 
   490  030C                     	;# 
   491  030D                     	;# 
   492  030E                     	;# 
   493  030F                     	;# 
   494  0310                     	;# 
   495  0310                     	;# 
   496  0311                     	;# 
   497  0312                     	;# 
   498  0313                     	;# 
   499  0314                     	;# 
   500  0314                     	;# 
   501  0315                     	;# 
   502  0316                     	;# 
   503  0318                     	;# 
   504  0318                     	;# 
   505  0319                     	;# 
   506  031A                     	;# 
   507  059C                     	;# 
   508  059C                     	;# 
   509  059D                     	;# 
   510  059D                     	;# 
   511  059E                     	;# 
   512  059F                     	;# 
   513  070C                     	;# 
   514  070D                     	;# 
   515  070E                     	;# 
   516  0716                     	;# 
   517  0717                     	;# 
   518  0718                     	;# 
   519  080C                     	;# 
   520  0811                     	;# 
   521  0813                     	;# 
   522  0814                     	;# 
   523  081A                     	;# 
   524  081A                     	;# 
   525  081B                     	;# 
   526  081C                     	;# 
   527  081C                     	;# 
   528  081D                     	;# 
   529  081E                     	;# 
   530  081F                     	;# 
   531  088E                     	;# 
   532  0890                     	;# 
   533  0891                     	;# 
   534  0892                     	;# 
   535  0893                     	;# 
   536  090C                     	;# 
   537  1E8F                     	;# 
   538  1E90                     	;# 
   539  1E91                     	;# 
   540  1E92                     	;# 
   541  1E93                     	;# 
   542  1E9C                     	;# 
   543  1EA1                     	;# 
   544  1EA2                     	;# 
   545  1EC3                     	;# 
   546  1EC5                     	;# 
   547  1EC6                     	;# 
   548  1EC7                     	;# 
   549  1ECB                     	;# 
   550  1ECB                     	;# 
   551  1ECB                     	;# 
   552  1ECC                     	;# 
   553  1ECC                     	;# 
   554  1ECC                     	;# 
   555  1F10                     	;# 
   556  1F11                     	;# 
   557  1F12                     	;# 
   558  1F14                     	;# 
   559  1F15                     	;# 
   560  1F20                     	;# 
   561  1F21                     	;# 
   562  1F22                     	;# 
   563  1F23                     	;# 
   564  1F24                     	;# 
   565  1F25                     	;# 
   566  1F38                     	;# 
   567  1F39                     	;# 
   568  1F3A                     	;# 
   569  1F3B                     	;# 
   570  1F3C                     	;# 
   571  1F3D                     	;# 
   572  1F3E                     	;# 
   573  1F3F                     	;# 
   574  1F4E                     	;# 
   575  1F4F                     	;# 
   576  1F50                     	;# 
   577  1F51                     	;# 
   578  1F52                     	;# 
   579  1F53                     	;# 
   580  1F54                     	;# 
   581  1F55                     	;# 
   582  1FE4                     	;# 
   583  1FE5                     	;# 
   584  1FE6                     	;# 
   585  1FE7                     	;# 
   586  1FE8                     	;# 
   587  1FE8                     	;# 
   588  1FE9                     	;# 
   589  1FEA                     	;# 
   590  1FEB                     	;# 
   591  1FED                     	;# 
   592  1FEE                     	;# 
   593  1FEF                     	;# 
   594  0000                     	;# 
   595  0001                     	;# 
   596  0002                     	;# 
   597  0003                     	;# 
   598  0004                     	;# 
   599  0005                     	;# 
   600  0006                     	;# 
   601  0007                     	;# 
   602  0008                     	;# 
   603  0009                     	;# 
   604  000A                     	;# 
   605  000B                     	;# 
   606  000C                     	;# 
   607  000E                     	;# 
   608  0012                     	;# 
   609  0014                     	;# 
   610  0018                     	;# 
   611  001A                     	;# 
   612  009A                     	;# 
   613  009B                     	;# 
   614  009B                     	;# 
   615  009C                     	;# 
   616  009D                     	;# 
   617  009E                     	;# 
   618  009F                     	;# 
   619  010E                     	;# 
   620  010F                     	;# 
   621  0119                     	;# 
   622  011A                     	;# 
   623  011B                     	;# 
   624  011B                     	;# 
   625  011C                     	;# 
   626  011D                     	;# 
   627  011E                     	;# 
   628  011F                     	;# 
   629  018C                     	;# 
   630  018D                     	;# 
   631  018E                     	;# 
   632  018F                     	;# 
   633  0190                     	;# 
   634  0191                     	;# 
   635  0192                     	;# 
   636  020C                     	;# 
   637  020D                     	;# 
   638  020E                     	;# 
   639  020E                     	;# 
   640  020F                     	;# 
   641  020F                     	;# 
   642  0210                     	;# 
   643  0210                     	;# 
   644  0211                     	;# 
   645  0211                     	;# 
   646  028C                     	;# 
   647  028C                     	;# 
   648  028D                     	;# 
   649  028D                     	;# 
   650  028E                     	;# 
   651  028F                     	;# 
   652  0290                     	;# 
   653  0291                     	;# 
   654  030C                     	;# 
   655  030C                     	;# 
   656  030D                     	;# 
   657  030E                     	;# 
   658  030F                     	;# 
   659  0310                     	;# 
   660  0310                     	;# 
   661  0311                     	;# 
   662  0312                     	;# 
   663  0313                     	;# 
   664  0314                     	;# 
   665  0314                     	;# 
   666  0315                     	;# 
   667  0316                     	;# 
   668  0318                     	;# 
   669  0318                     	;# 
   670  0319                     	;# 
   671  031A                     	;# 
   672  059C                     	;# 
   673  059C                     	;# 
   674  059D                     	;# 
   675  059D                     	;# 
   676  059E                     	;# 
   677  059F                     	;# 
   678  070C                     	;# 
   679  070D                     	;# 
   680  070E                     	;# 
   681  0716                     	;# 
   682  0717                     	;# 
   683  0718                     	;# 
   684  080C                     	;# 
   685  0811                     	;# 
   686  0813                     	;# 
   687  0814                     	;# 
   688  081A                     	;# 
   689  081A                     	;# 
   690  081B                     	;# 
   691  081C                     	;# 
   692  081C                     	;# 
   693  081D                     	;# 
   694  081E                     	;# 
   695  081F                     	;# 
   696  088E                     	;# 
   697  0890                     	;# 
   698  0891                     	;# 
   699  0892                     	;# 
   700  0893                     	;# 
   701  090C                     	;# 
   702  1E8F                     	;# 
   703  1E90                     	;# 
   704  1E91                     	;# 
   705  1E92                     	;# 
   706  1E93                     	;# 
   707  1E9C                     	;# 
   708  1EA1                     	;# 
   709  1EA2                     	;# 
   710  1EC3                     	;# 
   711  1EC5                     	;# 
   712  1EC6                     	;# 
   713  1EC7                     	;# 
   714  1ECB                     	;# 
   715  1ECB                     	;# 
   716  1ECB                     	;# 
   717  1ECC                     	;# 
   718  1ECC                     	;# 
   719  1ECC                     	;# 
   720  1F10                     	;# 
   721  1F11                     	;# 
   722  1F12                     	;# 
   723  1F14                     	;# 
   724  1F15                     	;# 
   725  1F20                     	;# 
   726  1F21                     	;# 
   727  1F22                     	;# 
   728  1F23                     	;# 
   729  1F24                     	;# 
   730  1F25                     	;# 
   731  1F38                     	;# 
   732  1F39                     	;# 
   733  1F3A                     	;# 
   734  1F3B                     	;# 
   735  1F3C                     	;# 
   736  1F3D                     	;# 
   737  1F3E                     	;# 
   738  1F3F                     	;# 
   739  1F4E                     	;# 
   740  1F4F                     	;# 
   741  1F50                     	;# 
   742  1F51                     	;# 
   743  1F52                     	;# 
   744  1F53                     	;# 
   745  1F54                     	;# 
   746  1F55                     	;# 
   747  1FE4                     	;# 
   748  1FE5                     	;# 
   749  1FE6                     	;# 
   750  1FE7                     	;# 
   751  1FE8                     	;# 
   752  1FE8                     	;# 
   753  1FE9                     	;# 
   754  1FEA                     	;# 
   755  1FEB                     	;# 
   756  1FED                     	;# 
   757  1FEE                     	;# 
   758  1FEF                     	;# 
   759  0000                     	;# 
   760  0001                     	;# 
   761  0002                     	;# 
   762  0003                     	;# 
   763  0004                     	;# 
   764  0005                     	;# 
   765  0006                     	;# 
   766  0007                     	;# 
   767  0008                     	;# 
   768  0009                     	;# 
   769  000A                     	;# 
   770  000B                     	;# 
   771  000C                     	;# 
   772  000E                     	;# 
   773  0012                     	;# 
   774  0014                     	;# 
   775  0018                     	;# 
   776  001A                     	;# 
   777  009A                     	;# 
   778  009B                     	;# 
   779  009B                     	;# 
   780  009C                     	;# 
   781  009D                     	;# 
   782  009E                     	;# 
   783  009F                     	;# 
   784  010E                     	;# 
   785  010F                     	;# 
   786  0119                     	;# 
   787  011A                     	;# 
   788  011B                     	;# 
   789  011B                     	;# 
   790  011C                     	;# 
   791  011D                     	;# 
   792  011E                     	;# 
   793  011F                     	;# 
   794  018C                     	;# 
   795  018D                     	;# 
   796  018E                     	;# 
   797  018F                     	;# 
   798  0190                     	;# 
   799  0191                     	;# 
   800  0192                     	;# 
   801  020C                     	;# 
   802  020D                     	;# 
   803  020E                     	;# 
   804  020E                     	;# 
   805  020F                     	;# 
   806  020F                     	;# 
   807  0210                     	;# 
   808  0210                     	;# 
   809  0211                     	;# 
   810  0211                     	;# 
   811  028C                     	;# 
   812  028C                     	;# 
   813  028D                     	;# 
   814  028D                     	;# 
   815  028E                     	;# 
   816  028F                     	;# 
   817  0290                     	;# 
   818  0291                     	;# 
   819  030C                     	;# 
   820  030C                     	;# 
   821  030D                     	;# 
   822  030E                     	;# 
   823  030F                     	;# 
   824  0310                     	;# 
   825  0310                     	;# 
   826  0311                     	;# 
   827  0312                     	;# 
   828  0313                     	;# 
   829  0314                     	;# 
   830  0314                     	;# 
   831  0315                     	;# 
   832  0316                     	;# 
   833  0318                     	;# 
   834  0318                     	;# 
   835  0319                     	;# 
   836  031A                     	;# 
   837  059C                     	;# 
   838  059C                     	;# 
   839  059D                     	;# 
   840  059D                     	;# 
   841  059E                     	;# 
   842  059F                     	;# 
   843  070C                     	;# 
   844  070D                     	;# 
   845  070E                     	;# 
   846  0716                     	;# 
   847  0717                     	;# 
   848  0718                     	;# 
   849  080C                     	;# 
   850  0811                     	;# 
   851  0813                     	;# 
   852  0814                     	;# 
   853  081A                     	;# 
   854  081A                     	;# 
   855  081B                     	;# 
   856  081C                     	;# 
   857  081C                     	;# 
   858  081D                     	;# 
   859  081E                     	;# 
   860  081F                     	;# 
   861  088E                     	;# 
   862  0890                     	;# 
   863  0891                     	;# 
   864  0892                     	;# 
   865  0893                     	;# 
   866  090C                     	;# 
   867  1E8F                     	;# 
   868  1E90                     	;# 
   869  1E91                     	;# 
   870  1E92                     	;# 
   871  1E93                     	;# 
   872  1E9C                     	;# 
   873  1EA1                     	;# 
   874  1EA2                     	;# 
   875  1EC3                     	;# 
   876  1EC5                     	;# 
   877  1EC6                     	;# 
   878  1EC7                     	;# 
   879  1ECB                     	;# 
   880  1ECB                     	;# 
   881  1ECB                     	;# 
   882  1ECC                     	;# 
   883  1ECC                     	;# 
   884  1ECC                     	;# 
   885  1F10                     	;# 
   886  1F11                     	;# 
   887  1F12                     	;# 
   888  1F14                     	;# 
   889  1F15                     	;# 
   890  1F20                     	;# 
   891  1F21                     	;# 
   892  1F22                     	;# 
   893  1F23                     	;# 
   894  1F24                     	;# 
   895  1F25                     	;# 
   896  1F38                     	;# 
   897  1F39                     	;# 
   898  1F3A                     	;# 
   899  1F3B                     	;# 
   900  1F3C                     	;# 
   901  1F3D                     	;# 
   902  1F3E                     	;# 
   903  1F3F                     	;# 
   904  1F4E                     	;# 
   905  1F4F                     	;# 
   906  1F50                     	;# 
   907  1F51                     	;# 
   908  1F52                     	;# 
   909  1F53                     	;# 
   910  1F54                     	;# 
   911  1F55                     	;# 
   912  1FE4                     	;# 
   913  1FE5                     	;# 
   914  1FE6                     	;# 
   915  1FE7                     	;# 
   916  1FE8                     	;# 
   917  1FE8                     	;# 
   918  1FE9                     	;# 
   919  1FEA                     	;# 
   920  1FEB                     	;# 
   921  1FED                     	;# 
   922  1FEE                     	;# 
   923  1FEF                     	;# 
   924  0000                     	;# 
   925  0001                     	;# 
   926  0002                     	;# 
   927  0003                     	;# 
   928  0004                     	;# 
   929  0005                     	;# 
   930  0006                     	;# 
   931  0007                     	;# 
   932  0008                     	;# 
   933  0009                     	;# 
   934  000A                     	;# 
   935  000B                     	;# 
   936  000C                     	;# 
   937  000E                     	;# 
   938  0012                     	;# 
   939  0014                     	;# 
   940  0018                     	;# 
   941  001A                     	;# 
   942  009A                     	;# 
   943  009B                     	;# 
   944  009B                     	;# 
   945  009C                     	;# 
   946  009D                     	;# 
   947  009E                     	;# 
   948  009F                     	;# 
   949  010E                     	;# 
   950  010F                     	;# 
   951  0119                     	;# 
   952  011A                     	;# 
   953  011B                     	;# 
   954  011B                     	;# 
   955  011C                     	;# 
   956  011D                     	;# 
   957  011E                     	;# 
   958  011F                     	;# 
   959  018C                     	;# 
   960  018D                     	;# 
   961  018E                     	;# 
   962  018F                     	;# 
   963  0190                     	;# 
   964  0191                     	;# 
   965  0192                     	;# 
   966  020C                     	;# 
   967  020D                     	;# 
   968  020E                     	;# 
   969  020E                     	;# 
   970  020F                     	;# 
   971  020F                     	;# 
   972  0210                     	;# 
   973  0210                     	;# 
   974  0211                     	;# 
   975  0211                     	;# 
   976  028C                     	;# 
   977  028C                     	;# 
   978  028D                     	;# 
   979  028D                     	;# 
   980  028E                     	;# 
   981  028F                     	;# 
   982  0290                     	;# 
   983  0291                     	;# 
   984  030C                     	;# 
   985  030C                     	;# 
   986  030D                     	;# 
   987  030E                     	;# 
   988  030F                     	;# 
   989  0310                     	;# 
   990  0310                     	;# 
   991  0311                     	;# 
   992  0312                     	;# 
   993  0313                     	;# 
   994  0314                     	;# 
   995  0314                     	;# 
   996  0315                     	;# 
   997  0316                     	;# 
   998  0318                     	;# 
   999  0318                     	;# 
  1000  0319                     	;# 
  1001  031A                     	;# 
  1002  059C                     	;# 
  1003  059C                     	;# 
  1004  059D                     	;# 
  1005  059D                     	;# 
  1006  059E                     	;# 
  1007  059F                     	;# 
  1008  070C                     	;# 
  1009  070D                     	;# 
  1010  070E                     	;# 
  1011  0716                     	;# 
  1012  0717                     	;# 
  1013  0718                     	;# 
  1014  080C                     	;# 
  1015  0811                     	;# 
  1016  0813                     	;# 
  1017  0814                     	;# 
  1018  081A                     	;# 
  1019  081A                     	;# 
  1020  081B                     	;# 
  1021  081C                     	;# 
  1022  081C                     	;# 
  1023  081D                     	;# 
  1024  081E                     	;# 
  1025  081F                     	;# 
  1026  088E                     	;# 
  1027  0890                     	;# 
  1028  0891                     	;# 
  1029  0892                     	;# 
  1030  0893                     	;# 
  1031  090C                     	;# 
  1032  1E8F                     	;# 
  1033  1E90                     	;# 
  1034  1E91                     	;# 
  1035  1E92                     	;# 
  1036  1E93                     	;# 
  1037  1E9C                     	;# 
  1038  1EA1                     	;# 
  1039  1EA2                     	;# 
  1040  1EC3                     	;# 
  1041  1EC5                     	;# 
  1042  1EC6                     	;# 
  1043  1EC7                     	;# 
  1044  1ECB                     	;# 
  1045  1ECB                     	;# 
  1046  1ECB                     	;# 
  1047  1ECC                     	;# 
  1048  1ECC                     	;# 
  1049  1ECC                     	;# 
  1050  1F10                     	;# 
  1051  1F11                     	;# 
  1052  1F12                     	;# 
  1053  1F14                     	;# 
  1054  1F15                     	;# 
  1055  1F20                     	;# 
  1056  1F21                     	;# 
  1057  1F22                     	;# 
  1058  1F23                     	;# 
  1059  1F24                     	;# 
  1060  1F25                     	;# 
  1061  1F38                     	;# 
  1062  1F39                     	;# 
  1063  1F3A                     	;# 
  1064  1F3B                     	;# 
  1065  1F3C                     	;# 
  1066  1F3D                     	;# 
  1067  1F3E                     	;# 
  1068  1F3F                     	;# 
  1069  1F4E                     	;# 
  1070  1F4F                     	;# 
  1071  1F50                     	;# 
  1072  1F51                     	;# 
  1073  1F52                     	;# 
  1074  1F53                     	;# 
  1075  1F54                     	;# 
  1076  1F55                     	;# 
  1077  1FE4                     	;# 
  1078  1FE5                     	;# 
  1079  1FE6                     	;# 
  1080  1FE7                     	;# 
  1081  1FE8                     	;# 
  1082  1FE8                     	;# 
  1083  1FE9                     	;# 
  1084  1FEA                     	;# 
  1085  1FEB                     	;# 
  1086  1FED                     	;# 
  1087  1FEE                     	;# 
  1088  1FEF                     	;# 
  1089  0000                     	;# 
  1090  0001                     	;# 
  1091  0002                     	;# 
  1092  0003                     	;# 
  1093  0004                     	;# 
  1094  0005                     	;# 
  1095  0006                     	;# 
  1096  0007                     	;# 
  1097  0008                     	;# 
  1098  0009                     	;# 
  1099  000A                     	;# 
  1100  000B                     	;# 
  1101  000C                     	;# 
  1102  000E                     	;# 
  1103  0012                     	;# 
  1104  0014                     	;# 
  1105  0018                     	;# 
  1106  001A                     	;# 
  1107  009A                     	;# 
  1108  009B                     	;# 
  1109  009B                     	;# 
  1110  009C                     	;# 
  1111  009D                     	;# 
  1112  009E                     	;# 
  1113  009F                     	;# 
  1114  010E                     	;# 
  1115  010F                     	;# 
  1116  0119                     	;# 
  1117  011A                     	;# 
  1118  011B                     	;# 
  1119  011B                     	;# 
  1120  011C                     	;# 
  1121  011D                     	;# 
  1122  011E                     	;# 
  1123  011F                     	;# 
  1124  018C                     	;# 
  1125  018D                     	;# 
  1126  018E                     	;# 
  1127  018F                     	;# 
  1128  0190                     	;# 
  1129  0191                     	;# 
  1130  0192                     	;# 
  1131  020C                     	;# 
  1132  020D                     	;# 
  1133  020E                     	;# 
  1134  020E                     	;# 
  1135  020F                     	;# 
  1136  020F                     	;# 
  1137  0210                     	;# 
  1138  0210                     	;# 
  1139  0211                     	;# 
  1140  0211                     	;# 
  1141  028C                     	;# 
  1142  028C                     	;# 
  1143  028D                     	;# 
  1144  028D                     	;# 
  1145  028E                     	;# 
  1146  028F                     	;# 
  1147  0290                     	;# 
  1148  0291                     	;# 
  1149  030C                     	;# 
  1150  030C                     	;# 
  1151  030D                     	;# 
  1152  030E                     	;# 
  1153  030F                     	;# 
  1154  0310                     	;# 
  1155  0310                     	;# 
  1156  0311                     	;# 
  1157  0312                     	;# 
  1158  0313                     	;# 
  1159  0314                     	;# 
  1160  0314                     	;# 
  1161  0315                     	;# 
  1162  0316                     	;# 
  1163  0318                     	;# 
  1164  0318                     	;# 
  1165  0319                     	;# 
  1166  031A                     	;# 
  1167  059C                     	;# 
  1168  059C                     	;# 
  1169  059D                     	;# 
  1170  059D                     	;# 
  1171  059E                     	;# 
  1172  059F                     	;# 
  1173  070C                     	;# 
  1174  070D                     	;# 
  1175  070E                     	;# 
  1176  0716                     	;# 
  1177  0717                     	;# 
  1178  0718                     	;# 
  1179  080C                     	;# 
  1180  0811                     	;# 
  1181  0813                     	;# 
  1182  0814                     	;# 
  1183  081A                     	;# 
  1184  081A                     	;# 
  1185  081B                     	;# 
  1186  081C                     	;# 
  1187  081C                     	;# 
  1188  081D                     	;# 
  1189  081E                     	;# 
  1190  081F                     	;# 
  1191  088E                     	;# 
  1192  0890                     	;# 
  1193  0891                     	;# 
  1194  0892                     	;# 
  1195  0893                     	;# 
  1196  090C                     	;# 
  1197  1E8F                     	;# 
  1198  1E90                     	;# 
  1199  1E91                     	;# 
  1200  1E92                     	;# 
  1201  1E93                     	;# 
  1202  1E9C                     	;# 
  1203  1EA1                     	;# 
  1204  1EA2                     	;# 
  1205  1EC3                     	;# 
  1206  1EC5                     	;# 
  1207  1EC6                     	;# 
  1208  1EC7                     	;# 
  1209  1ECB                     	;# 
  1210  1ECB                     	;# 
  1211  1ECB                     	;# 
  1212  1ECC                     	;# 
  1213  1ECC                     	;# 
  1214  1ECC                     	;# 
  1215  1F10                     	;# 
  1216  1F11                     	;# 
  1217  1F12                     	;# 
  1218  1F14                     	;# 
  1219  1F15                     	;# 
  1220  1F20                     	;# 
  1221  1F21                     	;# 
  1222  1F22                     	;# 
  1223  1F23                     	;# 
  1224  1F24                     	;# 
  1225  1F25                     	;# 
  1226  1F38                     	;# 
  1227  1F39                     	;# 
  1228  1F3A                     	;# 
  1229  1F3B                     	;# 
  1230  1F3C                     	;# 
  1231  1F3D                     	;# 
  1232  1F3E                     	;# 
  1233  1F3F                     	;# 
  1234  1F4E                     	;# 
  1235  1F4F                     	;# 
  1236  1F50                     	;# 
  1237  1F51                     	;# 
  1238  1F52                     	;# 
  1239  1F53                     	;# 
  1240  1F54                     	;# 
  1241  1F55                     	;# 
  1242  1FE4                     	;# 
  1243  1FE5                     	;# 
  1244  1FE6                     	;# 
  1245  1FE7                     	;# 
  1246  1FE8                     	;# 
  1247  1FE8                     	;# 
  1248  1FE9                     	;# 
  1249  1FEA                     	;# 
  1250  1FEB                     	;# 
  1251  1FED                     	;# 
  1252  1FEE                     	;# 
  1253  1FEF                     	;# 
  1254  0000                     	;# 
  1255  0001                     	;# 
  1256  0002                     	;# 
  1257  0003                     	;# 
  1258  0004                     	;# 
  1259  0005                     	;# 
  1260  0006                     	;# 
  1261  0007                     	;# 
  1262  0008                     	;# 
  1263  0009                     	;# 
  1264  000A                     	;# 
  1265  000B                     	;# 
  1266  000C                     	;# 
  1267  000E                     	;# 
  1268  0012                     	;# 
  1269  0014                     	;# 
  1270  0018                     	;# 
  1271  001A                     	;# 
  1272  009A                     	;# 
  1273  009B                     	;# 
  1274  009B                     	;# 
  1275  009C                     	;# 
  1276  009D                     	;# 
  1277  009E                     	;# 
  1278  009F                     	;# 
  1279  010E                     	;# 
  1280  010F                     	;# 
  1281  0119                     	;# 
  1282  011A                     	;# 
  1283  011B                     	;# 
  1284  011B                     	;# 
  1285  011C                     	;# 
  1286  011D                     	;# 
  1287  011E                     	;# 
  1288  011F                     	;# 
  1289  018C                     	;# 
  1290  018D                     	;# 
  1291  018E                     	;# 
  1292  018F                     	;# 
  1293  0190                     	;# 
  1294  0191                     	;# 
  1295  0192                     	;# 
  1296  020C                     	;# 
  1297  020D                     	;# 
  1298  020E                     	;# 
  1299  020E                     	;# 
  1300  020F                     	;# 
  1301  020F                     	;# 
  1302  0210                     	;# 
  1303  0210                     	;# 
  1304  0211                     	;# 
  1305  0211                     	;# 
  1306  028C                     	;# 
  1307  028C                     	;# 
  1308  028D                     	;# 
  1309  028D                     	;# 
  1310  028E                     	;# 
  1311  028F                     	;# 
  1312  0290                     	;# 
  1313  0291                     	;# 
  1314  030C                     	;# 
  1315  030C                     	;# 
  1316  030D                     	;# 
  1317  030E                     	;# 
  1318  030F                     	;# 
  1319  0310                     	;# 
  1320  0310                     	;# 
  1321  0311                     	;# 
  1322  0312                     	;# 
  1323  0313                     	;# 
  1324  0314                     	;# 
  1325  0314                     	;# 
  1326  0315                     	;# 
  1327  0316                     	;# 
  1328  0318                     	;# 
  1329  0318                     	;# 
  1330  0319                     	;# 
  1331  031A                     	;# 
  1332  059C                     	;# 
  1333  059C                     	;# 
  1334  059D                     	;# 
  1335  059D                     	;# 
  1336  059E                     	;# 
  1337  059F                     	;# 
  1338  070C                     	;# 
  1339  070D                     	;# 
  1340  070E                     	;# 
  1341  0716                     	;# 
  1342  0717                     	;# 
  1343  0718                     	;# 
  1344  080C                     	;# 
  1345  0811                     	;# 
  1346  0813                     	;# 
  1347  0814                     	;# 
  1348  081A                     	;# 
  1349  081A                     	;# 
  1350  081B                     	;# 
  1351  081C                     	;# 
  1352  081C                     	;# 
  1353  081D                     	;# 
  1354  081E                     	;# 
  1355  081F                     	;# 
  1356  088E                     	;# 
  1357  0890                     	;# 
  1358  0891                     	;# 
  1359  0892                     	;# 
  1360  0893                     	;# 
  1361  090C                     	;# 
  1362  1E8F                     	;# 
  1363  1E90                     	;# 
  1364  1E91                     	;# 
  1365  1E92                     	;# 
  1366  1E93                     	;# 
  1367  1E9C                     	;# 
  1368  1EA1                     	;# 
  1369  1EA2                     	;# 
  1370  1EC3                     	;# 
  1371  1EC5                     	;# 
  1372  1EC6                     	;# 
  1373  1EC7                     	;# 
  1374  1ECB                     	;# 
  1375  1ECB                     	;# 
  1376  1ECB                     	;# 
  1377  1ECC                     	;# 
  1378  1ECC                     	;# 
  1379  1ECC                     	;# 
  1380  1F10                     	;# 
  1381  1F11                     	;# 
  1382  1F12                     	;# 
  1383  1F14                     	;# 
  1384  1F15                     	;# 
  1385  1F20                     	;# 
  1386  1F21                     	;# 
  1387  1F22                     	;# 
  1388  1F23                     	;# 
  1389  1F24                     	;# 
  1390  1F25                     	;# 
  1391  1F38                     	;# 
  1392  1F39                     	;# 
  1393  1F3A                     	;# 
  1394  1F3B                     	;# 
  1395  1F3C                     	;# 
  1396  1F3D                     	;# 
  1397  1F3E                     	;# 
  1398  1F3F                     	;# 
  1399  1F4E                     	;# 
  1400  1F4F                     	;# 
  1401  1F50                     	;# 
  1402  1F51                     	;# 
  1403  1F52                     	;# 
  1404  1F53                     	;# 
  1405  1F54                     	;# 
  1406  1F55                     	;# 
  1407  1FE4                     	;# 
  1408  1FE5                     	;# 
  1409  1FE6                     	;# 
  1410  1FE7                     	;# 
  1411  1FE8                     	;# 
  1412  1FE8                     	;# 
  1413  1FE9                     	;# 
  1414  1FEA                     	;# 
  1415  1FEB                     	;# 
  1416  1FED                     	;# 
  1417  1FEE                     	;# 
  1418  1FEF                     	;# 
  1419  0000                     	;# 
  1420  0001                     	;# 
  1421  0002                     	;# 
  1422  0003                     	;# 
  1423  0004                     	;# 
  1424  0005                     	;# 
  1425  0006                     	;# 
  1426  0007                     	;# 
  1427  0008                     	;# 
  1428  0009                     	;# 
  1429  000A                     	;# 
  1430  000B                     	;# 
  1431  000C                     	;# 
  1432  000E                     	;# 
  1433  0012                     	;# 
  1434  0014                     	;# 
  1435  0018                     	;# 
  1436  001A                     	;# 
  1437  009A                     	;# 
  1438  009B                     	;# 
  1439  009B                     	;# 
  1440  009C                     	;# 
  1441  009D                     	;# 
  1442  009E                     	;# 
  1443  009F                     	;# 
  1444  010E                     	;# 
  1445  010F                     	;# 
  1446  0119                     	;# 
  1447  011A                     	;# 
  1448  011B                     	;# 
  1449  011B                     	;# 
  1450  011C                     	;# 
  1451  011D                     	;# 
  1452  011E                     	;# 
  1453  011F                     	;# 
  1454  018C                     	;# 
  1455  018D                     	;# 
  1456  018E                     	;# 
  1457  018F                     	;# 
  1458  0190                     	;# 
  1459  0191                     	;# 
  1460  0192                     	;# 
  1461  020C                     	;# 
  1462  020D                     	;# 
  1463  020E                     	;# 
  1464  020E                     	;# 
  1465  020F                     	;# 
  1466  020F                     	;# 
  1467  0210                     	;# 
  1468  0210                     	;# 
  1469  0211                     	;# 
  1470  0211                     	;# 
  1471  028C                     	;# 
  1472  028C                     	;# 
  1473  028D                     	;# 
  1474  028D                     	;# 
  1475  028E                     	;# 
  1476  028F                     	;# 
  1477  0290                     	;# 
  1478  0291                     	;# 
  1479  030C                     	;# 
  1480  030C                     	;# 
  1481  030D                     	;# 
  1482  030E                     	;# 
  1483  030F                     	;# 
  1484  0310                     	;# 
  1485  0310                     	;# 
  1486  0311                     	;# 
  1487  0312                     	;# 
  1488  0313                     	;# 
  1489  0314                     	;# 
  1490  0314                     	;# 
  1491  0315                     	;# 
  1492  0316                     	;# 
  1493  0318                     	;# 
  1494  0318                     	;# 
  1495  0319                     	;# 
  1496  031A                     	;# 
  1497  059C                     	;# 
  1498  059C                     	;# 
  1499  059D                     	;# 
  1500  059D                     	;# 
  1501  059E                     	;# 
  1502  059F                     	;# 
  1503  070C                     	;# 
  1504  070D                     	;# 
  1505  070E                     	;# 
  1506  0716                     	;# 
  1507  0717                     	;# 
  1508  0718                     	;# 
  1509  080C                     	;# 
  1510  0811                     	;# 
  1511  0813                     	;# 
  1512  0814                     	;# 
  1513  081A                     	;# 
  1514  081A                     	;# 
  1515  081B                     	;# 
  1516  081C                     	;# 
  1517  081C                     	;# 
  1518  081D                     	;# 
  1519  081E                     	;# 
  1520  081F                     	;# 
  1521  088E                     	;# 
  1522  0890                     	;# 
  1523  0891                     	;# 
  1524  0892                     	;# 
  1525  0893                     	;# 
  1526  090C                     	;# 
  1527  1E8F                     	;# 
  1528  1E90                     	;# 
  1529  1E91                     	;# 
  1530  1E92                     	;# 
  1531  1E93                     	;# 
  1532  1E9C                     	;# 
  1533  1EA1                     	;# 
  1534  1EA2                     	;# 
  1535  1EC3                     	;# 
  1536  1EC5                     	;# 
  1537  1EC6                     	;# 
  1538  1EC7                     	;# 
  1539  1ECB                     	;# 
  1540  1ECB                     	;# 
  1541  1ECB                     	;# 
  1542  1ECC                     	;# 
  1543  1ECC                     	;# 
  1544  1ECC                     	;# 
  1545  1F10                     	;# 
  1546  1F11                     	;# 
  1547  1F12                     	;# 
  1548  1F14                     	;# 
  1549  1F15                     	;# 
  1550  1F20                     	;# 
  1551  1F21                     	;# 
  1552  1F22                     	;# 
  1553  1F23                     	;# 
  1554  1F24                     	;# 
  1555  1F25                     	;# 
  1556  1F38                     	;# 
  1557  1F39                     	;# 
  1558  1F3A                     	;# 
  1559  1F3B                     	;# 
  1560  1F3C                     	;# 
  1561  1F3D                     	;# 
  1562  1F3E                     	;# 
  1563  1F3F                     	;# 
  1564  1F4E                     	;# 
  1565  1F4F                     	;# 
  1566  1F50                     	;# 
  1567  1F51                     	;# 
  1568  1F52                     	;# 
  1569  1F53                     	;# 
  1570  1F54                     	;# 
  1571  1F55                     	;# 
  1572  1FE4                     	;# 
  1573  1FE5                     	;# 
  1574  1FE6                     	;# 
  1575  1FE7                     	;# 
  1576  1FE8                     	;# 
  1577  1FE8                     	;# 
  1578  1FE9                     	;# 
  1579  1FEA                     	;# 
  1580  1FEB                     	;# 
  1581  1FED                     	;# 
  1582  1FEE                     	;# 
  1583  1FEF                     	;# 
  1584  0000                     	;# 
  1585  0001                     	;# 
  1586  0002                     	;# 
  1587  0003                     	;# 
  1588  0004                     	;# 
  1589  0005                     	;# 
  1590  0006                     	;# 
  1591  0007                     	;# 
  1592  0008                     	;# 
  1593  0009                     	;# 
  1594  000A                     	;# 
  1595  000B                     	;# 
  1596  000C                     	;# 
  1597  000E                     	;# 
  1598  0012                     	;# 
  1599  0014                     	;# 
  1600  0018                     	;# 
  1601  001A                     	;# 
  1602  009A                     	;# 
  1603  009B                     	;# 
  1604  009B                     	;# 
  1605  009C                     	;# 
  1606  009D                     	;# 
  1607  009E                     	;# 
  1608  009F                     	;# 
  1609  010E                     	;# 
  1610  010F                     	;# 
  1611  0119                     	;# 
  1612  011A                     	;# 
  1613  011B                     	;# 
  1614  011B                     	;# 
  1615  011C                     	;# 
  1616  011D                     	;# 
  1617  011E                     	;# 
  1618  011F                     	;# 
  1619  018C                     	;# 
  1620  018D                     	;# 
  1621  018E                     	;# 
  1622  018F                     	;# 
  1623  0190                     	;# 
  1624  0191                     	;# 
  1625  0192                     	;# 
  1626  020C                     	;# 
  1627  020D                     	;# 
  1628  020E                     	;# 
  1629  020E                     	;# 
  1630  020F                     	;# 
  1631  020F                     	;# 
  1632  0210                     	;# 
  1633  0210                     	;# 
  1634  0211                     	;# 
  1635  0211                     	;# 
  1636  028C                     	;# 
  1637  028C                     	;# 
  1638  028D                     	;# 
  1639  028D                     	;# 
  1640  028E                     	;# 
  1641  028F                     	;# 
  1642  0290                     	;# 
  1643  0291                     	;# 
  1644  030C                     	;# 
  1645  030C                     	;# 
  1646  030D                     	;# 
  1647  030E                     	;# 
  1648  030F                     	;# 
  1649  0310                     	;# 
  1650  0310                     	;# 
  1651  0311                     	;# 
  1652  0312                     	;# 
  1653  0313                     	;# 
  1654  0314                     	;# 
  1655  0314                     	;# 
  1656  0315                     	;# 
  1657  0316                     	;# 
  1658  0318                     	;# 
  1659  0318                     	;# 
  1660  0319                     	;# 
  1661  031A                     	;# 
  1662  059C                     	;# 
  1663  059C                     	;# 
  1664  059D                     	;# 
  1665  059D                     	;# 
  1666  059E                     	;# 
  1667  059F                     	;# 
  1668  070C                     	;# 
  1669  070D                     	;# 
  1670  070E                     	;# 
  1671  0716                     	;# 
  1672  0717                     	;# 
  1673  0718                     	;# 
  1674  080C                     	;# 
  1675  0811                     	;# 
  1676  0813                     	;# 
  1677  0814                     	;# 
  1678  081A                     	;# 
  1679  081A                     	;# 
  1680  081B                     	;# 
  1681  081C                     	;# 
  1682  081C                     	;# 
  1683  081D                     	;# 
  1684  081E                     	;# 
  1685  081F                     	;# 
  1686  088E                     	;# 
  1687  0890                     	;# 
  1688  0891                     	;# 
  1689  0892                     	;# 
  1690  0893                     	;# 
  1691  090C                     	;# 
  1692  1E8F                     	;# 
  1693  1E90                     	;# 
  1694  1E91                     	;# 
  1695  1E92                     	;# 
  1696  1E93                     	;# 
  1697  1E9C                     	;# 
  1698  1EA1                     	;# 
  1699  1EA2                     	;# 
  1700  1EC3                     	;# 
  1701  1EC5                     	;# 
  1702  1EC6                     	;# 
  1703  1EC7                     	;# 
  1704  1ECB                     	;# 
  1705  1ECB                     	;# 
  1706  1ECB                     	;# 
  1707  1ECC                     	;# 
  1708  1ECC                     	;# 
  1709  1ECC                     	;# 
  1710  1F10                     	;# 
  1711  1F11                     	;# 
  1712  1F12                     	;# 
  1713  1F14                     	;# 
  1714  1F15                     	;# 
  1715  1F20                     	;# 
  1716  1F21                     	;# 
  1717  1F22                     	;# 
  1718  1F23                     	;# 
  1719  1F24                     	;# 
  1720  1F25                     	;# 
  1721  1F38                     	;# 
  1722  1F39                     	;# 
  1723  1F3A                     	;# 
  1724  1F3B                     	;# 
  1725  1F3C                     	;# 
  1726  1F3D                     	;# 
  1727  1F3E                     	;# 
  1728  1F3F                     	;# 
  1729  1F4E                     	;# 
  1730  1F4F                     	;# 
  1731  1F50                     	;# 
  1732  1F51                     	;# 
  1733  1F52                     	;# 
  1734  1F53                     	;# 
  1735  1F54                     	;# 
  1736  1F55                     	;# 
  1737  1FE4                     	;# 
  1738  1FE5                     	;# 
  1739  1FE6                     	;# 
  1740  1FE7                     	;# 
  1741  1FE8                     	;# 
  1742  1FE8                     	;# 
  1743  1FE9                     	;# 
  1744  1FEA                     	;# 
  1745  1FEB                     	;# 
  1746  1FED                     	;# 
  1747  1FEE                     	;# 
  1748  1FEF                     	;_silent_night_pre
  1749                           
  1750                           	psect	idataBIGRAM
  1751  04BA                     __pidataBIGRAM:
  1752                           
  1753                           ;initializer for _silent_night_pre
  1754  04BA  34D0               	retlw	208
  1755  04BB  34D0               	retlw	208
  1756  04BC  34D0               	retlw	208
  1757  04BD  34D0               	retlw	208
  1758  04BE  34D0               	retlw	208
  1759  04BF  34D0               	retlw	208
  1760  04C0  34D0               	retlw	208
  1761  04C1  34D0               	retlw	208
  1762  04C2  34D0               	retlw	208
  1763  04C3  34D0               	retlw	208
  1764  04C4  34D0               	retlw	208
  1765  04C5  34D0               	retlw	208
  1766  04C6  34D0               	retlw	208
  1767  04C7  34D0               	retlw	208
  1768  04C8  34D0               	retlw	208
  1769  04C9  34D0               	retlw	208
  1770  04CA  34D0               	retlw	208
  1771  04CB  34D0               	retlw	208
  1772  04CC  34D0               	retlw	208
  1773  04CD  34D0               	retlw	208
  1774  04CE  34D0               	retlw	208
  1775  04CF  34D0               	retlw	208
  1776  04D0  34D0               	retlw	208
  1777  04D1  34D0               	retlw	208
  1778  04D2  34C0               	retlw	192
  1779  04D3  34C0               	retlw	192
  1780  04D4  34C0               	retlw	192
  1781  04D5  34C0               	retlw	192
  1782  04D6  34C0               	retlw	192
  1783  04D7  34C0               	retlw	192
  1784  04D8  34C0               	retlw	192
  1785  04D9  34C0               	retlw	192
  1786  04DA  34C0               	retlw	192
  1787  04DB  34C0               	retlw	192
  1788  04DC  34C0               	retlw	192
  1789  04DD  34C0               	retlw	192
  1790  04DE  34C0               	retlw	192
  1791  04DF  34C0               	retlw	192
  1792  04E0  34C0               	retlw	192
  1793  04E1  34C0               	retlw	192
  1794  04E2  34C0               	retlw	192
  1795  04E3  34C0               	retlw	192
  1796  04E4  34D0               	retlw	208
  1797  04E5  34D0               	retlw	208
  1798  04E6  34D0               	retlw	208
  1799  04E7  34D0               	retlw	208
  1800  04E8  34D0               	retlw	208
  1801  04E9  34D0               	retlw	208
  1802  04EA  34D0               	retlw	208
  1803  04EB  34D0               	retlw	208
  1804  04EC  34D0               	retlw	208
  1805  04ED  34D0               	retlw	208
  1806  04EE  34D0               	retlw	208
  1807  04EF  34D0               	retlw	208
  1808  04F0  34C0               	retlw	192
  1809  04F1  34C0               	retlw	192
  1810  04F2  34C0               	retlw	192
  1811  04F3  34C0               	retlw	192
  1812  04F4  34D0               	retlw	208
  1813  04F5  34D0               	retlw	208
  1814  04F6  34D0               	retlw	208
  1815  04F7  34D0               	retlw	208
  1816  04F8  34D0               	retlw	208
  1817  04F9  34D0               	retlw	208
  1818  04FA  34D0               	retlw	208
  1819  04FB  34D0               	retlw	208
  1820  04FC  34D0               	retlw	208
  1821  04FD  34D0               	retlw	208
  1822  04FE  34D0               	retlw	208
  1823  04FF  34D0               	retlw	208
  1824  0500  34D0               	retlw	208
  1825  0501  34D0               	retlw	208
  1826  0502  34D0               	retlw	208
  1827  0503  34D0               	retlw	208
  1828  0504  34D0               	retlw	208
  1829  0505  34D0               	retlw	208
  1830  0506  34D0               	retlw	208
  1831  0507  34D0               	retlw	208
  1832  0508  34C0               	retlw	192
  1833  0509  34C0               	retlw	192
  1834  050A  34C0               	retlw	192
  1835  050B  34C0               	retlw	192
  1836  050C  34D0               	retlw	208
  1837  050D  34D0               	retlw	208
  1838  050E  34D0               	retlw	208
  1839  050F  34D0               	retlw	208
  1840  0510  34D0               	retlw	208
  1841  0511  34D0               	retlw	208
  1842  0512  34D0               	retlw	208
  1843  0513  34D0               	retlw	208
  1844  0514  34D0               	retlw	208
  1845  0515  34D0               	retlw	208
  1846  0516  34D0               	retlw	208
  1847  0517  34D0               	retlw	208
  1848  0518  34D0               	retlw	208
  1849  0519  34D0               	retlw	208
  1850  051A  34C0               	retlw	192
  1851  051B  34C0               	retlw	192
  1852  051C  34C0               	retlw	192
  1853  051D  34C0               	retlw	192
  1854  051E  34C0               	retlw	192
  1855  051F  34C0               	retlw	192
  1856  0520  34C0               	retlw	192
  1857  0521  34C0               	retlw	192
  1858  0522  34C0               	retlw	192
  1859  0523  34C0               	retlw	192
  1860  0524  34C0               	retlw	192
  1861  0525  34C0               	retlw	192
  1862  0526  34C0               	retlw	192
  1863  0527  34C0               	retlw	192
  1864  0528  34C0               	retlw	192
  1865  0529  34C0               	retlw	192
  1866  052A  34C0               	retlw	192
  1867  052B  34C0               	retlw	192
  1868  052C  34C0               	retlw	192
  1869  052D  34C0               	retlw	192
  1870  052E  34C0               	retlw	192
  1871  052F  34C0               	retlw	192
  1872  0530  34C0               	retlw	192
  1873  0531  34C0               	retlw	192
  1874  0532  34C0               	retlw	192
  1875  0533  34C0               	retlw	192
  1876  0534  34D0               	retlw	208
  1877  0535  34D0               	retlw	208
  1878  0536  34D0               	retlw	208
  1879  0537  34D0               	retlw	208
  1880  0538  34D0               	retlw	208
  1881  0539  34D0               	retlw	208
  1882  053A  34D0               	retlw	208
  1883  053B  34D0               	retlw	208
  1884  053C  34D0               	retlw	208
  1885  053D  34D0               	retlw	208
  1886  053E  34D0               	retlw	208
  1887  053F  34D0               	retlw	208
  1888  0540  34D0               	retlw	208
  1889  0541  34D0               	retlw	208
  1890  0542  34D0               	retlw	208
  1891  0543  34D0               	retlw	208
  1892                           
  1893                           ;initializer for _silent_night
  1894  0544  349E               	retlw	158
  1895  0545  349E               	retlw	158
  1896  0546  349E               	retlw	158
  1897  0547  348D               	retlw	141
  1898  0548  349E               	retlw	158
  1899  0549  349E               	retlw	158
  1900  054A  34BC               	retlw	188
  1901  054B  34BC               	retlw	188
  1902  054C  34BC               	retlw	188
  1903  054D  34BC               	retlw	188
  1904  054E  34BC               	retlw	188
  1905  054F  34BC               	retlw	188
  1906  0550  349E               	retlw	158
  1907  0551  349E               	retlw	158
  1908  0552  349E               	retlw	158
  1909  0553  348D               	retlw	141
  1910  0554  349E               	retlw	158
  1911  0555  349E               	retlw	158
  1912  0556  34BC               	retlw	188
  1913  0557  34BC               	retlw	188
  1914  0558  34BC               	retlw	188
  1915  0559  34BC               	retlw	188
  1916  055A  34BC               	retlw	188
  1917  055B  34BC               	retlw	188
  1918  055C  34D3               	retlw	211
  1919  055D  34D3               	retlw	211
  1920  055E  34D3               	retlw	211
  1921  055F  34D3               	retlw	211
  1922  0560  34D3               	retlw	211
  1923  0561  34D3               	retlw	211
  1924  0562  34FC               	retlw	252
  1925  0563  34FC               	retlw	252
  1926  0564  34FC               	retlw	252
  1927  0565  34FC               	retlw	252
  1928  0566  34FC               	retlw	252
  1929  0567  34FC               	retlw	252
  1930  0568  34EE               	retlw	238
  1931  0569  34EE               	retlw	238
  1932  056A  34EE               	retlw	238
  1933  056B  34EE               	retlw	238
  1934  056C  34EE               	retlw	238
  1935  056D  34EE               	retlw	238
  1936  056E  349E               	retlw	158
  1937  056F  349E               	retlw	158
  1938  0570  349E               	retlw	158
  1939  0571  349E               	retlw	158
  1940  0572  349E               	retlw	158
  1941  0573  349E               	retlw	158
  1942  0574  348D               	retlw	141
  1943  0575  348D               	retlw	141
  1944  0576  348D               	retlw	141
  1945  0577  348D               	retlw	141
  1946  0578  348D               	retlw	141
  1947  0579  348D               	retlw	141
  1948  057A  34ED               	retlw	237
  1949  057B  34ED               	retlw	237
  1950  057C  34ED               	retlw	237
  1951  057D  34FC               	retlw	252
  1952  057E  348D               	retlw	141
  1953  057F  348D               	retlw	141
  1954  0580  349E               	retlw	158
  1955  0581  349E               	retlw	158
  1956  0582  349E               	retlw	158
  1957  0583  348D               	retlw	141
  1958  0584  349E               	retlw	158
  1959  0585  349E               	retlw	158
  1960  0586  34BC               	retlw	188
  1961  0587  34BC               	retlw	188
  1962  0588  34BC               	retlw	188
  1963  0589  34BC               	retlw	188
  1964  058A  34BC               	retlw	188
  1965  058B  34BC               	retlw	188
  1966  058C  348D               	retlw	141
  1967  058D  348D               	retlw	141
  1968  058E  348D               	retlw	141
  1969  058F  348D               	retlw	141
  1970  0590  348D               	retlw	141
  1971  0591  348D               	retlw	141
  1972  0592  34ED               	retlw	237
  1973  0593  34ED               	retlw	237
  1974  0594  34ED               	retlw	237
  1975  0595  34FC               	retlw	252
  1976  0596  348D               	retlw	141
  1977  0597  348D               	retlw	141
  1978  0598  349E               	retlw	158
  1979  0599  349E               	retlw	158
  1980  059A  349E               	retlw	158
  1981  059B  348D               	retlw	141
  1982  059C  349E               	retlw	158
  1983  059D  349E               	retlw	158
  1984  059E  34BC               	retlw	188
  1985  059F  34BC               	retlw	188
  1986  05A0  34BC               	retlw	188
  1987  05A1  34BC               	retlw	188
  1988  05A2  34BC               	retlw	188
  1989  05A3  34BC               	retlw	188
  1990  05A4  34D3               	retlw	211
  1991  05A5  34D3               	retlw	211
  1992  05A6  34D3               	retlw	211
  1993  05A7  34D3               	retlw	211
  1994  05A8  34D3               	retlw	211
  1995  05A9  34D3               	retlw	211
  1996  05AA  34B1               	retlw	177
  1997  05AB  34B1               	retlw	177
  1998  05AC  34B1               	retlw	177
  1999  05AD  34D3               	retlw	211
  2000  05AE  34FC               	retlw	252
  2001  05AF  34FC               	retlw	252
  2002  05B0  34ED               	retlw	237
  2003  05B1  34ED               	retlw	237
  2004  05B2  34ED               	retlw	237
  2005  05B3  34ED               	retlw	237
  2006  05B4  34ED               	retlw	237
  2007  05B5  34ED               	retlw	237
  2008  05B6  34BC               	retlw	188
  2009  05B7  34BC               	retlw	188
  2010  05B8  34BC               	retlw	188
  2011  05B9  34BC               	retlw	188
  2012  05BA  34BC               	retlw	188
  2013  05BB  34BC               	retlw	188
  2014  05BC  34ED               	retlw	237
  2015  05BD  34ED               	retlw	237
  2016  05BE  349E               	retlw	158
  2017  05BF  349E               	retlw	158
  2018  05C0  34BC               	retlw	188
  2019  05C1  34BC               	retlw	188
  2020  05C2  349E               	retlw	158
  2021  05C3  349E               	retlw	158
  2022  05C4  349E               	retlw	158
  2023  05C5  34B1               	retlw	177
  2024  05C6  34D3               	retlw	211
  2025  05C7  34D3               	retlw	211
  2026  05C8  34EE               	retlw	238
  2027  05C9  34EE               	retlw	238
  2028  05CA  34EE               	retlw	238
  2029  05CB  34EE               	retlw	238
  2030  05CC  34EE               	retlw	238
  2031  05CD  34EE               	retlw	238
  2032                           
  2033                           	psect	idataBANK0
  2034  06F5                     __pidataBANK0:
  2035                           
  2036                           ;initializer for _song2_pre
  2037  06F5  34B0               	retlw	176
  2038  06F6  34B0               	retlw	176
  2039  06F7  34B0               	retlw	176
  2040  06F8  34A0               	retlw	160
  2041  06F9  34A0               	retlw	160
  2042  06FA  34A0               	retlw	160
  2043  06FB  34A0               	retlw	160
  2044  06FC  34A0               	retlw	160
  2045  06FD  34C0               	retlw	192
  2046  06FE  34C0               	retlw	192
  2047  06FF  34C0               	retlw	192
  2048  0700  34C0               	retlw	192
  2049  0701  34C0               	retlw	192
  2050  0702  34C0               	retlw	192
  2051  0703  34C0               	retlw	192
  2052  0704  34C0               	retlw	192
  2053                           
  2054                           ;initializer for _dream_lights
  2055  0705  3400               	retlw	0
  2056  0706  34E8               	retlw	232
  2057  0707  34BE               	retlw	190
  2058  0708  34FE               	retlw	254
  2059  0709  34BD               	retlw	189
  2060  070A  34A0               	retlw	160
  2061  070B  3400               	retlw	0
  2062                           
  2063                           ;initializer for _song3_length
  2064  070C  3442               	retlw	66
  2065                           
  2066                           ;initializer for _timer_low_3
  2067  070D  3434               	retlw	52
  2068                           
  2069                           ;initializer for _timer_high_3
  2070  070E  34EA               	retlw	234
  2071                           
  2072                           ;initializer for _song2_length
  2073  070F  3410               	retlw	16
  2074                           
  2075                           ;initializer for _timer_low_2
  2076  0710  34E4               	retlw	228
  2077                           
  2078                           ;initializer for _timer_high_2
  2079  0711  34F3               	retlw	243
  2080                           
  2081                           ;initializer for _num_songs
  2082  0712  3403               	retlw	3
  2083                           
  2084                           	psect	idataBANK1
  2085  07A9                     __pidataBANK1:
  2086                           
  2087                           ;initializer for _song2
  2088  07A9  34D3               	retlw	211
  2089  07AA  349E               	retlw	158
  2090  07AB  348D               	retlw	141
  2091  07AC  34D3               	retlw	211
  2092  07AD  34BC               	retlw	188
  2093  07AE  34BC               	retlw	188
  2094  07AF  3400               	retlw	0
  2095  07B0  3400               	retlw	0
  2096  07B1  34BC               	retlw	188
  2097  07B2  34BC               	retlw	188
  2098  07B3  349E               	retlw	158
  2099  07B4  349E               	retlw	158
  2100  07B5  34BC               	retlw	188
  2101  07B6  34BC               	retlw	188
  2102  07B7  348D               	retlw	141
  2103  07B8  348D               	retlw	141
  2104  07B9  348D               	retlw	141
  2105                           
  2106                           	psect	idataBANK2
  2107  05CE                     __pidataBANK2:
  2108                           
  2109                           ;initializer for _song3
  2110  05CE  3400               	retlw	0
  2111  05CF  3400               	retlw	0
  2112  05D0  34D4               	retlw	212
  2113  05D1  34D4               	retlw	212
  2114  05D2  34D4               	retlw	212
  2115  05D3  34D4               	retlw	212
  2116  05D4  34D4               	retlw	212
  2117  05D5  34D4               	retlw	212
  2118  05D6  34D4               	retlw	212
  2119  05D7  34D4               	retlw	212
  2120  05D8  34D4               	retlw	212
  2121  05D9  34D4               	retlw	212
  2122  05DA  3400               	retlw	0
  2123  05DB  34D4               	retlw	212
  2124  05DC  34D4               	retlw	212
  2125  05DD  34D4               	retlw	212
  2126  05DE  34D4               	retlw	212
  2127  05DF  34D4               	retlw	212
  2128  05E0  34D4               	retlw	212
  2129  05E1  34D4               	retlw	212
  2130  05E2  34D4               	retlw	212
  2131  05E3  34D4               	retlw	212
  2132  05E4  34D4               	retlw	212
  2133  05E5  34D4               	retlw	212
  2134  05E6  34D4               	retlw	212
  2135  05E7  34D4               	retlw	212
  2136  05E8  34D4               	retlw	212
  2137  05E9  34D4               	retlw	212
  2138  05EA  3400               	retlw	0
  2139  05EB  34D4               	retlw	212
  2140  05EC  34D4               	retlw	212
  2141  05ED  34D4               	retlw	212
  2142  05EE  3400               	retlw	0
  2143  05EF  3400               	retlw	0
  2144  05F0  34D4               	retlw	212
  2145  05F1  34D4               	retlw	212
  2146  05F2  34D4               	retlw	212
  2147  05F3  34D4               	retlw	212
  2148  05F4  34D4               	retlw	212
  2149  05F5  34D4               	retlw	212
  2150  05F6  34D4               	retlw	212
  2151  05F7  34D4               	retlw	212
  2152  05F8  34D4               	retlw	212
  2153  05F9  34D4               	retlw	212
  2154  05FA  3400               	retlw	0
  2155  05FB  34D4               	retlw	212
  2156  05FC  34D4               	retlw	212
  2157  05FD  34D4               	retlw	212
  2158  05FE  34D4               	retlw	212
  2159  05FF  34D4               	retlw	212
  2160  0600  34D4               	retlw	212
  2161  0601  34D4               	retlw	212
  2162  0602  34D4               	retlw	212
  2163  0603  34D4               	retlw	212
  2164  0604  34D4               	retlw	212
  2165  0605  34D4               	retlw	212
  2166  0606  34D4               	retlw	212
  2167  0607  34D4               	retlw	212
  2168  0608  34D4               	retlw	212
  2169  0609  34D4               	retlw	212
  2170  060A  3400               	retlw	0
  2171  060B  3400               	retlw	0
  2172  060C  34ED               	retlw	237
  2173  060D  34D4               	retlw	212
  2174  060E  34B0               	retlw	176
  2175  060F  34B0               	retlw	176
  2176                           
  2177                           	psect	idataBANK3
  2178  0610                     __pidataBANK3:
  2179                           
  2180                           ;initializer for _song3_pre
  2181  0610  34E0               	retlw	224
  2182  0611  34E0               	retlw	224
  2183  0612  34D0               	retlw	208
  2184  0613  34D0               	retlw	208
  2185  0614  34E0               	retlw	224
  2186  0615  34E0               	retlw	224
  2187  0616  34D0               	retlw	208
  2188  0617  34D0               	retlw	208
  2189  0618  34E0               	retlw	224
  2190  0619  34E0               	retlw	224
  2191  061A  34D0               	retlw	208
  2192  061B  34E0               	retlw	224
  2193  061C  3400               	retlw	0
  2194  061D  34E0               	retlw	224
  2195  061E  34D0               	retlw	208
  2196  061F  34D0               	retlw	208
  2197  0620  34E0               	retlw	224
  2198  0621  34E0               	retlw	224
  2199  0622  34D0               	retlw	208
  2200  0623  34D0               	retlw	208
  2201  0624  34E0               	retlw	224
  2202  0625  34E0               	retlw	224
  2203  0626  34D0               	retlw	208
  2204  0627  34D0               	retlw	208
  2205  0628  34E0               	retlw	224
  2206  0629  34E0               	retlw	224
  2207  062A  34D0               	retlw	208
  2208  062B  34E0               	retlw	224
  2209  062C  3400               	retlw	0
  2210  062D  34E0               	retlw	224
  2211  062E  34D0               	retlw	208
  2212  062F  34D0               	retlw	208
  2213  0630  34E0               	retlw	224
  2214  0631  34E0               	retlw	224
  2215  0632  34D0               	retlw	208
  2216  0633  34D0               	retlw	208
  2217  0634  34E0               	retlw	224
  2218  0635  34E0               	retlw	224
  2219  0636  34D0               	retlw	208
  2220  0637  34D0               	retlw	208
  2221  0638  34E0               	retlw	224
  2222  0639  34E0               	retlw	224
  2223  063A  34D0               	retlw	208
  2224  063B  34E0               	retlw	224
  2225  063C  3400               	retlw	0
  2226  063D  34E0               	retlw	224
  2227  063E  34D0               	retlw	208
  2228  063F  34D0               	retlw	208
  2229  0640  34E0               	retlw	224
  2230  0641  34E0               	retlw	224
  2231  0642  34D0               	retlw	208
  2232  0643  34D0               	retlw	208
  2233  0644  34E0               	retlw	224
  2234  0645  34E0               	retlw	224
  2235  0646  34D0               	retlw	208
  2236  0647  34D0               	retlw	208
  2237  0648  34E0               	retlw	224
  2238  0649  34E0               	retlw	224
  2239  064A  34D0               	retlw	208
  2240  064B  34E0               	retlw	224
  2241  064C  3400               	retlw	0
  2242  064D  3400               	retlw	0
  2243  064E  34D0               	retlw	208
  2244  064F  34D0               	retlw	208
  2245  0650  34D0               	retlw	208
  2246  0651  34D0               	retlw	208
  2247                           
  2248                           	psect	stringtext1
  2249  1000                     __pstringtext1:
  2250  1000                     _spi1_configuration:
  2251  1000  3400               	retlw	0
  2252  1001  3440               	retlw	64
  2253  1002  3401               	retlw	1
  2254  1003  3400               	retlw	0
  2255  1004                     __end_of_spi1_configuration:
  2256                           
  2257                           	psect	nvBANK0
  2258  0058                     __pnvBANK0:
  2259  0058                     _TMR1_InterruptHandler:
  2260  0058                     	ds	2
  2261  005A                     _timer1ReloadVal:
  2262  005A                     	ds	2
  2263  005C                     _TMR0_InterruptHandler:
  2264  005C                     	ds	2
  2265  005E                     _timer0ReloadVal16bit:
  2266  005E                     	ds	2
  2267  0060                     _INT_InterruptHandler:
  2268  0060                     	ds	2
  2269  001A                     _LATCbits	set	26
  2270  0012                     _TRISAbits	set	18
  2271  000B                     _INTCONbits	set	11
  2272  0014                     _TRISC	set	20
  2273  0012                     _TRISA	set	18
  2274  001A                     _LATC	set	26
  2275  0018                     _LATA	set	24
  2276  0014                     _TRISCbits	set	20
  2277  018C                     _SSP1BUF	set	396
  2278  0191                     _SSP1CON2	set	401
  2279  0190                     _SSP1CON1bits	set	400
  2280  018D                     _SSP1ADD	set	397
  2281  0190                     _SSP1CON1	set	400
  2282  018F                     _SSP1STAT	set	399
  2283  020F                     _T1GCONbits	set	527
  2284  020E                     _T1CONbits	set	526
  2285  020E                     _T1CON	set	526
  2286  020C                     _TMR1L	set	524
  2287  020D                     _TMR1H	set	525
  2288  0211                     _T1CLK	set	529
  2289  0210                     _T1GATE	set	528
  2290  020F                     _T1GCON	set	527
  2291  028D                     _PR2	set	653
  2292  028C                     _TMR2	set	652
  2293  028E                     _T2CONbits	set	654
  2294  0291                     _T2RSTbits	set	657
  2295  028F                     _T2HLTbits	set	655
  2296  028E                     _T2CON	set	654
  2297  028C                     _T2TMR	set	652
  2298  028D                     _T2PR	set	653
  2299  0291                     _T2RST	set	657
  2300  028F                     _T2HLT	set	655
  2301  0290                     _T2CLKCON	set	656
  2302  0314                     _PWM3DCL	set	788
  2303  0315                     _PWM3DCH	set	789
  2304  0316                     _PWM3CON	set	790
  2305  059E                     _T0CON0bits	set	1438
  2306  059E                     _T0CON0	set	1438
  2307  059C                     _TMR0L	set	1436
  2308  059D                     _TMR0H	set	1437
  2309  059F                     _T0CON1	set	1439
  2310  0717                     _PIE1bits	set	1815
  2311  070C                     _PIR0bits	set	1804
  2312  0716                     _PIE0bits	set	1814
  2313  070D                     _PIR1bits	set	1805
  2314  080C                     _WDTCON	set	2060
  2315  0892                     _OSCTUNE	set	2194
  2316  0893                     _OSCFRQ	set	2195
  2317  0891                     _OSCEN	set	2193
  2318  1E90                     _INTPPS	set	7824
  2319  1EC6                     _SSP1DATPPS	set	7878
  2320  1EC5                     _SSP1CLKPPS	set	7877
  2321  1F15                     _RA5PPS	set	7957
  2322  1F52                     _INLVLC	set	8018
  2323  1F3C                     _INLVLA	set	7996
  2324  1F51                     _SLRCONC	set	8017
  2325  1F3B                     _SLRCONA	set	7995
  2326  1F50                     _ODCONC	set	8016
  2327  1F3A                     _ODCONA	set	7994
  2328  1F4F                     _WPUC	set	8015
  2329  1F39                     _WPUA	set	7993
  2330  1F38                     _ANSELA	set	7992
  2331  1F4E                     _ANSELC	set	8014
  2332  1F23                     _RC3PPS	set	7971
  2333  1F25                     _RC5PPS	set	7973
  2334                           
  2335                           	psect	cinit
  2336  0033                     start_initialization:	
  2337                           ; #config settings
  2338                           
  2339  0033                     __initialization:	;BIGRAM
  2340                           
  2341                           ; Initialize objects allocated to BIGRAM
  2342  0033  30BA               	movlw	low __pidataBIGRAM
  2343  0034  0084               	movwf	4
  2344  0035  3084               	movlw	(high __pidataBIGRAM)| (0+128)
  2345  0036  0085               	movwf	5
  2346  0037  30DC               	movlw	low (0+8924)
  2347  0038  0086               	movwf	6
  2348  0039  3022               	movlw	high (0+8924)
  2349  003A  0087               	movwf	7
  2350  003B  3001               	movlw	1
  2351  003C  00FF               	movwf	btemp+1
  2352  003D  3014               	movlw	20
  2353  003E  318F  27E7  3180   	fcall	init_ram
  2354                           
  2355                           ; Initialize objects allocated to BANK0
  2356  0041  30F5               	movlw	low __pidataBANK0
  2357  0042  0084               	movwf	4
  2358  0043  3086               	movlw	(high __pidataBANK0)| (0+128)
  2359  0044  0085               	movwf	5
  2360  0045  3020               	movlw	low __pdataBANK0
  2361  0046  0086               	movwf	6
  2362  0047  3000               	movlw	high __pdataBANK0
  2363  0048  0087               	movwf	7
  2364  0049  3000               	movlw	0
  2365  004A  00FF               	movwf	btemp+1
  2366  004B  301E               	movlw	30
  2367  004C  318F  27E7  3180   	fcall	init_ram
  2368                           
  2369                           ; Initialize objects allocated to BANK1
  2370  004F  30A9               	movlw	low __pidataBANK1
  2371  0050  0084               	movwf	4
  2372  0051  3087               	movlw	(high __pidataBANK1)| (0+128)
  2373  0052  0085               	movwf	5
  2374  0053  30A0               	movlw	low __pdataBANK1
  2375  0054  0086               	movwf	6
  2376  0055  3000               	movlw	high __pdataBANK1
  2377  0056  0087               	movwf	7
  2378  0057  3000               	movlw	0
  2379  0058  00FF               	movwf	btemp+1
  2380  0059  3011               	movlw	17
  2381  005A  318F  27E7  3180   	fcall	init_ram
  2382                           
  2383                           ; Initialize objects allocated to BANK2
  2384  005D  30CE               	movlw	low __pidataBANK2
  2385  005E  0084               	movwf	4
  2386  005F  3085               	movlw	(high __pidataBANK2)| (0+128)
  2387  0060  0085               	movwf	5
  2388  0061  3020               	movlw	low __pdataBANK2
  2389  0062  0086               	movwf	6
  2390  0063  3001               	movlw	high __pdataBANK2
  2391  0064  0087               	movwf	7
  2392  0065  3000               	movlw	0
  2393  0066  00FF               	movwf	btemp+1
  2394  0067  3042               	movlw	66
  2395  0068  318F  27E7  3180   	fcall	init_ram
  2396                           
  2397                           ; Initialize objects allocated to BANK3
  2398  006B  3010               	movlw	low __pidataBANK3
  2399  006C  0084               	movwf	4
  2400  006D  3086               	movlw	(high __pidataBANK3)| (0+128)
  2401  006E  0085               	movwf	5
  2402  006F  30A0               	movlw	low __pdataBANK3
  2403  0070  0086               	movwf	6
  2404  0071  3001               	movlw	high __pdataBANK3
  2405  0072  0087               	movwf	7
  2406  0073  3000               	movlw	0
  2407  0074  00FF               	movwf	btemp+1
  2408  0075  3042               	movlw	66
  2409  0076  318F  27E7  3180   	fcall	init_ram
  2410                           
  2411                           ; Clear objects allocated to COMMON
  2412  0079  01F8               	clrf	__pbssCOMMON& (0+127)
  2413  007A  01F9               	clrf	(__pbssCOMMON+1)& (0+127)
  2414                           
  2415                           ; Clear objects allocated to BANK0
  2416  007B  01E2               	clrf	__pbssBANK0& (0+127)
  2417  007C  01E3               	clrf	(__pbssBANK0+1)& (0+127)
  2418  007D  01E4               	clrf	(__pbssBANK0+2)& (0+127)
  2419  007E  01E5               	clrf	(__pbssBANK0+3)& (0+127)
  2420  007F  01E6               	clrf	(__pbssBANK0+4)& (0+127)
  2421  0080  01E7               	clrf	(__pbssBANK0+5)& (0+127)
  2422  0081  01E8               	clrf	(__pbssBANK0+6)& (0+127)
  2423  0082  01E9               	clrf	(__pbssBANK0+7)& (0+127)
  2424  0083  01EA               	clrf	(__pbssBANK0+8)& (0+127)
  2425  0084                     end_of_initialization:	
  2426                           ;End of C runtime variable initialization code
  2427                           
  2428  0084                     __end_of__initialization:
  2429  0084  107E               	bcf	int$flags,0	;clear compiler interrupt flag (level 1)
  2430  0085  0140               	movlb	0
  2431  0086  3183  2B5B         	ljmp	_main	;jump to C main() function
  2432                           
  2433                           	psect	bssCOMMON
  2434  0078                     __pbssCOMMON:
  2435  0078                     _presses:
  2436  0078                     	ds	1
  2437  0079                     _light_array:
  2438  0079                     	ds	1
  2439                           
  2440                           	psect	bssBANK0
  2441  0062                     __pbssBANK0:
  2442  0062                     _count:
  2443  0062                     	ds	2
  2444  0064                     _change_lights:
  2445  0064                     	ds	1
  2446  0065                     _last_prescale:
  2447  0065                     	ds	1
  2448  0066                     _last_note:
  2449  0066                     	ds	1
  2450  0067                     _TMR0_complete:
  2451  0067                     	ds	1
  2452  0068                     _song2_playing:
  2453  0068                     	ds	1
  2454  0069                     _song3_playing:
  2455  0069                     	ds	1
  2456  006A                     _silent_night_playing:
  2457  006A                     	ds	1
  2458                           
  2459                           	psect	dataBANK0
  2460  0020                     __pdataBANK0:
  2461  0020                     _song2_pre:
  2462  0020                     	ds	16
  2463  0030                     _dream_lights:
  2464  0030                     	ds	7
  2465  0037                     _song3_length:
  2466  0037                     	ds	1
  2467  0038                     _timer_low_3:
  2468  0038                     	ds	1
  2469  0039                     _timer_high_3:
  2470  0039                     	ds	1
  2471  003A                     _song2_length:
  2472  003A                     	ds	1
  2473  003B                     _timer_low_2:
  2474  003B                     	ds	1
  2475  003C                     _timer_high_2:
  2476  003C                     	ds	1
  2477  003D                     _num_songs:
  2478  003D                     	ds	1
  2479                           
  2480                           	psect	dataBANK1
  2481  00A0                     __pdataBANK1:
  2482  00A0                     _song2:
  2483  00A0                     	ds	17
  2484                           
  2485                           	psect	dataBANK2
  2486  0120                     __pdataBANK2:
  2487  0120                     _song3:
  2488  0120                     	ds	66
  2489                           
  2490                           	psect	dataBANK3
  2491  01A0                     __pdataBANK3:
  2492  01A0                     _song3_pre:
  2493  01A0                     	ds	66
  2494                           
  2495                           	psect	inittext
  2496  0FE7                     init_ram:
  2497  0FE7  00FE               	movwf	btemp
  2498  0FE8                     initloop:
  2499  0FE8  0012               	moviw fsr0++
  2500  0FE9  001E               	movwi fsr1++
  2501  0FEA  3001               	movlw	1
  2502  0FEB  02FE               	subwf	btemp,f
  2503  0FEC  3000               	movlw	0
  2504  0FED  3BFF               	subwfb	btemp+1,f
  2505  0FEE  087F               	movf	btemp+1,w
  2506  0FEF  047E               	iorwf	btemp,w
  2507  0FF0  1D03               	skipz
  2508  0FF1  2FE8               	goto	initloop
  2509  0FF2  3400               	retlw	0
  2510                           
  2511                           	psect	cstackBANK1
  2512  00B1                     __pcstackBANK1:
  2513  00B1                     displayMatrix@states:
  2514                           
  2515                           ; 1 bytes @ 0x0
  2516  00B1                     	ds	1
  2517  00B2                     displayMatrix@i:
  2518                           
  2519                           ; 2 bytes @ 0x1
  2520  00B2                     	ds	2
  2521  00B4                     displayMatrix@lowSide:
  2522                           
  2523                           ; 1 bytes @ 0x3
  2524  00B4                     	ds	1
  2525  00B5                     ??_main:
  2526                           
  2527                           ; 1 bytes @ 0x4
  2528  00B5                     	ds	5
  2529                           
  2530                           	psect	cstackCOMMON
  2531  0070                     __pcstackCOMMON:
  2532  0070                     ?_SPI1_Initialize:
  2533  0070                     ?_PIN_MANAGER_Initialize:	
  2534                           ; 1 bytes @ 0x0
  2535                           
  2536  0070                     ?_OSCILLATOR_Initialize:	
  2537                           ; 1 bytes @ 0x0
  2538                           
  2539  0070                     ?_WDT_Initialize:	
  2540                           ; 1 bytes @ 0x0
  2541                           
  2542  0070                     ?_PWM3_Initialize:	
  2543                           ; 1 bytes @ 0x0
  2544                           
  2545  0070                     ?_TMR2_Initialize:	
  2546                           ; 1 bytes @ 0x0
  2547                           
  2548  0070                     ?_TMR1_Initialize:	
  2549                           ; 1 bytes @ 0x0
  2550                           
  2551  0070                     ?_EXT_INT_Initialize:	
  2552                           ; 1 bytes @ 0x0
  2553                           
  2554  0070                     ?_TMR0_Initialize:	
  2555                           ; 1 bytes @ 0x0
  2556                           
  2557  0070                     ?_TMR0_ISR:	
  2558                           ; 1 bytes @ 0x0
  2559                           
  2560  0070                     ??_TMR0_ISR:	
  2561                           ; 1 bytes @ 0x0
  2562                           
  2563  0070                     ?_INT_ISR:	
  2564                           ; 1 bytes @ 0x0
  2565                           
  2566  0070                     ?_TMR1_ISR:	
  2567                           ; 1 bytes @ 0x0
  2568                           
  2569  0070                     ?_INT_CallBack:	
  2570                           ; 1 bytes @ 0x0
  2571                           
  2572  0070                     ?_TMR0_DefaultInterruptHandler:	
  2573                           ; 1 bytes @ 0x0
  2574                           
  2575  0070                     ??_TMR0_DefaultInterruptHandler:	
  2576                           ; 1 bytes @ 0x0
  2577                           
  2578  0070                     ?_TMR1_DefaultInterruptHandler:	
  2579                           ; 1 bytes @ 0x0
  2580                           
  2581  0070                     ??_TMR1_DefaultInterruptHandler:	
  2582                           ; 1 bytes @ 0x0
  2583                           
  2584  0070                     ?_EXT_ISR:	
  2585                           ; 1 bytes @ 0x0
  2586                           
  2587  0070                     ??_EXT_ISR:	
  2588                           ; 1 bytes @ 0x0
  2589                           
  2590  0070                     ?_TMR0_ISR_:	
  2591                           ; 1 bytes @ 0x0
  2592                           
  2593  0070                     ??_TMR0_ISR_:	
  2594                           ; 1 bytes @ 0x0
  2595                           
  2596  0070                     ?_TMR1_ISR_:	
  2597                           ; 1 bytes @ 0x0
  2598                           
  2599  0070                     ??_TMR1_ISR_:	
  2600                           ; 1 bytes @ 0x0
  2601                           
  2602  0070                     ?_displayMatrix:	
  2603                           ; 1 bytes @ 0x0
  2604                           
  2605  0070                     ?_SYSTEM_Initialize:	
  2606                           ; 1 bytes @ 0x0
  2607                           
  2608  0070                     ?_SPI1_ExchangeByte:	
  2609                           ; 1 bytes @ 0x0
  2610                           
  2611  0070                     ?_INTERRUPT_InterruptManager:	
  2612                           ; 1 bytes @ 0x0
  2613                           
  2614  0070                     ?_INT_DefaultInterruptHandler:	
  2615                           ; 1 bytes @ 0x0
  2616                           
  2617  0070                     ??_INT_DefaultInterruptHandler:	
  2618                           ; 1 bytes @ 0x0
  2619                           
  2620  0070                     ?_TMR0_Reload:	
  2621                           ; 1 bytes @ 0x0
  2622                           
  2623  0070                     ??_TMR0_Reload:	
  2624                           ; 1 bytes @ 0x0
  2625                           
  2626  0070                     ?_TMR1_WriteTimer:	
  2627                           ; 1 bytes @ 0x0
  2628                           
  2629  0070                     ?_main:	
  2630                           ; 1 bytes @ 0x0
  2631                           
  2632  0070                     TMR1_WriteTimer@timerVal:	
  2633                           ; 1 bytes @ 0x0
  2634                           
  2635                           
  2636                           ; 2 bytes @ 0x0
  2637  0070                     	ds	1
  2638  0071                     ??_INT_ISR:
  2639  0071                     ??_INT_CallBack:	
  2640                           ; 1 bytes @ 0x1
  2641                           
  2642                           
  2643                           ; 1 bytes @ 0x1
  2644  0071                     	ds	1
  2645  0072                     ??_SPI1_Initialize:
  2646  0072                     ??_PIN_MANAGER_Initialize:	
  2647                           ; 1 bytes @ 0x2
  2648                           
  2649  0072                     ??_OSCILLATOR_Initialize:	
  2650                           ; 1 bytes @ 0x2
  2651                           
  2652  0072                     ??_WDT_Initialize:	
  2653                           ; 1 bytes @ 0x2
  2654                           
  2655  0072                     ??_PWM3_Initialize:	
  2656                           ; 1 bytes @ 0x2
  2657                           
  2658  0072                     ??_TMR2_Initialize:	
  2659                           ; 1 bytes @ 0x2
  2660                           
  2661  0072                     ??_TMR1_ISR:	
  2662                           ; 1 bytes @ 0x2
  2663                           
  2664  0072                     ?_TMR0_SetInterruptHandler:	
  2665                           ; 1 bytes @ 0x2
  2666                           
  2667  0072                     ?_TMR1_SetInterruptHandler:	
  2668                           ; 1 bytes @ 0x2
  2669                           
  2670  0072                     ?_playNote:	
  2671                           ; 1 bytes @ 0x2
  2672                           
  2673  0072                     ??_SPI1_ExchangeByte:	
  2674                           ; 1 bytes @ 0x2
  2675                           
  2676  0072                     ??_INTERRUPT_InterruptManager:	
  2677                           ; 1 bytes @ 0x2
  2678                           
  2679  0072                     ?_INT_SetInterruptHandler:	
  2680                           ; 1 bytes @ 0x2
  2681                           
  2682  0072                     ??_TMR1_WriteTimer:	
  2683                           ; 1 bytes @ 0x2
  2684                           
  2685  0072                     SPI1_ExchangeByte@data:	
  2686                           ; 1 bytes @ 0x2
  2687                           
  2688  0072                     playNote@prescale:	
  2689                           ; 1 bytes @ 0x2
  2690                           
  2691  0072                     INT_SetInterruptHandler@InterruptHandler:	
  2692                           ; 1 bytes @ 0x2
  2693                           
  2694  0072                     TMR0_SetInterruptHandler@InterruptHandler:	
  2695                           ; 2 bytes @ 0x2
  2696                           
  2697  0072                     TMR1_SetInterruptHandler@InterruptHandler:	
  2698                           ; 2 bytes @ 0x2
  2699                           
  2700                           
  2701                           ; 2 bytes @ 0x2
  2702  0072                     	ds	1
  2703  0073                     ?_shiftBytes:
  2704  0073                     ??_playNote:	
  2705                           ; 1 bytes @ 0x3
  2706                           
  2707  0073                     shiftBytes@lowSide:	
  2708                           ; 1 bytes @ 0x3
  2709                           
  2710                           
  2711                           ; 1 bytes @ 0x3
  2712  0073                     	ds	1
  2713  0074                     ??_TMR1_Initialize:
  2714  0074                     ??_EXT_INT_Initialize:	
  2715                           ; 1 bytes @ 0x4
  2716                           
  2717  0074                     ??_TMR0_Initialize:	
  2718                           ; 1 bytes @ 0x4
  2719                           
  2720  0074                     ??_TMR0_SetInterruptHandler:	
  2721                           ; 1 bytes @ 0x4
  2722                           
  2723  0074                     ??_TMR1_SetInterruptHandler:	
  2724                           ; 1 bytes @ 0x4
  2725                           
  2726  0074                     ??_shiftBytes:	
  2727                           ; 1 bytes @ 0x4
  2728                           
  2729  0074                     ??_SYSTEM_Initialize:	
  2730                           ; 1 bytes @ 0x4
  2731                           
  2732  0074                     ??_INT_SetInterruptHandler:	
  2733                           ; 1 bytes @ 0x4
  2734                           
  2735  0074                     playNote@note:	
  2736                           ; 1 bytes @ 0x4
  2737                           
  2738  0074                     shiftBytes@highSide:	
  2739                           ; 1 bytes @ 0x4
  2740                           
  2741                           
  2742                           ; 1 bytes @ 0x4
  2743  0074                     	ds	1
  2744  0075                     ??_displayMatrix:
  2745                           
  2746                           ; 1 bytes @ 0x5
  2747  0075                     	ds	2
  2748  0077                     main@pre:
  2749                           
  2750                           ; 1 bytes @ 0x7
  2751  0077                     	ds	1
  2752                           
  2753                           	psect	cstackBANK0
  2754  003E                     __pcstackBANK0:
  2755  003E                     TMR1_ISR_@lights:
  2756                           
  2757                           ; 1 bytes @ 0x0
  2758  003E                     	ds	1
  2759  003F                     TMR1_ISR_@lights_1173:
  2760                           
  2761                           ; 1 bytes @ 0x1
  2762  003F                     	ds	1
  2763  0040                     TMR1_ISR_@lights_1176:
  2764                           
  2765                           ; 1 bytes @ 0x2
  2766  0040                     	ds	1
  2767  0041                     TMR1_ISR_@dream_sw:
  2768                           
  2769                           ; 1 bytes @ 0x3
  2770  0041                     	ds	1
  2771  0042                     TMR1_ISR_@i_1175:
  2772                           
  2773                           ; 2 bytes @ 0x4
  2774  0042                     	ds	2
  2775  0044                     TMR1_ISR_@i_1180:
  2776                           
  2777                           ; 2 bytes @ 0x6
  2778  0044                     	ds	2
  2779  0046                     TMR1_ISR_@i_1183:
  2780                           
  2781                           ; 2 bytes @ 0x8
  2782  0046                     	ds	2
  2783  0048                     TMR1_ISR_@i_1171:
  2784                           
  2785                           ; 2 bytes @ 0xA
  2786  0048                     	ds	2
  2787  004A                     TMR1_ISR_@i_1174:
  2788                           
  2789                           ; 2 bytes @ 0xC
  2790  004A                     	ds	2
  2791  004C                     TMR1_ISR_@i_1177:
  2792                           
  2793                           ; 2 bytes @ 0xE
  2794  004C                     	ds	2
  2795  004E                     TMR1_ISR_@i_1178:
  2796                           
  2797                           ; 2 bytes @ 0x10
  2798  004E                     	ds	2
  2799  0050                     TMR1_ISR_@i_1179:
  2800                           
  2801                           ; 2 bytes @ 0x12
  2802  0050                     	ds	2
  2803  0052                     TMR1_ISR_@i_1182:
  2804                           
  2805                           ; 2 bytes @ 0x14
  2806  0052                     	ds	2
  2807  0054                     TMR1_ISR_@i:
  2808                           
  2809                           ; 2 bytes @ 0x16
  2810  0054                     	ds	2
  2811  0056                     TMR1_ISR_@i_1172:
  2812                           
  2813                           ; 2 bytes @ 0x18
  2814  0056                     	ds	2
  2815                           
  2816                           	psect	maintext
  2817  035B                     __pmaintext:	
  2818 ;;
  2819 ;;Main: autosize = 0, tempsize = 5, incstack = 0, save=0
  2820 ;;
  2821 ;; *************** function _main *****************
  2822 ;; Defined at:
  2823 ;;		line 188 in file "main.c"
  2824 ;; Parameters:    Size  Location     Type
  2825 ;;		None
  2826 ;; Auto vars:     Size  Location     Type
  2827 ;;  pre             1    7[COMMON] unsigned char 
  2828 ;; Return value:  Size  Location     Type
  2829 ;;                  1    wreg      void 
  2830 ;; Registers used:
  2831 ;;		wreg, fsr0l, fsr0h, fsr1l, fsr1h, status,2, status,0, pclath, cstack
  2832 ;; Tracked objects:
  2833 ;;		On entry : B3F/0
  2834 ;;		On exit  : 0/0
  2835 ;;		Unchanged: 0/0
  2836 ;; Data sizes:     COMMON   BANK0   BANK1   BANK2   BANK3   BANK4   BANK5   BANK6   BANK7   BANK8   BANK9  BANK10  BANK1
      +1  BANK12
  2837 ;;      Params:         0       0       0       0       0       0       0       0       0       0       0       0       
      +0       0
  2838 ;;      Locals:         1       0       0       0       0       0       0       0       0       0       0       0       
      +0       0
  2839 ;;      Temps:          0       0       5       0       0       0       0       0       0       0       0       0       
      +0       0
  2840 ;;      Totals:         1       0       5       0       0       0       0       0       0       0       0       0       
      +0       0
  2841 ;;Total ram usage:        6 bytes
  2842 ;; Hardware stack levels required when called: 8
  2843 ;; This function calls:
  2844 ;;		_EXT_INT_Initialize
  2845 ;;		_INT_SetInterruptHandler
  2846 ;;		_PWM3_Initialize
  2847 ;;		_SPI1_Initialize
  2848 ;;		_SYSTEM_Initialize
  2849 ;;		_TMR0_Initialize
  2850 ;;		_TMR0_SetInterruptHandler
  2851 ;;		_TMR1_Initialize
  2852 ;;		_TMR1_SetInterruptHandler
  2853 ;;		_TMR2_Initialize
  2854 ;;		_displayMatrix
  2855 ;;		_playNote
  2856 ;;		_shiftBytes
  2857 ;; This function is called by:
  2858 ;;		Startup code after reset
  2859 ;; This function uses a non-reentrant model
  2860 ;;
  2861                           
  2862                           
  2863                           ;psect for function _main
  2864  035B                     _main:
  2865  035B                     l2560:	
  2866                           ;incstack = 0
  2867                           ; Regs used in _main: [wreg-fsr1h+status,2+status,0+pclath+cstack]
  2868                           
  2869                           
  2870                           ;main.c: 191:     SYSTEM_Initialize();
  2871  035B  3187  2713  3183   	fcall	_SYSTEM_Initialize
  2872  035E                     l2562:
  2873                           
  2874                           ;main.c: 197:     (INTCONbits.GIE = 1);
  2875  035E  178B               	bsf	11,7	;volatile
  2876  035F                     l2564:
  2877                           
  2878                           ;main.c: 200:     (INTCONbits.PEIE = 1);
  2879  035F  170B               	bsf	11,6	;volatile
  2880                           
  2881                           ;main.c: 209:     SPI1_Initialize();
  2882  0360  3187  2794  3183   	fcall	_SPI1_Initialize
  2883  0363                     l2566:
  2884                           
  2885                           ;main.c: 210:     SSP1CON1bits.SSPEN = 0;
  2886  0363  0143               	movlb	3	; select bank3
  2887  0364  1290               	bcf	16,5	;volatile
  2888  0365                     l2568:
  2889                           
  2890                           ;main.c: 211:     TRISCbits.TRISC3 = 0;
  2891  0365  0140               	movlb	0	; select bank0
  2892  0366  1194               	bcf	20,3	;volatile
  2893  0367                     l2570:
  2894                           
  2895                           ;main.c: 212:     TRISAbits.TRISA4 = 1;
  2896  0367  1612               	bsf	18,4	;volatile
  2897  0368                     l2572:
  2898                           
  2899                           ;main.c: 213:     TRISCbits.TRISC5 = 0;
  2900  0368  1294               	bcf	20,5	;volatile
  2901  0369                     l2574:
  2902                           
  2903                           ;main.c: 216:     SSP1CON1bits.SSPEN = 1;
  2904  0369  0143               	movlb	3	; select bank3
  2905  036A  1690               	bsf	16,5	;volatile
  2906                           
  2907                           ;main.c: 219:     EXT_INT_Initialize();
  2908  036B  3187  27F3  3183   	fcall	_EXT_INT_Initialize
  2909                           
  2910                           ;main.c: 220:     INT_SetInterruptHandler(EXT_ISR);
  2911  036E  304B               	movlw	low _EXT_ISR
  2912  036F  00F2               	movwf	INT_SetInterruptHandler@InterruptHandler
  2913  0370  3007               	movlw	high _EXT_ISR
  2914  0371  00F3               	movwf	INT_SetInterruptHandler@InterruptHandler+1
  2915  0372  318F  27BE  3183   	fcall	_INT_SetInterruptHandler
  2916  0375                     l2576:
  2917                           
  2918                           ;main.c: 221:     PIE0bits.INTE = 1;
  2919  0375  014E               	movlb	14	; select bank14
  2920  0376  1416               	bsf	22,0	;volatile
  2921                           
  2922                           ;main.c: 224:     TMR0_Initialize();
  2923  0377  3187  272F  3183   	fcall	_TMR0_Initialize
  2924                           
  2925                           ;main.c: 225:     TMR0_SetInterruptHandler(TMR0_ISR_);
  2926  037A  30B4               	movlw	low _TMR0_ISR_
  2927  037B  00F2               	movwf	TMR0_SetInterruptHandler@InterruptHandler
  2928  037C  300F               	movlw	high _TMR0_ISR_
  2929  037D  00F3               	movwf	TMR0_SetInterruptHandler@InterruptHandler+1
  2930  037E  318F  27CA  3183   	fcall	_TMR0_SetInterruptHandler
  2931  0381                     l2578:
  2932                           
  2933                           ;main.c: 226:     T0CON0bits.T0EN = 0;
  2934  0381  014B               	movlb	11	; select bank11
  2935  0382  139E               	bcf	30,7	;volatile
  2936                           
  2937                           ;main.c: 229:     TMR1_Initialize();
  2938  0383  3186  26B6  3183   	fcall	_TMR1_Initialize
  2939                           
  2940                           ;main.c: 230:     TMR1_SetInterruptHandler(TMR1_ISR_);
  2941  0386  3088               	movlw	low _TMR1_ISR_
  2942  0387  00F2               	movwf	TMR1_SetInterruptHandler@InterruptHandler
  2943  0388  3000               	movlw	high _TMR1_ISR_
  2944  0389  00F3               	movwf	TMR1_SetInterruptHandler@InterruptHandler+1
  2945  038A  318F  27D0  3183   	fcall	_TMR1_SetInterruptHandler
  2946  038D                     l2580:
  2947                           
  2948                           ;main.c: 231:     T1CONbits.TMR1ON = 0;
  2949  038D  0144               	movlb	4	; select bank4
  2950  038E  100E               	bcf	14,0	;volatile
  2951                           
  2952                           ;main.c: 234:     TMR2_Initialize();
  2953  038F  3187  27CB  3183   	fcall	_TMR2_Initialize
  2954  0392                     l2582:
  2955                           
  2956                           ;main.c: 235:     T2CONbits.TMR2ON = 0;
  2957  0392  0145               	movlb	5	; select bank5
  2958  0393  138E               	bcf	14,7	;volatile
  2959                           
  2960                           ;main.c: 238:     PWM3_Initialize();
  2961  0394  318F  27D6  3183   	fcall	_PWM3_Initialize
  2962  0397                     l2584:
  2963  0397  0140               	movlb	0	; select bank0
  2964  0398  111A               	bcf	26,2	;volatile
  2965  0399                     l2586:
  2966  0399  121A               	bcf	26,4	;volatile
  2967  039A                     l2588:
  2968  039A  101A               	bcf	26,0	;volatile
  2969  039B                     l2590:
  2970                           
  2971                           ;main.c: 254:     {;main.c: 255:         T0CON0bits.T0EN = 1;
  2972  039B  014B               	movlb	11	; select bank11
  2973  039C  179E               	bsf	30,7	;volatile
  2974                           
  2975                           ;main.c: 256:         shiftBytes(0x02, 0x01);
  2976  039D  01F3               	clrf	shiftBytes@lowSide
  2977  039E  0AF3               	incf	shiftBytes@lowSide,f
  2978  039F  3002               	movlw	2
  2979  03A0  3187  27D9  3183   	fcall	_shiftBytes
  2980  03A3                     l2592:
  2981  03A3  0140               	movlb	0	; select bank0
  2982  03A4  111A               	bcf	26,2	;volatile
  2983  03A5                     l2594:
  2984  03A5  101A               	bcf	26,0	;volatile
  2985  03A6                     l2596:
  2986                           
  2987                           ;main.c: 259:         if (presses && TMR0_complete)
  2988  03A6  0878               	movf	_presses,w
  2989  03A7  1903               	btfsc	3,2
  2990  03A8  2BAA               	goto	u1451
  2991  03A9  2BAB               	goto	u1450
  2992  03AA                     u1451:
  2993  03AA  2C9F               	goto	l2652
  2994  03AB                     u1450:
  2995  03AB                     l2598:
  2996  03AB  0867               	movf	_TMR0_complete,w
  2997  03AC  1903               	btfsc	3,2
  2998  03AD  2BAF               	goto	u1461
  2999  03AE  2BB0               	goto	u1460
  3000  03AF                     u1461:
  3001  03AF  2C9F               	goto	l2652
  3002  03B0                     u1460:
  3003  03B0                     l2600:
  3004                           
  3005                           ;main.c: 260:         {;main.c: 261:             T0CON0bits.T0EN = 0;
  3006  03B0  014B               	movlb	11	; select bank11
  3007  03B1  139E               	bcf	30,7	;volatile
  3008                           
  3009                           ;main.c: 264:             switch (presses)
  3010  03B2  2C0D               	goto	l2628
  3011  03B3                     l2602:
  3012                           
  3013                           ;main.c: 267:                     light_array[0] = 0x88;
  3014  03B3  3088               	movlw	136
  3015  03B4  00B5               	movwf	??_main^(0+128)
  3016  03B5  0835               	movf	??_main^(0+128),w
  3017  03B6  00F9               	movwf	_light_array
  3018                           
  3019                           ;main.c: 268:                     light_array[1] = 0x44;
  3020  03B7  3044               	movlw	68
  3021  03B8  00B5               	movwf	??_main^(0+128)
  3022  03B9  0835               	movf	??_main^(0+128),w
  3023  03BA  00FA               	movwf	_light_array+1
  3024                           
  3025                           ;main.c: 269:                     light_array[2] = 0x22;
  3026  03BB  3022               	movlw	34
  3027  03BC  00B5               	movwf	??_main^(0+128)
  3028  03BD  0835               	movf	??_main^(0+128),w
  3029  03BE  00FB               	movwf	_light_array+2
  3030                           
  3031                           ;main.c: 270:                     light_array[3] = 0x11;
  3032  03BF  3011               	movlw	17
  3033  03C0  00B5               	movwf	??_main^(0+128)
  3034  03C1  0835               	movf	??_main^(0+128),w
  3035  03C2  00FC               	movwf	_light_array+3
  3036                           
  3037                           ;main.c: 271:                     light_array[4] = 0x88;
  3038  03C3  3088               	movlw	136
  3039  03C4  00B5               	movwf	??_main^(0+128)
  3040  03C5  0835               	movf	??_main^(0+128),w
  3041  03C6  00FD               	movwf	_light_array+4
  3042                           
  3043                           ;main.c: 272:                     light_array[5] = 0x44;
  3044  03C7  3044               	movlw	68
  3045  03C8  00B5               	movwf	??_main^(0+128)
  3046  03C9  0835               	movf	??_main^(0+128),w
  3047  03CA  00FE               	movwf	_light_array+5
  3048                           
  3049                           ;main.c: 273:                     light_array[6] = 0x22;
  3050  03CB  3022               	movlw	34
  3051  03CC  00B5               	movwf	??_main^(0+128)
  3052  03CD  0835               	movf	??_main^(0+128),w
  3053  03CE  00FF               	movwf	_light_array+6
  3054  03CF                     l2604:
  3055                           
  3056                           ;main.c: 274:                     silent_night_playing = 1;
  3057  03CF  0140               	movlb	0	; select bank0
  3058  03D0  01EA               	clrf	_silent_night_playing
  3059  03D1  0AEA               	incf	_silent_night_playing,f
  3060                           
  3061                           ;main.c: 275:                     break;
  3062  03D2  2C21               	goto	l531
  3063  03D3                     l2606:
  3064                           
  3065                           ;main.c: 277:                     light_array[0] = 0xFE;
  3066  03D3  30FE               	movlw	254
  3067  03D4  00B5               	movwf	??_main^(0+128)
  3068  03D5  0835               	movf	??_main^(0+128),w
  3069  03D6  00F9               	movwf	_light_array
  3070                           
  3071                           ;main.c: 278:                     light_array[1] = 0xFE;
  3072  03D7  30FE               	movlw	254
  3073  03D8  00B5               	movwf	??_main^(0+128)
  3074  03D9  0835               	movf	??_main^(0+128),w
  3075  03DA  00FA               	movwf	_light_array+1
  3076                           
  3077                           ;main.c: 279:                     light_array[2] = 0xFE;
  3078  03DB  30FE               	movlw	254
  3079  03DC  00B5               	movwf	??_main^(0+128)
  3080  03DD  0835               	movf	??_main^(0+128),w
  3081  03DE  00FB               	movwf	_light_array+2
  3082                           
  3083                           ;main.c: 280:                     light_array[3] = 0xFE;
  3084  03DF  30FE               	movlw	254
  3085  03E0  00B5               	movwf	??_main^(0+128)
  3086  03E1  0835               	movf	??_main^(0+128),w
  3087  03E2  00FC               	movwf	_light_array+3
  3088                           
  3089                           ;main.c: 281:                     light_array[4] = 0xFE;
  3090  03E3  30FE               	movlw	254
  3091  03E4  00B5               	movwf	??_main^(0+128)
  3092  03E5  0835               	movf	??_main^(0+128),w
  3093  03E6  00FD               	movwf	_light_array+4
  3094                           
  3095                           ;main.c: 282:                     light_array[5] = 0xFE;
  3096  03E7  30FE               	movlw	254
  3097  03E8  00B5               	movwf	??_main^(0+128)
  3098  03E9  0835               	movf	??_main^(0+128),w
  3099  03EA  00FE               	movwf	_light_array+5
  3100                           
  3101                           ;main.c: 283:                     light_array[6] = 0xFE;
  3102  03EB  30FE               	movlw	254
  3103  03EC  00B5               	movwf	??_main^(0+128)
  3104  03ED  0835               	movf	??_main^(0+128),w
  3105  03EE  00FF               	movwf	_light_array+6
  3106  03EF                     l2608:
  3107                           
  3108                           ;main.c: 284:                     song2_playing = 1;
  3109  03EF  0140               	movlb	0	; select bank0
  3110  03F0  01E8               	clrf	_song2_playing
  3111  03F1  0AE8               	incf	_song2_playing,f
  3112                           
  3113                           ;main.c: 285:                     break;
  3114  03F2  2C21               	goto	l531
  3115  03F3                     l2610:
  3116                           
  3117                           ;main.c: 287:                     light_array[0] = 0x00;
  3118  03F3  01F9               	clrf	_light_array
  3119  03F4                     l2612:
  3120                           
  3121                           ;main.c: 288:                     light_array[1] = 0xE8;
  3122  03F4  30E8               	movlw	232
  3123  03F5  00B5               	movwf	??_main^(0+128)
  3124  03F6  0835               	movf	??_main^(0+128),w
  3125  03F7  00FA               	movwf	_light_array+1
  3126  03F8                     l2614:
  3127                           
  3128                           ;main.c: 289:                     light_array[2] = 0xBE;
  3129  03F8  30BE               	movlw	190
  3130  03F9  00B5               	movwf	??_main^(0+128)
  3131  03FA  0835               	movf	??_main^(0+128),w
  3132  03FB  00FB               	movwf	_light_array+2
  3133  03FC                     l2616:
  3134                           
  3135                           ;main.c: 290:                     light_array[3] = 0xFE;
  3136  03FC  30FE               	movlw	254
  3137  03FD  00B5               	movwf	??_main^(0+128)
  3138  03FE  0835               	movf	??_main^(0+128),w
  3139  03FF  00FC               	movwf	_light_array+3
  3140  0400                     l2618:
  3141                           
  3142                           ;main.c: 291:                     light_array[4] = 0xBD;
  3143  0400  30BD               	movlw	189
  3144  0401  00B5               	movwf	??_main^(0+128)
  3145  0402  0835               	movf	??_main^(0+128),w
  3146  0403  00FD               	movwf	_light_array+4
  3147  0404                     l2620:
  3148                           
  3149                           ;main.c: 292:                     light_array[5] = 0xA0;
  3150  0404  30A0               	movlw	160
  3151  0405  00B5               	movwf	??_main^(0+128)
  3152  0406  0835               	movf	??_main^(0+128),w
  3153  0407  00FE               	movwf	_light_array+5
  3154  0408                     l2622:
  3155                           
  3156                           ;main.c: 293:                     light_array[6] = 0x00;
  3157  0408  01FF               	clrf	_light_array+6
  3158  0409                     l2624:
  3159                           
  3160                           ;main.c: 294:                     song3_playing = 1;
  3161  0409  0140               	movlb	0	; select bank0
  3162  040A  01E9               	clrf	_song3_playing
  3163  040B  0AE9               	incf	_song3_playing,f
  3164                           
  3165                           ;main.c: 295:                     break;
  3166  040C  2C21               	goto	l531
  3167  040D                     l2628:
  3168  040D  0878               	movf	_presses,w
  3169  040E  0141               	movlb	1	; select bank1
  3170  040F  00B5               	movwf	??_main^(0+128)
  3171  0410  01B6               	clrf	(??_main^(0+128)+1)
  3172                           
  3173                           ; Switch on 2 bytes has been partitioned into a top level switch of size 1, and 1 sub-sw
      +                          itches
  3174                           ; Switch size 1, requested type "simple"
  3175                           ; Number of cases is 1, Range of values is 0 to 0
  3176                           ; switch strategies available:
  3177                           ; Name         Instructions Cycles
  3178                           ; simple_byte            4     3 (average)
  3179                           ; direct_byte            8     6 (fixed)
  3180                           ; jumptable            260     6 (fixed)
  3181                           ;	Chosen strategy is simple_byte
  3182  0411  0836               	movf	(??_main+1)^(0+128),w
  3183  0412  3A00               	xorlw	0	; case 0
  3184  0413  1903               	skipnz
  3185  0414  2C16               	goto	l2728
  3186  0415  2C21               	goto	l531
  3187  0416                     l2728:
  3188                           
  3189                           ; Switch size 1, requested type "simple"
  3190                           ; Number of cases is 3, Range of values is 1 to 3
  3191                           ; switch strategies available:
  3192                           ; Name         Instructions Cycles
  3193                           ; simple_byte           10     6 (average)
  3194                           ; direct_byte           15     9 (fixed)
  3195                           ; jumptable            263     9 (fixed)
  3196                           ;	Chosen strategy is simple_byte
  3197  0416  0835               	movf	??_main^(0+128),w
  3198  0417  3A01               	xorlw	1	; case 1
  3199  0418  1903               	skipnz
  3200  0419  2BB3               	goto	l2602
  3201  041A  3A03               	xorlw	3	; case 2
  3202  041B  1903               	skipnz
  3203  041C  2BD3               	goto	l2606
  3204  041D  3A01               	xorlw	1	; case 3
  3205  041E  1903               	skipnz
  3206  041F  2BF3               	goto	l2610
  3207  0420  2C21               	goto	l531
  3208  0421                     l531:
  3209                           
  3210                           ;main.c: 297:             T1CONbits.TMR1ON = 1;
  3211  0421  0144               	movlb	4	; select bank4
  3212  0422  140E               	bsf	14,0	;volatile
  3213                           
  3214                           ;main.c: 298:             T2CONbits.TMR2ON = 1;
  3215  0423  0145               	movlb	5	; select bank5
  3216  0424  178E               	bsf	14,7	;volatile
  3217                           
  3218                           ;main.c: 301:             while (presses == 1)
  3219  0425  2C4F               	goto	l2632
  3220  0426                     l2630:
  3221                           
  3222                           ;main.c: 302:             {;main.c: 303:                 playNote(silent_night[count], s
      +                          ilent_night_pre[count]);
  3223  0426  30DC               	movlw	220
  3224  0427  0141               	movlb	1	; select bank1
  3225  0428  00B5               	movwf	??_main^(0+128)
  3226  0429  3022               	movlw	34
  3227  042A  00B6               	movwf	(??_main^(0+128)+1)
  3228  042B  0140               	movlb	0	; select bank0
  3229  042C  0862               	movf	_count,w
  3230  042D  0141               	movlb	1	; select bank1
  3231  042E  0735               	addwf	??_main^(0+128),w
  3232  042F  0086               	movwf	6
  3233  0430  0140               	movlb	0	; select bank0
  3234  0431  0863               	movf	_count+1,w
  3235  0432  0141               	movlb	1	; select bank1
  3236  0433  3D36               	addwfc	(??_main+1)^(0+128),w
  3237  0434  0087               	movwf	7
  3238  0435  0801               	movf	1,w
  3239  0436  00B7               	movwf	(??_main+2)^(0+128)
  3240  0437  0837               	movf	(??_main+2)^(0+128),w
  3241  0438  00F2               	movwf	playNote@prescale
  3242  0439  3066               	movlw	102
  3243  043A  00B8               	movwf	(??_main+3)^(0+128)
  3244  043B  3023               	movlw	35
  3245  043C  00B9               	movwf	((??_main+3)^(0+128)+1)
  3246  043D  0140               	movlb	0	; select bank0
  3247  043E  0862               	movf	_count,w
  3248  043F  0141               	movlb	1	; select bank1
  3249  0440  0738               	addwf	(??_main+3)^(0+128),w
  3250  0441  0086               	movwf	6
  3251  0442  0140               	movlb	0	; select bank0
  3252  0443  0863               	movf	_count+1,w
  3253  0444  0141               	movlb	1	; select bank1
  3254  0445  3D39               	addwfc	(??_main+4)^(0+128),w
  3255  0446  0087               	movwf	7
  3256  0447  0801               	movf	1,w
  3257  0448  3186  26D6  3183   	fcall	_playNote
  3258                           
  3259                           ;main.c: 304:                 displayMatrix(light_array);
  3260  044B  3079               	movlw	(low (_light_array| 0))& (0+255)
  3261  044C  3186  2652  3183   	fcall	_displayMatrix
  3262  044F                     l2632:
  3263                           
  3264                           ;main.c: 301:             while (presses == 1)
  3265  044F  0378               	decf	_presses,w
  3266  0450  1903               	btfsc	3,2
  3267  0451  2C53               	goto	u1471
  3268  0452  2C54               	goto	u1470
  3269  0453                     u1471:
  3270  0453  2C26               	goto	l2630
  3271  0454                     u1470:
  3272  0454  2C6C               	goto	l2636
  3273  0455                     l2634:
  3274                           
  3275                           ;main.c: 308:             {;main.c: 309:                 playNote(song2[count], song2_pr
      +                          e[count]);
  3276  0455  0140               	movlb	0	; select bank0
  3277  0456  0862               	movf	_count,w
  3278  0457  3E20               	addlw	(low (_song2_pre| 0))& (0+255)
  3279  0458  0086               	movwf	6
  3280  0459  0187               	clrf	7
  3281  045A  0801               	movf	1,w
  3282  045B  0141               	movlb	1	; select bank1
  3283  045C  00B5               	movwf	??_main^(0+128)
  3284  045D  0835               	movf	??_main^(0+128),w
  3285  045E  00F2               	movwf	playNote@prescale
  3286  045F  0140               	movlb	0	; select bank0
  3287  0460  0862               	movf	_count,w
  3288  0461  3EA0               	addlw	(low (_song2| 0))& (0+255)
  3289  0462  0086               	movwf	6
  3290  0463  0187               	clrf	7
  3291  0464  0801               	movf	1,w
  3292  0465  3186  26D6  3183   	fcall	_playNote
  3293                           
  3294                           ;main.c: 310:                 displayMatrix(light_array);
  3295  0468  3079               	movlw	(low (_light_array| 0))& (0+255)
  3296  0469  3186  2652  3183   	fcall	_displayMatrix
  3297  046C                     l2636:
  3298                           
  3299                           ;main.c: 307:             while (presses == 2)
  3300  046C  3002               	movlw	2
  3301  046D  0678               	xorwf	_presses,w
  3302  046E  1903               	btfsc	3,2
  3303  046F  2C71               	goto	u1481
  3304  0470  2C72               	goto	u1480
  3305  0471                     u1481:
  3306  0471  2C55               	goto	l2634
  3307  0472                     u1480:
  3308  0472  2C90               	goto	l2644
  3309  0473                     l2638:
  3310                           
  3311                           ;main.c: 314:             {;main.c: 315:                 uint8_t pre;;main.c: 316:      
      +                                     pre = song3_pre[count];
  3312  0473  0140               	movlb	0	; select bank0
  3313  0474  0862               	movf	_count,w
  3314  0475  3EA0               	addlw	(low (_song3_pre| (0+256)))& (0+255)
  3315  0476  0086               	movwf	6
  3316  0477  3001               	movlw	1	; select bank3/4
  3317  0478  0087               	movwf	7
  3318  0479  0801               	movf	1,w
  3319  047A  0141               	movlb	1	; select bank1
  3320  047B  00B5               	movwf	??_main^(0+128)
  3321  047C  0835               	movf	??_main^(0+128),w
  3322  047D  00F7               	movwf	main@pre
  3323  047E                     l2640:
  3324                           
  3325                           ;main.c: 320:                 playNote(song3[count], pre);
  3326  047E  0877               	movf	main@pre,w
  3327  047F  00B5               	movwf	??_main^(0+128)
  3328  0480  0835               	movf	??_main^(0+128),w
  3329  0481  00F2               	movwf	playNote@prescale
  3330  0482  0140               	movlb	0	; select bank0
  3331  0483  0862               	movf	_count,w
  3332  0484  3E20               	addlw	(low (_song3| (0+256)))& (0+255)
  3333  0485  0086               	movwf	6
  3334  0486  3001               	movlw	1	; select bank2/3
  3335  0487  0087               	movwf	7
  3336  0488  0801               	movf	1,w
  3337  0489  3186  26D6  3183   	fcall	_playNote
  3338  048C                     l2642:
  3339                           
  3340                           ;main.c: 321:                 displayMatrix(light_array);
  3341  048C  3079               	movlw	(low (_light_array| 0))& (0+255)
  3342  048D  3186  2652  3183   	fcall	_displayMatrix
  3343  0490                     l2644:
  3344                           
  3345                           ;main.c: 313:             while (presses == 3)
  3346  0490  3003               	movlw	3
  3347  0491  0678               	xorwf	_presses,w
  3348  0492  1903               	btfsc	3,2
  3349  0493  2C95               	goto	u1491
  3350  0494  2C96               	goto	u1490
  3351  0495                     u1491:
  3352  0495  2C73               	goto	l2638
  3353  0496                     u1490:
  3354  0496                     l2646:
  3355                           
  3356                           ;main.c: 323:             presses = 0;
  3357  0496  01F8               	clrf	_presses
  3358                           
  3359                           ;main.c: 324:             silent_night_playing = 0;
  3360  0497  0140               	movlb	0	; select bank0
  3361  0498  01EA               	clrf	_silent_night_playing
  3362                           
  3363                           ;main.c: 325:             song2_playing = 0;
  3364  0499  01E8               	clrf	_song2_playing
  3365                           
  3366                           ;main.c: 326:             song3_playing = 0;
  3367  049A  01E9               	clrf	_song3_playing
  3368  049B                     l2648:
  3369                           
  3370                           ;main.c: 327:             T1CONbits.TMR1ON = 0;
  3371  049B  0144               	movlb	4	; select bank4
  3372  049C  100E               	bcf	14,0	;volatile
  3373  049D                     l2650:
  3374                           
  3375                           ;main.c: 328:             T2CONbits.TMR2ON = 0;
  3376  049D  0145               	movlb	5	; select bank5
  3377  049E  138E               	bcf	14,7	;volatile
  3378  049F                     l2652:
  3379                           
  3380                           ;main.c: 331:         if (TMR0_complete && (!presses))
  3381  049F  0140               	movlb	0	; select bank0
  3382  04A0  0867               	movf	_TMR0_complete,w
  3383  04A1  1903               	btfsc	3,2
  3384  04A2  2CA4               	goto	u1501
  3385  04A3  2CA5               	goto	u1500
  3386  04A4                     u1501:
  3387  04A4  2B9B               	goto	l2590
  3388  04A5                     u1500:
  3389  04A5                     l2654:
  3390  04A5  0878               	movf	_presses,w
  3391  04A6  1D03               	btfss	3,2
  3392  04A7  2CA9               	goto	u1511
  3393  04A8  2CAA               	goto	u1510
  3394  04A9                     u1511:
  3395  04A9  2B9B               	goto	l2590
  3396  04AA                     u1510:
  3397  04AA                     l2656:
  3398                           
  3399                           ;main.c: 332:         {;main.c: 333:             T0CON0bits.T0EN = 0;
  3400  04AA  014B               	movlb	11	; select bank11
  3401  04AB  139E               	bcf	30,7	;volatile
  3402                           
  3403                           ;main.c: 334:             T1CONbits.TMR1ON = 0;
  3404  04AC  0144               	movlb	4	; select bank4
  3405  04AD  100E               	bcf	14,0	;volatile
  3406                           
  3407                           ;main.c: 335:             T2CONbits.TMR2ON = 0;
  3408  04AE  0145               	movlb	5	; select bank5
  3409  04AF  138E               	bcf	14,7	;volatile
  3410                           
  3411                           ;main.c: 336:             PIR0bits.INTF = 0;
  3412  04B0  014E               	movlb	14	; select bank14
  3413  04B1  100C               	bcf	12,0	;volatile
  3414                           
  3415                           ;main.c: 337:             PIE0bits.INTE = 1;
  3416  04B2  1416               	bsf	22,0	;volatile
  3417  04B3                     l544:	
  3418                           ;main.c: 338:             do { LATCbits.LATC2 = 1; } while(0);
  3419                           
  3420  04B3  0140               	movlb	0	; select bank0
  3421  04B4  151A               	bsf	26,2	;volatile
  3422  04B5                     l546:	
  3423                           ;main.c: 339:             do { LATCbits.LATC0 = 1; } while(0);
  3424                           
  3425  04B5  141A               	bsf	26,0	;volatile
  3426  04B6                     l547:
  3427  04B6  0063               	sleep	;# 
  3428  04B7  2B9B               	goto	l2590
  3429  04B8  3180  2831         	ljmp	start
  3430  04BA                     __end_of_main:
  3431                           
  3432                           	psect	text1
  3433  06D6                     __ptext1:	
  3434 ;; *************** function _playNote *****************
  3435 ;; Defined at:
  3436 ;;		line 552 in file "main.c"
  3437 ;; Parameters:    Size  Location     Type
  3438 ;;  note            1    wreg     unsigned char 
  3439 ;;  prescale        1    2[COMMON] unsigned char 
  3440 ;; Auto vars:     Size  Location     Type
  3441 ;;  note            1    4[COMMON] unsigned char 
  3442 ;; Return value:  Size  Location     Type
  3443 ;;                  1    wreg      void 
  3444 ;; Registers used:
  3445 ;;		wreg
  3446 ;; Tracked objects:
  3447 ;;		On entry : 0/0
  3448 ;;		On exit  : 0/0
  3449 ;;		Unchanged: 0/0
  3450 ;; Data sizes:     COMMON   BANK0   BANK1   BANK2   BANK3   BANK4   BANK5   BANK6   BANK7   BANK8   BANK9  BANK10  BANK1
      +1  BANK12
  3451 ;;      Params:         1       0       0       0       0       0       0       0       0       0       0       0       
      +0       0
  3452 ;;      Locals:         1       0       0       0       0       0       0       0       0       0       0       0       
      +0       0
  3453 ;;      Temps:          1       0       0       0       0       0       0       0       0       0       0       0       
      +0       0
  3454 ;;      Totals:         3       0       0       0       0       0       0       0       0       0       0       0       
      +0       0
  3455 ;;Total ram usage:        3 bytes
  3456 ;; Hardware stack levels used: 1
  3457 ;; Hardware stack levels required when called: 5
  3458 ;; This function calls:
  3459 ;;		Nothing
  3460 ;; This function is called by:
  3461 ;;		_main
  3462 ;; This function uses a non-reentrant model
  3463 ;;
  3464                           
  3465                           
  3466                           ;psect for function _playNote
  3467  06D6                     _playNote:
  3468                           
  3469                           ;incstack = 0
  3470                           ; Regs used in _playNote: [wreg]
  3471                           ;playNote@note stored from wreg
  3472  06D6  00F4               	movwf	playNote@note
  3473  06D7                     l2284:
  3474                           
  3475                           ;main.c: 552: void playNote(uint8_t note, uint8_t prescale);main.c: 553: {;main.c: 555: 
      +                              if (note != last_note)
  3476  06D7  0874               	movf	playNote@note,w
  3477  06D8  0140               	movlb	0	; select bank0
  3478  06D9  0666               	xorwf	_last_note,w
  3479  06DA  1903               	skipnz
  3480  06DB  2EDD               	goto	u1201
  3481  06DC  2EDE               	goto	u1200
  3482  06DD                     u1201:
  3483  06DD  2EE1               	goto	l621
  3484  06DE                     u1200:
  3485  06DE                     l2286:
  3486                           
  3487                           ;main.c: 556:     {;main.c: 557:         T2PR = note;
  3488  06DE  0874               	movf	playNote@note,w
  3489  06DF  0145               	movlb	5	; select bank5
  3490  06E0  008D               	movwf	13	;volatile
  3491  06E1                     l621:	
  3492                           ;main.c: 558:     }
  3493                           
  3494                           
  3495                           ;main.c: 560:     if (prescale != last_prescale)
  3496  06E1  0872               	movf	playNote@prescale,w
  3497  06E2  0140               	movlb	0	; select bank0
  3498  06E3  0665               	xorwf	_last_prescale,w
  3499  06E4  1903               	skipnz
  3500  06E5  2EE7               	goto	u1211
  3501  06E6  2EE8               	goto	u1210
  3502  06E7                     u1211:
  3503  06E7  2EEB               	goto	l622
  3504  06E8                     u1210:
  3505  06E8                     l2288:
  3506                           
  3507                           ;main.c: 561:     {;main.c: 562:         T2CON = prescale;
  3508  06E8  0872               	movf	playNote@prescale,w
  3509  06E9  0145               	movlb	5	; select bank5
  3510  06EA  008E               	movwf	14	;volatile
  3511  06EB                     l622:	
  3512                           ;main.c: 563:     }
  3513                           
  3514                           
  3515                           ;main.c: 564:     last_note = note;
  3516  06EB  0874               	movf	playNote@note,w
  3517  06EC  00F3               	movwf	??_playNote
  3518  06ED  0873               	movf	??_playNote,w
  3519  06EE  0140               	movlb	0	; select bank0
  3520  06EF  00E6               	movwf	_last_note
  3521                           
  3522                           ;main.c: 565:     last_prescale = prescale;
  3523  06F0  0872               	movf	playNote@prescale,w
  3524  06F1  00F3               	movwf	??_playNote
  3525  06F2  0873               	movf	??_playNote,w
  3526  06F3  00E5               	movwf	_last_prescale
  3527  06F4                     l623:
  3528  06F4  0008               	return
  3529  06F5                     __end_of_playNote:
  3530                           
  3531                           	psect	text2
  3532  0652                     __ptext2:	
  3533 ;; *************** function _displayMatrix *****************
  3534 ;; Defined at:
  3535 ;;		line 590 in file "main.c"
  3536 ;; Parameters:    Size  Location     Type
  3537 ;;  states          1    wreg     PTR unsigned char 
  3538 ;;		 -> light_array(1), 
  3539 ;; Auto vars:     Size  Location     Type
  3540 ;;  states          1    0[BANK1 ] PTR unsigned char 
  3541 ;;		 -> light_array(1), 
  3542 ;;  i               2    1[BANK1 ] int 
  3543 ;;  lowSide         1    3[BANK1 ] unsigned char 
  3544 ;; Return value:  Size  Location     Type
  3545 ;;                  1    wreg      void 
  3546 ;; Registers used:
  3547 ;;		wreg, fsr1l, fsr1h, status,2, status,0, pclath, cstack
  3548 ;; Tracked objects:
  3549 ;;		On entry : 0/0
  3550 ;;		On exit  : 0/0
  3551 ;;		Unchanged: 0/0
  3552 ;; Data sizes:     COMMON   BANK0   BANK1   BANK2   BANK3   BANK4   BANK5   BANK6   BANK7   BANK8   BANK9  BANK10  BANK1
      +1  BANK12
  3553 ;;      Params:         0       0       0       0       0       0       0       0       0       0       0       0       
      +0       0
  3554 ;;      Locals:         0       0       4       0       0       0       0       0       0       0       0       0       
      +0       0
  3555 ;;      Temps:          2       0       0       0       0       0       0       0       0       0       0       0       
      +0       0
  3556 ;;      Totals:         2       0       4       0       0       0       0       0       0       0       0       0       
      +0       0
  3557 ;;Total ram usage:        6 bytes
  3558 ;; Hardware stack levels used: 1
  3559 ;; Hardware stack levels required when called: 7
  3560 ;; This function calls:
  3561 ;;		_shiftBytes
  3562 ;; This function is called by:
  3563 ;;		_main
  3564 ;; This function uses a non-reentrant model
  3565 ;;
  3566                           
  3567                           
  3568                           ;psect for function _displayMatrix
  3569  0652                     _displayMatrix:
  3570                           
  3571                           ;incstack = 0
  3572                           ; Regs used in _displayMatrix: [wreg+fsr1l+fsr1h+status,2+status,0+pclath+cstack]
  3573                           ;displayMatrix@states stored from wreg
  3574  0652  0141               	movlb	1	; select bank1
  3575  0653  00B1               	movwf	displayMatrix@states^(0+128)
  3576  0654                     l2524:
  3577                           
  3578                           ;main.c: 590: void displayMatrix(uint8_t states[8]);main.c: 591: {;main.c: 594:     uint
      +                          8_t lowSide = 0x00;
  3579  0654  01B4               	clrf	displayMatrix@lowSide^(0+128)
  3580                           
  3581                           ;main.c: 595:     for (int i = 0; i < 7; i++)
  3582  0655  01B2               	clrf	displayMatrix@i^(0+128)
  3583  0656  01B3               	clrf	(displayMatrix@i+1)^(0+128)
  3584  0657                     l2530:
  3585                           
  3586                           ;main.c: 596:     {;main.c: 597:         if (!lowSide)
  3587  0657  0141               	movlb	1	; select bank1
  3588  0658  0834               	movf	displayMatrix@lowSide^(0+128),w
  3589  0659  1D03               	btfss	3,2
  3590  065A  2E5C               	goto	u1411
  3591  065B  2E5D               	goto	u1410
  3592  065C                     u1411:
  3593  065C  2E62               	goto	l2534
  3594  065D                     u1410:
  3595  065D                     l2532:
  3596                           
  3597                           ;main.c: 598:         {;main.c: 599:             lowSide++;
  3598  065D  3001               	movlw	1
  3599  065E  00F5               	movwf	??_displayMatrix
  3600  065F  0875               	movf	??_displayMatrix,w
  3601  0660  07B4               	addwf	displayMatrix@lowSide^(0+128),f
  3602                           
  3603                           ;main.c: 600:         }
  3604  0661  2E66               	goto	l2536
  3605  0662                     l2534:
  3606                           
  3607                           ;main.c: 602:         {;main.c: 603:             lowSide = lowSide << 1;
  3608  0662  3534               	lslf	displayMatrix@lowSide^(0+128),w
  3609  0663  00F5               	movwf	??_displayMatrix
  3610  0664  0875               	movf	??_displayMatrix,w
  3611  0665  00B4               	movwf	displayMatrix@lowSide^(0+128)
  3612  0666                     l2536:
  3613                           
  3614                           ;main.c: 606:         shiftBytes(states[i], lowSide);
  3615  0666  0834               	movf	displayMatrix@lowSide^(0+128),w
  3616  0667  00F5               	movwf	??_displayMatrix
  3617  0668  0875               	movf	??_displayMatrix,w
  3618  0669  00F3               	movwf	shiftBytes@lowSide
  3619  066A  0832               	movf	displayMatrix@i^(0+128),w
  3620  066B  0731               	addwf	displayMatrix@states^(0+128),w
  3621  066C  00F6               	movwf	??_displayMatrix+1
  3622  066D  0876               	movf	??_displayMatrix+1,w
  3623  066E  0086               	movwf	6
  3624  066F  0187               	clrf	7
  3625  0670  0801               	movf	1,w
  3626  0671  3187  27D9  3186   	fcall	_shiftBytes
  3627  0674                     l2538:
  3628                           
  3629                           ;main.c: 607:         _delay((unsigned long)((1)*(8000000/4000.0)));
  3630  0674  3003               	movlw	3
  3631  0675  00F5               	movwf	??_displayMatrix
  3632  0676  3098               	movlw	152
  3633  0677                     u1527:
  3634  0677  0B89               	decfsz	9,f
  3635  0678  2E77               	goto	u1527
  3636  0679  0BF5               	decfsz	??_displayMatrix,f
  3637  067A  2E77               	goto	u1527
  3638  067B                     l2540:
  3639                           
  3640                           ;main.c: 608:     }
  3641  067B  3001               	movlw	1
  3642  067C  0141               	movlb	1	; select bank1
  3643  067D  07B2               	addwf	displayMatrix@i^(0+128),f
  3644  067E  3000               	movlw	0
  3645  067F  3DB3               	addwfc	(displayMatrix@i+1)^(0+128),f
  3646  0680                     l2542:
  3647  0680  0833               	movf	(displayMatrix@i+1)^(0+128),w
  3648  0681  3A80               	xorlw	128
  3649  0682  00F5               	movwf	??_displayMatrix
  3650  0683  3080               	movlw	128
  3651  0684  0275               	subwf	??_displayMatrix,w
  3652  0685  1D03               	skipz
  3653  0686  2E89               	goto	u1425
  3654  0687  3007               	movlw	7
  3655  0688  0232               	subwf	displayMatrix@i^(0+128),w
  3656  0689                     u1425:
  3657  0689  1C03               	skipc
  3658  068A  2E8C               	goto	u1421
  3659  068B  2E8D               	goto	u1420
  3660  068C                     u1421:
  3661  068C  2E57               	goto	l2530
  3662  068D                     u1420:
  3663  068D                     l644:
  3664  068D  0008               	return
  3665  068E                     __end_of_displayMatrix:
  3666                           
  3667                           	psect	text3
  3668  07D9                     __ptext3:	
  3669 ;; *************** function _shiftBytes *****************
  3670 ;; Defined at:
  3671 ;;		line 578 in file "main.c"
  3672 ;; Parameters:    Size  Location     Type
  3673 ;;  highSide        1    wreg     unsigned char 
  3674 ;;  lowSide         1    3[COMMON] unsigned char 
  3675 ;; Auto vars:     Size  Location     Type
  3676 ;;  highSide        1    4[COMMON] unsigned char 
  3677 ;; Return value:  Size  Location     Type
  3678 ;;                  1    wreg      void 
  3679 ;; Registers used:
  3680 ;;		wreg, status,2, status,0, pclath, cstack
  3681 ;; Tracked objects:
  3682 ;;		On entry : 0/0
  3683 ;;		On exit  : 0/0
  3684 ;;		Unchanged: 0/0
  3685 ;; Data sizes:     COMMON   BANK0   BANK1   BANK2   BANK3   BANK4   BANK5   BANK6   BANK7   BANK8   BANK9  BANK10  BANK1
      +1  BANK12
  3686 ;;      Params:         1       0       0       0       0       0       0       0       0       0       0       0       
      +0       0
  3687 ;;      Locals:         1       0       0       0       0       0       0       0       0       0       0       0       
      +0       0
  3688 ;;      Temps:          0       0       0       0       0       0       0       0       0       0       0       0       
      +0       0
  3689 ;;      Totals:         2       0       0       0       0       0       0       0       0       0       0       0       
      +0       0
  3690 ;;Total ram usage:        2 bytes
  3691 ;; Hardware stack levels used: 1
  3692 ;; Hardware stack levels required when called: 6
  3693 ;; This function calls:
  3694 ;;		_SPI1_ExchangeByte
  3695 ;; This function is called by:
  3696 ;;		_main
  3697 ;;		_displayMatrix
  3698 ;;		_Initialize_Matrix
  3699 ;; This function uses a non-reentrant model
  3700 ;;
  3701                           
  3702                           
  3703                           ;psect for function _shiftBytes
  3704  07D9                     _shiftBytes:
  3705                           
  3706                           ;incstack = 0
  3707                           ; Regs used in _shiftBytes: [wreg+status,2+status,0+pclath+cstack]
  3708                           ;shiftBytes@highSide stored from wreg
  3709  07D9  00F4               	movwf	shiftBytes@highSide
  3710  07DA                     l2518:
  3711                           
  3712                           ;main.c: 578: void shiftBytes(uint8_t highSide, uint8_t lowSide);main.c: 579: {;main.c: 
      +                          581:     SPI1_ExchangeByte(lowSide);
  3713  07DA  0873               	movf	shiftBytes@lowSide,w
  3714  07DB  3187  27E6  3187   	fcall	_SPI1_ExchangeByte
  3715                           
  3716                           ;main.c: 582:     SPI1_ExchangeByte(highSide);
  3717  07DE  0874               	movf	shiftBytes@highSide,w
  3718  07DF  3187  27E6  3187   	fcall	_SPI1_ExchangeByte
  3719  07E2                     l2520:
  3720  07E2  0140               	movlb	0	; select bank0
  3721  07E3  161A               	bsf	26,4	;volatile
  3722  07E4                     l2522:
  3723  07E4  121A               	bcf	26,4	;volatile
  3724  07E5                     l637:
  3725  07E5  0008               	return
  3726  07E6                     __end_of_shiftBytes:
  3727                           
  3728                           	psect	text4
  3729  07E6                     __ptext4:	
  3730 ;; *************** function _SPI1_ExchangeByte *****************
  3731 ;; Defined at:
  3732 ;;		line 97 in file "mcc_generated_files/spi1.c"
  3733 ;; Parameters:    Size  Location     Type
  3734 ;;  data            1    wreg     unsigned char 
  3735 ;; Auto vars:     Size  Location     Type
  3736 ;;  data            1    2[COMMON] unsigned char 
  3737 ;; Return value:  Size  Location     Type
  3738 ;;                  1    wreg      unsigned char 
  3739 ;; Registers used:
  3740 ;;		wreg
  3741 ;; Tracked objects:
  3742 ;;		On entry : 0/0
  3743 ;;		On exit  : 0/0
  3744 ;;		Unchanged: 0/0
  3745 ;; Data sizes:     COMMON   BANK0   BANK1   BANK2   BANK3   BANK4   BANK5   BANK6   BANK7   BANK8   BANK9  BANK10  BANK1
      +1  BANK12
  3746 ;;      Params:         0       0       0       0       0       0       0       0       0       0       0       0       
      +0       0
  3747 ;;      Locals:         1       0       0       0       0       0       0       0       0       0       0       0       
      +0       0
  3748 ;;      Temps:          0       0       0       0       0       0       0       0       0       0       0       0       
      +0       0
  3749 ;;      Totals:         1       0       0       0       0       0       0       0       0       0       0       0       
      +0       0
  3750 ;;Total ram usage:        1 bytes
  3751 ;; Hardware stack levels used: 1
  3752 ;; Hardware stack levels required when called: 5
  3753 ;; This function calls:
  3754 ;;		Nothing
  3755 ;; This function is called by:
  3756 ;;		_shiftBytes
  3757 ;;		_SPI1_WriteBlock
  3758 ;;		_SPI1_ReadBlock
  3759 ;; This function uses a non-reentrant model
  3760 ;;
  3761                           
  3762                           
  3763                           ;psect for function _SPI1_ExchangeByte
  3764  07E6                     _SPI1_ExchangeByte:
  3765                           
  3766                           ;incstack = 0
  3767                           ; Regs used in _SPI1_ExchangeByte: [wreg]
  3768                           ;SPI1_ExchangeByte@data stored from wreg
  3769  07E6  00F2               	movwf	SPI1_ExchangeByte@data
  3770  07E7                     l2512:
  3771                           
  3772                           ;mcc_generated_files/spi1.c: 97: uint8_t SPI1_ExchangeByte(uint8_t data);mcc_generated_f
      +                          iles/spi1.c: 98: {;mcc_generated_files/spi1.c: 99:     SSP1BUF = data;
  3773  07E7  0872               	movf	SPI1_ExchangeByte@data,w
  3774  07E8  0143               	movlb	3	; select bank3
  3775  07E9  008C               	movwf	12	;volatile
  3776  07EA                     l74:	
  3777                           ;mcc_generated_files/spi1.c: 100:     while(!PIR1bits.SSP1IF);
  3778                           
  3779  07EA  014E               	movlb	14	; select bank14
  3780  07EB  1C8D               	btfss	13,1	;volatile
  3781  07EC  2FEE               	goto	u1401
  3782  07ED  2FEF               	goto	u1400
  3783  07EE                     u1401:
  3784  07EE  2FEA               	goto	l74
  3785  07EF                     u1400:
  3786  07EF                     l76:
  3787                           
  3788                           ;mcc_generated_files/spi1.c: 101:     PIR1bits.SSP1IF = 0;
  3789  07EF  108D               	bcf	13,1	;volatile
  3790  07F0                     l2514:
  3791                           
  3792                           ;mcc_generated_files/spi1.c: 102:     return SSP1BUF;
  3793  07F0  0143               	movlb	3	; select bank3
  3794  07F1  080C               	movf	12,w	;volatile
  3795  07F2                     l77:
  3796  07F2  0008               	return
  3797  07F3                     __end_of_SPI1_ExchangeByte:
  3798                           
  3799                           	psect	text5
  3800  0713                     __ptext5:	
  3801 ;; *************** function _SYSTEM_Initialize *****************
  3802 ;; Defined at:
  3803 ;;		line 50 in file "mcc_generated_files/mcc.c"
  3804 ;; Parameters:    Size  Location     Type
  3805 ;;		None
  3806 ;; Auto vars:     Size  Location     Type
  3807 ;;		None
  3808 ;; Return value:  Size  Location     Type
  3809 ;;                  1    wreg      void 
  3810 ;; Registers used:
  3811 ;;		wreg, status,2, status,0, pclath, cstack
  3812 ;; Tracked objects:
  3813 ;;		On entry : 0/0
  3814 ;;		On exit  : 0/0
  3815 ;;		Unchanged: 0/0
  3816 ;; Data sizes:     COMMON   BANK0   BANK1   BANK2   BANK3   BANK4   BANK5   BANK6   BANK7   BANK8   BANK9  BANK10  BANK1
      +1  BANK12
  3817 ;;      Params:         0       0       0       0       0       0       0       0       0       0       0       0       
      +0       0
  3818 ;;      Locals:         0       0       0       0       0       0       0       0       0       0       0       0       
      +0       0
  3819 ;;      Temps:          0       0       0       0       0       0       0       0       0       0       0       0       
      +0       0
  3820 ;;      Totals:         0       0       0       0       0       0       0       0       0       0       0       0       
      +0       0
  3821 ;;Total ram usage:        0 bytes
  3822 ;; Hardware stack levels used: 1
  3823 ;; Hardware stack levels required when called: 7
  3824 ;; This function calls:
  3825 ;;		_EXT_INT_Initialize
  3826 ;;		_OSCILLATOR_Initialize
  3827 ;;		_PIN_MANAGER_Initialize
  3828 ;;		_PWM3_Initialize
  3829 ;;		_SPI1_Initialize
  3830 ;;		_TMR0_Initialize
  3831 ;;		_TMR1_Initialize
  3832 ;;		_TMR2_Initialize
  3833 ;;		_WDT_Initialize
  3834 ;; This function is called by:
  3835 ;;		_main
  3836 ;; This function uses a non-reentrant model
  3837 ;;
  3838                           
  3839                           
  3840                           ;psect for function _SYSTEM_Initialize
  3841  0713                     _SYSTEM_Initialize:
  3842  0713                     l2248:	
  3843                           ;incstack = 0
  3844                           ; Regs used in _SYSTEM_Initialize: [wreg+status,2+status,0+pclath+cstack]
  3845                           
  3846                           
  3847                           ;mcc_generated_files/mcc.c: 53:     SPI1_Initialize();
  3848  0713  3187  2794  3187   	fcall	_SPI1_Initialize
  3849                           
  3850                           ;mcc_generated_files/mcc.c: 54:     PIN_MANAGER_Initialize();
  3851  0716  3186  268E  3187   	fcall	_PIN_MANAGER_Initialize
  3852                           
  3853                           ;mcc_generated_files/mcc.c: 55:     OSCILLATOR_Initialize();
  3854  0719  318F  27C4  3187   	fcall	_OSCILLATOR_Initialize
  3855  071C                     l2250:
  3856                           
  3857                           ;mcc_generated_files/mcc.c: 56:     WDT_Initialize();
  3858  071C  318F  27B1  3187   	fcall	_WDT_Initialize
  3859  071F                     l2252:
  3860                           
  3861                           ;mcc_generated_files/mcc.c: 57:     PWM3_Initialize();
  3862  071F  318F  27D6  3187   	fcall	_PWM3_Initialize
  3863  0722                     l2254:
  3864                           
  3865                           ;mcc_generated_files/mcc.c: 58:     TMR2_Initialize();
  3866  0722  3187  27CB  3187   	fcall	_TMR2_Initialize
  3867  0725                     l2256:
  3868                           
  3869                           ;mcc_generated_files/mcc.c: 59:     TMR1_Initialize();
  3870  0725  3186  26B6  3187   	fcall	_TMR1_Initialize
  3871  0728                     l2258:
  3872                           
  3873                           ;mcc_generated_files/mcc.c: 60:     EXT_INT_Initialize();
  3874  0728  3187  27F3  3187   	fcall	_EXT_INT_Initialize
  3875  072B                     l2260:
  3876                           
  3877                           ;mcc_generated_files/mcc.c: 61:     TMR0_Initialize();
  3878  072B  3187  272F  3187   	fcall	_TMR0_Initialize
  3879  072E                     l29:
  3880  072E  0008               	return
  3881  072F                     __end_of_SYSTEM_Initialize:
  3882                           
  3883                           	psect	text6
  3884  0FB1                     __ptext6:	
  3885 ;; *************** function _WDT_Initialize *****************
  3886 ;; Defined at:
  3887 ;;		line 74 in file "mcc_generated_files/mcc.c"
  3888 ;; Parameters:    Size  Location     Type
  3889 ;;		None
  3890 ;; Auto vars:     Size  Location     Type
  3891 ;;		None
  3892 ;; Return value:  Size  Location     Type
  3893 ;;                  1    wreg      void 
  3894 ;; Registers used:
  3895 ;;		status,2
  3896 ;; Tracked objects:
  3897 ;;		On entry : 0/0
  3898 ;;		On exit  : 0/0
  3899 ;;		Unchanged: 0/0
  3900 ;; Data sizes:     COMMON   BANK0   BANK1   BANK2   BANK3   BANK4   BANK5   BANK6   BANK7   BANK8   BANK9  BANK10  BANK1
      +1  BANK12
  3901 ;;      Params:         0       0       0       0       0       0       0       0       0       0       0       0       
      +0       0
  3902 ;;      Locals:         0       0       0       0       0       0       0       0       0       0       0       0       
      +0       0
  3903 ;;      Temps:          0       0       0       0       0       0       0       0       0       0       0       0       
      +0       0
  3904 ;;      Totals:         0       0       0       0       0       0       0       0       0       0       0       0       
      +0       0
  3905 ;;Total ram usage:        0 bytes
  3906 ;; Hardware stack levels used: 1
  3907 ;; Hardware stack levels required when called: 5
  3908 ;; This function calls:
  3909 ;;		Nothing
  3910 ;; This function is called by:
  3911 ;;		_SYSTEM_Initialize
  3912 ;; This function uses a non-reentrant model
  3913 ;;
  3914                           
  3915                           
  3916                           ;psect for function _WDT_Initialize
  3917  0FB1                     _WDT_Initialize:
  3918  0FB1                     l1966:	
  3919                           ;incstack = 0
  3920                           ; Regs used in _WDT_Initialize: [status,2]
  3921                           
  3922                           
  3923                           ;mcc_generated_files/mcc.c: 77:     WDTCON = 0x00;
  3924  0FB1  0150               	movlb	16	; select bank16
  3925  0FB2  018C               	clrf	12	;volatile
  3926  0FB3                     l35:
  3927  0FB3  0008               	return
  3928  0FB4                     __end_of_WDT_Initialize:
  3929                           
  3930                           	psect	text7
  3931  07CB                     __ptext7:	
  3932 ;; *************** function _TMR2_Initialize *****************
  3933 ;; Defined at:
  3934 ;;		line 62 in file "mcc_generated_files/tmr2.c"
  3935 ;; Parameters:    Size  Location     Type
  3936 ;;		None
  3937 ;; Auto vars:     Size  Location     Type
  3938 ;;		None
  3939 ;; Return value:  Size  Location     Type
  3940 ;;                  1    wreg      void 
  3941 ;; Registers used:
  3942 ;;		wreg, status,2
  3943 ;; Tracked objects:
  3944 ;;		On entry : 0/0
  3945 ;;		On exit  : 0/0
  3946 ;;		Unchanged: 0/0
  3947 ;; Data sizes:     COMMON   BANK0   BANK1   BANK2   BANK3   BANK4   BANK5   BANK6   BANK7   BANK8   BANK9  BANK10  BANK1
      +1  BANK12
  3948 ;;      Params:         0       0       0       0       0       0       0       0       0       0       0       0       
      +0       0
  3949 ;;      Locals:         0       0       0       0       0       0       0       0       0       0       0       0       
      +0       0
  3950 ;;      Temps:          0       0       0       0       0       0       0       0       0       0       0       0       
      +0       0
  3951 ;;      Totals:         0       0       0       0       0       0       0       0       0       0       0       0       
      +0       0
  3952 ;;Total ram usage:        0 bytes
  3953 ;; Hardware stack levels used: 1
  3954 ;; Hardware stack levels required when called: 5
  3955 ;; This function calls:
  3956 ;;		Nothing
  3957 ;; This function is called by:
  3958 ;;		_SYSTEM_Initialize
  3959 ;;		_main
  3960 ;; This function uses a non-reentrant model
  3961 ;;
  3962                           
  3963                           
  3964                           ;psect for function _TMR2_Initialize
  3965  07CB                     _TMR2_Initialize:
  3966  07CB                     l1970:	
  3967                           ;incstack = 0
  3968                           ; Regs used in _TMR2_Initialize: [wreg+status,2]
  3969                           
  3970                           
  3971                           ;mcc_generated_files/tmr2.c: 67:     T2CLKCON = 0x01;
  3972  07CB  3001               	movlw	1
  3973  07CC  0145               	movlb	5	; select bank5
  3974  07CD  0090               	movwf	16	;volatile
  3975  07CE                     l1972:
  3976                           
  3977                           ;mcc_generated_files/tmr2.c: 70:     T2HLT = 0x00;
  3978  07CE  018F               	clrf	15	;volatile
  3979  07CF                     l1974:
  3980                           
  3981                           ;mcc_generated_files/tmr2.c: 73:     T2RST = 0x00;
  3982  07CF  0191               	clrf	17	;volatile
  3983                           
  3984                           ;mcc_generated_files/tmr2.c: 76:     T2PR = 0xFF;
  3985  07D0  30FF               	movlw	255
  3986  07D1  008D               	movwf	13	;volatile
  3987  07D2                     l1976:
  3988                           
  3989                           ;mcc_generated_files/tmr2.c: 79:     T2TMR = 0x00;
  3990  07D2  018C               	clrf	12	;volatile
  3991  07D3                     l1978:
  3992                           
  3993                           ;mcc_generated_files/tmr2.c: 82:     PIR1bits.TMR2IF = 0;
  3994  07D3  014E               	movlb	14	; select bank14
  3995  07D4  130D               	bcf	13,6	;volatile
  3996  07D5                     l1980:
  3997                           
  3998                           ;mcc_generated_files/tmr2.c: 85:     T2CON = 0xB0;
  3999  07D5  30B0               	movlw	176
  4000  07D6  0145               	movlb	5	; select bank5
  4001  07D7  008E               	movwf	14	;volatile
  4002  07D8                     l177:
  4003  07D8  0008               	return
  4004  07D9                     __end_of_TMR2_Initialize:
  4005                           
  4006                           	psect	text8
  4007  06B6                     __ptext8:	
  4008 ;; *************** function _TMR1_Initialize *****************
  4009 ;; Defined at:
  4010 ;;		line 64 in file "mcc_generated_files/tmr1.c"
  4011 ;; Parameters:    Size  Location     Type
  4012 ;;		None
  4013 ;; Auto vars:     Size  Location     Type
  4014 ;;		None
  4015 ;; Return value:  Size  Location     Type
  4016 ;;                  1    wreg      void 
  4017 ;; Registers used:
  4018 ;;		wreg, status,2, status,0, pclath, cstack
  4019 ;; Tracked objects:
  4020 ;;		On entry : 0/0
  4021 ;;		On exit  : 0/0
  4022 ;;		Unchanged: 0/0
  4023 ;; Data sizes:     COMMON   BANK0   BANK1   BANK2   BANK3   BANK4   BANK5   BANK6   BANK7   BANK8   BANK9  BANK10  BANK1
      +1  BANK12
  4024 ;;      Params:         0       0       0       0       0       0       0       0       0       0       0       0       
      +0       0
  4025 ;;      Locals:         0       0       0       0       0       0       0       0       0       0       0       0       
      +0       0
  4026 ;;      Temps:          0       0       0       0       0       0       0       0       0       0       0       0       
      +0       0
  4027 ;;      Totals:         0       0       0       0       0       0       0       0       0       0       0       0       
      +0       0
  4028 ;;Total ram usage:        0 bytes
  4029 ;; Hardware stack levels used: 1
  4030 ;; Hardware stack levels required when called: 6
  4031 ;; This function calls:
  4032 ;;		_TMR1_SetInterruptHandler
  4033 ;; This function is called by:
  4034 ;;		_SYSTEM_Initialize
  4035 ;;		_main
  4036 ;; This function uses a non-reentrant model
  4037 ;;
  4038                           
  4039                           
  4040                           ;psect for function _TMR1_Initialize
  4041  06B6                     _TMR1_Initialize:
  4042  06B6                     l1982:	
  4043                           ;incstack = 0
  4044                           ; Regs used in _TMR1_Initialize: [wreg+status,2+status,0+pclath+cstack]
  4045                           
  4046                           
  4047                           ;mcc_generated_files/tmr1.c: 69:     T1GCON = 0x00;
  4048  06B6  0144               	movlb	4	; select bank4
  4049  06B7  018F               	clrf	15	;volatile
  4050                           
  4051                           ;mcc_generated_files/tmr1.c: 72:     T1GATE = 0x00;
  4052  06B8  0190               	clrf	16	;volatile
  4053  06B9                     l1984:
  4054                           
  4055                           ;mcc_generated_files/tmr1.c: 75:     T1CLK = 0x04;
  4056  06B9  3004               	movlw	4
  4057  06BA  0091               	movwf	17	;volatile
  4058  06BB                     l1986:
  4059                           
  4060                           ;mcc_generated_files/tmr1.c: 78:     TMR1H = 0xE1;
  4061  06BB  30E1               	movlw	225
  4062  06BC  008D               	movwf	13	;volatile
  4063  06BD                     l1988:
  4064                           
  4065                           ;mcc_generated_files/tmr1.c: 81:     TMR1L = 0xBA;
  4066  06BD  30BA               	movlw	186
  4067  06BE  008C               	movwf	12	;volatile
  4068  06BF                     l1990:
  4069                           
  4070                           ;mcc_generated_files/tmr1.c: 84:     PIR1bits.TMR1IF = 0;
  4071  06BF  014E               	movlb	14	; select bank14
  4072  06C0  128D               	bcf	13,5	;volatile
  4073  06C1                     l1992:
  4074                           
  4075                           ;mcc_generated_files/tmr1.c: 87:     timer1ReloadVal=(uint16_t)((TMR1H << 8) | TMR1L);
  4076  06C1  0144               	movlb	4	; select bank4
  4077  06C2  080D               	movf	13,w	;volatile
  4078  06C3  0140               	movlb	0	; select bank0
  4079  06C4  00DB               	movwf	_timer1ReloadVal+1	;volatile
  4080  06C5  0144               	movlb	4	; select bank4
  4081  06C6  080C               	movf	12,w	;volatile
  4082  06C7  0140               	movlb	0	; select bank0
  4083  06C8  00DA               	movwf	_timer1ReloadVal	;volatile
  4084  06C9                     l1994:
  4085                           
  4086                           ;mcc_generated_files/tmr1.c: 90:     PIE1bits.TMR1IE = 1;
  4087  06C9  014E               	movlb	14	; select bank14
  4088  06CA  1697               	bsf	23,5	;volatile
  4089  06CB                     l1996:
  4090                           
  4091                           ;mcc_generated_files/tmr1.c: 93:     TMR1_SetInterruptHandler(TMR1_DefaultInterruptHandl
      +                          er);
  4092  06CB  3003               	movlw	low _TMR1_DefaultInterruptHandler
  4093  06CC  00F2               	movwf	TMR1_SetInterruptHandler@InterruptHandler
  4094  06CD  3000               	movlw	high _TMR1_DefaultInterruptHandler
  4095  06CE  00F3               	movwf	TMR1_SetInterruptHandler@InterruptHandler+1
  4096  06CF  318F  27D0  3186   	fcall	_TMR1_SetInterruptHandler
  4097  06D2                     l1998:
  4098                           
  4099                           ;mcc_generated_files/tmr1.c: 96:     T1CON = 0x05;
  4100  06D2  3005               	movlw	5
  4101  06D3  0144               	movlb	4	; select bank4
  4102  06D4  008E               	movwf	14	;volatile
  4103  06D5                     l365:
  4104  06D5  0008               	return
  4105  06D6                     __end_of_TMR1_Initialize:
  4106                           
  4107                           	psect	text9
  4108  0FD0                     __ptext9:	
  4109 ;; *************** function _TMR1_SetInterruptHandler *****************
  4110 ;; Defined at:
  4111 ;;		line 178 in file "mcc_generated_files/tmr1.c"
  4112 ;; Parameters:    Size  Location     Type
  4113 ;;  InterruptHan    2    2[COMMON] PTR FTN()void 
  4114 ;;		 -> TMR1_ISR_(1), TMR1_DefaultInterruptHandler(1), 
  4115 ;; Auto vars:     Size  Location     Type
  4116 ;;		None
  4117 ;; Return value:  Size  Location     Type
  4118 ;;                  1    wreg      void 
  4119 ;; Registers used:
  4120 ;;		wreg
  4121 ;; Tracked objects:
  4122 ;;		On entry : 0/0
  4123 ;;		On exit  : 0/0
  4124 ;;		Unchanged: 0/0
  4125 ;; Data sizes:     COMMON   BANK0   BANK1   BANK2   BANK3   BANK4   BANK5   BANK6   BANK7   BANK8   BANK9  BANK10  BANK1
      +1  BANK12
  4126 ;;      Params:         2       0       0       0       0       0       0       0       0       0       0       0       
      +0       0
  4127 ;;      Locals:         0       0       0       0       0       0       0       0       0       0       0       0       
      +0       0
  4128 ;;      Temps:          0       0       0       0       0       0       0       0       0       0       0       0       
      +0       0
  4129 ;;      Totals:         2       0       0       0       0       0       0       0       0       0       0       0       
      +0       0
  4130 ;;Total ram usage:        2 bytes
  4131 ;; Hardware stack levels used: 1
  4132 ;; Hardware stack levels required when called: 5
  4133 ;; This function calls:
  4134 ;;		Nothing
  4135 ;; This function is called by:
  4136 ;;		_TMR1_Initialize
  4137 ;;		_main
  4138 ;; This function uses a non-reentrant model
  4139 ;;
  4140                           
  4141                           
  4142                           ;psect for function _TMR1_SetInterruptHandler
  4143  0FD0                     _TMR1_SetInterruptHandler:
  4144  0FD0                     l1904:	
  4145                           ;incstack = 0
  4146                           ; Regs used in _TMR1_SetInterruptHandler: [wreg]
  4147                           
  4148                           
  4149                           ;mcc_generated_files/tmr1.c: 179:     TMR1_InterruptHandler = InterruptHandler;
  4150  0FD0  0873               	movf	TMR1_SetInterruptHandler@InterruptHandler+1,w
  4151  0FD1  0140               	movlb	0	; select bank0
  4152  0FD2  00D9               	movwf	_TMR1_InterruptHandler+1
  4153  0FD3  0872               	movf	TMR1_SetInterruptHandler@InterruptHandler,w
  4154  0FD4  00D8               	movwf	_TMR1_InterruptHandler
  4155  0FD5                     l395:
  4156  0FD5  0008               	return
  4157  0FD6                     __end_of_TMR1_SetInterruptHandler:
  4158                           
  4159                           	psect	text10
  4160  072F                     __ptext10:	
  4161 ;; *************** function _TMR0_Initialize *****************
  4162 ;; Defined at:
  4163 ;;		line 66 in file "mcc_generated_files/tmr0.c"
  4164 ;; Parameters:    Size  Location     Type
  4165 ;;		None
  4166 ;; Auto vars:     Size  Location     Type
  4167 ;;		None
  4168 ;; Return value:  Size  Location     Type
  4169 ;;                  1    wreg      void 
  4170 ;; Registers used:
  4171 ;;		wreg, status,2, status,0, pclath, cstack
  4172 ;; Tracked objects:
  4173 ;;		On entry : 0/0
  4174 ;;		On exit  : 0/0
  4175 ;;		Unchanged: 0/0
  4176 ;; Data sizes:     COMMON   BANK0   BANK1   BANK2   BANK3   BANK4   BANK5   BANK6   BANK7   BANK8   BANK9  BANK10  BANK1
      +1  BANK12
  4177 ;;      Params:         0       0       0       0       0       0       0       0       0       0       0       0       
      +0       0
  4178 ;;      Locals:         0       0       0       0       0       0       0       0       0       0       0       0       
      +0       0
  4179 ;;      Temps:          0       0       0       0       0       0       0       0       0       0       0       0       
      +0       0
  4180 ;;      Totals:         0       0       0       0       0       0       0       0       0       0       0       0       
      +0       0
  4181 ;;Total ram usage:        0 bytes
  4182 ;; Hardware stack levels used: 1
  4183 ;; Hardware stack levels required when called: 6
  4184 ;; This function calls:
  4185 ;;		_TMR0_SetInterruptHandler
  4186 ;; This function is called by:
  4187 ;;		_SYSTEM_Initialize
  4188 ;;		_main
  4189 ;; This function uses a non-reentrant model
  4190 ;;
  4191                           
  4192                           
  4193                           ;psect for function _TMR0_Initialize
  4194  072F                     _TMR0_Initialize:
  4195  072F                     l2006:	
  4196                           ;incstack = 0
  4197                           ; Regs used in _TMR0_Initialize: [wreg+status,2+status,0+pclath+cstack]
  4198                           
  4199                           
  4200                           ;mcc_generated_files/tmr0.c: 71:     T0CON1 = 0x90;
  4201  072F  3090               	movlw	144
  4202  0730  014B               	movlb	11	; select bank11
  4203  0731  009F               	movwf	31	;volatile
  4204                           
  4205                           ;mcc_generated_files/tmr0.c: 74:     TMR0H = 0x86;
  4206  0732  3086               	movlw	134
  4207  0733  009D               	movwf	29	;volatile
  4208                           
  4209                           ;mcc_generated_files/tmr0.c: 77:     TMR0L = 0xE8;
  4210  0734  30E8               	movlw	232
  4211  0735  009C               	movwf	28	;volatile
  4212                           
  4213                           ;mcc_generated_files/tmr0.c: 80:     timer0ReloadVal16bit = (TMR0H << 8) | TMR0L;
  4214  0736  081D               	movf	29,w	;volatile
  4215  0737  0140               	movlb	0	; select bank0
  4216  0738  00DF               	movwf	_timer0ReloadVal16bit+1	;volatile
  4217  0739  014B               	movlb	11	; select bank11
  4218  073A  081C               	movf	28,w	;volatile
  4219  073B  0140               	movlb	0	; select bank0
  4220  073C  00DE               	movwf	_timer0ReloadVal16bit	;volatile
  4221  073D                     l2008:
  4222                           
  4223                           ;mcc_generated_files/tmr0.c: 83:     PIR0bits.TMR0IF = 0;
  4224  073D  014E               	movlb	14	; select bank14
  4225  073E  128C               	bcf	12,5	;volatile
  4226  073F                     l2010:
  4227                           
  4228                           ;mcc_generated_files/tmr0.c: 86:     PIE0bits.TMR0IE = 1;
  4229  073F  1696               	bsf	22,5	;volatile
  4230  0740                     l2012:
  4231                           
  4232                           ;mcc_generated_files/tmr0.c: 89:     TMR0_SetInterruptHandler(TMR0_DefaultInterruptHandl
      +                          er);
  4233  0740  3002               	movlw	low _TMR0_DefaultInterruptHandler
  4234  0741  00F2               	movwf	TMR0_SetInterruptHandler@InterruptHandler
  4235  0742  3000               	movlw	high _TMR0_DefaultInterruptHandler
  4236  0743  00F3               	movwf	TMR0_SetInterruptHandler@InterruptHandler+1
  4237  0744  318F  27CA  3187   	fcall	_TMR0_SetInterruptHandler
  4238  0747                     l2014:
  4239                           
  4240                           ;mcc_generated_files/tmr0.c: 92:     T0CON0 = 0x90;
  4241  0747  3090               	movlw	144
  4242  0748  014B               	movlb	11	; select bank11
  4243  0749  009E               	movwf	30	;volatile
  4244  074A                     l309:
  4245  074A  0008               	return
  4246  074B                     __end_of_TMR0_Initialize:
  4247                           
  4248                           	psect	text11
  4249  0FCA                     __ptext11:	
  4250 ;; *************** function _TMR0_SetInterruptHandler *****************
  4251 ;; Defined at:
  4252 ;;		line 151 in file "mcc_generated_files/tmr0.c"
  4253 ;; Parameters:    Size  Location     Type
  4254 ;;  InterruptHan    2    2[COMMON] PTR FTN()void 
  4255 ;;		 -> TMR0_ISR_(1), TMR0_DefaultInterruptHandler(1), 
  4256 ;; Auto vars:     Size  Location     Type
  4257 ;;		None
  4258 ;; Return value:  Size  Location     Type
  4259 ;;                  1    wreg      void 
  4260 ;; Registers used:
  4261 ;;		wreg
  4262 ;; Tracked objects:
  4263 ;;		On entry : 0/0
  4264 ;;		On exit  : 0/0
  4265 ;;		Unchanged: 0/0
  4266 ;; Data sizes:     COMMON   BANK0   BANK1   BANK2   BANK3   BANK4   BANK5   BANK6   BANK7   BANK8   BANK9  BANK10  BANK1
      +1  BANK12
  4267 ;;      Params:         2       0       0       0       0       0       0       0       0       0       0       0       
      +0       0
  4268 ;;      Locals:         0       0       0       0       0       0       0       0       0       0       0       0       
      +0       0
  4269 ;;      Temps:          0       0       0       0       0       0       0       0       0       0       0       0       
      +0       0
  4270 ;;      Totals:         2       0       0       0       0       0       0       0       0       0       0       0       
      +0       0
  4271 ;;Total ram usage:        2 bytes
  4272 ;; Hardware stack levels used: 1
  4273 ;; Hardware stack levels required when called: 5
  4274 ;; This function calls:
  4275 ;;		Nothing
  4276 ;; This function is called by:
  4277 ;;		_TMR0_Initialize
  4278 ;;		_main
  4279 ;; This function uses a non-reentrant model
  4280 ;;
  4281                           
  4282                           
  4283                           ;psect for function _TMR0_SetInterruptHandler
  4284  0FCA                     _TMR0_SetInterruptHandler:
  4285  0FCA                     l1902:	
  4286                           ;incstack = 0
  4287                           ; Regs used in _TMR0_SetInterruptHandler: [wreg]
  4288                           
  4289                           
  4290                           ;mcc_generated_files/tmr0.c: 152:     TMR0_InterruptHandler = InterruptHandler;
  4291  0FCA  0873               	movf	TMR0_SetInterruptHandler@InterruptHandler+1,w
  4292  0FCB  0140               	movlb	0	; select bank0
  4293  0FCC  00DD               	movwf	_TMR0_InterruptHandler+1
  4294  0FCD  0872               	movf	TMR0_SetInterruptHandler@InterruptHandler,w
  4295  0FCE  00DC               	movwf	_TMR0_InterruptHandler
  4296  0FCF                     l331:
  4297  0FCF  0008               	return
  4298  0FD0                     __end_of_TMR0_SetInterruptHandler:
  4299                           
  4300                           	psect	text12
  4301  0794                     __ptext12:	
  4302 ;; *************** function _SPI1_Initialize *****************
  4303 ;; Defined at:
  4304 ;;		line 62 in file "mcc_generated_files/spi1.c"
  4305 ;; Parameters:    Size  Location     Type
  4306 ;;		None
  4307 ;; Auto vars:     Size  Location     Type
  4308 ;;		None
  4309 ;; Return value:  Size  Location     Type
  4310 ;;                  1    wreg      void 
  4311 ;; Registers used:
  4312 ;;		wreg, status,2
  4313 ;; Tracked objects:
  4314 ;;		On entry : 0/0
  4315 ;;		On exit  : 0/0
  4316 ;;		Unchanged: 0/0
  4317 ;; Data sizes:     COMMON   BANK0   BANK1   BANK2   BANK3   BANK4   BANK5   BANK6   BANK7   BANK8   BANK9  BANK10  BANK1
      +1  BANK12
  4318 ;;      Params:         0       0       0       0       0       0       0       0       0       0       0       0       
      +0       0
  4319 ;;      Locals:         0       0       0       0       0       0       0       0       0       0       0       0       
      +0       0
  4320 ;;      Temps:          0       0       0       0       0       0       0       0       0       0       0       0       
      +0       0
  4321 ;;      Totals:         0       0       0       0       0       0       0       0       0       0       0       0       
      +0       0
  4322 ;;Total ram usage:        0 bytes
  4323 ;; Hardware stack levels used: 1
  4324 ;; Hardware stack levels required when called: 5
  4325 ;; This function calls:
  4326 ;;		Nothing
  4327 ;; This function is called by:
  4328 ;;		_SYSTEM_Initialize
  4329 ;;		_main
  4330 ;; This function uses a non-reentrant model
  4331 ;;
  4332                           
  4333                           
  4334                           ;psect for function _SPI1_Initialize
  4335  0794                     _SPI1_Initialize:
  4336  0794                     l1920:	
  4337                           ;incstack = 0
  4338                           ; Regs used in _SPI1_Initialize: [wreg+status,2]
  4339                           
  4340                           
  4341                           ;mcc_generated_files/spi1.c: 65:     SSP1CLKPPS = 21;
  4342  0794  3015               	movlw	21
  4343  0795  017D               	movlb	61	; select bank61
  4344  0796  00C5               	movwf	69	;volatile
  4345                           
  4346                           ;mcc_generated_files/spi1.c: 66:     SSP1DATPPS = 4;
  4347  0797  3004               	movlw	4
  4348  0798  00C6               	movwf	70	;volatile
  4349                           
  4350                           ;mcc_generated_files/spi1.c: 67:     RC5PPS = 7;
  4351  0799  3007               	movlw	7
  4352  079A  017E               	movlb	62	; select bank62
  4353  079B  00A5               	movwf	37	;volatile
  4354                           
  4355                           ;mcc_generated_files/spi1.c: 68:     RC3PPS = 8;
  4356  079C  3008               	movlw	8
  4357  079D  00A3               	movwf	35	;volatile
  4358                           
  4359                           ;mcc_generated_files/spi1.c: 70:     SSP1STAT = 0x40;
  4360  079E  3040               	movlw	64
  4361  079F  0143               	movlb	3	; select bank3
  4362  07A0  008F               	movwf	15	;volatile
  4363  07A1                     l1922:
  4364                           
  4365                           ;mcc_generated_files/spi1.c: 71:     SSP1CON1 = 0x00;
  4366  07A1  0190               	clrf	16	;volatile
  4367  07A2                     l1924:
  4368                           
  4369                           ;mcc_generated_files/spi1.c: 72:     SSP1ADD = 0x01;
  4370  07A2  3001               	movlw	1
  4371  07A3  008D               	movwf	13	;volatile
  4372  07A4                     l1926:
  4373                           
  4374                           ;mcc_generated_files/spi1.c: 73:     TRISCbits.TRISC5 = 0;
  4375  07A4  0140               	movlb	0	; select bank0
  4376  07A5  1294               	bcf	20,5	;volatile
  4377  07A6                     l1928:
  4378                           
  4379                           ;mcc_generated_files/spi1.c: 74:     SSP1CON1bits.SSPEN = 0;
  4380  07A6  0143               	movlb	3	; select bank3
  4381  07A7  1290               	bcf	16,5	;volatile
  4382  07A8                     l64:
  4383  07A8  0008               	return
  4384  07A9                     __end_of_SPI1_Initialize:
  4385                           
  4386                           	psect	text13
  4387  0FD6                     __ptext13:	
  4388 ;; *************** function _PWM3_Initialize *****************
  4389 ;; Defined at:
  4390 ;;		line 58 in file "mcc_generated_files/pwm3.c"
  4391 ;; Parameters:    Size  Location     Type
  4392 ;;		None
  4393 ;; Auto vars:     Size  Location     Type
  4394 ;;		None
  4395 ;; Return value:  Size  Location     Type
  4396 ;;                  1    wreg      void 
  4397 ;; Registers used:
  4398 ;;		wreg
  4399 ;; Tracked objects:
  4400 ;;		On entry : 0/0
  4401 ;;		On exit  : 0/0
  4402 ;;		Unchanged: 0/0
  4403 ;; Data sizes:     COMMON   BANK0   BANK1   BANK2   BANK3   BANK4   BANK5   BANK6   BANK7   BANK8   BANK9  BANK10  BANK1
      +1  BANK12
  4404 ;;      Params:         0       0       0       0       0       0       0       0       0       0       0       0       
      +0       0
  4405 ;;      Locals:         0       0       0       0       0       0       0       0       0       0       0       0       
      +0       0
  4406 ;;      Temps:          0       0       0       0       0       0       0       0       0       0       0       0       
      +0       0
  4407 ;;      Totals:         0       0       0       0       0       0       0       0       0       0       0       0       
      +0       0
  4408 ;;Total ram usage:        0 bytes
  4409 ;; Hardware stack levels used: 1
  4410 ;; Hardware stack levels required when called: 5
  4411 ;; This function calls:
  4412 ;;		Nothing
  4413 ;; This function is called by:
  4414 ;;		_SYSTEM_Initialize
  4415 ;;		_main
  4416 ;; This function uses a non-reentrant model
  4417 ;;
  4418                           
  4419                           
  4420                           ;psect for function _PWM3_Initialize
  4421  0FD6                     _PWM3_Initialize:
  4422  0FD6                     l1968:	
  4423                           ;incstack = 0
  4424                           ; Regs used in _PWM3_Initialize: [wreg]
  4425                           
  4426                           
  4427                           ;mcc_generated_files/pwm3.c: 62:     PWM3CON = 0x80;
  4428  0FD6  3080               	movlw	128
  4429  0FD7  0146               	movlb	6	; select bank6
  4430  0FD8  0096               	movwf	22	;volatile
  4431                           
  4432                           ;mcc_generated_files/pwm3.c: 65:     PWM3DCH = 0x7F;
  4433  0FD9  307F               	movlw	127
  4434  0FDA  0095               	movwf	21	;volatile
  4435                           
  4436                           ;mcc_generated_files/pwm3.c: 68:     PWM3DCL = 0xC0;
  4437  0FDB  30C0               	movlw	192
  4438  0FDC  0094               	movwf	20	;volatile
  4439  0FDD                     l226:
  4440  0FDD  0008               	return
  4441  0FDE                     __end_of_PWM3_Initialize:
  4442                           
  4443                           	psect	text14
  4444  068E                     __ptext14:	
  4445 ;; *************** function _PIN_MANAGER_Initialize *****************
  4446 ;; Defined at:
  4447 ;;		line 55 in file "mcc_generated_files/pin_manager.c"
  4448 ;; Parameters:    Size  Location     Type
  4449 ;;		None
  4450 ;; Auto vars:     Size  Location     Type
  4451 ;;		None
  4452 ;; Return value:  Size  Location     Type
  4453 ;;                  1    wreg      void 
  4454 ;; Registers used:
  4455 ;;		wreg, status,2
  4456 ;; Tracked objects:
  4457 ;;		On entry : 0/0
  4458 ;;		On exit  : 0/0
  4459 ;;		Unchanged: 0/0
  4460 ;; Data sizes:     COMMON   BANK0   BANK1   BANK2   BANK3   BANK4   BANK5   BANK6   BANK7   BANK8   BANK9  BANK10  BANK1
      +1  BANK12
  4461 ;;      Params:         0       0       0       0       0       0       0       0       0       0       0       0       
      +0       0
  4462 ;;      Locals:         0       0       0       0       0       0       0       0       0       0       0       0       
      +0       0
  4463 ;;      Temps:          0       0       0       0       0       0       0       0       0       0       0       0       
      +0       0
  4464 ;;      Totals:         0       0       0       0       0       0       0       0       0       0       0       0       
      +0       0
  4465 ;;Total ram usage:        0 bytes
  4466 ;; Hardware stack levels used: 1
  4467 ;; Hardware stack levels required when called: 5
  4468 ;; This function calls:
  4469 ;;		Nothing
  4470 ;; This function is called by:
  4471 ;;		_SYSTEM_Initialize
  4472 ;; This function uses a non-reentrant model
  4473 ;;
  4474                           
  4475                           
  4476                           ;psect for function _PIN_MANAGER_Initialize
  4477  068E                     _PIN_MANAGER_Initialize:
  4478  068E                     l1930:	
  4479                           ;incstack = 0
  4480                           ; Regs used in _PIN_MANAGER_Initialize: [wreg+status,2]
  4481                           
  4482                           
  4483                           ;mcc_generated_files/pin_manager.c: 60:     LATA = 0x00;
  4484  068E  0140               	movlb	0	; select bank0
  4485  068F  0198               	clrf	24	;volatile
  4486                           
  4487                           ;mcc_generated_files/pin_manager.c: 61:     LATC = 0x00;
  4488  0690  019A               	clrf	26	;volatile
  4489  0691                     l1932:
  4490                           
  4491                           ;mcc_generated_files/pin_manager.c: 66:     TRISA = 0x1F;
  4492  0691  301F               	movlw	31
  4493  0692  0092               	movwf	18	;volatile
  4494  0693                     l1934:
  4495                           
  4496                           ;mcc_generated_files/pin_manager.c: 67:     TRISC = 0x02;
  4497  0693  3002               	movlw	2
  4498  0694  0094               	movwf	20	;volatile
  4499  0695                     l1936:
  4500                           
  4501                           ;mcc_generated_files/pin_manager.c: 72:     ANSELC = 0x1F;
  4502  0695  301F               	movlw	31
  4503  0696  017E               	movlb	62	; select bank62
  4504  0697  00CE               	movwf	78	;volatile
  4505  0698                     l1938:
  4506                           
  4507                           ;mcc_generated_files/pin_manager.c: 73:     ANSELA = 0x23;
  4508  0698  3023               	movlw	35
  4509  0699  00B8               	movwf	56	;volatile
  4510                           
  4511                           ;mcc_generated_files/pin_manager.c: 78:     WPUA = 0x00;
  4512  069A  01B9               	clrf	57	;volatile
  4513                           
  4514                           ;mcc_generated_files/pin_manager.c: 79:     WPUC = 0x00;
  4515  069B  01CF               	clrf	79	;volatile
  4516                           
  4517                           ;mcc_generated_files/pin_manager.c: 84:     ODCONA = 0x00;
  4518  069C  01BA               	clrf	58	;volatile
  4519                           
  4520                           ;mcc_generated_files/pin_manager.c: 85:     ODCONC = 0x00;
  4521  069D  01D0               	clrf	80	;volatile
  4522  069E                     l1940:
  4523                           
  4524                           ;mcc_generated_files/pin_manager.c: 90:     SLRCONA = 0x37;
  4525  069E  3037               	movlw	55
  4526  069F  00BB               	movwf	59	;volatile
  4527  06A0                     l1942:
  4528                           
  4529                           ;mcc_generated_files/pin_manager.c: 91:     SLRCONC = 0x3F;
  4530  06A0  303F               	movlw	63
  4531  06A1  00D1               	movwf	81	;volatile
  4532  06A2                     l1944:
  4533                           
  4534                           ;mcc_generated_files/pin_manager.c: 96:     INLVLA = 0x3F;
  4535  06A2  303F               	movlw	63
  4536  06A3  00BC               	movwf	60	;volatile
  4537  06A4                     l1946:
  4538                           
  4539                           ;mcc_generated_files/pin_manager.c: 97:     INLVLC = 0x3F;
  4540  06A4  303F               	movlw	63
  4541  06A5  00D2               	movwf	82	;volatile
  4542  06A6                     l1948:
  4543                           
  4544                           ;mcc_generated_files/pin_manager.c: 106:     INTPPS = 0x02;
  4545  06A6  3002               	movlw	2
  4546  06A7  017D               	movlb	61	; select bank61
  4547  06A8  0090               	movwf	16	;volatile
  4548  06A9                     l1950:
  4549                           
  4550                           ;mcc_generated_files/pin_manager.c: 107:     SSP1CLKPPS = 0x15;
  4551  06A9  3015               	movlw	21
  4552  06AA  00C5               	movwf	69	;volatile
  4553  06AB                     l1952:
  4554                           
  4555                           ;mcc_generated_files/pin_manager.c: 108:     RC3PPS = 0x08;
  4556  06AB  3008               	movlw	8
  4557  06AC  017E               	movlb	62	; select bank62
  4558  06AD  00A3               	movwf	35	;volatile
  4559  06AE                     l1954:
  4560                           
  4561                           ;mcc_generated_files/pin_manager.c: 109:     RA5PPS = 0x03;
  4562  06AE  3003               	movlw	3
  4563  06AF  0095               	movwf	21	;volatile
  4564  06B0                     l1956:
  4565                           
  4566                           ;mcc_generated_files/pin_manager.c: 110:     RC5PPS = 0x07;
  4567  06B0  3007               	movlw	7
  4568  06B1  00A5               	movwf	37	;volatile
  4569  06B2                     l1958:
  4570                           
  4571                           ;mcc_generated_files/pin_manager.c: 111:     SSP1DATPPS = 0x04;
  4572  06B2  3004               	movlw	4
  4573  06B3  017D               	movlb	61	; select bank61
  4574  06B4  00C6               	movwf	70	;volatile
  4575  06B5                     l147:
  4576  06B5  0008               	return
  4577  06B6                     __end_of_PIN_MANAGER_Initialize:
  4578                           
  4579                           	psect	text15
  4580  0FC4                     __ptext15:	
  4581 ;; *************** function _OSCILLATOR_Initialize *****************
  4582 ;; Defined at:
  4583 ;;		line 64 in file "mcc_generated_files/mcc.c"
  4584 ;; Parameters:    Size  Location     Type
  4585 ;;		None
  4586 ;; Auto vars:     Size  Location     Type
  4587 ;;		None
  4588 ;; Return value:  Size  Location     Type
  4589 ;;                  1    wreg      void 
  4590 ;; Registers used:
  4591 ;;		wreg, status,2
  4592 ;; Tracked objects:
  4593 ;;		On entry : 0/0
  4594 ;;		On exit  : 0/0
  4595 ;;		Unchanged: 0/0
  4596 ;; Data sizes:     COMMON   BANK0   BANK1   BANK2   BANK3   BANK4   BANK5   BANK6   BANK7   BANK8   BANK9  BANK10  BANK1
      +1  BANK12
  4597 ;;      Params:         0       0       0       0       0       0       0       0       0       0       0       0       
      +0       0
  4598 ;;      Locals:         0       0       0       0       0       0       0       0       0       0       0       0       
      +0       0
  4599 ;;      Temps:          0       0       0       0       0       0       0       0       0       0       0       0       
      +0       0
  4600 ;;      Totals:         0       0       0       0       0       0       0       0       0       0       0       0       
      +0       0
  4601 ;;Total ram usage:        0 bytes
  4602 ;; Hardware stack levels used: 1
  4603 ;; Hardware stack levels required when called: 5
  4604 ;; This function calls:
  4605 ;;		Nothing
  4606 ;; This function is called by:
  4607 ;;		_SYSTEM_Initialize
  4608 ;; This function uses a non-reentrant model
  4609 ;;
  4610                           
  4611                           
  4612                           ;psect for function _OSCILLATOR_Initialize
  4613  0FC4                     _OSCILLATOR_Initialize:
  4614  0FC4                     l1960:	
  4615                           ;incstack = 0
  4616                           ; Regs used in _OSCILLATOR_Initialize: [wreg+status,2]
  4617                           
  4618                           
  4619                           ;mcc_generated_files/mcc.c: 67:     OSCEN = 0x00;
  4620  0FC4  0151               	movlb	17	; select bank17
  4621  0FC5  0191               	clrf	17	;volatile
  4622  0FC6                     l1962:
  4623                           
  4624                           ;mcc_generated_files/mcc.c: 69:     OSCFRQ = 0x03;
  4625  0FC6  3003               	movlw	3
  4626  0FC7  0093               	movwf	19	;volatile
  4627  0FC8                     l1964:
  4628                           
  4629                           ;mcc_generated_files/mcc.c: 71:     OSCTUNE = 0x00;
  4630  0FC8  0192               	clrf	18	;volatile
  4631  0FC9                     l32:
  4632  0FC9  0008               	return
  4633  0FCA                     __end_of_OSCILLATOR_Initialize:
  4634                           
  4635                           	psect	text16
  4636  07F3                     __ptext16:	
  4637 ;; *************** function _EXT_INT_Initialize *****************
  4638 ;; Defined at:
  4639 ;;		line 72 in file "mcc_generated_files/ext_int.c"
  4640 ;; Parameters:    Size  Location     Type
  4641 ;;		None
  4642 ;; Auto vars:     Size  Location     Type
  4643 ;;		None
  4644 ;; Return value:  Size  Location     Type
  4645 ;;                  1    wreg      void 
  4646 ;; Registers used:
  4647 ;;		wreg, status,2, status,0, pclath, cstack
  4648 ;; Tracked objects:
  4649 ;;		On entry : 0/0
  4650 ;;		On exit  : 0/0
  4651 ;;		Unchanged: 0/0
  4652 ;; Data sizes:     COMMON   BANK0   BANK1   BANK2   BANK3   BANK4   BANK5   BANK6   BANK7   BANK8   BANK9  BANK10  BANK1
      +1  BANK12
  4653 ;;      Params:         0       0       0       0       0       0       0       0       0       0       0       0       
      +0       0
  4654 ;;      Locals:         0       0       0       0       0       0       0       0       0       0       0       0       
      +0       0
  4655 ;;      Temps:          0       0       0       0       0       0       0       0       0       0       0       0       
      +0       0
  4656 ;;      Totals:         0       0       0       0       0       0       0       0       0       0       0       0       
      +0       0
  4657 ;;Total ram usage:        0 bytes
  4658 ;; Hardware stack levels used: 1
  4659 ;; Hardware stack levels required when called: 6
  4660 ;; This function calls:
  4661 ;;		_INT_SetInterruptHandler
  4662 ;; This function is called by:
  4663 ;;		_SYSTEM_Initialize
  4664 ;;		_main
  4665 ;; This function uses a non-reentrant model
  4666 ;;
  4667                           
  4668                           
  4669                           ;psect for function _EXT_INT_Initialize
  4670  07F3                     _EXT_INT_Initialize:
  4671  07F3                     l2000:	
  4672                           ;incstack = 0
  4673                           ; Regs used in _EXT_INT_Initialize: [wreg+status,2+status,0+pclath+cstack]
  4674                           
  4675                           
  4676                           ;mcc_generated_files/ext_int.c: 77:     (PIR0bits.INTF = 0);
  4677  07F3  014E               	movlb	14	; select bank14
  4678  07F4  100C               	bcf	12,0	;volatile
  4679                           
  4680                           ;mcc_generated_files/ext_int.c: 78:     (INTCONbits.INTEDG = 1);
  4681  07F5  140B               	bsf	11,0	;volatile
  4682  07F6                     l2002:
  4683                           
  4684                           ;mcc_generated_files/ext_int.c: 80:     INT_SetInterruptHandler(INT_DefaultInterruptHand
      +                          ler);
  4685  07F6  30B0               	movlw	low _INT_DefaultInterruptHandler
  4686  07F7  00F2               	movwf	INT_SetInterruptHandler@InterruptHandler
  4687  07F8  300F               	movlw	high _INT_DefaultInterruptHandler
  4688  07F9  00F3               	movwf	INT_SetInterruptHandler@InterruptHandler+1
  4689  07FA  318F  27BE  3187   	fcall	_INT_SetInterruptHandler
  4690  07FD                     l2004:
  4691                           
  4692                           ;mcc_generated_files/ext_int.c: 81:     (PIE0bits.INTE = 1);
  4693  07FD  014E               	movlb	14	; select bank14
  4694  07FE  1416               	bsf	22,0	;volatile
  4695  07FF                     l284:
  4696  07FF  0008               	return
  4697  0800                     __end_of_EXT_INT_Initialize:
  4698                           
  4699                           	psect	text17
  4700  0FBE                     __ptext17:	
  4701 ;; *************** function _INT_SetInterruptHandler *****************
  4702 ;; Defined at:
  4703 ;;		line 63 in file "mcc_generated_files/ext_int.c"
  4704 ;; Parameters:    Size  Location     Type
  4705 ;;  InterruptHan    2    2[COMMON] PTR FTN()void 
  4706 ;;		 -> EXT_ISR(1), INT_DefaultInterruptHandler(1), 
  4707 ;; Auto vars:     Size  Location     Type
  4708 ;;		None
  4709 ;; Return value:  Size  Location     Type
  4710 ;;                  1    wreg      void 
  4711 ;; Registers used:
  4712 ;;		wreg
  4713 ;; Tracked objects:
  4714 ;;		On entry : 0/0
  4715 ;;		On exit  : 0/0
  4716 ;;		Unchanged: 0/0
  4717 ;; Data sizes:     COMMON   BANK0   BANK1   BANK2   BANK3   BANK4   BANK5   BANK6   BANK7   BANK8   BANK9  BANK10  BANK1
      +1  BANK12
  4718 ;;      Params:         2       0       0       0       0       0       0       0       0       0       0       0       
      +0       0
  4719 ;;      Locals:         0       0       0       0       0       0       0       0       0       0       0       0       
      +0       0
  4720 ;;      Temps:          0       0       0       0       0       0       0       0       0       0       0       0       
      +0       0
  4721 ;;      Totals:         2       0       0       0       0       0       0       0       0       0       0       0       
      +0       0
  4722 ;;Total ram usage:        2 bytes
  4723 ;; Hardware stack levels used: 1
  4724 ;; Hardware stack levels required when called: 5
  4725 ;; This function calls:
  4726 ;;		Nothing
  4727 ;; This function is called by:
  4728 ;;		_EXT_INT_Initialize
  4729 ;;		_main
  4730 ;; This function uses a non-reentrant model
  4731 ;;
  4732                           
  4733                           
  4734                           ;psect for function _INT_SetInterruptHandler
  4735  0FBE                     _INT_SetInterruptHandler:
  4736  0FBE                     l1900:	
  4737                           ;incstack = 0
  4738                           ; Regs used in _INT_SetInterruptHandler: [wreg]
  4739                           
  4740                           
  4741                           ;mcc_generated_files/ext_int.c: 64:     INT_InterruptHandler = InterruptHandler;
  4742  0FBE  0873               	movf	INT_SetInterruptHandler@InterruptHandler+1,w
  4743  0FBF  0140               	movlb	0	; select bank0
  4744  0FC0  00E1               	movwf	_INT_InterruptHandler+1
  4745  0FC1  0872               	movf	INT_SetInterruptHandler@InterruptHandler,w
  4746  0FC2  00E0               	movwf	_INT_InterruptHandler
  4747  0FC3                     l278:
  4748  0FC3  0008               	return
  4749  0FC4                     __end_of_INT_SetInterruptHandler:
  4750                           
  4751                           	psect	intentry
  4752  0004                     __pintentry:	
  4753 ;; *************** function _INTERRUPT_InterruptManager *****************
  4754 ;; Defined at:
  4755 ;;		line 52 in file "mcc_generated_files/interrupt_manager.c"
  4756 ;; Parameters:    Size  Location     Type
  4757 ;;		None
  4758 ;; Auto vars:     Size  Location     Type
  4759 ;;		None
  4760 ;; Return value:  Size  Location     Type
  4761 ;;                  1    wreg      void 
  4762 ;; Registers used:
  4763 ;;		wreg, fsr0l, fsr0h, fsr1l, fsr1h, status,2, status,0, pclath, cstack
  4764 ;; Tracked objects:
  4765 ;;		On entry : 0/0
  4766 ;;		On exit  : 0/0
  4767 ;;		Unchanged: 0/0
  4768 ;; Data sizes:     COMMON   BANK0   BANK1   BANK2   BANK3   BANK4   BANK5   BANK6   BANK7   BANK8   BANK9  BANK10  BANK1
      +1  BANK12
  4769 ;;      Params:         0       0       0       0       0       0       0       0       0       0       0       0       
      +0       0
  4770 ;;      Locals:         0       0       0       0       0       0       0       0       0       0       0       0       
      +0       0
  4771 ;;      Temps:          0       0       0       0       0       0       0       0       0       0       0       0       
      +0       0
  4772 ;;      Totals:         0       0       0       0       0       0       0       0       0       0       0       0       
      +0       0
  4773 ;;Total ram usage:        0 bytes
  4774 ;; Hardware stack levels used: 1
  4775 ;; Hardware stack levels required when called: 4
  4776 ;; This function calls:
  4777 ;;		_INT_ISR
  4778 ;;		_TMR0_ISR
  4779 ;;		_TMR1_ISR
  4780 ;; This function is called by:
  4781 ;;		Interrupt level 1
  4782 ;; This function uses a non-reentrant model
  4783 ;;
  4784                           
  4785  0004                     _INTERRUPT_InterruptManager:
  4786                           
  4787                           ;incstack = 0
  4788  0004  147E               	bsf	int$flags,0	;set compiler interrupt flag (level 1)
  4789                           
  4790                           ; Regs used in _INTERRUPT_InterruptManager: [wreg-fsr1h+status,2+status,0+pclath+cstack]
  4791  0005  3180               	pagesel	$
  4792  0006                     i1l2326:
  4793                           
  4794                           ;mcc_generated_files/interrupt_manager.c: 55:     if(PIE0bits.TMR0IE == 1 && PIR0bits.TM
      +                          R0IF == 1)
  4795  0006  014E               	movlb	14	; select bank14
  4796  0007  1E96               	btfss	22,5	;volatile
  4797  0008  280A               	goto	u126_21
  4798  0009  280B               	goto	u126_20
  4799  000A                     u126_21:
  4800  000A  2813               	goto	i1l250
  4801  000B                     u126_20:
  4802  000B                     i1l2328:
  4803  000B  1E8C               	btfss	12,5	;volatile
  4804  000C  280E               	goto	u127_21
  4805  000D  280F               	goto	u127_20
  4806  000E                     u127_21:
  4807  000E  2813               	goto	i1l250
  4808  000F                     u127_20:
  4809  000F                     i1l2330:
  4810                           
  4811                           ;mcc_generated_files/interrupt_manager.c: 56:     {;mcc_generated_files/interrupt_manage
      +                          r.c: 57:         TMR0_ISR();
  4812  000F  3187  277D  3180   	fcall	_TMR0_ISR
  4813                           
  4814                           ;mcc_generated_files/interrupt_manager.c: 58:     }
  4815  0012  282F               	goto	i1l258
  4816  0013                     i1l250:	
  4817                           ;mcc_generated_files/interrupt_manager.c: 59:     else if(PIE0bits.INTE == 1 && PIR0bits
      +                          .INTF == 1)
  4818                           
  4819  0013  1C16               	btfss	22,0	;volatile
  4820  0014  2816               	goto	u128_21
  4821  0015  2817               	goto	u128_20
  4822  0016                     u128_21:
  4823  0016  281F               	goto	i1l252
  4824  0017                     u128_20:
  4825  0017                     i1l2332:
  4826  0017  1C0C               	btfss	12,0	;volatile
  4827  0018  281A               	goto	u129_21
  4828  0019  281B               	goto	u129_20
  4829  001A                     u129_21:
  4830  001A  281F               	goto	i1l252
  4831  001B                     u129_20:
  4832  001B                     i1l2334:
  4833                           
  4834                           ;mcc_generated_files/interrupt_manager.c: 60:     {;mcc_generated_files/interrupt_manage
      +                          r.c: 61:         INT_ISR();
  4835  001B  318F  27B8  3180   	fcall	_INT_ISR
  4836                           
  4837                           ;mcc_generated_files/interrupt_manager.c: 62:     }
  4838  001E  282F               	goto	i1l258
  4839  001F                     i1l252:	
  4840                           ;mcc_generated_files/interrupt_manager.c: 63:     else if(INTCONbits.PEIE == 1)
  4841                           
  4842  001F  1F0B               	btfss	11,6	;volatile
  4843  0020  2822               	goto	u130_21
  4844  0021  2823               	goto	u130_20
  4845  0022                     u130_21:
  4846  0022  282F               	goto	i1l253
  4847  0023                     u130_20:
  4848  0023                     i1l2336:
  4849                           
  4850                           ;mcc_generated_files/interrupt_manager.c: 64:     {;mcc_generated_files/interrupt_manage
      +                          r.c: 65:         if(PIE1bits.TMR1IE == 1 && PIR1bits.TMR1IF == 1)
  4851  0023  1E97               	btfss	23,5	;volatile
  4852  0024  2826               	goto	u131_21
  4853  0025  2827               	goto	u131_20
  4854  0026                     u131_21:
  4855  0026  282F               	goto	i1l253
  4856  0027                     u131_20:
  4857  0027                     i1l2338:
  4858  0027  1E8D               	btfss	13,5	;volatile
  4859  0028  282A               	goto	u132_21
  4860  0029  282B               	goto	u132_20
  4861  002A                     u132_21:
  4862  002A  282F               	goto	i1l253
  4863  002B                     u132_20:
  4864  002B                     i1l2340:
  4865                           
  4866                           ;mcc_generated_files/interrupt_manager.c: 66:         {;mcc_generated_files/interrupt_ma
      +                          nager.c: 67:             TMR1_ISR();
  4867  002B  3187  2766  3180   	fcall	_TMR1_ISR
  4868                           
  4869                           ;mcc_generated_files/interrupt_manager.c: 68:         }
  4870  002E  282F               	goto	i1l258
  4871  002F                     i1l253:
  4872  002F                     i1l258:
  4873  002F  107E               	bcf	int$flags,0	;clear compiler interrupt flag (level 1)
  4874  0030  0009               	retfie
  4875  0031                     __end_of_INTERRUPT_InterruptManager:
  4876                           
  4877                           	psect	text19
  4878  0766                     __ptext19:	
  4879 ;; *************** function _TMR1_ISR *****************
  4880 ;; Defined at:
  4881 ;;		line 164 in file "mcc_generated_files/tmr1.c"
  4882 ;; Parameters:    Size  Location     Type
  4883 ;;		None
  4884 ;; Auto vars:     Size  Location     Type
  4885 ;;		None
  4886 ;; Return value:  Size  Location     Type
  4887 ;;                  1    wreg      void 
  4888 ;; Registers used:
  4889 ;;		wreg, fsr0l, fsr0h, fsr1l, fsr1h, status,2, status,0, pclath, cstack
  4890 ;; Tracked objects:
  4891 ;;		On entry : 0/0
  4892 ;;		On exit  : 0/0
  4893 ;;		Unchanged: 0/0
  4894 ;; Data sizes:     COMMON   BANK0   BANK1   BANK2   BANK3   BANK4   BANK5   BANK6   BANK7   BANK8   BANK9  BANK10  BANK1
      +1  BANK12
  4895 ;;      Params:         0       0       0       0       0       0       0       0       0       0       0       0       
      +0       0
  4896 ;;      Locals:         0       0       0       0       0       0       0       0       0       0       0       0       
      +0       0
  4897 ;;      Temps:          0       0       0       0       0       0       0       0       0       0       0       0       
      +0       0
  4898 ;;      Totals:         0       0       0       0       0       0       0       0       0       0       0       0       
      +0       0
  4899 ;;Total ram usage:        0 bytes
  4900 ;; Hardware stack levels used: 1
  4901 ;; Hardware stack levels required when called: 1
  4902 ;; This function calls:
  4903 ;;		Absolute function
  4904 ;;		_TMR1_DefaultInterruptHandler
  4905 ;;		_TMR1_ISR_
  4906 ;;		_TMR1_WriteTimer
  4907 ;; This function is called by:
  4908 ;;		_INTERRUPT_InterruptManager
  4909 ;; This function uses a non-reentrant model
  4910 ;;
  4911                           
  4912                           
  4913                           ;psect for function _TMR1_ISR
  4914  0766                     _TMR1_ISR:
  4915  0766                     i1l2276:	
  4916                           ;incstack = 0
  4917                           ; Regs used in _TMR1_ISR: [wreg-fsr1h+status,2+status,0+pclath+cstack]
  4918                           
  4919                           
  4920                           ;mcc_generated_files/tmr1.c: 168:     PIR1bits.TMR1IF = 0;
  4921  0766  014E               	movlb	14	; select bank14
  4922  0767  128D               	bcf	13,5	;volatile
  4923  0768                     i1l2278:
  4924                           
  4925                           ;mcc_generated_files/tmr1.c: 169:     TMR1_WriteTimer(timer1ReloadVal);
  4926  0768  0140               	movlb	0	; select bank0
  4927  0769  085B               	movf	_timer1ReloadVal+1,w	;volatile
  4928  076A  00F1               	movwf	TMR1_WriteTimer@timerVal+1
  4929  076B  085A               	movf	_timer1ReloadVal,w	;volatile
  4930  076C  00F0               	movwf	TMR1_WriteTimer@timerVal
  4931  076D  3187  27BA  3187   	fcall	_TMR1_WriteTimer
  4932  0770                     i1l2280:
  4933                           
  4934                           ;mcc_generated_files/tmr1.c: 171:     if(TMR1_InterruptHandler)
  4935  0770  0140               	movlb	0	; select bank0
  4936  0771  0858               	movf	_TMR1_InterruptHandler,w
  4937  0772  0459               	iorwf	_TMR1_InterruptHandler+1,w
  4938  0773  1903               	btfsc	3,2
  4939  0774  2F76               	goto	u119_21
  4940  0775  2F77               	goto	u119_20
  4941  0776                     u119_21:
  4942  0776  2F7C               	goto	i1l392
  4943  0777                     u119_20:
  4944  0777                     i1l2282:
  4945                           
  4946                           ;mcc_generated_files/tmr1.c: 172:     {;mcc_generated_files/tmr1.c: 173:         TMR1_In
      +                          terruptHandler();
  4947  0777  0859               	movf	_TMR1_InterruptHandler+1,w
  4948  0778  008A               	movwf	10
  4949  0779  0858               	movf	_TMR1_InterruptHandler,w
  4950  077A  000A               	callw
  4951  077B  3187               	pagesel	$
  4952  077C                     i1l392:
  4953  077C  0008               	return
  4954  077D                     __end_of_TMR1_ISR:
  4955                           
  4956                           	psect	text20
  4957  07BA                     __ptext20:	
  4958 ;; *************** function _TMR1_WriteTimer *****************
  4959 ;; Defined at:
  4960 ;;		line 127 in file "mcc_generated_files/tmr1.c"
  4961 ;; Parameters:    Size  Location     Type
  4962 ;;  timerVal        2    0[COMMON] unsigned short 
  4963 ;; Auto vars:     Size  Location     Type
  4964 ;;		None
  4965 ;; Return value:  Size  Location     Type
  4966 ;;                  1    wreg      void 
  4967 ;; Registers used:
  4968 ;;		wreg, status,2
  4969 ;; Tracked objects:
  4970 ;;		On entry : 0/0
  4971 ;;		On exit  : 0/0
  4972 ;;		Unchanged: 0/0
  4973 ;; Data sizes:     COMMON   BANK0   BANK1   BANK2   BANK3   BANK4   BANK5   BANK6   BANK7   BANK8   BANK9  BANK10  BANK1
      +1  BANK12
  4974 ;;      Params:         2       0       0       0       0       0       0       0       0       0       0       0       
      +0       0
  4975 ;;      Locals:         0       0       0       0       0       0       0       0       0       0       0       0       
      +0       0
  4976 ;;      Temps:          0       0       0       0       0       0       0       0       0       0       0       0       
      +0       0
  4977 ;;      Totals:         2       0       0       0       0       0       0       0       0       0       0       0       
      +0       0
  4978 ;;Total ram usage:        2 bytes
  4979 ;; Hardware stack levels used: 1
  4980 ;; This function calls:
  4981 ;;		Nothing
  4982 ;; This function is called by:
  4983 ;;		_TMR1_ISR
  4984 ;;		_TMR1_Reload
  4985 ;; This function uses a non-reentrant model
  4986 ;;
  4987                           
  4988                           
  4989                           ;psect for function _TMR1_WriteTimer
  4990  07BA                     _TMR1_WriteTimer:
  4991  07BA                     i1l2020:	
  4992                           ;incstack = 0
  4993                           ; Regs used in _TMR1_WriteTimer: [wreg+status,2]
  4994                           
  4995                           
  4996                           ;mcc_generated_files/tmr1.c: 127: void TMR1_WriteTimer(uint16_t timerVal);mcc_generated_
      +                          files/tmr1.c: 128: {;mcc_generated_files/tmr1.c: 129:     if (T1CONbits.NOT_SYNC == 1)
  4997  07BA  0144               	movlb	4	; select bank4
  4998  07BB  1D0E               	btfss	14,2	;volatile
  4999  07BC  2FBE               	goto	u77_21
  5000  07BD  2FBF               	goto	u77_20
  5001  07BE                     u77_21:
  5002  07BE  2FC6               	goto	i1l2030
  5003  07BF                     u77_20:
  5004  07BF                     i1l2022:
  5005                           
  5006                           ;mcc_generated_files/tmr1.c: 130:     {;mcc_generated_files/tmr1.c: 132:         T1CONbi
      +                          ts.TMR1ON = 0;
  5007  07BF  100E               	bcf	14,0	;volatile
  5008  07C0                     i1l2024:
  5009                           
  5010                           ;mcc_generated_files/tmr1.c: 135:         TMR1H = (uint8_t)(timerVal >> 8);
  5011  07C0  0871               	movf	TMR1_WriteTimer@timerVal+1,w
  5012  07C1  008D               	movwf	13	;volatile
  5013  07C2                     i1l2026:
  5014                           
  5015                           ;mcc_generated_files/tmr1.c: 136:         TMR1L = (uint8_t)timerVal;
  5016  07C2  0870               	movf	TMR1_WriteTimer@timerVal,w
  5017  07C3  008C               	movwf	12	;volatile
  5018  07C4                     i1l2028:
  5019                           
  5020                           ;mcc_generated_files/tmr1.c: 139:         T1CONbits.TMR1ON =1;
  5021  07C4  140E               	bsf	14,0	;volatile
  5022                           
  5023                           ;mcc_generated_files/tmr1.c: 140:     }
  5024  07C5  2FCA               	goto	i1l379
  5025  07C6                     i1l2030:
  5026                           
  5027                           ;mcc_generated_files/tmr1.c: 142:     {;mcc_generated_files/tmr1.c: 144:         TMR1H =
      +                           (uint8_t)(timerVal >> 8);
  5028  07C6  0871               	movf	TMR1_WriteTimer@timerVal+1,w
  5029  07C7  008D               	movwf	13	;volatile
  5030  07C8                     i1l2032:
  5031                           
  5032                           ;mcc_generated_files/tmr1.c: 145:         TMR1L = (uint8_t)timerVal;
  5033  07C8  0870               	movf	TMR1_WriteTimer@timerVal,w
  5034  07C9  008C               	movwf	12	;volatile
  5035  07CA                     i1l379:
  5036  07CA  0008               	return
  5037  07CB                     __end_of_TMR1_WriteTimer:
  5038                           
  5039                           	psect	text21
  5040  0003                     __ptext21:	
  5041 ;; *************** function _TMR1_DefaultInterruptHandler *****************
  5042 ;; Defined at:
  5043 ;;		line 182 in file "mcc_generated_files/tmr1.c"
  5044 ;; Parameters:    Size  Location     Type
  5045 ;;		None
  5046 ;; Auto vars:     Size  Location     Type
  5047 ;;		None
  5048 ;; Return value:  Size  Location     Type
  5049 ;;                  1    wreg      void 
  5050 ;; Registers used:
  5051 ;;		None
  5052 ;; Tracked objects:
  5053 ;;		On entry : 0/0
  5054 ;;		On exit  : 0/0
  5055 ;;		Unchanged: 0/0
  5056 ;; Data sizes:     COMMON   BANK0   BANK1   BANK2   BANK3   BANK4   BANK5   BANK6   BANK7   BANK8   BANK9  BANK10  BANK1
      +1  BANK12
  5057 ;;      Params:         0       0       0       0       0       0       0       0       0       0       0       0       
      +0       0
  5058 ;;      Locals:         0       0       0       0       0       0       0       0       0       0       0       0       
      +0       0
  5059 ;;      Temps:          0       0       0       0       0       0       0       0       0       0       0       0       
      +0       0
  5060 ;;      Totals:         0       0       0       0       0       0       0       0       0       0       0       0       
      +0       0
  5061 ;;Total ram usage:        0 bytes
  5062 ;; Hardware stack levels used: 1
  5063 ;; This function calls:
  5064 ;;		Nothing
  5065 ;; This function is called by:
  5066 ;;		_TMR1_Initialize
  5067 ;;		_TMR1_ISR
  5068 ;; This function uses a non-reentrant model
  5069 ;;
  5070                           
  5071                           
  5072                           ;psect for function _TMR1_DefaultInterruptHandler
  5073  0003                     _TMR1_DefaultInterruptHandler:
  5074  0003                     i1l398:	
  5075                           ;incstack = 0
  5076                           ; Regs used in _TMR1_DefaultInterruptHandler: []
  5077                           
  5078  0003  0008               	return
  5079  0004                     __end_of_TMR1_DefaultInterruptHandler:
  5080                           
  5081                           	psect	text22
  5082  0088                     __ptext22:	
  5083 ;; *************** function _TMR1_ISR_ *****************
  5084 ;; Defined at:
  5085 ;;		line 379 in file "main.c"
  5086 ;; Parameters:    Size  Location     Type
  5087 ;;		None
  5088 ;; Auto vars:     Size  Location     Type
  5089 ;;  i               2   18[BANK0 ] int 
  5090 ;;  i               2   16[BANK0 ] int 
  5091 ;;  lights          1    0[BANK0 ] unsigned char 
  5092 ;;  i               2    8[BANK0 ] int 
  5093 ;;  i               2   20[BANK0 ] int 
  5094 ;;  i               2   14[BANK0 ] int 
  5095 ;;  lights          1    1[BANK0 ] unsigned char 
  5096 ;;  i               2   22[BANK0 ] int 
  5097 ;;  i               2    6[BANK0 ] int 
  5098 ;;  lights          1    2[BANK0 ] unsigned char 
  5099 ;;  i               2    4[BANK0 ] int 
  5100 ;;  i               2   12[BANK0 ] int 
  5101 ;;  i               2   24[BANK0 ] int 
  5102 ;;  i               2   10[BANK0 ] int 
  5103 ;;  dream_sw        1    3[BANK0 ] unsigned char 
  5104 ;; Return value:  Size  Location     Type
  5105 ;;                  1    wreg      void 
  5106 ;; Registers used:
  5107 ;;		wreg, fsr0l, fsr0h, fsr1l, fsr1h, status,2, status,0
  5108 ;; Tracked objects:
  5109 ;;		On entry : 0/0
  5110 ;;		On exit  : 0/0
  5111 ;;		Unchanged: 0/0
  5112 ;; Data sizes:     COMMON   BANK0   BANK1   BANK2   BANK3   BANK4   BANK5   BANK6   BANK7   BANK8   BANK9  BANK10  BANK1
      +1  BANK12
  5113 ;;      Params:         0       0       0       0       0       0       0       0       0       0       0       0       
      +0       0
  5114 ;;      Locals:         0      26       0       0       0       0       0       0       0       0       0       0       
      +0       0
  5115 ;;      Temps:          2       0       0       0       0       0       0       0       0       0       0       0       
      +0       0
  5116 ;;      Totals:         2      26       0       0       0       0       0       0       0       0       0       0       
      +0       0
  5117 ;;Total ram usage:       28 bytes
  5118 ;; Hardware stack levels used: 1
  5119 ;; This function calls:
  5120 ;;		Nothing
  5121 ;; This function is called by:
  5122 ;;		_main
  5123 ;;		_TMR1_ISR
  5124 ;; This function uses a non-reentrant model
  5125 ;;
  5126                           
  5127                           
  5128                           ;psect for function _TMR1_ISR_
  5129  0088                     _TMR1_ISR_:
  5130  0088                     i1l2042:	
  5131                           ;incstack = 0
  5132                           ; Regs used in _TMR1_ISR_: [wreg-fsr1h+status,2+status,0]
  5133                           
  5134                           
  5135                           ;main.c: 381:     count++;
  5136  0088  3001               	movlw	1
  5137  0089  0140               	movlb	0	; select bank0
  5138  008A  07E2               	addwf	_count,f
  5139  008B  3000               	movlw	0
  5140  008C  3DE3               	addwfc	_count+1,f
  5141  008D                     i1l2044:
  5142                           
  5143                           ;main.c: 384:     if (silent_night_playing)
  5144  008D  086A               	movf	_silent_night_playing,w
  5145  008E  1903               	btfsc	3,2
  5146  008F  2891               	goto	u78_21
  5147  0090  2892               	goto	u78_20
  5148  0091                     u78_21:
  5149  0091  295D               	goto	i1l2092
  5150  0092                     u78_20:
  5151  0092                     i1l2046:
  5152                           
  5153                           ;main.c: 385:     {;main.c: 386:         if (count < 24 || ((count > 48) && (count < 96)
      +                          ))
  5154  0092  0863               	movf	_count+1,w
  5155  0093  3A80               	xorlw	128
  5156  0094  00F0               	movwf	??_TMR1_ISR_
  5157  0095  3080               	movlw	128
  5158  0096  0270               	subwf	??_TMR1_ISR_,w
  5159  0097  1D03               	skipz
  5160  0098  289B               	goto	u79_25
  5161  0099  3018               	movlw	24
  5162  009A  0262               	subwf	_count,w
  5163  009B                     u79_25:
  5164  009B  1C03               	skipc
  5165  009C  289E               	goto	u79_21
  5166  009D  289F               	goto	u79_20
  5167  009E                     u79_21:
  5168  009E  28BB               	goto	i1l2052
  5169  009F                     u79_20:
  5170  009F                     i1l2048:
  5171  009F  0140               	movlb	0	; select bank0
  5172  00A0  0863               	movf	_count+1,w
  5173  00A1  3A80               	xorlw	128
  5174  00A2  00F0               	movwf	??_TMR1_ISR_
  5175  00A3  3080               	movlw	128
  5176  00A4  0270               	subwf	??_TMR1_ISR_,w
  5177  00A5  1D03               	skipz
  5178  00A6  28A9               	goto	u80_25
  5179  00A7  3031               	movlw	49
  5180  00A8  0262               	subwf	_count,w
  5181  00A9                     u80_25:
  5182  00A9  1C03               	skipc
  5183  00AA  28AC               	goto	u80_21
  5184  00AB  28AD               	goto	u80_20
  5185  00AC                     u80_21:
  5186  00AC  28FC               	goto	i1l2066
  5187  00AD                     u80_20:
  5188  00AD                     i1l2050:
  5189  00AD  0140               	movlb	0	; select bank0
  5190  00AE  0863               	movf	_count+1,w
  5191  00AF  3A80               	xorlw	128
  5192  00B0  00F0               	movwf	??_TMR1_ISR_
  5193  00B1  3080               	movlw	128
  5194  00B2  0270               	subwf	??_TMR1_ISR_,w
  5195  00B3  1D03               	skipz
  5196  00B4  28B7               	goto	u81_25
  5197  00B5  3060               	movlw	96
  5198  00B6  0262               	subwf	_count,w
  5199  00B7                     u81_25:
  5200  00B7  1803               	skipnc
  5201  00B8  28BA               	goto	u81_21
  5202  00B9  28BB               	goto	u81_20
  5203  00BA                     u81_21:
  5204  00BA  28FC               	goto	i1l2066
  5205  00BB                     u81_20:
  5206  00BB                     i1l2052:
  5207                           
  5208                           ;main.c: 387:         {;main.c: 388:             if (last_note != silent_night[count])
  5209  00BB  3066               	movlw	102
  5210  00BC  00F0               	movwf	??_TMR1_ISR_
  5211  00BD  3023               	movlw	35
  5212  00BE  00F1               	movwf	??_TMR1_ISR_+1
  5213  00BF  0140               	movlb	0	; select bank0
  5214  00C0  0862               	movf	_count,w
  5215  00C1  0770               	addwf	??_TMR1_ISR_,w
  5216  00C2  0086               	movwf	6
  5217  00C3  0863               	movf	_count+1,w
  5218  00C4  3D71               	addwfc	??_TMR1_ISR_+1,w
  5219  00C5  0087               	movwf	7
  5220  00C6  0801               	movf	1,w
  5221  00C7  0666               	xorwf	_last_note,w
  5222  00C8  1903               	skipnz
  5223  00C9  28CB               	goto	u82_21
  5224  00CA  28CC               	goto	u82_20
  5225  00CB                     u82_21:
  5226  00CB  295D               	goto	i1l2092
  5227  00CC                     u82_20:
  5228  00CC                     i1l2054:
  5229                           
  5230                           ;main.c: 389:             {;main.c: 390:                 for (int i = 0; i < 7; i++)
  5231  00CC  01D4               	clrf	TMR1_ISR_@i
  5232  00CD  01D5               	clrf	TMR1_ISR_@i+1
  5233  00CE                     i1l2060:
  5234                           
  5235                           ;main.c: 391:                 {;main.c: 392:                     uint8_t lights = light_
      +                          array[i] >> 7;
  5236  00CE  0140               	movlb	0	; select bank0
  5237  00CF  0854               	movf	TMR1_ISR_@i,w
  5238  00D0  3E79               	addlw	(low (_light_array| 0))& (0+255)
  5239  00D1  0086               	movwf	6
  5240  00D2  0187               	clrf	7
  5241  00D3  0801               	movf	1,w
  5242  00D4  00F0               	movwf	??_TMR1_ISR_
  5243  00D5  3007               	movlw	7
  5244  00D6                     u83_25:
  5245  00D6  36F0               	lsrf	??_TMR1_ISR_,f
  5246  00D7  0B89               	decfsz	9,f
  5247  00D8  28D6               	goto	u83_25
  5248  00D9  0870               	movf	??_TMR1_ISR_,w
  5249  00DA  00F1               	movwf	??_TMR1_ISR_+1
  5250  00DB  0871               	movf	??_TMR1_ISR_+1,w
  5251  00DC  00BE               	movwf	TMR1_ISR_@lights
  5252                           
  5253                           ;main.c: 393:                     light_array[i] = (light_array[i] << 1) + lights;
  5254  00DD  0854               	movf	TMR1_ISR_@i,w
  5255  00DE  3E79               	addlw	(low (_light_array| 0))& (0+255)
  5256  00DF  0086               	movwf	6
  5257  00E0  0187               	clrf	7
  5258  00E1  3501               	lslf	1,w
  5259  00E2  073E               	addwf	TMR1_ISR_@lights,w
  5260  00E3  00F0               	movwf	??_TMR1_ISR_
  5261  00E4  0854               	movf	TMR1_ISR_@i,w
  5262  00E5  3E79               	addlw	(low (_light_array| 0))& (0+255)
  5263  00E6  0086               	movwf	6
  5264  00E7  0187               	clrf	7
  5265  00E8  0870               	movf	??_TMR1_ISR_,w
  5266  00E9  0081               	movwf	1
  5267  00EA                     i1l2062:
  5268                           
  5269                           ;main.c: 394:                 }
  5270  00EA  3001               	movlw	1
  5271  00EB  07D4               	addwf	TMR1_ISR_@i,f
  5272  00EC  3000               	movlw	0
  5273  00ED  3DD5               	addwfc	TMR1_ISR_@i+1,f
  5274  00EE                     i1l2064:
  5275  00EE  0855               	movf	TMR1_ISR_@i+1,w
  5276  00EF  3A80               	xorlw	128
  5277  00F0  00F0               	movwf	??_TMR1_ISR_
  5278  00F1  3080               	movlw	128
  5279  00F2  0270               	subwf	??_TMR1_ISR_,w
  5280  00F3  1D03               	skipz
  5281  00F4  28F7               	goto	u84_25
  5282  00F5  3007               	movlw	7
  5283  00F6  0254               	subwf	TMR1_ISR_@i,w
  5284  00F7                     u84_25:
  5285  00F7  1C03               	skipc
  5286  00F8  28FA               	goto	u84_21
  5287  00F9  28FB               	goto	u84_20
  5288  00FA                     u84_21:
  5289  00FA  28CE               	goto	i1l2060
  5290  00FB                     u84_20:
  5291  00FB  295D               	goto	i1l2092
  5292  00FC                     i1l2066:
  5293  00FC  0140               	movlb	0	; select bank0
  5294  00FD  0863               	movf	_count+1,w
  5295  00FE  3A80               	xorlw	128
  5296  00FF  00F0               	movwf	??_TMR1_ISR_
  5297  0100  3080               	movlw	128
  5298  0101  0270               	subwf	??_TMR1_ISR_,w
  5299  0102  1D03               	skipz
  5300  0103  2906               	goto	u85_25
  5301  0104  307F               	movlw	127
  5302  0105  0262               	subwf	_count,w
  5303  0106                     u85_25:
  5304  0106  1C03               	skipc
  5305  0107  2909               	goto	u85_21
  5306  0108  290A               	goto	u85_20
  5307  0109                     u85_21:
  5308  0109  292D               	goto	i1l2080
  5309  010A                     u85_20:
  5310  010A                     i1l2068:
  5311                           
  5312                           ;main.c: 398:         {;main.c: 399:             for (int i = 0; i < 7; i++)
  5313  010A  0140               	movlb	0	; select bank0
  5314  010B  01C8               	clrf	TMR1_ISR_@i_1171
  5315  010C  01C9               	clrf	TMR1_ISR_@i_1171+1
  5316  010D                     i1l2074:
  5317                           
  5318                           ;main.c: 400:             {;main.c: 401:                 light_array[i] = (light_array[i
      +                          ] << 1) + 1;
  5319  010D  0140               	movlb	0	; select bank0
  5320  010E  0848               	movf	TMR1_ISR_@i_1171,w
  5321  010F  3E79               	addlw	(low (_light_array| 0))& (0+255)
  5322  0110  0086               	movwf	6
  5323  0111  0187               	clrf	7
  5324  0112  1403               	setc
  5325  0113  0D01               	rlf	1,w
  5326  0114  00F0               	movwf	??_TMR1_ISR_
  5327  0115  0848               	movf	TMR1_ISR_@i_1171,w
  5328  0116  3E79               	addlw	(low (_light_array| 0))& (0+255)
  5329  0117  0086               	movwf	6
  5330  0118  0187               	clrf	7
  5331  0119  0870               	movf	??_TMR1_ISR_,w
  5332  011A  0081               	movwf	1
  5333  011B                     i1l2076:
  5334                           
  5335                           ;main.c: 402:             }
  5336  011B  3001               	movlw	1
  5337  011C  07C8               	addwf	TMR1_ISR_@i_1171,f
  5338  011D  3000               	movlw	0
  5339  011E  3DC9               	addwfc	TMR1_ISR_@i_1171+1,f
  5340  011F                     i1l2078:
  5341  011F  0849               	movf	TMR1_ISR_@i_1171+1,w
  5342  0120  3A80               	xorlw	128
  5343  0121  00F0               	movwf	??_TMR1_ISR_
  5344  0122  3080               	movlw	128
  5345  0123  0270               	subwf	??_TMR1_ISR_,w
  5346  0124  1D03               	skipz
  5347  0125  2928               	goto	u86_25
  5348  0126  3007               	movlw	7
  5349  0127  0248               	subwf	TMR1_ISR_@i_1171,w
  5350  0128                     u86_25:
  5351  0128  1C03               	skipc
  5352  0129  292B               	goto	u86_21
  5353  012A  292C               	goto	u86_20
  5354  012B                     u86_21:
  5355  012B  290D               	goto	i1l2074
  5356  012C                     u86_20:
  5357  012C  295D               	goto	i1l2092
  5358  012D                     i1l2080:
  5359                           
  5360                           ;main.c: 405:         {;main.c: 406:             for (int i = 0; i < 7; i++)
  5361  012D  0140               	movlb	0	; select bank0
  5362  012E  01D6               	clrf	TMR1_ISR_@i_1172
  5363  012F  01D7               	clrf	TMR1_ISR_@i_1172+1
  5364  0130                     i1l2086:
  5365                           
  5366                           ;main.c: 407:             {;main.c: 408:                 uint8_t lights = light_array[i]
      +                           >> 7;
  5367  0130  0140               	movlb	0	; select bank0
  5368  0131  0856               	movf	TMR1_ISR_@i_1172,w
  5369  0132  3E79               	addlw	(low (_light_array| 0))& (0+255)
  5370  0133  0086               	movwf	6
  5371  0134  0187               	clrf	7
  5372  0135  0801               	movf	1,w
  5373  0136  00F0               	movwf	??_TMR1_ISR_
  5374  0137  3007               	movlw	7
  5375  0138                     u87_25:
  5376  0138  36F0               	lsrf	??_TMR1_ISR_,f
  5377  0139  0B89               	decfsz	9,f
  5378  013A  2938               	goto	u87_25
  5379  013B  0870               	movf	??_TMR1_ISR_,w
  5380  013C  00F1               	movwf	??_TMR1_ISR_+1
  5381  013D  0871               	movf	??_TMR1_ISR_+1,w
  5382  013E  00BF               	movwf	TMR1_ISR_@lights_1173
  5383                           
  5384                           ;main.c: 409:                 light_array[i] = (light_array[i] << 1) + lights;
  5385  013F  0856               	movf	TMR1_ISR_@i_1172,w
  5386  0140  3E79               	addlw	(low (_light_array| 0))& (0+255)
  5387  0141  0086               	movwf	6
  5388  0142  0187               	clrf	7
  5389  0143  3501               	lslf	1,w
  5390  0144  073F               	addwf	TMR1_ISR_@lights_1173,w
  5391  0145  00F0               	movwf	??_TMR1_ISR_
  5392  0146  0856               	movf	TMR1_ISR_@i_1172,w
  5393  0147  3E79               	addlw	(low (_light_array| 0))& (0+255)
  5394  0148  0086               	movwf	6
  5395  0149  0187               	clrf	7
  5396  014A  0870               	movf	??_TMR1_ISR_,w
  5397  014B  0081               	movwf	1
  5398  014C                     i1l2088:
  5399                           
  5400                           ;main.c: 410:             }
  5401  014C  3001               	movlw	1
  5402  014D  07D6               	addwf	TMR1_ISR_@i_1172,f
  5403  014E  3000               	movlw	0
  5404  014F  3DD7               	addwfc	TMR1_ISR_@i_1172+1,f
  5405  0150                     i1l2090:
  5406  0150  0857               	movf	TMR1_ISR_@i_1172+1,w
  5407  0151  3A80               	xorlw	128
  5408  0152  00F0               	movwf	??_TMR1_ISR_
  5409  0153  3080               	movlw	128
  5410  0154  0270               	subwf	??_TMR1_ISR_,w
  5411  0155  1D03               	skipz
  5412  0156  2959               	goto	u88_25
  5413  0157  3007               	movlw	7
  5414  0158  0256               	subwf	TMR1_ISR_@i_1172,w
  5415  0159                     u88_25:
  5416  0159  1C03               	skipc
  5417  015A  295C               	goto	u88_21
  5418  015B  295D               	goto	u88_20
  5419  015C                     u88_21:
  5420  015C  2930               	goto	i1l2086
  5421  015D                     u88_20:
  5422  015D                     i1l2092:
  5423                           
  5424                           ;main.c: 415:     if (song2_playing)
  5425  015D  0140               	movlb	0	; select bank0
  5426  015E  0868               	movf	_song2_playing,w
  5427  015F  1903               	btfsc	3,2
  5428  0160  2962               	goto	u89_21
  5429  0161  2963               	goto	u89_20
  5430  0162                     u89_21:
  5431  0162  29E7               	goto	i1l2136
  5432  0163                     u89_20:
  5433  0163                     i1l2094:
  5434                           
  5435                           ;main.c: 416:     {;main.c: 418:         if (count < 8)
  5436  0163  0863               	movf	_count+1,w
  5437  0164  3A80               	xorlw	128
  5438  0165  00F0               	movwf	??_TMR1_ISR_
  5439  0166  3080               	movlw	128
  5440  0167  0270               	subwf	??_TMR1_ISR_,w
  5441  0168  1D03               	skipz
  5442  0169  296C               	goto	u90_25
  5443  016A  3008               	movlw	8
  5444  016B  0262               	subwf	_count,w
  5445  016C                     u90_25:
  5446  016C  1803               	skipnc
  5447  016D  296F               	goto	u90_21
  5448  016E  2970               	goto	u90_20
  5449  016F                     u90_21:
  5450  016F  2992               	goto	i1l2108
  5451  0170                     u90_20:
  5452  0170                     i1l2096:
  5453                           
  5454                           ;main.c: 419:         {;main.c: 420:           for (int i = 0; i < 7; i++)
  5455  0170  0140               	movlb	0	; select bank0
  5456  0171  01CA               	clrf	TMR1_ISR_@i_1174
  5457  0172  01CB               	clrf	TMR1_ISR_@i_1174+1
  5458  0173                     i1l2102:
  5459                           
  5460                           ;main.c: 421:             {;main.c: 422:                 light_array[i] = (light_array[i
      +                          ] << 1);
  5461  0173  0140               	movlb	0	; select bank0
  5462  0174  084A               	movf	TMR1_ISR_@i_1174,w
  5463  0175  3E79               	addlw	(low (_light_array| 0))& (0+255)
  5464  0176  0086               	movwf	6
  5465  0177  0187               	clrf	7
  5466  0178  3501               	lslf	1,w
  5467  0179  00F0               	movwf	??_TMR1_ISR_
  5468  017A  084A               	movf	TMR1_ISR_@i_1174,w
  5469  017B  3E79               	addlw	(low (_light_array| 0))& (0+255)
  5470  017C  0086               	movwf	6
  5471  017D  0187               	clrf	7
  5472  017E  0870               	movf	??_TMR1_ISR_,w
  5473  017F  0081               	movwf	1
  5474  0180                     i1l2104:
  5475                           
  5476                           ;main.c: 423:             }
  5477  0180  3001               	movlw	1
  5478  0181  07CA               	addwf	TMR1_ISR_@i_1174,f
  5479  0182  3000               	movlw	0
  5480  0183  3DCB               	addwfc	TMR1_ISR_@i_1174+1,f
  5481  0184                     i1l2106:
  5482  0184  084B               	movf	TMR1_ISR_@i_1174+1,w
  5483  0185  3A80               	xorlw	128
  5484  0186  00F0               	movwf	??_TMR1_ISR_
  5485  0187  3080               	movlw	128
  5486  0188  0270               	subwf	??_TMR1_ISR_,w
  5487  0189  1D03               	skipz
  5488  018A  298D               	goto	u91_25
  5489  018B  3007               	movlw	7
  5490  018C  024A               	subwf	TMR1_ISR_@i_1174,w
  5491  018D                     u91_25:
  5492  018D  1C03               	skipc
  5493  018E  2990               	goto	u91_21
  5494  018F  2991               	goto	u91_20
  5495  0190                     u91_21:
  5496  0190  2973               	goto	i1l2102
  5497  0191                     u91_20:
  5498  0191  29E7               	goto	i1l2136
  5499  0192                     i1l2108:
  5500  0192  3008               	movlw	8
  5501  0193  0140               	movlb	0	; select bank0
  5502  0194  0662               	xorwf	_count,w
  5503  0195  0463               	iorwf	_count+1,w
  5504  0196  1D03               	btfss	3,2
  5505  0197  2999               	goto	u92_21
  5506  0198  299A               	goto	u92_20
  5507  0199                     u92_21:
  5508  0199  29B7               	goto	i1l581
  5509  019A                     u92_20:
  5510  019A                     i1l2110:
  5511                           
  5512                           ;main.c: 426:         {;main.c: 427:             for (int i = 0; i < 7; i++)
  5513  019A  01C2               	clrf	TMR1_ISR_@i_1175
  5514  019B  01C3               	clrf	TMR1_ISR_@i_1175+1
  5515  019C                     i1l2116:
  5516                           
  5517                           ;main.c: 428:             {;main.c: 429:                 light_array[i] = 0xAA;
  5518  019C  30AA               	movlw	170
  5519  019D  00F0               	movwf	??_TMR1_ISR_
  5520  019E  0140               	movlb	0	; select bank0
  5521  019F  0842               	movf	TMR1_ISR_@i_1175,w
  5522  01A0  3E79               	addlw	(low (_light_array| 0))& (0+255)
  5523  01A1  0086               	movwf	6
  5524  01A2  0187               	clrf	7
  5525  01A3  0870               	movf	??_TMR1_ISR_,w
  5526  01A4  0081               	movwf	1
  5527  01A5                     i1l2118:
  5528                           
  5529                           ;main.c: 430:             }
  5530  01A5  3001               	movlw	1
  5531  01A6  07C2               	addwf	TMR1_ISR_@i_1175,f
  5532  01A7  3000               	movlw	0
  5533  01A8  3DC3               	addwfc	TMR1_ISR_@i_1175+1,f
  5534  01A9                     i1l2120:
  5535  01A9  0843               	movf	TMR1_ISR_@i_1175+1,w
  5536  01AA  3A80               	xorlw	128
  5537  01AB  00F0               	movwf	??_TMR1_ISR_
  5538  01AC  3080               	movlw	128
  5539  01AD  0270               	subwf	??_TMR1_ISR_,w
  5540  01AE  1D03               	skipz
  5541  01AF  29B2               	goto	u93_25
  5542  01B0  3007               	movlw	7
  5543  01B1  0242               	subwf	TMR1_ISR_@i_1175,w
  5544  01B2                     u93_25:
  5545  01B2  1C03               	skipc
  5546  01B3  29B5               	goto	u93_21
  5547  01B4  29B6               	goto	u93_20
  5548  01B5                     u93_21:
  5549  01B5  299C               	goto	i1l2116
  5550  01B6                     u93_20:
  5551  01B6  29E7               	goto	i1l2136
  5552  01B7                     i1l581:	
  5553                           ;main.c: 432:         else
  5554                           
  5555                           
  5556                           ;main.c: 433:         {;main.c: 434:             if (count & 0x01)
  5557  01B7  1C62               	btfss	_count,0
  5558  01B8  29BA               	goto	u94_21
  5559  01B9  29BB               	goto	u94_20
  5560  01BA                     u94_21:
  5561  01BA  29E7               	goto	i1l580
  5562  01BB                     u94_20:
  5563  01BB                     i1l2122:
  5564                           
  5565                           ;main.c: 435:             {;main.c: 436:                 uint8_t lights = light_array[0]
      +                           >> 7;
  5566  01BB  0879               	movf	_light_array,w
  5567  01BC  00F0               	movwf	??_TMR1_ISR_
  5568  01BD  3007               	movlw	7
  5569  01BE                     u95_25:
  5570  01BE  36F0               	lsrf	??_TMR1_ISR_,f
  5571  01BF  0B89               	decfsz	9,f
  5572  01C0  29BE               	goto	u95_25
  5573  01C1  0870               	movf	??_TMR1_ISR_,w
  5574  01C2  00F1               	movwf	??_TMR1_ISR_+1
  5575  01C3  0871               	movf	??_TMR1_ISR_+1,w
  5576  01C4  00C0               	movwf	TMR1_ISR_@lights_1176
  5577  01C5                     i1l2124:
  5578                           
  5579                           ;main.c: 437:                 for (int i = 0; i < 7; i++)
  5580  01C5  01CC               	clrf	TMR1_ISR_@i_1177
  5581  01C6  01CD               	clrf	TMR1_ISR_@i_1177+1
  5582  01C7                     i1l2130:
  5583                           
  5584                           ;main.c: 438:                 {;main.c: 439:                     light_array[i] = (light
      +                          _array[i] << 1) + lights;
  5585  01C7  0140               	movlb	0	; select bank0
  5586  01C8  084C               	movf	TMR1_ISR_@i_1177,w
  5587  01C9  3E79               	addlw	(low (_light_array| 0))& (0+255)
  5588  01CA  0086               	movwf	6
  5589  01CB  0187               	clrf	7
  5590  01CC  3501               	lslf	1,w
  5591  01CD  0740               	addwf	TMR1_ISR_@lights_1176,w
  5592  01CE  00F0               	movwf	??_TMR1_ISR_
  5593  01CF  084C               	movf	TMR1_ISR_@i_1177,w
  5594  01D0  3E79               	addlw	(low (_light_array| 0))& (0+255)
  5595  01D1  0086               	movwf	6
  5596  01D2  0187               	clrf	7
  5597  01D3  0870               	movf	??_TMR1_ISR_,w
  5598  01D4  0081               	movwf	1
  5599  01D5                     i1l2132:
  5600                           
  5601                           ;main.c: 440:                 }
  5602  01D5  3001               	movlw	1
  5603  01D6  07CC               	addwf	TMR1_ISR_@i_1177,f
  5604  01D7  3000               	movlw	0
  5605  01D8  3DCD               	addwfc	TMR1_ISR_@i_1177+1,f
  5606  01D9                     i1l2134:
  5607  01D9  084D               	movf	TMR1_ISR_@i_1177+1,w
  5608  01DA  3A80               	xorlw	128
  5609  01DB  00F0               	movwf	??_TMR1_ISR_
  5610  01DC  3080               	movlw	128
  5611  01DD  0270               	subwf	??_TMR1_ISR_,w
  5612  01DE  1D03               	skipz
  5613  01DF  29E2               	goto	u96_25
  5614  01E0  3007               	movlw	7
  5615  01E1  024C               	subwf	TMR1_ISR_@i_1177,w
  5616  01E2                     u96_25:
  5617  01E2  1C03               	skipc
  5618  01E3  29E5               	goto	u96_21
  5619  01E4  29E6               	goto	u96_20
  5620  01E5                     u96_21:
  5621  01E5  29C7               	goto	i1l2130
  5622  01E6                     u96_20:
  5623  01E6  29E7               	goto	i1l2136
  5624  01E7                     i1l580:
  5625  01E7                     i1l2136:
  5626                           
  5627                           ;main.c: 447:     if (song3_playing)
  5628  01E7  0140               	movlb	0	; select bank0
  5629  01E8  0869               	movf	_song3_playing,w
  5630  01E9  1903               	btfsc	3,2
  5631  01EA  29EC               	goto	u97_21
  5632  01EB  29ED               	goto	u97_20
  5633  01EC                     u97_21:
  5634  01EC  2B02               	goto	i1l2218
  5635  01ED                     u97_20:
  5636  01ED                     i1l2138:
  5637                           
  5638                           ;main.c: 448:     {;main.c: 450:        if (count < 58)
  5639  01ED  0863               	movf	_count+1,w
  5640  01EE  3A80               	xorlw	128
  5641  01EF  00F0               	movwf	??_TMR1_ISR_
  5642  01F0  3080               	movlw	128
  5643  01F1  0270               	subwf	??_TMR1_ISR_,w
  5644  01F2  1D03               	skipz
  5645  01F3  29F6               	goto	u98_25
  5646  01F4  303A               	movlw	58
  5647  01F5  0262               	subwf	_count,w
  5648  01F6                     u98_25:
  5649  01F6  1803               	skipnc
  5650  01F7  29F9               	goto	u98_21
  5651  01F8  29FA               	goto	u98_20
  5652  01F9                     u98_21:
  5653  01F9  2A5C               	goto	i1l2172
  5654  01FA                     u98_20:
  5655  01FA                     i1l2140:
  5656                           
  5657                           ;main.c: 451:        {;main.c: 452:            if ((last_prescale != song3_pre[count]) &
      +                          & (song3[count] != 0))
  5658  01FA  0140               	movlb	0	; select bank0
  5659  01FB  0862               	movf	_count,w
  5660  01FC  3EA0               	addlw	(low (_song3_pre| (0+256)))& (0+255)
  5661  01FD  0086               	movwf	6
  5662  01FE  3001               	movlw	1	; select bank3/4
  5663  01FF  0087               	movwf	7
  5664  0200  0801               	movf	1,w
  5665  0201  0665               	xorwf	_last_prescale,w
  5666  0202  1903               	skipnz
  5667  0203  2A05               	goto	u99_21
  5668  0204  2A06               	goto	u99_20
  5669  0205                     u99_21:
  5670  0205  2B02               	goto	i1l2218
  5671  0206                     u99_20:
  5672  0206                     i1l2142:
  5673  0206  0862               	movf	_count,w
  5674  0207  3E20               	addlw	(low (_song3| (0+256)))& (0+255)
  5675  0208  0086               	movwf	6
  5676  0209  3001               	movlw	1	; select bank2/3
  5677  020A  0087               	movwf	7
  5678  020B  0801               	movf	1,w
  5679  020C  1903               	btfsc	3,2
  5680  020D  2A0F               	goto	u100_21
  5681  020E  2A10               	goto	u100_20
  5682  020F                     u100_21:
  5683  020F  2B02               	goto	i1l2218
  5684  0210                     u100_20:
  5685  0210                     i1l2144:
  5686                           
  5687                           ;main.c: 453:            {;main.c: 454:                if (change_lights)
  5688  0210  0864               	movf	_change_lights,w
  5689  0211  1903               	btfsc	3,2
  5690  0212  2A14               	goto	u101_21
  5691  0213  2A15               	goto	u101_20
  5692  0214                     u101_21:
  5693  0214  2A38               	goto	i1l2160
  5694  0215                     u101_20:
  5695  0215                     i1l2146:
  5696                           
  5697                           ;main.c: 455:                {;main.c: 456:                    for (int i = 0; i < 7; i+
      +                          +)
  5698  0215  01CE               	clrf	TMR1_ISR_@i_1178
  5699  0216  01CF               	clrf	TMR1_ISR_@i_1178+1
  5700  0217                     i1l2152:
  5701                           
  5702                           ;main.c: 457:                     {;main.c: 458:                         light_array[i] 
      +                          = dream_lights[i];
  5703  0217  0140               	movlb	0	; select bank0
  5704  0218  084E               	movf	TMR1_ISR_@i_1178,w
  5705  0219  3E30               	addlw	(low (_dream_lights| 0))& (0+255)
  5706  021A  0086               	movwf	6
  5707  021B  0187               	clrf	7
  5708  021C  0801               	movf	1,w
  5709  021D  00F0               	movwf	??_TMR1_ISR_
  5710  021E  084E               	movf	TMR1_ISR_@i_1178,w
  5711  021F  3E79               	addlw	(low (_light_array| 0))& (0+255)
  5712  0220  0086               	movwf	6
  5713  0221  0187               	clrf	7
  5714  0222  0870               	movf	??_TMR1_ISR_,w
  5715  0223  0081               	movwf	1
  5716  0224                     i1l2154:
  5717                           
  5718                           ;main.c: 459:                     }
  5719  0224  3001               	movlw	1
  5720  0225  07CE               	addwf	TMR1_ISR_@i_1178,f
  5721  0226  3000               	movlw	0
  5722  0227  3DCF               	addwfc	TMR1_ISR_@i_1178+1,f
  5723  0228                     i1l2156:
  5724  0228  084F               	movf	TMR1_ISR_@i_1178+1,w
  5725  0229  3A80               	xorlw	128
  5726  022A  00F0               	movwf	??_TMR1_ISR_
  5727  022B  3080               	movlw	128
  5728  022C  0270               	subwf	??_TMR1_ISR_,w
  5729  022D  1D03               	skipz
  5730  022E  2A31               	goto	u102_25
  5731  022F  3007               	movlw	7
  5732  0230  024E               	subwf	TMR1_ISR_@i_1178,w
  5733  0231                     u102_25:
  5734  0231  1C03               	skipc
  5735  0232  2A34               	goto	u102_21
  5736  0233  2A35               	goto	u102_20
  5737  0234                     u102_21:
  5738  0234  2A17               	goto	i1l2152
  5739  0235                     u102_20:
  5740  0235                     i1l2158:
  5741                           
  5742                           ;main.c: 460:                    change_lights = 0;
  5743  0235  0140               	movlb	0	; select bank0
  5744  0236  01E4               	clrf	_change_lights
  5745                           
  5746                           ;main.c: 461:                }
  5747  0237  2B02               	goto	i1l2218
  5748  0238                     i1l2160:
  5749                           
  5750                           ;main.c: 463:                {;main.c: 464:                    for (int i = 0; i < 7; i+
      +                          +)
  5751  0238  01D0               	clrf	TMR1_ISR_@i_1179
  5752  0239  01D1               	clrf	TMR1_ISR_@i_1179+1
  5753  023A                     i1l2166:
  5754                           
  5755                           ;main.c: 465:                     {;main.c: 466:                         light_array[i] 
      +                          = ~dream_lights[i];
  5756  023A  0140               	movlb	0	; select bank0
  5757  023B  0850               	movf	TMR1_ISR_@i_1179,w
  5758  023C  3E30               	addlw	(low (_dream_lights| 0))& (0+255)
  5759  023D  0086               	movwf	6
  5760  023E  0187               	clrf	7
  5761  023F  0901               	comf	1,w
  5762  0240  00F0               	movwf	??_TMR1_ISR_
  5763  0241  0850               	movf	TMR1_ISR_@i_1179,w
  5764  0242  3E79               	addlw	(low (_light_array| 0))& (0+255)
  5765  0243  0086               	movwf	6
  5766  0244  0187               	clrf	7
  5767  0245  0870               	movf	??_TMR1_ISR_,w
  5768  0246  0081               	movwf	1
  5769  0247                     i1l2168:
  5770                           
  5771                           ;main.c: 467:                     }
  5772  0247  3001               	movlw	1
  5773  0248  07D0               	addwf	TMR1_ISR_@i_1179,f
  5774  0249  3000               	movlw	0
  5775  024A  3DD1               	addwfc	TMR1_ISR_@i_1179+1,f
  5776  024B                     i1l2170:
  5777  024B  0851               	movf	TMR1_ISR_@i_1179+1,w
  5778  024C  3A80               	xorlw	128
  5779  024D  00F0               	movwf	??_TMR1_ISR_
  5780  024E  3080               	movlw	128
  5781  024F  0270               	subwf	??_TMR1_ISR_,w
  5782  0250  1D03               	skipz
  5783  0251  2A54               	goto	u103_25
  5784  0252  3007               	movlw	7
  5785  0253  0250               	subwf	TMR1_ISR_@i_1179,w
  5786  0254                     u103_25:
  5787  0254  1C03               	skipc
  5788  0255  2A57               	goto	u103_21
  5789  0256  2A58               	goto	u103_20
  5790  0257                     u103_21:
  5791  0257  2A3A               	goto	i1l2166
  5792  0258                     u103_20:
  5793  0258                     i1l596:
  5794                           
  5795                           ;main.c: 468:                    change_lights = 1;
  5796  0258  0140               	movlb	0	; select bank0
  5797  0259  01E4               	clrf	_change_lights
  5798  025A  0AE4               	incf	_change_lights,f
  5799  025B  2B02               	goto	i1l2218
  5800  025C                     i1l2172:
  5801  025C  0140               	movlb	0	; select bank0
  5802  025D  0863               	movf	_count+1,w
  5803  025E  3A80               	xorlw	128
  5804  025F  00F0               	movwf	??_TMR1_ISR_
  5805  0260  3080               	movlw	128
  5806  0261  0270               	subwf	??_TMR1_ISR_,w
  5807  0262  1D03               	skipz
  5808  0263  2A66               	goto	u104_25
  5809  0264  303E               	movlw	62
  5810  0265  0262               	subwf	_count,w
  5811  0266                     u104_25:
  5812  0266  1803               	skipnc
  5813  0267  2A69               	goto	u104_21
  5814  0268  2A6A               	goto	u104_20
  5815  0269                     u104_21:
  5816  0269  2A88               	goto	i1l2186
  5817  026A                     u104_20:
  5818  026A                     i1l2174:
  5819                           
  5820                           ;main.c: 473:        {;main.c: 474:            for (int i = 0; i < 7; i++)
  5821  026A  0140               	movlb	0	; select bank0
  5822  026B  01C4               	clrf	TMR1_ISR_@i_1180
  5823  026C  01C5               	clrf	TMR1_ISR_@i_1180+1
  5824  026D                     i1l2180:
  5825                           
  5826                           ;main.c: 475:             {;main.c: 476:                 light_array[i] = 0xFF;
  5827  026D  30FF               	movlw	255
  5828  026E  00F0               	movwf	??_TMR1_ISR_
  5829  026F  0140               	movlb	0	; select bank0
  5830  0270  0844               	movf	TMR1_ISR_@i_1180,w
  5831  0271  3E79               	addlw	(low (_light_array| 0))& (0+255)
  5832  0272  0086               	movwf	6
  5833  0273  0187               	clrf	7
  5834  0274  0870               	movf	??_TMR1_ISR_,w
  5835  0275  0081               	movwf	1
  5836  0276                     i1l2182:
  5837                           
  5838                           ;main.c: 477:             }
  5839  0276  3001               	movlw	1
  5840  0277  07C4               	addwf	TMR1_ISR_@i_1180,f
  5841  0278  3000               	movlw	0
  5842  0279  3DC5               	addwfc	TMR1_ISR_@i_1180+1,f
  5843  027A                     i1l2184:
  5844  027A  0845               	movf	TMR1_ISR_@i_1180+1,w
  5845  027B  3A80               	xorlw	128
  5846  027C  00F0               	movwf	??_TMR1_ISR_
  5847  027D  3080               	movlw	128
  5848  027E  0270               	subwf	??_TMR1_ISR_,w
  5849  027F  1D03               	skipz
  5850  0280  2A83               	goto	u105_25
  5851  0281  3007               	movlw	7
  5852  0282  0244               	subwf	TMR1_ISR_@i_1180,w
  5853  0283                     u105_25:
  5854  0283  1C03               	skipc
  5855  0284  2A86               	goto	u105_21
  5856  0285  2A87               	goto	u105_20
  5857  0286                     u105_21:
  5858  0286  2A6D               	goto	i1l2180
  5859  0287                     u105_20:
  5860  0287  2B02               	goto	i1l2218
  5861  0288                     i1l2186:
  5862                           
  5863                           ;main.c: 480:        {;main.c: 481:            uint8_t dream_sw = count - 61;
  5864  0288  0140               	movlb	0	; select bank0
  5865  0289  0862               	movf	_count,w
  5866  028A  3EC3               	addlw	195
  5867  028B  00F0               	movwf	??_TMR1_ISR_
  5868  028C  0870               	movf	??_TMR1_ISR_,w
  5869  028D  00C1               	movwf	TMR1_ISR_@dream_sw
  5870                           
  5871                           ;main.c: 482:            switch(dream_sw)
  5872  028E  2AEF               	goto	i1l2216
  5873  028F                     i1l2188:
  5874                           
  5875                           ;main.c: 485:                    light_array[0] = 0xFF;
  5876  028F  30FF               	movlw	255
  5877  0290  00F0               	movwf	??_TMR1_ISR_
  5878  0291  0870               	movf	??_TMR1_ISR_,w
  5879  0292  00F9               	movwf	_light_array
  5880                           
  5881                           ;main.c: 486:                    light_array[1] = 0xFF;
  5882  0293  30FF               	movlw	255
  5883  0294  00F0               	movwf	??_TMR1_ISR_
  5884  0295  0870               	movf	??_TMR1_ISR_,w
  5885  0296  00FA               	movwf	_light_array+1
  5886                           
  5887                           ;main.c: 487:                    light_array[2] = 0xF3;
  5888  0297  30F3               	movlw	243
  5889  0298  00F0               	movwf	??_TMR1_ISR_
  5890  0299  0870               	movf	??_TMR1_ISR_,w
  5891  029A  00FB               	movwf	_light_array+2
  5892                           
  5893                           ;main.c: 488:                    light_array[3] = 0xE3;
  5894  029B  30E3               	movlw	227
  5895  029C  00F0               	movwf	??_TMR1_ISR_
  5896  029D  0870               	movf	??_TMR1_ISR_,w
  5897  029E  00FC               	movwf	_light_array+3
  5898                           
  5899                           ;main.c: 489:                    light_array[4] = 0xE3;
  5900  029F  30E3               	movlw	227
  5901  02A0  00F0               	movwf	??_TMR1_ISR_
  5902  02A1  0870               	movf	??_TMR1_ISR_,w
  5903  02A2  00FD               	movwf	_light_array+4
  5904                           
  5905                           ;main.c: 490:                    light_array[5] = 0xFF;
  5906  02A3  30FF               	movlw	255
  5907  02A4  00F0               	movwf	??_TMR1_ISR_
  5908  02A5  0870               	movf	??_TMR1_ISR_,w
  5909  02A6  00FE               	movwf	_light_array+5
  5910                           
  5911                           ;main.c: 491:                    light_array[6] = 0xFF;
  5912  02A7  30FF               	movlw	255
  5913  02A8  00F0               	movwf	??_TMR1_ISR_
  5914  02A9  0870               	movf	??_TMR1_ISR_,w
  5915  02AA  00FF               	movwf	_light_array+6
  5916                           
  5917                           ;main.c: 492:                    break;
  5918  02AB  2B02               	goto	i1l2218
  5919  02AC                     i1l2190:
  5920                           
  5921                           ;main.c: 494:                    for (int i = 0; i < 7; i++)
  5922  02AC  01D2               	clrf	TMR1_ISR_@i_1182
  5923  02AD  01D3               	clrf	TMR1_ISR_@i_1182+1
  5924  02AE                     i1l2192:
  5925  02AE  0853               	movf	TMR1_ISR_@i_1182+1,w
  5926  02AF  3A80               	xorlw	128
  5927  02B0  00F0               	movwf	??_TMR1_ISR_
  5928  02B1  3080               	movlw	128
  5929  02B2  0270               	subwf	??_TMR1_ISR_,w
  5930  02B3  1D03               	skipz
  5931  02B4  2AB7               	goto	u106_25
  5932  02B5  3007               	movlw	7
  5933  02B6  0252               	subwf	TMR1_ISR_@i_1182,w
  5934  02B7                     u106_25:
  5935  02B7  1C03               	skipc
  5936  02B8  2ABA               	goto	u106_21
  5937  02B9  2ABB               	goto	u106_20
  5938  02BA                     u106_21:
  5939  02BA  2ABC               	goto	i1l2196
  5940  02BB                     u106_20:
  5941  02BB  2B02               	goto	i1l2218
  5942  02BC                     i1l2196:
  5943                           
  5944                           ;main.c: 495:                     {;main.c: 496:                         light_array[i] 
      +                          = !dream_lights[i];
  5945  02BC  0140               	movlb	0	; select bank0
  5946  02BD  0852               	movf	TMR1_ISR_@i_1182,w
  5947  02BE  3E30               	addlw	(low (_dream_lights| 0))& (0+255)
  5948  02BF  0086               	movwf	6
  5949  02C0  0187               	clrf	7
  5950  02C1  0801               	movf	1,w
  5951  02C2  1903               	btfsc	3,2
  5952  02C3  2AC5               	goto	u107_21
  5953  02C4  2AC7               	goto	u107_20
  5954  02C5                     u107_21:
  5955  02C5  3001               	movlw	1
  5956  02C6  2AC8               	goto	u108_20
  5957  02C7                     u107_20:
  5958  02C7  3000               	movlw	0
  5959  02C8                     u108_20:
  5960  02C8  00F0               	movwf	??_TMR1_ISR_
  5961  02C9  0852               	movf	TMR1_ISR_@i_1182,w
  5962  02CA  3E79               	addlw	(low (_light_array| 0))& (0+255)
  5963  02CB  0086               	movwf	6
  5964  02CC  0187               	clrf	7
  5965  02CD  0870               	movf	??_TMR1_ISR_,w
  5966  02CE  0081               	movwf	1
  5967  02CF                     i1l2198:
  5968                           
  5969                           ;main.c: 497:                     }
  5970  02CF  3001               	movlw	1
  5971  02D0  07D2               	addwf	TMR1_ISR_@i_1182,f
  5972  02D1  3000               	movlw	0
  5973  02D2  3DD3               	addwfc	TMR1_ISR_@i_1182+1,f
  5974  02D3  2AAE               	goto	i1l2192
  5975  02D4                     i1l2202:
  5976                           
  5977                           ;main.c: 500:                    for (int i = 0; i < 7; i++)
  5978  02D4  01C6               	clrf	TMR1_ISR_@i_1183
  5979  02D5  01C7               	clrf	TMR1_ISR_@i_1183+1
  5980  02D6                     i1l2204:
  5981  02D6  0847               	movf	TMR1_ISR_@i_1183+1,w
  5982  02D7  3A80               	xorlw	128
  5983  02D8  00F0               	movwf	??_TMR1_ISR_
  5984  02D9  3080               	movlw	128
  5985  02DA  0270               	subwf	??_TMR1_ISR_,w
  5986  02DB  1D03               	skipz
  5987  02DC  2ADF               	goto	u109_25
  5988  02DD  3007               	movlw	7
  5989  02DE  0246               	subwf	TMR1_ISR_@i_1183,w
  5990  02DF                     u109_25:
  5991  02DF  1C03               	skipc
  5992  02E0  2AE2               	goto	u109_21
  5993  02E1  2AE3               	goto	u109_20
  5994  02E2                     u109_21:
  5995  02E2  2AE4               	goto	i1l2208
  5996  02E3                     u109_20:
  5997  02E3  2B02               	goto	i1l2218
  5998  02E4                     i1l2208:
  5999                           
  6000                           ;main.c: 501:                     {;main.c: 502:                         light_array[i] 
      +                          = 0x00;
  6001  02E4  0140               	movlb	0	; select bank0
  6002  02E5  0846               	movf	TMR1_ISR_@i_1183,w
  6003  02E6  3E79               	addlw	(low (_light_array| 0))& (0+255)
  6004  02E7  0086               	movwf	6
  6005  02E8  0187               	clrf	7
  6006  02E9  0181               	clrf	1
  6007  02EA                     i1l2210:
  6008                           
  6009                           ;main.c: 503:                     }
  6010  02EA  3001               	movlw	1
  6011  02EB  07C6               	addwf	TMR1_ISR_@i_1183,f
  6012  02EC  3000               	movlw	0
  6013  02ED  3DC7               	addwfc	TMR1_ISR_@i_1183+1,f
  6014  02EE  2AD6               	goto	i1l2204
  6015  02EF                     i1l2216:
  6016  02EF  0841               	movf	TMR1_ISR_@dream_sw,w
  6017  02F0  00F0               	movwf	??_TMR1_ISR_
  6018  02F1  01F1               	clrf	??_TMR1_ISR_+1
  6019                           
  6020                           ; Switch on 2 bytes has been partitioned into a top level switch of size 1, and 1 sub-sw
      +                          itches
  6021                           ; Switch size 1, requested type "simple"
  6022                           ; Number of cases is 1, Range of values is 0 to 0
  6023                           ; switch strategies available:
  6024                           ; Name         Instructions Cycles
  6025                           ; simple_byte            4     3 (average)
  6026                           ; direct_byte            8     6 (fixed)
  6027                           ; jumptable            260     6 (fixed)
  6028                           ;	Chosen strategy is simple_byte
  6029  02F2  0871               	movf	??_TMR1_ISR_+1,w
  6030  02F3  3A00               	xorlw	0	; case 0
  6031  02F4  1903               	skipnz
  6032  02F5  2AF7               	goto	i1l2730
  6033  02F6  2B02               	goto	i1l597
  6034  02F7                     i1l2730:
  6035                           
  6036                           ; Switch size 1, requested type "simple"
  6037                           ; Number of cases is 3, Range of values is 1 to 3
  6038                           ; switch strategies available:
  6039                           ; Name         Instructions Cycles
  6040                           ; simple_byte           10     6 (average)
  6041                           ; direct_byte           15     9 (fixed)
  6042                           ; jumptable            263     9 (fixed)
  6043                           ;	Chosen strategy is simple_byte
  6044  02F7  0870               	movf	??_TMR1_ISR_,w
  6045  02F8  3A01               	xorlw	1	; case 1
  6046  02F9  1903               	skipnz
  6047  02FA  2A8F               	goto	i1l2188
  6048  02FB  3A03               	xorlw	3	; case 2
  6049  02FC  1903               	skipnz
  6050  02FD  2AAC               	goto	i1l2190
  6051  02FE  3A01               	xorlw	1	; case 3
  6052  02FF  1903               	skipnz
  6053  0300  2AD4               	goto	i1l2202
  6054  0301  2B02               	goto	i1l597
  6055  0302                     i1l597:
  6056  0302                     i1l2218:
  6057                           
  6058                           ;main.c: 512:     if (song2_playing)
  6059  0302  0140               	movlb	0	; select bank0
  6060  0303  0868               	movf	_song2_playing,w
  6061  0304  1903               	btfsc	3,2
  6062  0305  2B07               	goto	u110_21
  6063  0306  2B08               	goto	u110_20
  6064  0307                     u110_21:
  6065  0307  2B0F               	goto	i1l2222
  6066  0308                     u110_20:
  6067  0308                     i1l2220:
  6068                           
  6069                           ;main.c: 513:     {;main.c: 514:         TMR1H = timer_high_2;
  6070  0308  083C               	movf	_timer_high_2,w
  6071  0309  0144               	movlb	4	; select bank4
  6072  030A  008D               	movwf	13	;volatile
  6073                           
  6074                           ;main.c: 515:         TMR1L = timer_low_2;
  6075  030B  0140               	movlb	0	; select bank0
  6076  030C  083B               	movf	_timer_low_2,w
  6077  030D  0144               	movlb	4	; select bank4
  6078  030E  008C               	movwf	12	;volatile
  6079  030F                     i1l2222:
  6080                           
  6081                           ;main.c: 519:     if (song3_playing)
  6082  030F  0140               	movlb	0	; select bank0
  6083  0310  0869               	movf	_song3_playing,w
  6084  0311  1903               	btfsc	3,2
  6085  0312  2B14               	goto	u111_21
  6086  0313  2B15               	goto	u111_20
  6087  0314                     u111_21:
  6088  0314  2B1C               	goto	i1l612
  6089  0315                     u111_20:
  6090  0315                     i1l2224:
  6091                           
  6092                           ;main.c: 520:     {;main.c: 521:         TMR1H = timer_high_3;
  6093  0315  0839               	movf	_timer_high_3,w
  6094  0316  0144               	movlb	4	; select bank4
  6095  0317  008D               	movwf	13	;volatile
  6096                           
  6097                           ;main.c: 522:         TMR1L = timer_low_3;
  6098  0318  0140               	movlb	0	; select bank0
  6099  0319  0838               	movf	_timer_low_3,w
  6100  031A  0144               	movlb	4	; select bank4
  6101  031B  008C               	movwf	12	;volatile
  6102  031C                     i1l612:	
  6103                           ;main.c: 523:     }
  6104                           
  6105                           
  6106                           ;main.c: 528:     if ((count > 138) && silent_night_playing)
  6107  031C  0140               	movlb	0	; select bank0
  6108  031D  0863               	movf	_count+1,w
  6109  031E  3A80               	xorlw	128
  6110  031F  00F0               	movwf	??_TMR1_ISR_
  6111  0320  3080               	movlw	128
  6112  0321  0270               	subwf	??_TMR1_ISR_,w
  6113  0322  1D03               	skipz
  6114  0323  2B26               	goto	u112_25
  6115  0324  308B               	movlw	139
  6116  0325  0262               	subwf	_count,w
  6117  0326                     u112_25:
  6118  0326  1C03               	skipc
  6119  0327  2B29               	goto	u112_21
  6120  0328  2B2A               	goto	u112_20
  6121  0329                     u112_21:
  6122  0329  2B34               	goto	i1l2230
  6123  032A                     u112_20:
  6124  032A                     i1l2226:
  6125  032A  0140               	movlb	0	; select bank0
  6126  032B  086A               	movf	_silent_night_playing,w
  6127  032C  1903               	btfsc	3,2
  6128  032D  2B2F               	goto	u113_21
  6129  032E  2B30               	goto	u113_20
  6130  032F                     u113_21:
  6131  032F  2B34               	goto	i1l2230
  6132  0330                     u113_20:
  6133  0330                     i1l2228:
  6134                           
  6135                           ;main.c: 529:     {;main.c: 530:         presses = 0;
  6136  0330  01F8               	clrf	_presses
  6137                           
  6138                           ;main.c: 531:         count = 0;
  6139  0331  01E2               	clrf	_count
  6140  0332  01E3               	clrf	_count+1
  6141                           
  6142                           ;main.c: 532:     }
  6143  0333  2B5A               	goto	i1l618
  6144  0334                     i1l2230:
  6145  0334  0140               	movlb	0	; select bank0
  6146  0335  0863               	movf	_count+1,w
  6147  0336  3A80               	xorlw	128
  6148  0337  3C80               	sublw	128
  6149  0338  1D03               	skipz
  6150  0339  2B3C               	goto	u114_25
  6151  033A  0862               	movf	_count,w
  6152  033B  023A               	subwf	_song2_length,w
  6153  033C                     u114_25:
  6154  033C  1803               	skipnc
  6155  033D  2B3F               	goto	u114_21
  6156  033E  2B40               	goto	u114_20
  6157  033F                     u114_21:
  6158  033F  2B47               	goto	i1l2236
  6159  0340                     u114_20:
  6160  0340                     i1l2232:
  6161  0340  0140               	movlb	0	; select bank0
  6162  0341  0868               	movf	_song2_playing,w
  6163  0342  1903               	btfsc	3,2
  6164  0343  2B45               	goto	u115_21
  6165  0344  2B46               	goto	u115_20
  6166  0345                     u115_21:
  6167  0345  2B47               	goto	i1l2236
  6168  0346                     u115_20:
  6169  0346  2B30               	goto	i1l2228
  6170  0347                     i1l2236:
  6171  0347  0140               	movlb	0	; select bank0
  6172  0348  0863               	movf	_count+1,w
  6173  0349  3A80               	xorlw	128
  6174  034A  3C80               	sublw	128
  6175  034B  1D03               	skipz
  6176  034C  2B4F               	goto	u116_25
  6177  034D  0862               	movf	_count,w
  6178  034E  0237               	subwf	_song3_length,w
  6179  034F                     u116_25:
  6180  034F  1803               	skipnc
  6181  0350  2B52               	goto	u116_21
  6182  0351  2B53               	goto	u116_20
  6183  0352                     u116_21:
  6184  0352  2B5A               	goto	i1l618
  6185  0353                     u116_20:
  6186  0353                     i1l2238:
  6187  0353  0140               	movlb	0	; select bank0
  6188  0354  0869               	movf	_song3_playing,w
  6189  0355  1903               	btfsc	3,2
  6190  0356  2B58               	goto	u117_21
  6191  0357  2B59               	goto	u117_20
  6192  0358                     u117_21:
  6193  0358  2B5A               	goto	i1l618
  6194  0359                     u117_20:
  6195  0359  2B30               	goto	i1l2228
  6196  035A                     i1l618:
  6197  035A  0008               	return
  6198  035B                     __end_of_TMR1_ISR_:
  6199                           
  6200                           	psect	text23
  6201  077D                     __ptext23:	
  6202 ;; *************** function _TMR0_ISR *****************
  6203 ;; Defined at:
  6204 ;;		line 134 in file "mcc_generated_files/tmr0.c"
  6205 ;; Parameters:    Size  Location     Type
  6206 ;;		None
  6207 ;; Auto vars:     Size  Location     Type
  6208 ;;		None
  6209 ;; Return value:  Size  Location     Type
  6210 ;;                  1    wreg      void 
  6211 ;; Registers used:
  6212 ;;		wreg, status,2, status,0, pclath, cstack
  6213 ;; Tracked objects:
  6214 ;;		On entry : 0/0
  6215 ;;		On exit  : 0/0
  6216 ;;		Unchanged: 0/0
  6217 ;; Data sizes:     COMMON   BANK0   BANK1   BANK2   BANK3   BANK4   BANK5   BANK6   BANK7   BANK8   BANK9  BANK10  BANK1
      +1  BANK12
  6218 ;;      Params:         0       0       0       0       0       0       0       0       0       0       0       0       
      +0       0
  6219 ;;      Locals:         0       0       0       0       0       0       0       0       0       0       0       0       
      +0       0
  6220 ;;      Temps:          0       0       0       0       0       0       0       0       0       0       0       0       
      +0       0
  6221 ;;      Totals:         0       0       0       0       0       0       0       0       0       0       0       0       
      +0       0
  6222 ;;Total ram usage:        0 bytes
  6223 ;; Hardware stack levels used: 1
  6224 ;; Hardware stack levels required when called: 1
  6225 ;; This function calls:
  6226 ;;		Absolute function
  6227 ;;		_TMR0_DefaultInterruptHandler
  6228 ;;		_TMR0_ISR_
  6229 ;; This function is called by:
  6230 ;;		_INTERRUPT_InterruptManager
  6231 ;; This function uses a non-reentrant model
  6232 ;;
  6233                           
  6234                           
  6235                           ;psect for function _TMR0_ISR
  6236  077D                     _TMR0_ISR:
  6237  077D                     i1l2262:	
  6238                           ;incstack = 0
  6239                           ; Regs used in _TMR0_ISR: [wreg+status,2+status,0+pclath+cstack]
  6240                           
  6241                           
  6242                           ;mcc_generated_files/tmr0.c: 137:     PIR0bits.TMR0IF = 0;
  6243  077D  014E               	movlb	14	; select bank14
  6244  077E  128C               	bcf	12,5	;volatile
  6245  077F                     i1l2264:
  6246                           
  6247                           ;mcc_generated_files/tmr0.c: 139:     TMR0H = timer0ReloadVal16bit >> 8;
  6248  077F  0140               	movlb	0	; select bank0
  6249  0780  085F               	movf	_timer0ReloadVal16bit+1,w	;volatile
  6250  0781  014B               	movlb	11	; select bank11
  6251  0782  009D               	movwf	29	;volatile
  6252  0783                     i1l2266:
  6253                           
  6254                           ;mcc_generated_files/tmr0.c: 140:     TMR0L = (uint8_t) timer0ReloadVal16bit;
  6255  0783  0140               	movlb	0	; select bank0
  6256  0784  085E               	movf	_timer0ReloadVal16bit,w	;volatile
  6257  0785  014B               	movlb	11	; select bank11
  6258  0786  009C               	movwf	28	;volatile
  6259  0787                     i1l2268:
  6260                           
  6261                           ;mcc_generated_files/tmr0.c: 142:     if(TMR0_InterruptHandler)
  6262  0787  0140               	movlb	0	; select bank0
  6263  0788  085C               	movf	_TMR0_InterruptHandler,w
  6264  0789  045D               	iorwf	_TMR0_InterruptHandler+1,w
  6265  078A  1903               	btfsc	3,2
  6266  078B  2F8D               	goto	u118_21
  6267  078C  2F8E               	goto	u118_20
  6268  078D                     u118_21:
  6269  078D  2F93               	goto	i1l328
  6270  078E                     u118_20:
  6271  078E                     i1l2270:
  6272                           
  6273                           ;mcc_generated_files/tmr0.c: 143:     {;mcc_generated_files/tmr0.c: 144:         TMR0_In
      +                          terruptHandler();
  6274  078E  085D               	movf	_TMR0_InterruptHandler+1,w
  6275  078F  008A               	movwf	10
  6276  0790  085C               	movf	_TMR0_InterruptHandler,w
  6277  0791  000A               	callw
  6278  0792  3187               	pagesel	$
  6279  0793                     i1l328:
  6280  0793  0008               	return
  6281  0794                     __end_of_TMR0_ISR:
  6282                           
  6283                           	psect	text24
  6284  0002                     __ptext24:	
  6285 ;; *************** function _TMR0_DefaultInterruptHandler *****************
  6286 ;; Defined at:
  6287 ;;		line 155 in file "mcc_generated_files/tmr0.c"
  6288 ;; Parameters:    Size  Location     Type
  6289 ;;		None
  6290 ;; Auto vars:     Size  Location     Type
  6291 ;;		None
  6292 ;; Return value:  Size  Location     Type
  6293 ;;                  1    wreg      void 
  6294 ;; Registers used:
  6295 ;;		None
  6296 ;; Tracked objects:
  6297 ;;		On entry : 0/0
  6298 ;;		On exit  : 0/0
  6299 ;;		Unchanged: 0/0
  6300 ;; Data sizes:     COMMON   BANK0   BANK1   BANK2   BANK3   BANK4   BANK5   BANK6   BANK7   BANK8   BANK9  BANK10  BANK1
      +1  BANK12
  6301 ;;      Params:         0       0       0       0       0       0       0       0       0       0       0       0       
      +0       0
  6302 ;;      Locals:         0       0       0       0       0       0       0       0       0       0       0       0       
      +0       0
  6303 ;;      Temps:          0       0       0       0       0       0       0       0       0       0       0       0       
      +0       0
  6304 ;;      Totals:         0       0       0       0       0       0       0       0       0       0       0       0       
      +0       0
  6305 ;;Total ram usage:        0 bytes
  6306 ;; Hardware stack levels used: 1
  6307 ;; This function calls:
  6308 ;;		Nothing
  6309 ;; This function is called by:
  6310 ;;		_TMR0_Initialize
  6311 ;;		_TMR0_ISR
  6312 ;; This function uses a non-reentrant model
  6313 ;;
  6314                           
  6315                           
  6316                           ;psect for function _TMR0_DefaultInterruptHandler
  6317  0002                     _TMR0_DefaultInterruptHandler:
  6318  0002                     i1l334:	
  6319                           ;incstack = 0
  6320                           ; Regs used in _TMR0_DefaultInterruptHandler: []
  6321                           
  6322  0002  0008               	return
  6323  0003                     __end_of_TMR0_DefaultInterruptHandler:
  6324                           
  6325                           	psect	text25
  6326  0FB4                     __ptext25:	
  6327 ;; *************** function _TMR0_ISR_ *****************
  6328 ;; Defined at:
  6329 ;;		line 373 in file "main.c"
  6330 ;; Parameters:    Size  Location     Type
  6331 ;;		None
  6332 ;; Auto vars:     Size  Location     Type
  6333 ;;		None
  6334 ;; Return value:  Size  Location     Type
  6335 ;;                  1    wreg      void 
  6336 ;; Registers used:
  6337 ;;		None
  6338 ;; Tracked objects:
  6339 ;;		On entry : 0/0
  6340 ;;		On exit  : 0/0
  6341 ;;		Unchanged: 0/0
  6342 ;; Data sizes:     COMMON   BANK0   BANK1   BANK2   BANK3   BANK4   BANK5   BANK6   BANK7   BANK8   BANK9  BANK10  BANK1
      +1  BANK12
  6343 ;;      Params:         0       0       0       0       0       0       0       0       0       0       0       0       
      +0       0
  6344 ;;      Locals:         0       0       0       0       0       0       0       0       0       0       0       0       
      +0       0
  6345 ;;      Temps:          0       0       0       0       0       0       0       0       0       0       0       0       
      +0       0
  6346 ;;      Totals:         0       0       0       0       0       0       0       0       0       0       0       0       
      +0       0
  6347 ;;Total ram usage:        0 bytes
  6348 ;; Hardware stack levels used: 1
  6349 ;; This function calls:
  6350 ;;		Nothing
  6351 ;; This function is called by:
  6352 ;;		_main
  6353 ;;		_TMR0_ISR
  6354 ;; This function uses a non-reentrant model
  6355 ;;
  6356                           
  6357                           
  6358                           ;psect for function _TMR0_ISR_
  6359  0FB4                     _TMR0_ISR_:
  6360  0FB4                     i1l2040:	
  6361                           ;incstack = 0
  6362                           ; Regs used in _TMR0_ISR_: []
  6363                           
  6364                           
  6365                           ;main.c: 375:     TMR0_complete = 1;
  6366  0FB4  0140               	movlb	0	; select bank0
  6367  0FB5  01E7               	clrf	_TMR0_complete
  6368  0FB6  0AE7               	incf	_TMR0_complete,f
  6369  0FB7                     i1l559:
  6370  0FB7  0008               	return
  6371  0FB8                     __end_of_TMR0_ISR_:
  6372                           
  6373                           	psect	text26
  6374  0FB8                     __ptext26:	
  6375 ;; *************** function _INT_ISR *****************
  6376 ;; Defined at:
  6377 ;;		line 33 in file "mcc_generated_files/ext_int.c"
  6378 ;; Parameters:    Size  Location     Type
  6379 ;;		None
  6380 ;; Auto vars:     Size  Location     Type
  6381 ;;		None
  6382 ;; Return value:  Size  Location     Type
  6383 ;;                  1    wreg      void 
  6384 ;; Registers used:
  6385 ;;		wreg, status,2, status,0, pclath, cstack
  6386 ;; Tracked objects:
  6387 ;;		On entry : 0/0
  6388 ;;		On exit  : 0/0
  6389 ;;		Unchanged: 0/0
  6390 ;; Data sizes:     COMMON   BANK0   BANK1   BANK2   BANK3   BANK4   BANK5   BANK6   BANK7   BANK8   BANK9  BANK10  BANK1
      +1  BANK12
  6391 ;;      Params:         0       0       0       0       0       0       0       0       0       0       0       0       
      +0       0
  6392 ;;      Locals:         0       0       0       0       0       0       0       0       0       0       0       0       
      +0       0
  6393 ;;      Temps:          0       0       0       0       0       0       0       0       0       0       0       0       
      +0       0
  6394 ;;      Totals:         0       0       0       0       0       0       0       0       0       0       0       0       
      +0       0
  6395 ;;Total ram usage:        0 bytes
  6396 ;; Hardware stack levels used: 1
  6397 ;; Hardware stack levels required when called: 3
  6398 ;; This function calls:
  6399 ;;		_INT_CallBack
  6400 ;; This function is called by:
  6401 ;;		_INTERRUPT_InterruptManager
  6402 ;; This function uses a non-reentrant model
  6403 ;;
  6404                           
  6405                           
  6406                           ;psect for function _INT_ISR
  6407  0FB8                     _INT_ISR:
  6408  0FB8                     i1l2272:	
  6409                           ;incstack = 0
  6410                           ; Regs used in _INT_ISR: [wreg+status,2+status,0+pclath+cstack]
  6411                           
  6412                           
  6413                           ;mcc_generated_files/ext_int.c: 47:     (PIR0bits.INTF = 0);
  6414  0FB8  014E               	movlb	14	; select bank14
  6415  0FB9  100C               	bcf	12,0	;volatile
  6416  0FBA                     i1l2274:
  6417                           
  6418                           ;mcc_generated_files/ext_int.c: 50:     INT_CallBack();
  6419  0FBA  318F  27F3  318F   	fcall	_INT_CallBack
  6420  0FBD                     i1l271:
  6421  0FBD  0008               	return
  6422  0FBE                     __end_of_INT_ISR:
  6423                           
  6424                           	psect	text27
  6425  0FF3                     __ptext27:	
  6426 ;; *************** function _INT_CallBack *****************
  6427 ;; Defined at:
  6428 ;;		line 54 in file "mcc_generated_files/ext_int.c"
  6429 ;; Parameters:    Size  Location     Type
  6430 ;;		None
  6431 ;; Auto vars:     Size  Location     Type
  6432 ;;		None
  6433 ;; Return value:  Size  Location     Type
  6434 ;;                  1    wreg      void 
  6435 ;; Registers used:
  6436 ;;		wreg, status,2, status,0, pclath, cstack
  6437 ;; Tracked objects:
  6438 ;;		On entry : 0/0
  6439 ;;		On exit  : 0/0
  6440 ;;		Unchanged: 0/0
  6441 ;; Data sizes:     COMMON   BANK0   BANK1   BANK2   BANK3   BANK4   BANK5   BANK6   BANK7   BANK8   BANK9  BANK10  BANK1
      +1  BANK12
  6442 ;;      Params:         0       0       0       0       0       0       0       0       0       0       0       0       
      +0       0
  6443 ;;      Locals:         0       0       0       0       0       0       0       0       0       0       0       0       
      +0       0
  6444 ;;      Temps:          0       0       0       0       0       0       0       0       0       0       0       0       
      +0       0
  6445 ;;      Totals:         0       0       0       0       0       0       0       0       0       0       0       0       
      +0       0
  6446 ;;Total ram usage:        0 bytes
  6447 ;; Hardware stack levels used: 1
  6448 ;; Hardware stack levels required when called: 2
  6449 ;; This function calls:
  6450 ;;		Absolute function
  6451 ;;		_EXT_ISR
  6452 ;;		_INT_DefaultInterruptHandler
  6453 ;; This function is called by:
  6454 ;;		_INT_ISR
  6455 ;; This function uses a non-reentrant model
  6456 ;;
  6457                           
  6458                           
  6459                           ;psect for function _INT_CallBack
  6460  0FF3                     _INT_CallBack:
  6461  0FF3                     i1l2016:	
  6462                           ;incstack = 0
  6463                           ; Regs used in _INT_CallBack: [wreg+status,2+status,0+pclath+cstack]
  6464                           
  6465                           
  6466                           ;mcc_generated_files/ext_int.c: 57:     if(INT_InterruptHandler)
  6467  0FF3  0140               	movlb	0	; select bank0
  6468  0FF4  0860               	movf	_INT_InterruptHandler,w
  6469  0FF5  0461               	iorwf	_INT_InterruptHandler+1,w
  6470  0FF6  1903               	btfsc	3,2
  6471  0FF7  2FF9               	goto	u76_21
  6472  0FF8  2FFA               	goto	u76_20
  6473  0FF9                     u76_21:
  6474  0FF9  2FFF               	goto	i1l275
  6475  0FFA                     u76_20:
  6476  0FFA                     i1l2018:
  6477                           
  6478                           ;mcc_generated_files/ext_int.c: 58:     {;mcc_generated_files/ext_int.c: 59:         INT
      +                          _InterruptHandler();
  6479  0FFA  0861               	movf	_INT_InterruptHandler+1,w
  6480  0FFB  008A               	movwf	10
  6481  0FFC  0860               	movf	_INT_InterruptHandler,w
  6482  0FFD  000A               	callw
  6483  0FFE  318F               	pagesel	$
  6484  0FFF                     i1l275:
  6485  0FFF  0008               	return
  6486  1000                     __end_of_INT_CallBack:
  6487                           
  6488                           	psect	text28
  6489  074B                     __ptext28:	
  6490 ;; *************** function _EXT_ISR *****************
  6491 ;; Defined at:
  6492 ;;		line 349 in file "main.c"
  6493 ;; Parameters:    Size  Location     Type
  6494 ;;		None
  6495 ;; Auto vars:     Size  Location     Type
  6496 ;;		None
  6497 ;; Return value:  Size  Location     Type
  6498 ;;                  1    wreg      void 
  6499 ;; Registers used:
  6500 ;;		wreg, status,2, status,0, pclath, cstack
  6501 ;; Tracked objects:
  6502 ;;		On entry : 0/0
  6503 ;;		On exit  : 0/0
  6504 ;;		Unchanged: 0/0
  6505 ;; Data sizes:     COMMON   BANK0   BANK1   BANK2   BANK3   BANK4   BANK5   BANK6   BANK7   BANK8   BANK9  BANK10  BANK1
      +1  BANK12
  6506 ;;      Params:         0       0       0       0       0       0       0       0       0       0       0       0       
      +0       0
  6507 ;;      Locals:         0       0       0       0       0       0       0       0       0       0       0       0       
      +0       0
  6508 ;;      Temps:          1       0       0       0       0       0       0       0       0       0       0       0       
      +0       0
  6509 ;;      Totals:         1       0       0       0       0       0       0       0       0       0       0       0       
      +0       0
  6510 ;;Total ram usage:        1 bytes
  6511 ;; Hardware stack levels used: 1
  6512 ;; Hardware stack levels required when called: 1
  6513 ;; This function calls:
  6514 ;;		_TMR0_Reload
  6515 ;; This function is called by:
  6516 ;;		_main
  6517 ;;		_INT_CallBack
  6518 ;; This function uses a non-reentrant model
  6519 ;;
  6520                           
  6521                           
  6522                           ;psect for function _EXT_ISR
  6523  074B                     _EXT_ISR:
  6524  074B                     i1l1906:	
  6525                           ;incstack = 0
  6526                           ; Regs used in _EXT_ISR: [wreg+status,2+status,0+pclath+cstack]
  6527                           
  6528                           
  6529                           ;main.c: 351:     presses++;
  6530  074B  3001               	movlw	1
  6531  074C  00F0               	movwf	??_EXT_ISR
  6532  074D  0870               	movf	??_EXT_ISR,w
  6533  074E  07F8               	addwf	_presses,f
  6534  074F                     i1l1908:
  6535                           
  6536                           ;main.c: 352:     TMR0_Reload();
  6537  074F  318F  27DE  3187   	fcall	_TMR0_Reload
  6538  0752                     i1l1910:
  6539                           
  6540                           ;main.c: 355:     if (T1CONbits.TMR1ON)
  6541  0752  0144               	movlb	4	; select bank4
  6542  0753  1C0E               	btfss	14,0	;volatile
  6543  0754  2F56               	goto	u74_21
  6544  0755  2F57               	goto	u74_20
  6545  0756                     u74_21:
  6546  0756  2F5C               	goto	i1l1914
  6547  0757                     u74_20:
  6548  0757                     i1l1912:
  6549                           
  6550                           ;main.c: 356:     {;main.c: 357:         presses = 0;
  6551  0757  01F8               	clrf	_presses
  6552                           
  6553                           ;main.c: 358:         count = 0;
  6554  0758  0140               	movlb	0	; select bank0
  6555  0759  01E2               	clrf	_count
  6556  075A  01E3               	clrf	_count+1
  6557                           
  6558                           ;main.c: 359:     }
  6559  075B  2F5E               	goto	i1l1916
  6560  075C                     i1l1914:
  6561                           
  6562                           ;main.c: 362:     {;main.c: 363:         TMR0_complete = 0;
  6563  075C  0140               	movlb	0	; select bank0
  6564  075D  01E7               	clrf	_TMR0_complete
  6565  075E                     i1l1916:
  6566                           
  6567                           ;main.c: 366:     if (presses > num_songs)
  6568  075E  0878               	movf	_presses,w
  6569  075F  023D               	subwf	_num_songs,w
  6570  0760  1803               	skipnc
  6571  0761  2F63               	goto	u75_21
  6572  0762  2F64               	goto	u75_20
  6573  0763                     u75_21:
  6574  0763  2F65               	goto	i1l556
  6575  0764                     u75_20:
  6576  0764                     i1l1918:
  6577                           
  6578                           ;main.c: 367:     {;main.c: 368:         presses = 0;
  6579  0764  01F8               	clrf	_presses
  6580  0765                     i1l556:
  6581  0765  0008               	return
  6582  0766                     __end_of_EXT_ISR:
  6583                           
  6584                           	psect	text29
  6585  0FB0                     __ptext29:	
  6586 ;; *************** function _INT_DefaultInterruptHandler *****************
  6587 ;; Defined at:
  6588 ;;		line 67 in file "mcc_generated_files/ext_int.c"
  6589 ;; Parameters:    Size  Location     Type
  6590 ;;		None
  6591 ;; Auto vars:     Size  Location     Type
  6592 ;;		None
  6593 ;; Return value:  Size  Location     Type
  6594 ;;                  1    wreg      void 
  6595 ;; Registers used:
  6596 ;;		None
  6597 ;; Tracked objects:
  6598 ;;		On entry : 0/0
  6599 ;;		On exit  : 0/0
  6600 ;;		Unchanged: 0/0
  6601 ;; Data sizes:     COMMON   BANK0   BANK1   BANK2   BANK3   BANK4   BANK5   BANK6   BANK7   BANK8   BANK9  BANK10  BANK1
      +1  BANK12
  6602 ;;      Params:         0       0       0       0       0       0       0       0       0       0       0       0       
      +0       0
  6603 ;;      Locals:         0       0       0       0       0       0       0       0       0       0       0       0       
      +0       0
  6604 ;;      Temps:          0       0       0       0       0       0       0       0       0       0       0       0       
      +0       0
  6605 ;;      Totals:         0       0       0       0       0       0       0       0       0       0       0       0       
      +0       0
  6606 ;;Total ram usage:        0 bytes
  6607 ;; Hardware stack levels used: 1
  6608 ;; This function calls:
  6609 ;;		Nothing
  6610 ;; This function is called by:
  6611 ;;		_EXT_INT_Initialize
  6612 ;;		_INT_CallBack
  6613 ;; This function uses a non-reentrant model
  6614 ;;
  6615                           
  6616                           
  6617                           ;psect for function _INT_DefaultInterruptHandler
  6618  0FB0                     _INT_DefaultInterruptHandler:
  6619  0FB0                     i1l281:	
  6620                           ;incstack = 0
  6621                           ; Regs used in _INT_DefaultInterruptHandler: []
  6622                           
  6623  0FB0  0008               	return
  6624  0FB1                     __end_of_INT_DefaultInterruptHandler:
  6625                           
  6626                           	psect	text30
  6627  0FDE                     __ptext30:	
  6628 ;; *************** function _TMR0_Reload *****************
  6629 ;; Defined at:
  6630 ;;		line 127 in file "mcc_generated_files/tmr0.c"
  6631 ;; Parameters:    Size  Location     Type
  6632 ;;		None
  6633 ;; Auto vars:     Size  Location     Type
  6634 ;;		None
  6635 ;; Return value:  Size  Location     Type
  6636 ;;                  1    wreg      void 
  6637 ;; Registers used:
  6638 ;;		wreg, status,2
  6639 ;; Tracked objects:
  6640 ;;		On entry : 0/0
  6641 ;;		On exit  : 0/0
  6642 ;;		Unchanged: 0/0
  6643 ;; Data sizes:     COMMON   BANK0   BANK1   BANK2   BANK3   BANK4   BANK5   BANK6   BANK7   BANK8   BANK9  BANK10  BANK1
      +1  BANK12
  6644 ;;      Params:         0       0       0       0       0       0       0       0       0       0       0       0       
      +0       0
  6645 ;;      Locals:         0       0       0       0       0       0       0       0       0       0       0       0       
      +0       0
  6646 ;;      Temps:          0       0       0       0       0       0       0       0       0       0       0       0       
      +0       0
  6647 ;;      Totals:         0       0       0       0       0       0       0       0       0       0       0       0       
      +0       0
  6648 ;;Total ram usage:        0 bytes
  6649 ;; Hardware stack levels used: 1
  6650 ;; This function calls:
  6651 ;;		Nothing
  6652 ;; This function is called by:
  6653 ;;		_EXT_ISR
  6654 ;; This function uses a non-reentrant model
  6655 ;;
  6656                           
  6657                           
  6658                           ;psect for function _TMR0_Reload
  6659  0FDE                     _TMR0_Reload:
  6660  0FDE                     i1l1890:	
  6661                           ;incstack = 0
  6662                           ; Regs used in _TMR0_Reload: [wreg+status,2]
  6663                           
  6664                           
  6665                           ;mcc_generated_files/tmr0.c: 130:     TMR0H = timer0ReloadVal16bit >> 8;
  6666  0FDE  0140               	movlb	0	; select bank0
  6667  0FDF  085F               	movf	_timer0ReloadVal16bit+1,w	;volatile
  6668  0FE0  014B               	movlb	11	; select bank11
  6669  0FE1  009D               	movwf	29	;volatile
  6670  0FE2                     i1l1892:
  6671                           
  6672                           ;mcc_generated_files/tmr0.c: 131:     TMR0L = (uint8_t) timer0ReloadVal16bit;
  6673  0FE2  0140               	movlb	0	; select bank0
  6674  0FE3  085E               	movf	_timer0ReloadVal16bit,w	;volatile
  6675  0FE4  014B               	movlb	11	; select bank11
  6676  0FE5  009C               	movwf	28	;volatile
  6677  0FE6                     i1l324:
  6678  0FE6  0008               	return
  6679  0FE7                     __end_of_TMR0_Reload:
  6680  007E                     btemp	set	126	;btemp
  6681  007E                     int$flags	set	126
  6682  007E                     wtemp0	set	126
  6683  22DC                     
  6684                           	psect	config
  6685                           
  6686                           ;Config register CONFIG1 @ 0x8007
  6687                           ;	External Oscillator Mode Selection bits
  6688                           ;	FEXTOSC = OFF, Oscillator not enabled
  6689                           ;	Power-up Default Value for COSC bits
  6690                           ;	RSTOSC = HFINTOSC_1MHZ, HFINTOSC (1 MHz)
  6691                           ;	Clock Out Enable bit
  6692                           ;	CLKOUTEN = OFF, CLKOUT function is disabled; I/O function on RA4
  6693                           ;	VDD Range Analog Calibration Selection bit
  6694                           ;	VDDAR = HI, Internal analog systems are calibrated for operation between VDD = 2.3V - 
      +                          5.5V
  6695  8007                     	org	32775
  6696  8007  3FED               	dw	16365
  6697                           
  6698                           ;Config register CONFIG2 @ 0x8008
  6699                           ;	Master Clear Enable bit
  6700                           ;	MCLRE = EXTMCLR, If LVP = 0, MCLR pin is MCLR; If LVP = 1, RA3 pin function is MCLR
  6701                           ;	Power-up Timer Selection bits
  6702                           ;	PWRTS = PWRT_OFF, PWRT is disabled
  6703                           ;	WDT Operating Mode bits
  6704                           ;	WDTE = OFF, WDT disabled; SEN is ignored
  6705                           ;	Brown-out Reset Enable bits
  6706                           ;	BOREN = ON, Brown-out Reset Enabled, SBOREN bit is ignored
  6707                           ;	Brown-out Reset Voltage Selection bit
  6708                           ;	BORV = LO, Brown-out Reset Voltage (VBOR) set to 1.9V
  6709                           ;	PPSLOCKED One-Way Set Enable bit
  6710                           ;	PPS1WAY = ON, The PPSLOCKED bit can be set once after an unlocking sequence is execute
      +                          d; once PPSLOCKED is set, all future changes to PPS registers are prevented
  6711                           ;	Stack Overflow/Underflow Reset Enable bit
  6712                           ;	STVREN = ON, Stack Overflow or Underflow will cause a reset
  6713  8008                     	org	32776
  6714  8008  3FE7               	dw	16359
  6715                           
  6716                           ;Config register CONFIG4 @ 0x800A
  6717                           ;	Boot Block Size Selection bits
  6718                           ;	BBSIZE = BB512, 512 words boot block size
  6719                           ;	Boot Block Enable bit
  6720                           ;	BBEN = OFF, Boot Block is disabled
  6721                           ;	SAF Enable bit
  6722                           ;	SAFEN = OFF, SAF is disabled
  6723                           ;	Application Block Write Protection bit
  6724                           ;	WRTAPP = OFF, Application Block is not write-protected
  6725                           ;	Boot Block Write Protection bit
  6726                           ;	WRTB = OFF, Boot Block is not write-protected
  6727                           ;	Configuration Registers Write Protection bit
  6728                           ;	WRTC = OFF, Configuration Registers are not write-protected
  6729                           ;	Storage Area Flash (SAF) Write Protection bit
  6730                           ;	WRTSAF = OFF, SAF is not write-protected
  6731                           ;	Low Voltage Programming Enable bit
  6732                           ;	LVP = ON, Low Voltage programming enabled. MCLR/Vpp pin function is MCLR. MCLRE Config
      +                          uration bit is ignored.
  6733  800A                     	org	32778
  6734  800A  3FFF               	dw	16383
  6735                           
  6736                           ;Config register CONFIG5 @ 0x800B
  6737                           ;	User Program Flash Memory Code Protection bit
  6738                           ;	CP = OFF, User Program Flash Memory code protection is disabled
  6739  800B                     	org	32779
  6740  800B  3FFF               	dw	16383

Data Sizes:
    Strings     0
    Constant    4
    Data        455
    BSS         11
    Persistent  42
    Stack       0

Auto Spaces:
    Space          Size  Autos    Used
    COMMON           14      8      10
    BANK0            80     26      75
    BANK1            80      9      26
    BANK2            80      0      66
    BANK3            80      0      66
    BANK4            80      0       0
    BANK5            80      0       0
    BANK6            80      0       0
    BANK7            80      0       0
    BANK8            80      0       0
    BANK9            12      0       0
    BANK10            0      0       0
    BANK11            0      0       0
    BANK12            0      0       0

Pointer List with Targets:

    displayMatrix@states	PTR unsigned char  size(1) Largest target is 1
		 -> light_array(COMMON[1]), 

    TMR1_SetInterruptHandler@InterruptHandler	PTR FTN()void  size(2) Largest target is 1
		 -> TMR1_ISR_(), TMR1_DefaultInterruptHandler(), 

    TMR1_InterruptHandler	PTR FTN()void  size(2) Largest target is 1
		 -> TMR1_ISR_(), TMR1_DefaultInterruptHandler(), Absolute function(), 

    TMR0_SetInterruptHandler@InterruptHandler	PTR FTN()void  size(2) Largest target is 1
		 -> TMR0_ISR_(), TMR0_DefaultInterruptHandler(), 

    TMR0_InterruptHandler	PTR FTN()void  size(2) Largest target is 1
		 -> TMR0_ISR_(), TMR0_DefaultInterruptHandler(), Absolute function(), 

    INT_SetInterruptHandler@InterruptHandler	PTR FTN()void  size(2) Largest target is 1
		 -> EXT_ISR(), INT_DefaultInterruptHandler(), 

    INT_InterruptHandler	PTR FTN()void  size(2) Largest target is 1
		 -> EXT_ISR(), INT_DefaultInterruptHandler(), Absolute function(), 


Critical Paths under _main in COMMON

    _main->_displayMatrix
    _displayMatrix->_shiftBytes
    _shiftBytes->_SPI1_ExchangeByte
    _TMR1_Initialize->_TMR1_SetInterruptHandler
    _TMR0_Initialize->_TMR0_SetInterruptHandler
    _EXT_INT_Initialize->_INT_SetInterruptHandler

Critical Paths under _INTERRUPT_InterruptManager in COMMON

    _TMR1_ISR->_TMR1_ISR_
    _TMR1_ISR->_TMR1_WriteTimer
    _INT_CallBack->_EXT_ISR

Critical Paths under _main in BANK0

    None.

Critical Paths under _INTERRUPT_InterruptManager in BANK0

    _TMR1_ISR->_TMR1_ISR_

Critical Paths under _main in BANK1

    _main->_displayMatrix

Critical Paths under _INTERRUPT_InterruptManager in BANK1

    None.

Critical Paths under _main in BANK2

    None.

Critical Paths under _INTERRUPT_InterruptManager in BANK2

    None.

Critical Paths under _main in BANK3

    None.

Critical Paths under _INTERRUPT_InterruptManager in BANK3

    None.

Critical Paths under _main in BANK4

    None.

Critical Paths under _INTERRUPT_InterruptManager in BANK4

    None.

Critical Paths under _main in BANK5

    None.

Critical Paths under _INTERRUPT_InterruptManager in BANK5

    None.

Critical Paths under _main in BANK6

    None.

Critical Paths under _INTERRUPT_InterruptManager in BANK6

    None.

Critical Paths under _main in BANK7

    None.

Critical Paths under _INTERRUPT_InterruptManager in BANK7

    None.

Critical Paths under _main in BANK8

    None.

Critical Paths under _INTERRUPT_InterruptManager in BANK8

    None.

Critical Paths under _main in BANK9

    None.

Critical Paths under _INTERRUPT_InterruptManager in BANK9

    None.

Critical Paths under _main in BANK10

    None.

Critical Paths under _INTERRUPT_InterruptManager in BANK10

    None.

Critical Paths under _main in BANK11

    None.

Critical Paths under _INTERRUPT_InterruptManager in BANK11

    None.

Critical Paths under _main in BANK12

    None.

Critical Paths under _INTERRUPT_InterruptManager in BANK12

    None.

Call Graph Tables:

 ---------------------------------------------------------------------------------
 (Depth) Function   	        Calls       Base Space   Used Autos Params    Refs
 ---------------------------------------------------------------------------------
 (0) _main                                                 6     6      0    3026
                                              7 COMMON     1     1      0
                                              4 BANK1      5     5      0
                 _EXT_INT_Initialize
            _INT_SetInterruptHandler
                    _PWM3_Initialize
                    _SPI1_Initialize
                  _SYSTEM_Initialize
                    _TMR0_Initialize
           _TMR0_SetInterruptHandler
                    _TMR1_Initialize
           _TMR1_SetInterruptHandler
                    _TMR2_Initialize
                      _displayMatrix
                           _playNote
                         _shiftBytes
 ---------------------------------------------------------------------------------
 (1) _playNote                                             3     2      1     360
                                              2 COMMON     3     2      1
 ---------------------------------------------------------------------------------
 (1) _displayMatrix                                        6     6      0     703
                                              5 COMMON     2     2      0
                                              0 BANK1      4     4      0
                         _shiftBytes
 ---------------------------------------------------------------------------------
 (1) _shiftBytes                                           2     1      1     363
                                              3 COMMON     2     1      1
                  _SPI1_ExchangeByte
 ---------------------------------------------------------------------------------
 (2) _SPI1_ExchangeByte                                    1     1      0      31
                                              2 COMMON     1     1      0
 ---------------------------------------------------------------------------------
 (1) _SYSTEM_Initialize                                    0     0      0     522
                 _EXT_INT_Initialize
              _OSCILLATOR_Initialize
             _PIN_MANAGER_Initialize
                    _PWM3_Initialize
                    _SPI1_Initialize
                    _TMR0_Initialize
                    _TMR1_Initialize
                    _TMR2_Initialize
                     _WDT_Initialize
 ---------------------------------------------------------------------------------
 (2) _WDT_Initialize                                       0     0      0       0
 ---------------------------------------------------------------------------------
 (1) _TMR2_Initialize                                      0     0      0       0
 ---------------------------------------------------------------------------------
 (1) _TMR1_Initialize                                      0     0      0     174
           _TMR1_SetInterruptHandler
 ---------------------------------------------------------------------------------
 (1) _TMR1_SetInterruptHandler                             2     0      2     174
                                              2 COMMON     2     0      2
 ---------------------------------------------------------------------------------
 (1) _TMR0_Initialize                                      0     0      0     174
           _TMR0_SetInterruptHandler
 ---------------------------------------------------------------------------------
 (1) _TMR0_SetInterruptHandler                             2     0      2     174
                                              2 COMMON     2     0      2
 ---------------------------------------------------------------------------------
 (2) _SPI1_Initialize                                      0     0      0       0
 ---------------------------------------------------------------------------------
 (2) _PWM3_Initialize                                      0     0      0       0
 ---------------------------------------------------------------------------------
 (2) _PIN_MANAGER_Initialize                               0     0      0       0
 ---------------------------------------------------------------------------------
 (2) _OSCILLATOR_Initialize                                0     0      0       0
 ---------------------------------------------------------------------------------
 (2) _EXT_INT_Initialize                                   0     0      0     174
            _INT_SetInterruptHandler
 ---------------------------------------------------------------------------------
 (3) _INT_SetInterruptHandler                              2     0      2     174
                                              2 COMMON     2     0      2
 ---------------------------------------------------------------------------------
 Estimated maximum stack depth 3
 ---------------------------------------------------------------------------------
 (Depth) Function   	        Calls       Base Space   Used Autos Params    Refs
 ---------------------------------------------------------------------------------
 (4) _INTERRUPT_InterruptManager                           0     0      0    1300
                            _INT_ISR
                           _TMR0_ISR
                           _TMR1_ISR
 ---------------------------------------------------------------------------------
 (5) _TMR1_ISR                                             0     0      0    1300
                   Absolute function *
       _TMR1_DefaultInterruptHandler *
                          _TMR1_ISR_ *
                    _TMR1_WriteTimer
 ---------------------------------------------------------------------------------
 (6) _TMR1_WriteTimer                                      2     0      2     240
                                              0 COMMON     2     0      2
 ---------------------------------------------------------------------------------
 (6) _TMR1_ISR_                                           28    28      0    1060
                                              0 COMMON     2     2      0
                                              0 BANK0     26    26      0
 ---------------------------------------------------------------------------------
 (6) _TMR1_DefaultInterruptHandler                         0     0      0       0
 ---------------------------------------------------------------------------------
 (5) _TMR0_ISR                                             0     0      0       0
                   Absolute function *
       _TMR0_DefaultInterruptHandler *
                          _TMR0_ISR_ *
 ---------------------------------------------------------------------------------
 (6) _TMR0_ISR_                                            0     0      0       0
 ---------------------------------------------------------------------------------
 (6) _TMR0_DefaultInterruptHandler                         0     0      0       0
 ---------------------------------------------------------------------------------
 (5) _INT_ISR                                              0     0      0       0
                       _INT_CallBack
 ---------------------------------------------------------------------------------
 (6) _INT_CallBack                                         0     0      0       0
                   Absolute function *
                            _EXT_ISR *
        _INT_DefaultInterruptHandler *
 ---------------------------------------------------------------------------------
 (7) _INT_DefaultInterruptHandler                          0     0      0       0
 ---------------------------------------------------------------------------------
 (7) _EXT_ISR                                              1     1      0       0
                                              0 COMMON     1     1      0
                        _TMR0_Reload
 ---------------------------------------------------------------------------------
 (8) _TMR0_Reload                                          0     0      0       0
 ---------------------------------------------------------------------------------
 (6) Absolute function(Fake)                               0     0      0       0
 ---------------------------------------------------------------------------------
 Estimated maximum stack depth 8
 ---------------------------------------------------------------------------------

 Call Graph Graphs:

 _main (ROOT)
   _EXT_INT_Initialize
     _INT_SetInterruptHandler
   _INT_SetInterruptHandler
   _PWM3_Initialize
   _SPI1_Initialize
   _SYSTEM_Initialize
     _EXT_INT_Initialize
     _OSCILLATOR_Initialize
     _PIN_MANAGER_Initialize
     _PWM3_Initialize
     _SPI1_Initialize
     _TMR0_Initialize
       _TMR0_SetInterruptHandler
     _TMR1_Initialize
       _TMR1_SetInterruptHandler
     _TMR2_Initialize
     _WDT_Initialize
   _TMR0_Initialize
   _TMR0_SetInterruptHandler
   _TMR1_Initialize
   _TMR1_SetInterruptHandler
   _TMR2_Initialize
   _displayMatrix
     _shiftBytes
       _SPI1_ExchangeByte
   _playNote
   _shiftBytes

 _INTERRUPT_InterruptManager (ROOT)
   _INT_ISR
     _INT_CallBack
       Absolute function(Fake) *
       _EXT_ISR *
         _TMR0_Reload
       _INT_DefaultInterruptHandler *
   _TMR0_ISR
     Absolute function(Fake) *
     _TMR0_DefaultInterruptHandler *
     _TMR0_ISR_ *
   _TMR1_ISR
     Absolute function(Fake) *
     _TMR1_DefaultInterruptHandler *
     _TMR1_ISR_ *
     _TMR1_WriteTimer *

 Address spaces:
Name               Size   Autos  Total    Cost      Usage
BIGRAM             3F0      0       0       0        0.0%
NULL                 0      0       0       0        0.0%
CODE                 0      0       0       0        0.0%
BITCOMMON            E      0       0       1        0.0%
BITSFR0              0      0       0       1        0.0%
SFR0                 0      0       0       1        0.0%
COMMON               E      8       A       2       71.4%
BITSFR1              0      0       0       2        0.0%
SFR1                 0      0       0       2        0.0%
BITSFR2              0      0       0       3        0.0%
SFR2                 0      0       0       3        0.0%
STACK                0      0       0       3        0.0%
BITSFR3              0      0       0       4        0.0%
SFR3                 0      0       0       4        0.0%
ABS                  0      0      F3       4        0.0%
BITBANK0            50      0       0       5        0.0%
BITSFR4              0      0       0       5        0.0%
SFR4                 0      0       0       5        0.0%
BANK0               50     1A      4B       6       93.8%
BITSFR5              0      0       0       6        0.0%
SFR5                 0      0       0       6        0.0%
BITBANK1            50      0       0       7        0.0%
BITSFR6              0      0       0       7        0.0%
SFR6                 0      0       0       7        0.0%
BANK1               50      9      1A       8       32.5%
BITSFR7              0      0       0       8        0.0%
SFR7                 0      0       0       8        0.0%
BITBANK2            50      0       0       9        0.0%
BITSFR8              0      0       0       9        0.0%
SFR8                 0      0       0       9        0.0%
BANK2               50      0      42      10       82.5%
BITSFR9              0      0       0      10        0.0%
SFR9                 0      0       0      10        0.0%
BITBANK3            50      0       0      11        0.0%
BITSFR10             0      0       0      11        0.0%
SFR10                0      0       0      11        0.0%
BANK3               50      0      42      12       82.5%
BITSFR11             0      0       0      12        0.0%
SFR11                0      0       0      12        0.0%
BITBANK4            50      0       0      13        0.0%
BITSFR12             0      0       0      13        0.0%
SFR12                0      0       0      13        0.0%
BANK4               50      0       0      14        0.0%
BITSFR13             0      0       0      14        0.0%
SFR13                0      0       0      14        0.0%
BITBANK5            50      0       0      15        0.0%
BITSFR14             0      0       0      15        0.0%
SFR14                0      0       0      15        0.0%
BANK5               50      0       0      16        0.0%
BITSFR15             0      0       0      16        0.0%
SFR15                0      0       0      16        0.0%
BITBANK6            50      0       0      17        0.0%
BITSFR16             0      0       0      17        0.0%
SFR16                0      0       0      17        0.0%
BANK6               50      0       0      18        0.0%
BITSFR17             0      0       0      18        0.0%
SFR17                0      0       0      18        0.0%
BITBANK7            50      0       0      19        0.0%
BITSFR18             0      0       0      19        0.0%
SFR18                0      0       0      19        0.0%
BANK7               50      0       0      20        0.0%
BITSFR19             0      0       0      20        0.0%
SFR19                0      0       0      20        0.0%
BITBANK8            50      0       0      21        0.0%
BITSFR20             0      0       0      21        0.0%
SFR20                0      0       0      21        0.0%
BANK8               50      0       0      22        0.0%
BITSFR21             0      0       0      22        0.0%
SFR21                0      0       0      22        0.0%
BITBANK9            50      0       0      23        0.0%
BITSFR22             0      0       0      23        0.0%
SFR22                0      0       0      23        0.0%
BANK9                C      0       0      24        0.0%
BITSFR23             0      0       0      24        0.0%
SFR23                0      0       0      24        0.0%
BITBANK10           50      0       0      25        0.0%
BITSFR24             0      0       0      25        0.0%
SFR24                0      0       0      25        0.0%
BITSFR25             0      0       0      26        0.0%
SFR25                0      0       0      26        0.0%
BANK10               0      0       0      26        0.0%
BITBANK11           50      0       0      27        0.0%
BITSFR26             0      0       0      27        0.0%
SFR26                0      0       0      27        0.0%
BITSFR27             0      0       0      28        0.0%
SFR27                0      0       0      28        0.0%
BANK11               0      0       0      28        0.0%
BITBANK12           30      0       0      29        0.0%
BITSFR28             0      0       0      29        0.0%
SFR28                0      0       0      29        0.0%
BITSFR29             0      0       0      30        0.0%
SFR29                0      0       0      30        0.0%
BANK12               0      0       0      30        0.0%
BITSFR30             0      0       0      31        0.0%
SFR30                0      0       0      31        0.0%
DATA                 0      0      F3      31        0.0%
BITSFR31             0      0       0      32        0.0%
SFR31                0      0       0      32        0.0%
BITSFR32             0      0       0      33        0.0%
SFR32                0      0       0      33        0.0%
BITSFR33             0      0       0      34        0.0%
SFR33                0      0       0      34        0.0%
BITSFR34             0      0       0      35        0.0%
SFR34                0      0       0      35        0.0%
BITSFR35             0      0       0      36        0.0%
SFR35                0      0       0      36        0.0%
BITSFR36             0      0       0      37        0.0%
SFR36                0      0       0      37        0.0%
BITSFR37             0      0       0      38        0.0%
SFR37                0      0       0      38        0.0%
BITSFR38             0      0       0      39        0.0%
SFR38                0      0       0      39        0.0%
BITSFR39             0      0       0      40        0.0%
SFR39                0      0       0      40        0.0%
BITSFR40             0      0       0      41        0.0%
SFR40                0      0       0      41        0.0%
BITSFR41             0      0       0      42        0.0%
SFR41                0      0       0      42        0.0%
BITSFR42             0      0       0      43        0.0%
SFR42                0      0       0      43        0.0%
BITSFR43             0      0       0      44        0.0%
SFR43                0      0       0      44        0.0%
BITSFR44             0      0       0      45        0.0%
SFR44                0      0       0      45        0.0%
BITSFR45             0      0       0      46        0.0%
SFR45                0      0       0      46        0.0%
BITSFR46             0      0       0      47        0.0%
SFR46                0      0       0      47        0.0%
BITSFR47             0      0       0      48        0.0%
SFR47                0      0       0      48        0.0%
BITSFR48             0      0       0      49        0.0%
SFR48                0      0       0      49        0.0%
BITSFR49             0      0       0      50        0.0%
SFR49                0      0       0      50        0.0%
BITSFR50             0      0       0      51        0.0%
SFR50                0      0       0      51        0.0%
BITSFR51             0      0       0      52        0.0%
SFR51                0      0       0      52        0.0%
BITSFR52             0      0       0      53        0.0%
SFR52                0      0       0      53        0.0%
BITSFR53             0      0       0      54        0.0%
SFR53                0      0       0      54        0.0%
BITSFR54             0      0       0      55        0.0%
SFR54                0      0       0      55        0.0%
BITSFR55             0      0       0      56        0.0%
SFR55                0      0       0      56        0.0%
BITSFR56             0      0       0      57        0.0%
SFR56                0      0       0      57        0.0%
BITSFR57             0      0       0      58        0.0%
SFR57                0      0       0      58        0.0%
BITSFR58             0      0       0      59        0.0%
SFR58                0      0       0      59        0.0%
BITSFR59             0      0       0      60        0.0%
SFR59                0      0       0      60        0.0%
BITSFR60             0      0       0      61        0.0%
SFR60                0      0       0      61        0.0%
BITSFR61             0      0       0      62        0.0%
SFR61                0      0       0      62        0.0%
BITSFR62             0      0       0      63        0.0%
SFR62                0      0       0      63        0.0%
BITSFR63             0      0       0      64        0.0%
SFR63                0      0       0      64        0.0%


Microchip Technology PIC Macro Assembler V2.32 build 20210201212658 
Symbol Table                                                                                   Sun Dec 12 19:46:32 2021

                       _SPI1_ExchangeByte 07E6                                        l32 0FC9  
                                      l35 0FB3                                        l29 072E  
                                      l64 07A8                                        l74 07EA  
                                      l76 07EF                                        l77 07F2  
                      ?_SPI1_ExchangeByte 0070                                       l226 0FDD  
                                     l147 06B5                                       l331 0FCF  
                                     l309 074A                                       l177 07D8  
                                     l531 0421                                       l284 07FF  
                                     l365 06D5                                       l621 06E1  
                                     l278 0FC3                                       l622 06EB  
                                     l623 06F4                                       l544 04B3  
                                     l546 04B5                                       l395 0FD5  
                                     l547 04B6                                       l644 068D  
                                     l637 07E5                                       _PR2 028D  
                         _timer1ReloadVal 005A                       ??_SPI1_ExchangeByte 0072  
                         _TMR2_Initialize 07CB                                       wreg 0009  
                          ?_displayMatrix 0070                                      l2000 07F3  
                                    l2002 07F6                                      l2010 073F  
                                    l2004 07FD                                      l2012 0740  
                                    l2014 0747                                      l2006 072F  
                                    l2008 073D                                      l2250 071C  
                                    l2260 072B                                      l2252 071F  
                                    l2254 0722                                      l2256 0725  
                                    l2248 0713                                      l2512 07E7  
                                    l2520 07E2                                      l2600 03B0  
                                    l2258 0728                                      l2514 07F0  
                                    l2522 07E4                                      l2530 0657  
                                    l2610 03F3                                      l2602 03B3  
                                    l1900 0FBE                                      l2540 067B  
                                    l2532 065D                                      l2524 0654  
                                    l2284 06D7                                      l2620 0404  
                                    l2612 03F4                                      l2604 03CF  
                                    l1902 0FCA                                      l2518 07DA  
                                    l2542 0680                                      l2534 0662  
                                    l2286 06DE                                      l2630 0426  
                                    l2622 0408                                      l2614 03F8  
                                    l2606 03D3                                      l1920 0794  
                                    l1904 0FD0                                      l2536 0666  
                                    l2288 06E8                                      l2640 047E  
                                    l2632 044F                                      l2624 0409  
                                    l2616 03FC                                      l2608 03EF  
                                    l2560 035B                                      l1930 068E  
                                    l1922 07A1                                      l2538 0674  
                                    l2650 049D                                      l2642 048C  
                                    l2634 0455                                      l2618 0400  
                                    l2570 0367                                      l2562 035E  
                                    l1940 069E                                      l1932 0691  
                                    l1924 07A2                                      l2644 0490  
                                    l2636 046C                                      l2628 040D  
                                    l2652 049F                                      l2580 038D  
                                    l2572 0368                                      l2564 035F  
                                    l1950 06A9                                      l1942 06A0  
                                    l1934 0693                                      l1926 07A4  
                                    l2654 04A5                                      l2646 0496  
                                    l2638 0473                                      l2590 039B  
                                    l2582 0392                                      l2574 0369  
                                    l2566 0363                                      l1960 0FC4  
                                    l1952 06AB                                      l1944 06A2  
                                    l1936 0695                                      l1928 07A6  
                                    l2656 04AA                                      l2648 049B  
                                    l2728 0416                                      l2592 03A3  
                                    l2584 0397                                      l2576 0375  
                                    l2568 0365                                      l1962 0FC6  
                                    l1954 06AE                                      l1946 06A4  
                                    l1938 0698                                      l1970 07CB  
                                    l2594 03A5                                      l2586 0399  
                                    l2578 0381                                      l1964 0FC8  
                                    l1956 06B0                                      l1948 06A6  
                                    l1980 07D5                                      l1972 07CE  
                                    l2596 03A6                                      l2588 039A  
                                    l1958 06B2                                      l1990 06BF  
                                    l1982 06B6                                      l1974 07CF  
                                    l1966 0FB1                                      l2598 03AB  
                                    l1968 0FD6                                      l1992 06C1  
                                    l1984 06B9                                      l1976 07D2  
                                    l1994 06C9                                      l1986 06BB  
                                    l1978 07D3                                      l1996 06CB  
                                    l1988 06BD                                      l1998 06D2  
                                    u1200 06DE                                      u1201 06DD  
                                    u1210 06E8                                      u1211 06E7  
                                    u1400 07EF                                      u1401 07EE  
                                    u1410 065D                                      u1411 065C  
                                    u1420 068D                                      u1500 04A5  
                                    u1421 068C                                      u1501 04A4  
                                    _LATA 0018                                      u1510 04AA  
                         __end_of_INT_ISR 0FBE                                      u1511 04A9  
                                    _LATC 001A                                      u1425 0689  
                                    u1450 03AB                                      u1451 03AA  
                                    u1460 03B0                                      u1461 03AF  
                                    u1470 0454                                      u1527 0677  
                                    u1471 0453                                      u1480 0472  
                                    u1481 0471                                      u1490 0496  
                                    _T2PR 028D                                      u1491 0495  
                         __end_of_EXT_ISR 0766                                      _TMR2 028C  
                                    _WPUA 1F39                                      _WPUC 1F4F  
                                    _main 035B                                      fsr0h 0005  
                                    fsr1h 0007                                      fsr0l 0004  
                                    indf1 0001                                      fsr1l 0006  
                                    btemp 007E       __end_of_INT_DefaultInterruptHandler 0FB1  
             _INT_DefaultInterruptHandler 0FB0                                      start 0031  
         __end_of_INT_SetInterruptHandler 0FC4                 __end_of_SPI1_ExchangeByte 07F3  
              ??_TMR1_SetInterruptHandler 0074                   __end_of_TMR0_Initialize 074B  
          ??_TMR0_DefaultInterruptHandler 0070            __size_of_OSCILLATOR_Initialize 0006  
           __end_of_OSCILLATOR_Initialize 0FCA                                     ?_main 0070  
                                   _T1CLK 0211                                     _T1CON 020E  
                                   _T2CON 028E                                     _T2HLT 028F  
                                   _T2TMR 028C                                     i1l250 0013  
                                   _T2RST 0291                                     i1l324 0FE6  
                                   i1l252 001F                                     i1l253 002F  
                                   i1l334 0002                                     i1l271 0FBD  
                                   i1l328 0793                                     i1l281 0FB0  
                                   i1l258 002F                                     i1l275 0FFF  
                                   i1l612 031C                                     i1l392 077C  
                                   i1l618 035A                                     i1l379 07CA  
                                   i1l556 0765                                     i1l580 01E7  
                                   i1l581 01B7                                     i1l398 0003  
                                   i1l559 0FB7                                     i1l596 0258  
                                   i1l597 0302                                     _OSCEN 0891  
                                   _TMR0H 059D                          playNote@prescale 0072  
                                   _TMR1H 020D                                     _TMR0L 059C  
                                   _TMR1L 020C                                     u80_20 00AD  
                                   u80_21 00AC                                     u80_25 00A9  
                                   u81_20 00BB                                     u81_21 00BA  
                                   _TRISA 0012                                     u81_25 00B7  
                                   _TRISC 0014                                     u74_20 0757  
                                   u90_20 0170                                     u82_20 00CC  
                                   u74_21 0756                                     u90_21 016F  
                                   u82_21 00CB                                     u90_25 016C  
                                   u75_20 0764                                     u91_20 0191  
                                   u75_21 0763                                     u91_21 0190  
                                   u91_25 018D                                     u83_25 00D6  
                                   u76_20 0FFA                                     u92_20 019A  
                                   u84_20 00FB                                     u76_21 0FF9  
                                   u92_21 0199                                     u84_21 00FA  
                                   u84_25 00F7                                     u93_20 01B6  
                                   u85_20 010A                                     u77_20 07BF  
                                   u93_21 01B5                                     u85_21 0109  
                                   u77_21 07BE                                     u93_25 01B2  
                                   u85_25 0106                                     u94_20 01BB  
                                   u86_20 012C                                     u78_20 0092  
                                   u94_21 01BA                                     u86_21 012B  
                                   u78_21 0091                                     u86_25 0128  
                                   u79_20 009F                                     u79_21 009E  
                                   u95_25 01BE                                     u87_25 0138  
                                   u79_25 009B                                     u96_20 01E6  
                                   u88_20 015D                                     u96_21 01E5  
                                   u88_21 015C                                     u96_25 01E2  
                                   u88_25 0159                                     u97_20 01ED  
                                   u89_20 0163                                     u97_21 01EC  
                                   u89_21 0162                                     u98_20 01FA  
                                   u98_21 01F9                                     u98_25 01F6  
                                   u99_20 0206                                     u99_21 0205  
       __size_of_TMR0_SetInterruptHandler 0006                 ?_TMR0_SetInterruptHandler 0072  
                      __size_of_TMR0_ISR_ 0004                        __size_of_TMR1_ISR_ 02D3  
                        __end_of_TMR0_ISR 0794                          __end_of_TMR1_ISR 077D  
                          _WDT_Initialize 0FB1                                     _count 0062  
                                   _song2 00A0                                     _song3 0120  
                 __end_of_PWM3_Initialize 0FDE                   __end_of_TMR1_Initialize 06D6  
                                   pclath 000A                                     status 0003  
                                   wtemp0 007E                           _TMR1_WriteTimer 07BA  
                __size_of_SPI1_Initialize 0015                           __initialization 0033  
                            __end_of_main 04BA                   __end_of_TMR2_Initialize 07D9  
             ?_INTERRUPT_InterruptManager 0070                      TMR1_ISR_@lights_1173 003F  
                    TMR1_ISR_@lights_1176 0040                                    ??_main 00B5  
                         ??_displayMatrix 0075                    __end_of_WDT_Initialize 0FB4  
                               ??_INT_ISR 0071                                 ??_EXT_ISR 0070  
                                  _ANSELA 1F38                                    _ANSELC 1F4E  
                                  _T0CON0 059E                                    _T0CON1 059F  
                                  _T1GATE 0210                                    _T1GCON 020F  
                                  _RA5PPS 1F15                                    u100_20 0210  
                                  u100_21 020F                                    u101_20 0215  
                                  u101_21 0214                                    _RC3PPS 1F23  
                                  u110_20 0308                                    u102_20 0235  
                                  u110_21 0307                                    u102_21 0234  
                 TMR1_WriteTimer@timerVal 0070                                    i1l2020 07BA  
                                  u102_25 0231                                    i1l2110 019A  
                                  i1l2102 0173                                    i1l2022 07BF  
                                  i1l2030 07C6                                    i1l2016 0FF3  
                                  i1l2040 0FB4                                    u111_20 0315  
                                  u103_20 0258                                    i1l2120 01A9  
                                  i1l2104 0180                                    i1l2032 07C8  
                                  i1l2024 07C0                                    u111_21 0314  
                                  u103_21 0257                                    i1l2018 0FFA  
                                  i1l2210 02EA                                    i1l2202 02D4  
                                  i1l2130 01C7                                    i1l2122 01BB  
                                  i1l2106 0184                                    i1l2050 00AD  
                                  i1l2042 0088                                    i1l2026 07C2  
                                  _RC5PPS 1F25                                    i1l2220 0308  
                                  i1l2204 02D6                                    i1l2140 01FA  
                                  i1l2132 01D5                                    i1l2124 01C5  
                                  i1l2116 019C                                    i1l2108 0192  
                                  i1l2060 00CE                                    i1l2052 00BB  
                                  i1l2044 008D                                    i1l2028 07C4  
                                  u103_25 0254                                    i1l2230 0334  
                                  i1l2222 030F                                    i1l2142 0206  
                                  i1l2134 01D9                                    i1l2118 01A5  
                                  i1l2062 00EA                                    i1l2054 00CC  
                                  i1l2046 0092                                    i1l2232 0340  
                                  u112_20 032A                                    i1l2224 0315  
                                  i1l2208 02E4                                    i1l2216 02EF  
                                  u104_20 026A                                    i1l2152 0217  
                                  i1l2160 0238                                    i1l2144 0210  
                                  i1l2136 01E7                                    i1l2080 012D  
                                  i1l2064 00EE                                    i1l2048 009F  
                                  u112_21 0329                                    u104_21 0269  
                                  _ODCONA 1F3A                                    i1l2226 032A  
                                  i1l2170 024B                                    i1l2154 0224  
                                  i1l2146 0215                                    i1l2138 01ED  
                                  i1l2218 0302                                    i1l2090 0150  
                                  i1l2074 010D                                    i1l2066 00FC  
                                  i1l2330 000F                                    _ODCONC 1F50  
                                  i1l2236 0347                                    i1l2228 0330  
                                  i1l2180 026D                                    i1l2156 0228  
                                  i1l2172 025C                                    i1l2076 011B  
                                  i1l2068 010A                                    i1l2092 015D  
                                  i1l2340 002B                                    i1l2332 0017  
                                  u112_25 0326                                    u104_25 0266  
                                  i1l2270 078E                                    i1l2262 077D  
                                  i1l2238 0353                                    i1l2190 02AC  
                                  i1l2182 0276                                    i1l2174 026A  
                                  i1l2166 023A                                    i1l2158 0235  
                                  i1l2094 0163                                    i1l2086 0130  
                                  i1l2078 011F                                    i1l2334 001B  
                                  i1l2326 0006                                    i1l2272 0FB8  
                                  i1l2264 077F                                    u113_20 0330  
                                  i1l2192 02AE                                    u105_20 0287  
                                  i1l2184 027A                                    i1l2168 0247  
                                  i1l2096 0170                                    i1l2088 014C  
                                  i1l2280 0770                                    i1l2336 0023  
                                  i1l2328 000B                                    u113_21 032F  
                                  u105_21 0286                                    i1l2274 0FBA  
                                  i1l2266 0783                                    i1l2186 0288  
                                  i1l2282 0777                                    i1l2338 0027  
                                  i1l2268 0787                                    i1l2196 02BC  
                                  i1l2188 028F                                    i1l2276 0766  
                                  u105_25 0283                                    i1l1910 0752  
                                  i1l2198 02CF                                    i1l2278 0768  
                                  i1l1912 0757                                    u114_20 0340  
                                  u106_20 02BB                                    u130_20 0023  
                                  u114_21 033F                                    u106_21 02BA  
                                  u130_21 0022                                    i1l1914 075C  
                                  i1l1906 074B                                    i1l2730 02F7  
                                  i1l1916 075E                                    i1l1908 074F  
                                  u114_25 033C                                    u106_25 02B7  
                                  i1l1918 0764                                    u115_20 0346  
                                  u107_20 02C7                                    u131_20 0027  
                                  u115_21 0345                                    u107_21 02C5  
                                  u131_21 0026                                    i1l1890 0FDE  
                                  i1l1892 0FE2                                    u116_20 0353  
                                  u108_20 02C8                                    u132_20 002B  
                                  u116_21 0352                                    u132_21 002A  
                                  u116_25 034F                                    u117_20 0359  
                                  u109_20 02E3                                    u117_21 0358  
                                  u109_21 02E2                                    u109_25 02DF  
                                  u118_20 078E                                    u126_20 000B  
                                  u118_21 078D                                    u126_21 000A  
                                  u119_20 0777                                    u127_20 000F  
                                  u119_21 0776                                    u127_21 000E  
                                  u128_20 0017                                    u128_21 0016  
                                  _INLVLA 1F3C                                    _INLVLC 1F52  
                                  u129_20 001B                                    u129_21 001A  
                                  _INTPPS 1E90                                    _OSCFRQ 0893  
                                  _WDTCON 080C                __size_of_SPI1_ExchangeByte 000D  
    __end_of_TMR1_DefaultInterruptHandler 0004     __size_of_TMR1_DefaultInterruptHandler 0001  
            _TMR1_DefaultInterruptHandler 0003                         __end_of_TMR0_ISR_ 0FB8  
                       __end_of_TMR1_ISR_ 035B                              ?_TMR0_Reload 0070  
                        ?_TMR0_Initialize 0070                             ?_INT_CallBack 0070  
                        __end_of_playNote 06F5                              __pdataBIGRAM 22DC  
                         ?_WDT_Initialize 0070          __size_of_INT_SetInterruptHandler 0006  
TMR1_SetInterruptHandler@InterruptHandler 0072  TMR0_SetInterruptHandler@InterruptHandler 0072  
 INT_SetInterruptHandler@InterruptHandler 0072                   __end_of_TMR1_WriteTimer 07CB  
                        ?_TMR1_Initialize 0070                          ?_PWM3_Initialize 0070  
                       _SYSTEM_Initialize 0713                   __end_of__initialization 0084  
                      ?_SYSTEM_Initialize 0070                             _last_prescale 0065  
                    _silent_night_playing 006A                            __pcstackCOMMON 0070  
                            __pidataBANK0 06F5                              __pidataBANK1 07A9  
                            __pidataBANK2 05CE                              __pidataBANK3 0610  
                     ??_SYSTEM_Initialize 0074                                 ?_TMR0_ISR 0070  
                               ?_TMR1_ISR 0070             ?_TMR1_DefaultInterruptHandler 0070  
                       ??_SPI1_Initialize 0072                          ?_TMR2_Initialize 0070  
                          ??_INT_CallBack 0071                     SPI1_ExchangeByte@data 0072  
                       shiftBytes@lowSide 0073                        _spi1_configuration 1000  
             __size_of_EXT_INT_Initialize 000D                 __end_of_SYSTEM_Initialize 072F  
                              __pbssBANK0 0062                                __pmaintext 035B  
        __end_of_TMR0_SetInterruptHandler 0FD0                                ??_TMR0_ISR 0070  
                              ??_TMR1_ISR 0072                                __pintentry 0004  
                    displayMatrix@lowSide 00B4                                   _INT_ISR 0FB8  
                                 _EXT_ISR 074B                                   _OSCTUNE 0892  
                                 _PWM3DCH 0315                                   _PWM3DCL 0314  
                                 _PWM3CON 0316                                   _SSP1ADD 018D  
                                 _SLRCONA 1F3B                                   _SLRCONC 1F51  
                                 _SSP1BUF 018C                          ?_TMR1_WriteTimer 0070  
                               ?_playNote 0072                      __size_of_TMR0_Reload 0009  
                                 __ptext1 06D6                                   __ptext2 0652  
                                 __ptext3 07D9                                   __ptext4 07E6  
                                 __ptext5 0713                                   __ptext6 0FB1  
                                 __ptext7 07CB                                   __ptext8 06B6  
                                 __ptext9 0FD0            ??_TMR1_DefaultInterruptHandler 0070  
                               _T1CONbits 020E                     _OSCILLATOR_Initialize 0FC4  
                               _T2CONbits 028E                            displayMatrix@i 00B2  
       __size_of_TMR1_SetInterruptHandler 0006                  ??_PIN_MANAGER_Initialize 0072  
               ?_TMR1_SetInterruptHandler 0072                                 _T2HLTbits 028F  
                 _INT_SetInterruptHandler 0FBE                                   _presses 0078  
              __size_of_SYSTEM_Initialize 001C                                   main@pre 0077  
                    end_of_initialization 0084                                 _T2RSTbits 0291  
                                 init_ram 0FE7                                   initloop 0FE8  
                    __end_of_INT_CallBack 1000                              _dream_lights 0030  
                              _shiftBytes 07D9                                ??_playNote 0073  
                               _TMR0_ISR_ 0FB4                                 _TMR1_ISR_ 0088  
                        ??_WDT_Initialize 0072                  _TMR0_SetInterruptHandler 0FCA  
                               _TRISAbits 0012                                 _TRISCbits 0014  
                   __end_of_displayMatrix 068E                          _silent_night_pre 22DC  
                         _SPI1_Initialize 0794                             _change_lights 0064  
                    _timer0ReloadVal16bit 005E                             __pidataBIGRAM 04BA  
                              ?_TMR0_ISR_ 0070                                ?_TMR1_ISR_ 0070  
                       __size_of_TMR0_ISR 0017                         __size_of_TMR1_ISR 0017  
                  ?_OSCILLATOR_Initialize 0070                 ??_INT_SetInterruptHandler 0074  
                      shiftBytes@highSide 0074                       start_initialization 0033  
                __size_of_TMR0_Initialize 001C           __size_of_PIN_MANAGER_Initialize 0028  
            ?_INT_DefaultInterruptHandler 0070                               ?_shiftBytes 0073  
                __size_of_PWM3_Initialize 0008                  __size_of_TMR1_Initialize 0020  
                             __pdataBANK0 0020                               __pdataBANK1 00A0  
                             __pdataBANK2 0120                               __pdataBANK3 01A0  
              __end_of_EXT_INT_Initialize 0800                               __pbssCOMMON 0078  
                               ___latbits 0002                                  ?_INT_ISR 0070  
                           __pcstackBANK0 003E                             __pcstackBANK1 00B1  
                                ?_EXT_ISR 0070                         TMR1_ISR_@dream_sw 0041  
                __size_of_TMR2_Initialize 000E                   __end_of_SPI1_Initialize 07A9  
                   __size_of_INT_CallBack 000D                           TMR1_ISR_@i_1171 0048  
                         TMR1_ISR_@i_1172 0056                           TMR1_ISR_@i_1180 0044  
                         TMR1_ISR_@i_1182 0052                           TMR1_ISR_@i_1174 004A  
                         TMR1_ISR_@i_1183 0046                           TMR1_ISR_@i_1175 0042  
                         TMR1_ISR_@i_1177 004C                           TMR1_ISR_@i_1178 004E  
                         TMR1_ISR_@i_1179 0050                     _TMR0_InterruptHandler 005C  
                               __pnvBANK0 0058                           TMR1_ISR_@lights 003E  
                  _PIN_MANAGER_Initialize 068E             ??_INT_DefaultInterruptHandler 0070  
                       __size_of_playNote 001F          __end_of_TMR1_SetInterruptHandler 0FD6  
                             ??_TMR0_ISR_ 0070                               ??_TMR1_ISR_ 0070  
            ??_INTERRUPT_InterruptManager 0072                       displayMatrix@states 00B1  
                            _INT_CallBack 0FF3                              playNote@note 0074  
                     __size_of_shiftBytes 000D                                 _last_note 0066  
                              TMR1_ISR_@i 0054                                  _T2CLKCON 0290  
                       ??_TMR0_Initialize 0074                                  _LATCbits 001A  
                                _PIE0bits 0716                                  _PIE1bits 0717  
                __size_of_TMR1_WriteTimer 0011       __size_of_INTERRUPT_InterruptManager 002D  
              ??_TMR0_SetInterruptHandler 0074                                  _PIR0bits 070C  
                                _PIR1bits 070D                             ??_TMR0_Reload 0070  
                               _song2_pre 0020                                 _song3_pre 01A0  
                                _SSP1CON1 0190                                  _SSP1CON2 0191  
                                _TMR0_ISR 077D                                  _TMR1_ISR 0766  
                               _num_songs 003D                                  _SSP1STAT 018F  
                       ??_TMR1_Initialize 0074                         ??_PWM3_Initialize 0072  
    __size_of_INT_DefaultInterruptHandler 0001                          __size_of_INT_ISR 0006  
                        __size_of_EXT_ISR 001B                          ?_SPI1_Initialize 0070  
                       ??_TMR2_Initialize 0072                             _song2_playing 0068  
                           _song3_playing 0069                             _TMR0_complete 0067  
                 ??_OSCILLATOR_Initialize 0072                               _light_array 0079  
                _TMR1_SetInterruptHandler 0FD0                       __end_of_TMR0_Reload 0FE7  
                   _TMR1_InterruptHandler 0058                                _T0CON0bits 059E  
                                __ptext10 072F                                  __ptext11 0FCA  
                                __ptext20 07BA                                  __ptext12 0794  
                                __ptext21 0003                                  __ptext13 0FD6  
                              _T1GCONbits 020F                                  __ptext30 0FDE  
                                __ptext22 0088                                  __ptext14 068E  
                                __ptext23 077D                                  __ptext15 0FC4  
                                __ptext24 0002                                  __ptext16 07F3  
                                __ptext25 0FB4                                  __ptext17 0FBE  
                                __ptext26 0FB8                                  __ptext27 0FF3  
                                __ptext19 0766                                  __ptext28 074B  
                                __ptext29 0FB0                              _SSP1CON1bits 0190  
                           __size_of_main 015F      __end_of_TMR0_DefaultInterruptHandler 0003  
   __size_of_TMR0_DefaultInterruptHandler 0001              _TMR0_DefaultInterruptHandler 0002  
                            ??_shiftBytes 0074                                  _playNote 06D6  
                  __size_of_displayMatrix 003C                                  int$flags 007E  
      __end_of_INTERRUPT_InterruptManager 0031                _INTERRUPT_InterruptManager 0004  
                       ??_TMR1_WriteTimer 0072                              _song2_length 003A  
                            _song3_length 0037                                _INTCONbits 000B  
                    _INT_InterruptHandler 0060                        __end_of_shiftBytes 07E6  
                            _silent_night 2366                        _EXT_INT_Initialize 07F3  
                 __size_of_WDT_Initialize 0003                                  intlevel1 0000  
                 ?_PIN_MANAGER_Initialize 0070                       ?_EXT_INT_Initialize 0070  
           ?_TMR0_DefaultInterruptHandler 0070                               _TMR0_Reload 0FDE  
                            _timer_high_2 003C                              _timer_high_3 0039  
                ?_INT_SetInterruptHandler 0072                             __pstringtext1 1000  
                    ??_EXT_INT_Initialize 0074                                _SSP1DATPPS 1EC6  
                              _SSP1CLKPPS 1EC5                           _TMR0_Initialize 072F  
                             _timer_low_2 003B                               _timer_low_3 0038  
                           _displayMatrix 0652            __end_of_PIN_MANAGER_Initialize 06B6  
                         _TMR1_Initialize 06B6                           _PWM3_Initialize 0FD6  
              __end_of_spi1_configuration 1004  
