

Microchip MPLAB XC8 Assembler V2.32 build 20210201212658 
                                                                                               Thu Dec 23 11:09:30 2021

Microchip MPLAB XC8 C Compiler v2.32 (Free license) build 20210201212658 Og1 
     1                           	processor	16F15225
     2                           	pagewidth 120
     3                           	opt	flic
     4                           	psect	idataBIGRAM,global,class=CODE,delta=2,noexec
     5                           	psect	idataCOMMON,global,class=CODE,delta=2,noexec
     6                           	psect	idataBANK0,global,class=CODE,delta=2,noexec
     7                           	psect	idataBANK1,global,class=CODE,delta=2,noexec
     8                           	psect	idataBANK2,global,class=CODE,delta=2,noexec
     9                           	psect	stringtext1,global,class=STRCODE,delta=2,noexec
    10                           	psect	stringtext2,global,class=STRCODE,delta=2,noexec
    11                           	psect	stringtext3,global,class=STRCODE,delta=2,noexec
    12                           	psect	stringtext4,global,class=STRCODE,delta=2,noexec
    13                           	psect	stringtext5,global,class=STRCODE,delta=2,noexec
    14                           	psect	stringtext6,global,class=STRCODE,delta=2,noexec
    15                           	psect	stringtext7,global,class=STRCODE,delta=2,noexec
    16                           	psect	stringtext8,global,class=STRCODE,delta=2,noexec
    17                           	psect	nvCOMMON,global,class=COMMON,space=1,delta=1,noexec
    18                           	psect	nvBANK0,global,class=BANK0,space=1,delta=1,noexec
    19                           	psect	cinit,global,class=CODE,merge=1,delta=2
    20                           	psect	dataBIGRAM,global,delta=1
    21                           	psect	bssCOMMON,global,class=COMMON,space=1,delta=1,noexec
    22                           	psect	dataCOMMON,global,class=COMMON,space=1,delta=1,noexec
    23                           	psect	bssBANK0,global,class=BANK0,space=1,delta=1,noexec
    24                           	psect	dataBANK0,global,class=BANK0,space=1,delta=1,noexec
    25                           	psect	bssBANK1,global,class=BANK1,space=1,delta=1,noexec
    26                           	psect	dataBANK1,global,class=BANK1,space=1,delta=1,noexec
    27                           	psect	dataBANK2,global,class=BANK2,space=1,delta=1,noexec
    28                           	psect	inittext,global,class=CODE,delta=2
    29                           	psect	cstackBANK1,global,class=BANK1,space=1,delta=1,noexec
    30                           	psect	cstackCOMMON,global,class=COMMON,space=1,delta=1,noexec
    31                           	psect	cstackBANK0,global,class=BANK0,space=1,delta=1,noexec
    32                           	psect	maintext,global,class=CODE,merge=1,split=1,delta=2
    33                           	psect	text1,local,class=CODE,merge=1,delta=2
    34                           	psect	text2,local,class=CODE,merge=1,delta=2
    35                           	psect	text3,local,class=CODE,merge=1,delta=2
    36                           	psect	text4,local,class=CODE,merge=1,delta=2
    37                           	psect	text5,local,class=CODE,merge=1,delta=2
    38                           	psect	text6,local,class=CODE,merge=1,delta=2
    39                           	psect	text7,local,class=CODE,merge=1,delta=2
    40                           	psect	text8,local,class=CODE,merge=1,delta=2
    41                           	psect	text9,local,class=CODE,merge=1,delta=2
    42                           	psect	text10,local,class=CODE,merge=1,delta=2
    43                           	psect	text11,local,class=CODE,merge=1,delta=2
    44                           	psect	text12,local,class=CODE,merge=1,delta=2
    45                           	psect	text13,local,class=CODE,merge=1,delta=2
    46                           	psect	text14,local,class=CODE,merge=1,delta=2
    47                           	psect	text15,local,class=CODE,merge=1,delta=2
    48                           	psect	text16,local,class=CODE,merge=1,delta=2
    49                           	psect	text17,local,class=CODE,merge=1,delta=2
    50                           	psect	intentry,global,class=CODE,delta=2
    51                           	psect	text19,local,class=CODE,merge=1,delta=2
    52                           	psect	text20,local,class=CODE,merge=1,delta=2
    53                           	psect	text21,local,class=CODE,merge=1,delta=2
    54                           	psect	text22,local,class=CODE,merge=1,delta=2
    55                           	psect	text23,local,class=CODE,merge=1,delta=2
    56                           	psect	text24,local,class=CODE,merge=1,delta=2,group=1
    57                           	psect	text25,local,class=CODE,merge=1,delta=2
    58                           	psect	text26,local,class=CODE,merge=1,delta=2
    59                           	psect	text27,local,class=CODE,merge=1,delta=2
    60                           	psect	text28,local,class=CODE,merge=1,delta=2
    61                           	psect	text29,local,class=CODE,merge=1,delta=2
    62                           	psect	text30,local,class=CODE,merge=1,delta=2
    63                           	psect	text31,local,class=CODE,merge=1,delta=2
    64                           	psect	text32,local,class=CODE,merge=1,delta=2
    65                           	psect	config,global,abs,ovrld,class=CONFIG,space=4,delta=2,noexec
    66                           	dabs	1,0x620,48
    67                           	dabs	1,0x5A0,80
    68                           	dabs	1,0x566,10
    69                           	dabs	1,0x520,70
    70                           	dabs	1,0x4AB,69
    71                           	dabs	1,0x4A0,11
    72                           	dabs	1,0x420,80
    73                           	dabs	1,0x3AD,67
    74                           	dabs	1,0x3A0,13
    75                           	dabs	1,0x320,80
    76                           	dabs	1,0x2AF,65
    77                           	dabs	1,0x219F,0,_song3_pre
    78                           	dabs	1,0x223D,0,_song3
    79                           	dabs	1,0x22DB,0,_silent_night
    80                           	dabs	1,0x2366,0,_silent_night_pre
    81                           	dabs	1,0x7E,2
    82  0000                     
    83                           ; Version 2.35
    84                           ; Generated 13/04/2021 GMT
    85                           ; 
    86                           ; Copyright © 2021, Microchip Technology Inc. and its subsidiaries ("Microchip")
    87                           ; All rights reserved.
    88                           ; 
    89                           ; This software is developed by Microchip Technology Inc. and its subsidiaries ("Microch
      +                          ip").
    90                           ; 
    91                           ; Redistribution and use in source and binary forms, with or without modification, are
    92                           ; permitted provided that the following conditions are met:
    93                           ; 
    94                           ;     1. Redistributions of source code must retain the above copyright notice, this lis
      +                          t of
    95                           ;        conditions and the following disclaimer.
    96                           ; 
    97                           ;     2. Redistributions in binary form must reproduce the above copyright notice, this 
      +                          list
    98                           ;        of conditions and the following disclaimer in the documentation and/or other
    99                           ;        materials provided with the distribution. Publication is not required when
   100                           ;        this file is used in an embedded application.
   101                           ; 
   102                           ;     3. Microchip's name may not be used to endorse or promote products derived from th
      +                          is
   103                           ;        software without specific prior written permission.
   104                           ; 
   105                           ; THIS SOFTWARE IS PROVIDED BY MICROCHIP "AS IS" AND ANY EXPRESS OR IMPLIED WARRANTIES,
   106                           ; INCLUDING, BUT NOT LIMITED TO, THE IMPLIED WARRANTIES OF MERCHANTABILITY AND FITNESS F
      +                          OR
   107                           ; PURPOSE ARE DISCLAIMED.  IN NO EVENT SHALL MICROCHIP BE LIABLE FOR ANY DIRECT, INDIREC
      +                          T,
   108                           ; INCIDENTAL, SPECIAL, EXEMPLARY, OR CONSEQUENTIAL DAMAGES (INCLUDING BUT NOT LIMITED TO
   109                           ; PROCUREMENT OF SUBSTITUTE GOODS OR SERVICES; LOSS OF USE, DATA OR PROFITS; OR BUSINESS
   110                           ; INTERRUPTION) HOWSOEVER CAUSED AND ON ANY THEORY OF LIABILITY, WHETHER IN CONTRACT, ST
      +                          RICT
   111                           ; LIABILITY, OR TORT (INCLUDING NEGLIGENCE OR OTHERWISE) ARISING IN ANY WAY OUT OF THE U
      +                          SE OF
   112                           ; THIS SOFTWARE, EVEN IF ADVISED OF THE POSSIBILITY OF SUCH DAMAGE.
   113                           ; 
   114                           ; 
   115                           ; Code-generator required, PIC16F15225 Definitions
   116                           ; 
   117                           ; SFR Addresses
   118  0000                     	;# 
   119  0001                     	;# 
   120  0002                     	;# 
   121  0003                     	;# 
   122  0004                     	;# 
   123  0005                     	;# 
   124  0006                     	;# 
   125  0007                     	;# 
   126  0008                     	;# 
   127  0009                     	;# 
   128  000A                     	;# 
   129  000B                     	;# 
   130  000C                     	;# 
   131  000E                     	;# 
   132  0012                     	;# 
   133  0014                     	;# 
   134  0018                     	;# 
   135  001A                     	;# 
   136  009A                     	;# 
   137  009B                     	;# 
   138  009B                     	;# 
   139  009C                     	;# 
   140  009D                     	;# 
   141  009E                     	;# 
   142  009F                     	;# 
   143  010E                     	;# 
   144  010F                     	;# 
   145  0119                     	;# 
   146  011A                     	;# 
   147  011B                     	;# 
   148  011B                     	;# 
   149  011C                     	;# 
   150  011D                     	;# 
   151  011E                     	;# 
   152  011F                     	;# 
   153  018C                     	;# 
   154  018D                     	;# 
   155  018E                     	;# 
   156  018F                     	;# 
   157  0190                     	;# 
   158  0191                     	;# 
   159  0192                     	;# 
   160  020C                     	;# 
   161  020D                     	;# 
   162  020E                     	;# 
   163  020E                     	;# 
   164  020F                     	;# 
   165  020F                     	;# 
   166  0210                     	;# 
   167  0210                     	;# 
   168  0211                     	;# 
   169  0211                     	;# 
   170  028C                     	;# 
   171  028C                     	;# 
   172  028D                     	;# 
   173  028D                     	;# 
   174  028E                     	;# 
   175  028F                     	;# 
   176  0290                     	;# 
   177  0291                     	;# 
   178  030C                     	;# 
   179  030C                     	;# 
   180  030D                     	;# 
   181  030E                     	;# 
   182  030F                     	;# 
   183  0310                     	;# 
   184  0310                     	;# 
   185  0311                     	;# 
   186  0312                     	;# 
   187  0313                     	;# 
   188  0314                     	;# 
   189  0314                     	;# 
   190  0315                     	;# 
   191  0316                     	;# 
   192  0318                     	;# 
   193  0318                     	;# 
   194  0319                     	;# 
   195  031A                     	;# 
   196  059C                     	;# 
   197  059C                     	;# 
   198  059D                     	;# 
   199  059D                     	;# 
   200  059E                     	;# 
   201  059F                     	;# 
   202  070C                     	;# 
   203  070D                     	;# 
   204  070E                     	;# 
   205  0716                     	;# 
   206  0717                     	;# 
   207  0718                     	;# 
   208  080C                     	;# 
   209  0811                     	;# 
   210  0813                     	;# 
   211  0814                     	;# 
   212  081A                     	;# 
   213  081A                     	;# 
   214  081B                     	;# 
   215  081C                     	;# 
   216  081C                     	;# 
   217  081D                     	;# 
   218  081E                     	;# 
   219  081F                     	;# 
   220  088E                     	;# 
   221  0890                     	;# 
   222  0891                     	;# 
   223  0892                     	;# 
   224  0893                     	;# 
   225  090C                     	;# 
   226  1E8F                     	;# 
   227  1E90                     	;# 
   228  1E91                     	;# 
   229  1E92                     	;# 
   230  1E93                     	;# 
   231  1E9C                     	;# 
   232  1EA1                     	;# 
   233  1EA2                     	;# 
   234  1EC3                     	;# 
   235  1EC5                     	;# 
   236  1EC6                     	;# 
   237  1EC7                     	;# 
   238  1ECB                     	;# 
   239  1ECB                     	;# 
   240  1ECB                     	;# 
   241  1ECC                     	;# 
   242  1ECC                     	;# 
   243  1ECC                     	;# 
   244  1F10                     	;# 
   245  1F11                     	;# 
   246  1F12                     	;# 
   247  1F14                     	;# 
   248  1F15                     	;# 
   249  1F20                     	;# 
   250  1F21                     	;# 
   251  1F22                     	;# 
   252  1F23                     	;# 
   253  1F24                     	;# 
   254  1F25                     	;# 
   255  1F38                     	;# 
   256  1F39                     	;# 
   257  1F3A                     	;# 
   258  1F3B                     	;# 
   259  1F3C                     	;# 
   260  1F3D                     	;# 
   261  1F3E                     	;# 
   262  1F3F                     	;# 
   263  1F4E                     	;# 
   264  1F4F                     	;# 
   265  1F50                     	;# 
   266  1F51                     	;# 
   267  1F52                     	;# 
   268  1F53                     	;# 
   269  1F54                     	;# 
   270  1F55                     	;# 
   271  1FE4                     	;# 
   272  1FE5                     	;# 
   273  1FE6                     	;# 
   274  1FE7                     	;# 
   275  1FE8                     	;# 
   276  1FE8                     	;# 
   277  1FE9                     	;# 
   278  1FEA                     	;# 
   279  1FEB                     	;# 
   280  1FED                     	;# 
   281  1FEE                     	;# 
   282  1FEF                     	;# 
   283  0000                     	;# 
   284  0001                     	;# 
   285  0002                     	;# 
   286  0003                     	;# 
   287  0004                     	;# 
   288  0005                     	;# 
   289  0006                     	;# 
   290  0007                     	;# 
   291  0008                     	;# 
   292  0009                     	;# 
   293  000A                     	;# 
   294  000B                     	;# 
   295  000C                     	;# 
   296  000E                     	;# 
   297  0012                     	;# 
   298  0014                     	;# 
   299  0018                     	;# 
   300  001A                     	;# 
   301  009A                     	;# 
   302  009B                     	;# 
   303  009B                     	;# 
   304  009C                     	;# 
   305  009D                     	;# 
   306  009E                     	;# 
   307  009F                     	;# 
   308  010E                     	;# 
   309  010F                     	;# 
   310  0119                     	;# 
   311  011A                     	;# 
   312  011B                     	;# 
   313  011B                     	;# 
   314  011C                     	;# 
   315  011D                     	;# 
   316  011E                     	;# 
   317  011F                     	;# 
   318  018C                     	;# 
   319  018D                     	;# 
   320  018E                     	;# 
   321  018F                     	;# 
   322  0190                     	;# 
   323  0191                     	;# 
   324  0192                     	;# 
   325  020C                     	;# 
   326  020D                     	;# 
   327  020E                     	;# 
   328  020E                     	;# 
   329  020F                     	;# 
   330  020F                     	;# 
   331  0210                     	;# 
   332  0210                     	;# 
   333  0211                     	;# 
   334  0211                     	;# 
   335  028C                     	;# 
   336  028C                     	;# 
   337  028D                     	;# 
   338  028D                     	;# 
   339  028E                     	;# 
   340  028F                     	;# 
   341  0290                     	;# 
   342  0291                     	;# 
   343  030C                     	;# 
   344  030C                     	;# 
   345  030D                     	;# 
   346  030E                     	;# 
   347  030F                     	;# 
   348  0310                     	;# 
   349  0310                     	;# 
   350  0311                     	;# 
   351  0312                     	;# 
   352  0313                     	;# 
   353  0314                     	;# 
   354  0314                     	;# 
   355  0315                     	;# 
   356  0316                     	;# 
   357  0318                     	;# 
   358  0318                     	;# 
   359  0319                     	;# 
   360  031A                     	;# 
   361  059C                     	;# 
   362  059C                     	;# 
   363  059D                     	;# 
   364  059D                     	;# 
   365  059E                     	;# 
   366  059F                     	;# 
   367  070C                     	;# 
   368  070D                     	;# 
   369  070E                     	;# 
   370  0716                     	;# 
   371  0717                     	;# 
   372  0718                     	;# 
   373  080C                     	;# 
   374  0811                     	;# 
   375  0813                     	;# 
   376  0814                     	;# 
   377  081A                     	;# 
   378  081A                     	;# 
   379  081B                     	;# 
   380  081C                     	;# 
   381  081C                     	;# 
   382  081D                     	;# 
   383  081E                     	;# 
   384  081F                     	;# 
   385  088E                     	;# 
   386  0890                     	;# 
   387  0891                     	;# 
   388  0892                     	;# 
   389  0893                     	;# 
   390  090C                     	;# 
   391  1E8F                     	;# 
   392  1E90                     	;# 
   393  1E91                     	;# 
   394  1E92                     	;# 
   395  1E93                     	;# 
   396  1E9C                     	;# 
   397  1EA1                     	;# 
   398  1EA2                     	;# 
   399  1EC3                     	;# 
   400  1EC5                     	;# 
   401  1EC6                     	;# 
   402  1EC7                     	;# 
   403  1ECB                     	;# 
   404  1ECB                     	;# 
   405  1ECB                     	;# 
   406  1ECC                     	;# 
   407  1ECC                     	;# 
   408  1ECC                     	;# 
   409  1F10                     	;# 
   410  1F11                     	;# 
   411  1F12                     	;# 
   412  1F14                     	;# 
   413  1F15                     	;# 
   414  1F20                     	;# 
   415  1F21                     	;# 
   416  1F22                     	;# 
   417  1F23                     	;# 
   418  1F24                     	;# 
   419  1F25                     	;# 
   420  1F38                     	;# 
   421  1F39                     	;# 
   422  1F3A                     	;# 
   423  1F3B                     	;# 
   424  1F3C                     	;# 
   425  1F3D                     	;# 
   426  1F3E                     	;# 
   427  1F3F                     	;# 
   428  1F4E                     	;# 
   429  1F4F                     	;# 
   430  1F50                     	;# 
   431  1F51                     	;# 
   432  1F52                     	;# 
   433  1F53                     	;# 
   434  1F54                     	;# 
   435  1F55                     	;# 
   436  1FE4                     	;# 
   437  1FE5                     	;# 
   438  1FE6                     	;# 
   439  1FE7                     	;# 
   440  1FE8                     	;# 
   441  1FE8                     	;# 
   442  1FE9                     	;# 
   443  1FEA                     	;# 
   444  1FEB                     	;# 
   445  1FED                     	;# 
   446  1FEE                     	;# 
   447  1FEF                     	;# 
   448  0000                     	;# 
   449  0001                     	;# 
   450  0002                     	;# 
   451  0003                     	;# 
   452  0004                     	;# 
   453  0005                     	;# 
   454  0006                     	;# 
   455  0007                     	;# 
   456  0008                     	;# 
   457  0009                     	;# 
   458  000A                     	;# 
   459  000B                     	;# 
   460  000C                     	;# 
   461  000E                     	;# 
   462  0012                     	;# 
   463  0014                     	;# 
   464  0018                     	;# 
   465  001A                     	;# 
   466  009A                     	;# 
   467  009B                     	;# 
   468  009B                     	;# 
   469  009C                     	;# 
   470  009D                     	;# 
   471  009E                     	;# 
   472  009F                     	;# 
   473  010E                     	;# 
   474  010F                     	;# 
   475  0119                     	;# 
   476  011A                     	;# 
   477  011B                     	;# 
   478  011B                     	;# 
   479  011C                     	;# 
   480  011D                     	;# 
   481  011E                     	;# 
   482  011F                     	;# 
   483  018C                     	;# 
   484  018D                     	;# 
   485  018E                     	;# 
   486  018F                     	;# 
   487  0190                     	;# 
   488  0191                     	;# 
   489  0192                     	;# 
   490  020C                     	;# 
   491  020D                     	;# 
   492  020E                     	;# 
   493  020E                     	;# 
   494  020F                     	;# 
   495  020F                     	;# 
   496  0210                     	;# 
   497  0210                     	;# 
   498  0211                     	;# 
   499  0211                     	;# 
   500  028C                     	;# 
   501  028C                     	;# 
   502  028D                     	;# 
   503  028D                     	;# 
   504  028E                     	;# 
   505  028F                     	;# 
   506  0290                     	;# 
   507  0291                     	;# 
   508  030C                     	;# 
   509  030C                     	;# 
   510  030D                     	;# 
   511  030E                     	;# 
   512  030F                     	;# 
   513  0310                     	;# 
   514  0310                     	;# 
   515  0311                     	;# 
   516  0312                     	;# 
   517  0313                     	;# 
   518  0314                     	;# 
   519  0314                     	;# 
   520  0315                     	;# 
   521  0316                     	;# 
   522  0318                     	;# 
   523  0318                     	;# 
   524  0319                     	;# 
   525  031A                     	;# 
   526  059C                     	;# 
   527  059C                     	;# 
   528  059D                     	;# 
   529  059D                     	;# 
   530  059E                     	;# 
   531  059F                     	;# 
   532  070C                     	;# 
   533  070D                     	;# 
   534  070E                     	;# 
   535  0716                     	;# 
   536  0717                     	;# 
   537  0718                     	;# 
   538  080C                     	;# 
   539  0811                     	;# 
   540  0813                     	;# 
   541  0814                     	;# 
   542  081A                     	;# 
   543  081A                     	;# 
   544  081B                     	;# 
   545  081C                     	;# 
   546  081C                     	;# 
   547  081D                     	;# 
   548  081E                     	;# 
   549  081F                     	;# 
   550  088E                     	;# 
   551  0890                     	;# 
   552  0891                     	;# 
   553  0892                     	;# 
   554  0893                     	;# 
   555  090C                     	;# 
   556  1E8F                     	;# 
   557  1E90                     	;# 
   558  1E91                     	;# 
   559  1E92                     	;# 
   560  1E93                     	;# 
   561  1E9C                     	;# 
   562  1EA1                     	;# 
   563  1EA2                     	;# 
   564  1EC3                     	;# 
   565  1EC5                     	;# 
   566  1EC6                     	;# 
   567  1EC7                     	;# 
   568  1ECB                     	;# 
   569  1ECB                     	;# 
   570  1ECB                     	;# 
   571  1ECC                     	;# 
   572  1ECC                     	;# 
   573  1ECC                     	;# 
   574  1F10                     	;# 
   575  1F11                     	;# 
   576  1F12                     	;# 
   577  1F14                     	;# 
   578  1F15                     	;# 
   579  1F20                     	;# 
   580  1F21                     	;# 
   581  1F22                     	;# 
   582  1F23                     	;# 
   583  1F24                     	;# 
   584  1F25                     	;# 
   585  1F38                     	;# 
   586  1F39                     	;# 
   587  1F3A                     	;# 
   588  1F3B                     	;# 
   589  1F3C                     	;# 
   590  1F3D                     	;# 
   591  1F3E                     	;# 
   592  1F3F                     	;# 
   593  1F4E                     	;# 
   594  1F4F                     	;# 
   595  1F50                     	;# 
   596  1F51                     	;# 
   597  1F52                     	;# 
   598  1F53                     	;# 
   599  1F54                     	;# 
   600  1F55                     	;# 
   601  1FE4                     	;# 
   602  1FE5                     	;# 
   603  1FE6                     	;# 
   604  1FE7                     	;# 
   605  1FE8                     	;# 
   606  1FE8                     	;# 
   607  1FE9                     	;# 
   608  1FEA                     	;# 
   609  1FEB                     	;# 
   610  1FED                     	;# 
   611  1FEE                     	;# 
   612  1FEF                     	;# 
   613  0000                     	;# 
   614  0001                     	;# 
   615  0002                     	;# 
   616  0003                     	;# 
   617  0004                     	;# 
   618  0005                     	;# 
   619  0006                     	;# 
   620  0007                     	;# 
   621  0008                     	;# 
   622  0009                     	;# 
   623  000A                     	;# 
   624  000B                     	;# 
   625  000C                     	;# 
   626  000E                     	;# 
   627  0012                     	;# 
   628  0014                     	;# 
   629  0018                     	;# 
   630  001A                     	;# 
   631  009A                     	;# 
   632  009B                     	;# 
   633  009B                     	;# 
   634  009C                     	;# 
   635  009D                     	;# 
   636  009E                     	;# 
   637  009F                     	;# 
   638  010E                     	;# 
   639  010F                     	;# 
   640  0119                     	;# 
   641  011A                     	;# 
   642  011B                     	;# 
   643  011B                     	;# 
   644  011C                     	;# 
   645  011D                     	;# 
   646  011E                     	;# 
   647  011F                     	;# 
   648  018C                     	;# 
   649  018D                     	;# 
   650  018E                     	;# 
   651  018F                     	;# 
   652  0190                     	;# 
   653  0191                     	;# 
   654  0192                     	;# 
   655  020C                     	;# 
   656  020D                     	;# 
   657  020E                     	;# 
   658  020E                     	;# 
   659  020F                     	;# 
   660  020F                     	;# 
   661  0210                     	;# 
   662  0210                     	;# 
   663  0211                     	;# 
   664  0211                     	;# 
   665  028C                     	;# 
   666  028C                     	;# 
   667  028D                     	;# 
   668  028D                     	;# 
   669  028E                     	;# 
   670  028F                     	;# 
   671  0290                     	;# 
   672  0291                     	;# 
   673  030C                     	;# 
   674  030C                     	;# 
   675  030D                     	;# 
   676  030E                     	;# 
   677  030F                     	;# 
   678  0310                     	;# 
   679  0310                     	;# 
   680  0311                     	;# 
   681  0312                     	;# 
   682  0313                     	;# 
   683  0314                     	;# 
   684  0314                     	;# 
   685  0315                     	;# 
   686  0316                     	;# 
   687  0318                     	;# 
   688  0318                     	;# 
   689  0319                     	;# 
   690  031A                     	;# 
   691  059C                     	;# 
   692  059C                     	;# 
   693  059D                     	;# 
   694  059D                     	;# 
   695  059E                     	;# 
   696  059F                     	;# 
   697  070C                     	;# 
   698  070D                     	;# 
   699  070E                     	;# 
   700  0716                     	;# 
   701  0717                     	;# 
   702  0718                     	;# 
   703  080C                     	;# 
   704  0811                     	;# 
   705  0813                     	;# 
   706  0814                     	;# 
   707  081A                     	;# 
   708  081A                     	;# 
   709  081B                     	;# 
   710  081C                     	;# 
   711  081C                     	;# 
   712  081D                     	;# 
   713  081E                     	;# 
   714  081F                     	;# 
   715  088E                     	;# 
   716  0890                     	;# 
   717  0891                     	;# 
   718  0892                     	;# 
   719  0893                     	;# 
   720  090C                     	;# 
   721  1E8F                     	;# 
   722  1E90                     	;# 
   723  1E91                     	;# 
   724  1E92                     	;# 
   725  1E93                     	;# 
   726  1E9C                     	;# 
   727  1EA1                     	;# 
   728  1EA2                     	;# 
   729  1EC3                     	;# 
   730  1EC5                     	;# 
   731  1EC6                     	;# 
   732  1EC7                     	;# 
   733  1ECB                     	;# 
   734  1ECB                     	;# 
   735  1ECB                     	;# 
   736  1ECC                     	;# 
   737  1ECC                     	;# 
   738  1ECC                     	;# 
   739  1F10                     	;# 
   740  1F11                     	;# 
   741  1F12                     	;# 
   742  1F14                     	;# 
   743  1F15                     	;# 
   744  1F20                     	;# 
   745  1F21                     	;# 
   746  1F22                     	;# 
   747  1F23                     	;# 
   748  1F24                     	;# 
   749  1F25                     	;# 
   750  1F38                     	;# 
   751  1F39                     	;# 
   752  1F3A                     	;# 
   753  1F3B                     	;# 
   754  1F3C                     	;# 
   755  1F3D                     	;# 
   756  1F3E                     	;# 
   757  1F3F                     	;# 
   758  1F4E                     	;# 
   759  1F4F                     	;# 
   760  1F50                     	;# 
   761  1F51                     	;# 
   762  1F52                     	;# 
   763  1F53                     	;# 
   764  1F54                     	;# 
   765  1F55                     	;# 
   766  1FE4                     	;# 
   767  1FE5                     	;# 
   768  1FE6                     	;# 
   769  1FE7                     	;# 
   770  1FE8                     	;# 
   771  1FE8                     	;# 
   772  1FE9                     	;# 
   773  1FEA                     	;# 
   774  1FEB                     	;# 
   775  1FED                     	;# 
   776  1FEE                     	;# 
   777  1FEF                     	;# 
   778  0000                     	;# 
   779  0001                     	;# 
   780  0002                     	;# 
   781  0003                     	;# 
   782  0004                     	;# 
   783  0005                     	;# 
   784  0006                     	;# 
   785  0007                     	;# 
   786  0008                     	;# 
   787  0009                     	;# 
   788  000A                     	;# 
   789  000B                     	;# 
   790  000C                     	;# 
   791  000E                     	;# 
   792  0012                     	;# 
   793  0014                     	;# 
   794  0018                     	;# 
   795  001A                     	;# 
   796  009A                     	;# 
   797  009B                     	;# 
   798  009B                     	;# 
   799  009C                     	;# 
   800  009D                     	;# 
   801  009E                     	;# 
   802  009F                     	;# 
   803  010E                     	;# 
   804  010F                     	;# 
   805  0119                     	;# 
   806  011A                     	;# 
   807  011B                     	;# 
   808  011B                     	;# 
   809  011C                     	;# 
   810  011D                     	;# 
   811  011E                     	;# 
   812  011F                     	;# 
   813  018C                     	;# 
   814  018D                     	;# 
   815  018E                     	;# 
   816  018F                     	;# 
   817  0190                     	;# 
   818  0191                     	;# 
   819  0192                     	;# 
   820  020C                     	;# 
   821  020D                     	;# 
   822  020E                     	;# 
   823  020E                     	;# 
   824  020F                     	;# 
   825  020F                     	;# 
   826  0210                     	;# 
   827  0210                     	;# 
   828  0211                     	;# 
   829  0211                     	;# 
   830  028C                     	;# 
   831  028C                     	;# 
   832  028D                     	;# 
   833  028D                     	;# 
   834  028E                     	;# 
   835  028F                     	;# 
   836  0290                     	;# 
   837  0291                     	;# 
   838  030C                     	;# 
   839  030C                     	;# 
   840  030D                     	;# 
   841  030E                     	;# 
   842  030F                     	;# 
   843  0310                     	;# 
   844  0310                     	;# 
   845  0311                     	;# 
   846  0312                     	;# 
   847  0313                     	;# 
   848  0314                     	;# 
   849  0314                     	;# 
   850  0315                     	;# 
   851  0316                     	;# 
   852  0318                     	;# 
   853  0318                     	;# 
   854  0319                     	;# 
   855  031A                     	;# 
   856  059C                     	;# 
   857  059C                     	;# 
   858  059D                     	;# 
   859  059D                     	;# 
   860  059E                     	;# 
   861  059F                     	;# 
   862  070C                     	;# 
   863  070D                     	;# 
   864  070E                     	;# 
   865  0716                     	;# 
   866  0717                     	;# 
   867  0718                     	;# 
   868  080C                     	;# 
   869  0811                     	;# 
   870  0813                     	;# 
   871  0814                     	;# 
   872  081A                     	;# 
   873  081A                     	;# 
   874  081B                     	;# 
   875  081C                     	;# 
   876  081C                     	;# 
   877  081D                     	;# 
   878  081E                     	;# 
   879  081F                     	;# 
   880  088E                     	;# 
   881  0890                     	;# 
   882  0891                     	;# 
   883  0892                     	;# 
   884  0893                     	;# 
   885  090C                     	;# 
   886  1E8F                     	;# 
   887  1E90                     	;# 
   888  1E91                     	;# 
   889  1E92                     	;# 
   890  1E93                     	;# 
   891  1E9C                     	;# 
   892  1EA1                     	;# 
   893  1EA2                     	;# 
   894  1EC3                     	;# 
   895  1EC5                     	;# 
   896  1EC6                     	;# 
   897  1EC7                     	;# 
   898  1ECB                     	;# 
   899  1ECB                     	;# 
   900  1ECB                     	;# 
   901  1ECC                     	;# 
   902  1ECC                     	;# 
   903  1ECC                     	;# 
   904  1F10                     	;# 
   905  1F11                     	;# 
   906  1F12                     	;# 
   907  1F14                     	;# 
   908  1F15                     	;# 
   909  1F20                     	;# 
   910  1F21                     	;# 
   911  1F22                     	;# 
   912  1F23                     	;# 
   913  1F24                     	;# 
   914  1F25                     	;# 
   915  1F38                     	;# 
   916  1F39                     	;# 
   917  1F3A                     	;# 
   918  1F3B                     	;# 
   919  1F3C                     	;# 
   920  1F3D                     	;# 
   921  1F3E                     	;# 
   922  1F3F                     	;# 
   923  1F4E                     	;# 
   924  1F4F                     	;# 
   925  1F50                     	;# 
   926  1F51                     	;# 
   927  1F52                     	;# 
   928  1F53                     	;# 
   929  1F54                     	;# 
   930  1F55                     	;# 
   931  1FE4                     	;# 
   932  1FE5                     	;# 
   933  1FE6                     	;# 
   934  1FE7                     	;# 
   935  1FE8                     	;# 
   936  1FE8                     	;# 
   937  1FE9                     	;# 
   938  1FEA                     	;# 
   939  1FEB                     	;# 
   940  1FED                     	;# 
   941  1FEE                     	;# 
   942  1FEF                     	;# 
   943  0000                     	;# 
   944  0001                     	;# 
   945  0002                     	;# 
   946  0003                     	;# 
   947  0004                     	;# 
   948  0005                     	;# 
   949  0006                     	;# 
   950  0007                     	;# 
   951  0008                     	;# 
   952  0009                     	;# 
   953  000A                     	;# 
   954  000B                     	;# 
   955  000C                     	;# 
   956  000E                     	;# 
   957  0012                     	;# 
   958  0014                     	;# 
   959  0018                     	;# 
   960  001A                     	;# 
   961  009A                     	;# 
   962  009B                     	;# 
   963  009B                     	;# 
   964  009C                     	;# 
   965  009D                     	;# 
   966  009E                     	;# 
   967  009F                     	;# 
   968  010E                     	;# 
   969  010F                     	;# 
   970  0119                     	;# 
   971  011A                     	;# 
   972  011B                     	;# 
   973  011B                     	;# 
   974  011C                     	;# 
   975  011D                     	;# 
   976  011E                     	;# 
   977  011F                     	;# 
   978  018C                     	;# 
   979  018D                     	;# 
   980  018E                     	;# 
   981  018F                     	;# 
   982  0190                     	;# 
   983  0191                     	;# 
   984  0192                     	;# 
   985  020C                     	;# 
   986  020D                     	;# 
   987  020E                     	;# 
   988  020E                     	;# 
   989  020F                     	;# 
   990  020F                     	;# 
   991  0210                     	;# 
   992  0210                     	;# 
   993  0211                     	;# 
   994  0211                     	;# 
   995  028C                     	;# 
   996  028C                     	;# 
   997  028D                     	;# 
   998  028D                     	;# 
   999  028E                     	;# 
  1000  028F                     	;# 
  1001  0290                     	;# 
  1002  0291                     	;# 
  1003  030C                     	;# 
  1004  030C                     	;# 
  1005  030D                     	;# 
  1006  030E                     	;# 
  1007  030F                     	;# 
  1008  0310                     	;# 
  1009  0310                     	;# 
  1010  0311                     	;# 
  1011  0312                     	;# 
  1012  0313                     	;# 
  1013  0314                     	;# 
  1014  0314                     	;# 
  1015  0315                     	;# 
  1016  0316                     	;# 
  1017  0318                     	;# 
  1018  0318                     	;# 
  1019  0319                     	;# 
  1020  031A                     	;# 
  1021  059C                     	;# 
  1022  059C                     	;# 
  1023  059D                     	;# 
  1024  059D                     	;# 
  1025  059E                     	;# 
  1026  059F                     	;# 
  1027  070C                     	;# 
  1028  070D                     	;# 
  1029  070E                     	;# 
  1030  0716                     	;# 
  1031  0717                     	;# 
  1032  0718                     	;# 
  1033  080C                     	;# 
  1034  0811                     	;# 
  1035  0813                     	;# 
  1036  0814                     	;# 
  1037  081A                     	;# 
  1038  081A                     	;# 
  1039  081B                     	;# 
  1040  081C                     	;# 
  1041  081C                     	;# 
  1042  081D                     	;# 
  1043  081E                     	;# 
  1044  081F                     	;# 
  1045  088E                     	;# 
  1046  0890                     	;# 
  1047  0891                     	;# 
  1048  0892                     	;# 
  1049  0893                     	;# 
  1050  090C                     	;# 
  1051  1E8F                     	;# 
  1052  1E90                     	;# 
  1053  1E91                     	;# 
  1054  1E92                     	;# 
  1055  1E93                     	;# 
  1056  1E9C                     	;# 
  1057  1EA1                     	;# 
  1058  1EA2                     	;# 
  1059  1EC3                     	;# 
  1060  1EC5                     	;# 
  1061  1EC6                     	;# 
  1062  1EC7                     	;# 
  1063  1ECB                     	;# 
  1064  1ECB                     	;# 
  1065  1ECB                     	;# 
  1066  1ECC                     	;# 
  1067  1ECC                     	;# 
  1068  1ECC                     	;# 
  1069  1F10                     	;# 
  1070  1F11                     	;# 
  1071  1F12                     	;# 
  1072  1F14                     	;# 
  1073  1F15                     	;# 
  1074  1F20                     	;# 
  1075  1F21                     	;# 
  1076  1F22                     	;# 
  1077  1F23                     	;# 
  1078  1F24                     	;# 
  1079  1F25                     	;# 
  1080  1F38                     	;# 
  1081  1F39                     	;# 
  1082  1F3A                     	;# 
  1083  1F3B                     	;# 
  1084  1F3C                     	;# 
  1085  1F3D                     	;# 
  1086  1F3E                     	;# 
  1087  1F3F                     	;# 
  1088  1F4E                     	;# 
  1089  1F4F                     	;# 
  1090  1F50                     	;# 
  1091  1F51                     	;# 
  1092  1F52                     	;# 
  1093  1F53                     	;# 
  1094  1F54                     	;# 
  1095  1F55                     	;# 
  1096  1FE4                     	;# 
  1097  1FE5                     	;# 
  1098  1FE6                     	;# 
  1099  1FE7                     	;# 
  1100  1FE8                     	;# 
  1101  1FE8                     	;# 
  1102  1FE9                     	;# 
  1103  1FEA                     	;# 
  1104  1FEB                     	;# 
  1105  1FED                     	;# 
  1106  1FEE                     	;# 
  1107  1FEF                     	;# 
  1108  0000                     	;# 
  1109  0001                     	;# 
  1110  0002                     	;# 
  1111  0003                     	;# 
  1112  0004                     	;# 
  1113  0005                     	;# 
  1114  0006                     	;# 
  1115  0007                     	;# 
  1116  0008                     	;# 
  1117  0009                     	;# 
  1118  000A                     	;# 
  1119  000B                     	;# 
  1120  000C                     	;# 
  1121  000E                     	;# 
  1122  0012                     	;# 
  1123  0014                     	;# 
  1124  0018                     	;# 
  1125  001A                     	;# 
  1126  009A                     	;# 
  1127  009B                     	;# 
  1128  009B                     	;# 
  1129  009C                     	;# 
  1130  009D                     	;# 
  1131  009E                     	;# 
  1132  009F                     	;# 
  1133  010E                     	;# 
  1134  010F                     	;# 
  1135  0119                     	;# 
  1136  011A                     	;# 
  1137  011B                     	;# 
  1138  011B                     	;# 
  1139  011C                     	;# 
  1140  011D                     	;# 
  1141  011E                     	;# 
  1142  011F                     	;# 
  1143  018C                     	;# 
  1144  018D                     	;# 
  1145  018E                     	;# 
  1146  018F                     	;# 
  1147  0190                     	;# 
  1148  0191                     	;# 
  1149  0192                     	;# 
  1150  020C                     	;# 
  1151  020D                     	;# 
  1152  020E                     	;# 
  1153  020E                     	;# 
  1154  020F                     	;# 
  1155  020F                     	;# 
  1156  0210                     	;# 
  1157  0210                     	;# 
  1158  0211                     	;# 
  1159  0211                     	;# 
  1160  028C                     	;# 
  1161  028C                     	;# 
  1162  028D                     	;# 
  1163  028D                     	;# 
  1164  028E                     	;# 
  1165  028F                     	;# 
  1166  0290                     	;# 
  1167  0291                     	;# 
  1168  030C                     	;# 
  1169  030C                     	;# 
  1170  030D                     	;# 
  1171  030E                     	;# 
  1172  030F                     	;# 
  1173  0310                     	;# 
  1174  0310                     	;# 
  1175  0311                     	;# 
  1176  0312                     	;# 
  1177  0313                     	;# 
  1178  0314                     	;# 
  1179  0314                     	;# 
  1180  0315                     	;# 
  1181  0316                     	;# 
  1182  0318                     	;# 
  1183  0318                     	;# 
  1184  0319                     	;# 
  1185  031A                     	;# 
  1186  059C                     	;# 
  1187  059C                     	;# 
  1188  059D                     	;# 
  1189  059D                     	;# 
  1190  059E                     	;# 
  1191  059F                     	;# 
  1192  070C                     	;# 
  1193  070D                     	;# 
  1194  070E                     	;# 
  1195  0716                     	;# 
  1196  0717                     	;# 
  1197  0718                     	;# 
  1198  080C                     	;# 
  1199  0811                     	;# 
  1200  0813                     	;# 
  1201  0814                     	;# 
  1202  081A                     	;# 
  1203  081A                     	;# 
  1204  081B                     	;# 
  1205  081C                     	;# 
  1206  081C                     	;# 
  1207  081D                     	;# 
  1208  081E                     	;# 
  1209  081F                     	;# 
  1210  088E                     	;# 
  1211  0890                     	;# 
  1212  0891                     	;# 
  1213  0892                     	;# 
  1214  0893                     	;# 
  1215  090C                     	;# 
  1216  1E8F                     	;# 
  1217  1E90                     	;# 
  1218  1E91                     	;# 
  1219  1E92                     	;# 
  1220  1E93                     	;# 
  1221  1E9C                     	;# 
  1222  1EA1                     	;# 
  1223  1EA2                     	;# 
  1224  1EC3                     	;# 
  1225  1EC5                     	;# 
  1226  1EC6                     	;# 
  1227  1EC7                     	;# 
  1228  1ECB                     	;# 
  1229  1ECB                     	;# 
  1230  1ECB                     	;# 
  1231  1ECC                     	;# 
  1232  1ECC                     	;# 
  1233  1ECC                     	;# 
  1234  1F10                     	;# 
  1235  1F11                     	;# 
  1236  1F12                     	;# 
  1237  1F14                     	;# 
  1238  1F15                     	;# 
  1239  1F20                     	;# 
  1240  1F21                     	;# 
  1241  1F22                     	;# 
  1242  1F23                     	;# 
  1243  1F24                     	;# 
  1244  1F25                     	;# 
  1245  1F38                     	;# 
  1246  1F39                     	;# 
  1247  1F3A                     	;# 
  1248  1F3B                     	;# 
  1249  1F3C                     	;# 
  1250  1F3D                     	;# 
  1251  1F3E                     	;# 
  1252  1F3F                     	;# 
  1253  1F4E                     	;# 
  1254  1F4F                     	;# 
  1255  1F50                     	;# 
  1256  1F51                     	;# 
  1257  1F52                     	;# 
  1258  1F53                     	;# 
  1259  1F54                     	;# 
  1260  1F55                     	;# 
  1261  1FE4                     	;# 
  1262  1FE5                     	;# 
  1263  1FE6                     	;# 
  1264  1FE7                     	;# 
  1265  1FE8                     	;# 
  1266  1FE8                     	;# 
  1267  1FE9                     	;# 
  1268  1FEA                     	;# 
  1269  1FEB                     	;# 
  1270  1FED                     	;# 
  1271  1FEE                     	;# 
  1272  1FEF                     	;# 
  1273  0000                     	;# 
  1274  0001                     	;# 
  1275  0002                     	;# 
  1276  0003                     	;# 
  1277  0004                     	;# 
  1278  0005                     	;# 
  1279  0006                     	;# 
  1280  0007                     	;# 
  1281  0008                     	;# 
  1282  0009                     	;# 
  1283  000A                     	;# 
  1284  000B                     	;# 
  1285  000C                     	;# 
  1286  000E                     	;# 
  1287  0012                     	;# 
  1288  0014                     	;# 
  1289  0018                     	;# 
  1290  001A                     	;# 
  1291  009A                     	;# 
  1292  009B                     	;# 
  1293  009B                     	;# 
  1294  009C                     	;# 
  1295  009D                     	;# 
  1296  009E                     	;# 
  1297  009F                     	;# 
  1298  010E                     	;# 
  1299  010F                     	;# 
  1300  0119                     	;# 
  1301  011A                     	;# 
  1302  011B                     	;# 
  1303  011B                     	;# 
  1304  011C                     	;# 
  1305  011D                     	;# 
  1306  011E                     	;# 
  1307  011F                     	;# 
  1308  018C                     	;# 
  1309  018D                     	;# 
  1310  018E                     	;# 
  1311  018F                     	;# 
  1312  0190                     	;# 
  1313  0191                     	;# 
  1314  0192                     	;# 
  1315  020C                     	;# 
  1316  020D                     	;# 
  1317  020E                     	;# 
  1318  020E                     	;# 
  1319  020F                     	;# 
  1320  020F                     	;# 
  1321  0210                     	;# 
  1322  0210                     	;# 
  1323  0211                     	;# 
  1324  0211                     	;# 
  1325  028C                     	;# 
  1326  028C                     	;# 
  1327  028D                     	;# 
  1328  028D                     	;# 
  1329  028E                     	;# 
  1330  028F                     	;# 
  1331  0290                     	;# 
  1332  0291                     	;# 
  1333  030C                     	;# 
  1334  030C                     	;# 
  1335  030D                     	;# 
  1336  030E                     	;# 
  1337  030F                     	;# 
  1338  0310                     	;# 
  1339  0310                     	;# 
  1340  0311                     	;# 
  1341  0312                     	;# 
  1342  0313                     	;# 
  1343  0314                     	;# 
  1344  0314                     	;# 
  1345  0315                     	;# 
  1346  0316                     	;# 
  1347  0318                     	;# 
  1348  0318                     	;# 
  1349  0319                     	;# 
  1350  031A                     	;# 
  1351  059C                     	;# 
  1352  059C                     	;# 
  1353  059D                     	;# 
  1354  059D                     	;# 
  1355  059E                     	;# 
  1356  059F                     	;# 
  1357  070C                     	;# 
  1358  070D                     	;# 
  1359  070E                     	;# 
  1360  0716                     	;# 
  1361  0717                     	;# 
  1362  0718                     	;# 
  1363  080C                     	;# 
  1364  0811                     	;# 
  1365  0813                     	;# 
  1366  0814                     	;# 
  1367  081A                     	;# 
  1368  081A                     	;# 
  1369  081B                     	;# 
  1370  081C                     	;# 
  1371  081C                     	;# 
  1372  081D                     	;# 
  1373  081E                     	;# 
  1374  081F                     	;# 
  1375  088E                     	;# 
  1376  0890                     	;# 
  1377  0891                     	;# 
  1378  0892                     	;# 
  1379  0893                     	;# 
  1380  090C                     	;# 
  1381  1E8F                     	;# 
  1382  1E90                     	;# 
  1383  1E91                     	;# 
  1384  1E92                     	;# 
  1385  1E93                     	;# 
  1386  1E9C                     	;# 
  1387  1EA1                     	;# 
  1388  1EA2                     	;# 
  1389  1EC3                     	;# 
  1390  1EC5                     	;# 
  1391  1EC6                     	;# 
  1392  1EC7                     	;# 
  1393  1ECB                     	;# 
  1394  1ECB                     	;# 
  1395  1ECB                     	;# 
  1396  1ECC                     	;# 
  1397  1ECC                     	;# 
  1398  1ECC                     	;# 
  1399  1F10                     	;# 
  1400  1F11                     	;# 
  1401  1F12                     	;# 
  1402  1F14                     	;# 
  1403  1F15                     	;# 
  1404  1F20                     	;# 
  1405  1F21                     	;# 
  1406  1F22                     	;# 
  1407  1F23                     	;# 
  1408  1F24                     	;# 
  1409  1F25                     	;# 
  1410  1F38                     	;# 
  1411  1F39                     	;# 
  1412  1F3A                     	;# 
  1413  1F3B                     	;# 
  1414  1F3C                     	;# 
  1415  1F3D                     	;# 
  1416  1F3E                     	;# 
  1417  1F3F                     	;# 
  1418  1F4E                     	;# 
  1419  1F4F                     	;# 
  1420  1F50                     	;# 
  1421  1F51                     	;# 
  1422  1F52                     	;# 
  1423  1F53                     	;# 
  1424  1F54                     	;# 
  1425  1F55                     	;# 
  1426  1FE4                     	;# 
  1427  1FE5                     	;# 
  1428  1FE6                     	;# 
  1429  1FE7                     	;# 
  1430  1FE8                     	;# 
  1431  1FE8                     	;# 
  1432  1FE9                     	;# 
  1433  1FEA                     	;# 
  1434  1FEB                     	;# 
  1435  1FED                     	;# 
  1436  1FEE                     	;# 
  1437  1FEF                     	;# 
  1438  0000                     	;# 
  1439  0001                     	;# 
  1440  0002                     	;# 
  1441  0003                     	;# 
  1442  0004                     	;# 
  1443  0005                     	;# 
  1444  0006                     	;# 
  1445  0007                     	;# 
  1446  0008                     	;# 
  1447  0009                     	;# 
  1448  000A                     	;# 
  1449  000B                     	;# 
  1450  000C                     	;# 
  1451  000E                     	;# 
  1452  0012                     	;# 
  1453  0014                     	;# 
  1454  0018                     	;# 
  1455  001A                     	;# 
  1456  009A                     	;# 
  1457  009B                     	;# 
  1458  009B                     	;# 
  1459  009C                     	;# 
  1460  009D                     	;# 
  1461  009E                     	;# 
  1462  009F                     	;# 
  1463  010E                     	;# 
  1464  010F                     	;# 
  1465  0119                     	;# 
  1466  011A                     	;# 
  1467  011B                     	;# 
  1468  011B                     	;# 
  1469  011C                     	;# 
  1470  011D                     	;# 
  1471  011E                     	;# 
  1472  011F                     	;# 
  1473  018C                     	;# 
  1474  018D                     	;# 
  1475  018E                     	;# 
  1476  018F                     	;# 
  1477  0190                     	;# 
  1478  0191                     	;# 
  1479  0192                     	;# 
  1480  020C                     	;# 
  1481  020D                     	;# 
  1482  020E                     	;# 
  1483  020E                     	;# 
  1484  020F                     	;# 
  1485  020F                     	;# 
  1486  0210                     	;# 
  1487  0210                     	;# 
  1488  0211                     	;# 
  1489  0211                     	;# 
  1490  028C                     	;# 
  1491  028C                     	;# 
  1492  028D                     	;# 
  1493  028D                     	;# 
  1494  028E                     	;# 
  1495  028F                     	;# 
  1496  0290                     	;# 
  1497  0291                     	;# 
  1498  030C                     	;# 
  1499  030C                     	;# 
  1500  030D                     	;# 
  1501  030E                     	;# 
  1502  030F                     	;# 
  1503  0310                     	;# 
  1504  0310                     	;# 
  1505  0311                     	;# 
  1506  0312                     	;# 
  1507  0313                     	;# 
  1508  0314                     	;# 
  1509  0314                     	;# 
  1510  0315                     	;# 
  1511  0316                     	;# 
  1512  0318                     	;# 
  1513  0318                     	;# 
  1514  0319                     	;# 
  1515  031A                     	;# 
  1516  059C                     	;# 
  1517  059C                     	;# 
  1518  059D                     	;# 
  1519  059D                     	;# 
  1520  059E                     	;# 
  1521  059F                     	;# 
  1522  070C                     	;# 
  1523  070D                     	;# 
  1524  070E                     	;# 
  1525  0716                     	;# 
  1526  0717                     	;# 
  1527  0718                     	;# 
  1528  080C                     	;# 
  1529  0811                     	;# 
  1530  0813                     	;# 
  1531  0814                     	;# 
  1532  081A                     	;# 
  1533  081A                     	;# 
  1534  081B                     	;# 
  1535  081C                     	;# 
  1536  081C                     	;# 
  1537  081D                     	;# 
  1538  081E                     	;# 
  1539  081F                     	;# 
  1540  088E                     	;# 
  1541  0890                     	;# 
  1542  0891                     	;# 
  1543  0892                     	;# 
  1544  0893                     	;# 
  1545  090C                     	;# 
  1546  1E8F                     	;# 
  1547  1E90                     	;# 
  1548  1E91                     	;# 
  1549  1E92                     	;# 
  1550  1E93                     	;# 
  1551  1E9C                     	;# 
  1552  1EA1                     	;# 
  1553  1EA2                     	;# 
  1554  1EC3                     	;# 
  1555  1EC5                     	;# 
  1556  1EC6                     	;# 
  1557  1EC7                     	;# 
  1558  1ECB                     	;# 
  1559  1ECB                     	;# 
  1560  1ECB                     	;# 
  1561  1ECC                     	;# 
  1562  1ECC                     	;# 
  1563  1ECC                     	;# 
  1564  1F10                     	;# 
  1565  1F11                     	;# 
  1566  1F12                     	;# 
  1567  1F14                     	;# 
  1568  1F15                     	;# 
  1569  1F20                     	;# 
  1570  1F21                     	;# 
  1571  1F22                     	;# 
  1572  1F23                     	;# 
  1573  1F24                     	;# 
  1574  1F25                     	;# 
  1575  1F38                     	;# 
  1576  1F39                     	;# 
  1577  1F3A                     	;# 
  1578  1F3B                     	;# 
  1579  1F3C                     	;# 
  1580  1F3D                     	;# 
  1581  1F3E                     	;# 
  1582  1F3F                     	;# 
  1583  1F4E                     	;# 
  1584  1F4F                     	;# 
  1585  1F50                     	;# 
  1586  1F51                     	;# 
  1587  1F52                     	;# 
  1588  1F53                     	;# 
  1589  1F54                     	;# 
  1590  1F55                     	;# 
  1591  1FE4                     	;# 
  1592  1FE5                     	;# 
  1593  1FE6                     	;# 
  1594  1FE7                     	;# 
  1595  1FE8                     	;# 
  1596  1FE8                     	;# 
  1597  1FE9                     	;# 
  1598  1FEA                     	;# 
  1599  1FEB                     	;# 
  1600  1FED                     	;# 
  1601  1FEE                     	;# 
  1602  1FEF                     	;# 
  1603  0000                     	;# 
  1604  0001                     	;# 
  1605  0002                     	;# 
  1606  0003                     	;# 
  1607  0004                     	;# 
  1608  0005                     	;# 
  1609  0006                     	;# 
  1610  0007                     	;# 
  1611  0008                     	;# 
  1612  0009                     	;# 
  1613  000A                     	;# 
  1614  000B                     	;# 
  1615  000C                     	;# 
  1616  000E                     	;# 
  1617  0012                     	;# 
  1618  0014                     	;# 
  1619  0018                     	;# 
  1620  001A                     	;# 
  1621  009A                     	;# 
  1622  009B                     	;# 
  1623  009B                     	;# 
  1624  009C                     	;# 
  1625  009D                     	;# 
  1626  009E                     	;# 
  1627  009F                     	;# 
  1628  010E                     	;# 
  1629  010F                     	;# 
  1630  0119                     	;# 
  1631  011A                     	;# 
  1632  011B                     	;# 
  1633  011B                     	;# 
  1634  011C                     	;# 
  1635  011D                     	;# 
  1636  011E                     	;# 
  1637  011F                     	;# 
  1638  018C                     	;# 
  1639  018D                     	;# 
  1640  018E                     	;# 
  1641  018F                     	;# 
  1642  0190                     	;# 
  1643  0191                     	;# 
  1644  0192                     	;# 
  1645  020C                     	;# 
  1646  020D                     	;# 
  1647  020E                     	;# 
  1648  020E                     	;# 
  1649  020F                     	;# 
  1650  020F                     	;# 
  1651  0210                     	;# 
  1652  0210                     	;# 
  1653  0211                     	;# 
  1654  0211                     	;# 
  1655  028C                     	;# 
  1656  028C                     	;# 
  1657  028D                     	;# 
  1658  028D                     	;# 
  1659  028E                     	;# 
  1660  028F                     	;# 
  1661  0290                     	;# 
  1662  0291                     	;# 
  1663  030C                     	;# 
  1664  030C                     	;# 
  1665  030D                     	;# 
  1666  030E                     	;# 
  1667  030F                     	;# 
  1668  0310                     	;# 
  1669  0310                     	;# 
  1670  0311                     	;# 
  1671  0312                     	;# 
  1672  0313                     	;# 
  1673  0314                     	;# 
  1674  0314                     	;# 
  1675  0315                     	;# 
  1676  0316                     	;# 
  1677  0318                     	;# 
  1678  0318                     	;# 
  1679  0319                     	;# 
  1680  031A                     	;# 
  1681  059C                     	;# 
  1682  059C                     	;# 
  1683  059D                     	;# 
  1684  059D                     	;# 
  1685  059E                     	;# 
  1686  059F                     	;# 
  1687  070C                     	;# 
  1688  070D                     	;# 
  1689  070E                     	;# 
  1690  0716                     	;# 
  1691  0717                     	;# 
  1692  0718                     	;# 
  1693  080C                     	;# 
  1694  0811                     	;# 
  1695  0813                     	;# 
  1696  0814                     	;# 
  1697  081A                     	;# 
  1698  081A                     	;# 
  1699  081B                     	;# 
  1700  081C                     	;# 
  1701  081C                     	;# 
  1702  081D                     	;# 
  1703  081E                     	;# 
  1704  081F                     	;# 
  1705  088E                     	;# 
  1706  0890                     	;# 
  1707  0891                     	;# 
  1708  0892                     	;# 
  1709  0893                     	;# 
  1710  090C                     	;# 
  1711  1E8F                     	;# 
  1712  1E90                     	;# 
  1713  1E91                     	;# 
  1714  1E92                     	;# 
  1715  1E93                     	;# 
  1716  1E9C                     	;# 
  1717  1EA1                     	;# 
  1718  1EA2                     	;# 
  1719  1EC3                     	;# 
  1720  1EC5                     	;# 
  1721  1EC6                     	;# 
  1722  1EC7                     	;# 
  1723  1ECB                     	;# 
  1724  1ECB                     	;# 
  1725  1ECB                     	;# 
  1726  1ECC                     	;# 
  1727  1ECC                     	;# 
  1728  1ECC                     	;# 
  1729  1F10                     	;# 
  1730  1F11                     	;# 
  1731  1F12                     	;# 
  1732  1F14                     	;# 
  1733  1F15                     	;# 
  1734  1F20                     	;# 
  1735  1F21                     	;# 
  1736  1F22                     	;# 
  1737  1F23                     	;# 
  1738  1F24                     	;# 
  1739  1F25                     	;# 
  1740  1F38                     	;# 
  1741  1F39                     	;# 
  1742  1F3A                     	;# 
  1743  1F3B                     	;# 
  1744  1F3C                     	;# 
  1745  1F3D                     	;# 
  1746  1F3E                     	;# 
  1747  1F3F                     	;# 
  1748  1F4E                     	;# 
  1749  1F4F                     	;# 
  1750  1F50                     	;# 
  1751  1F51                     	;# 
  1752  1F52                     	;# 
  1753  1F53                     	;# 
  1754  1F54                     	;# 
  1755  1F55                     	;# 
  1756  1FE4                     	;# 
  1757  1FE5                     	;# 
  1758  1FE6                     	;# 
  1759  1FE7                     	;# 
  1760  1FE8                     	;# 
  1761  1FE8                     	;# 
  1762  1FE9                     	;# 
  1763  1FEA                     	;# 
  1764  1FEB                     	;# 
  1765  1FED                     	;# 
  1766  1FEE                     	;# 
  1767  1FEF                     	;_song3_pre
  1768                           
  1769                           	psect	idataBIGRAM
  1770  046A                     __pidataBIGRAM:
  1771                           
  1772                           ;initializer for _song3_pre
  1773  046A  34E0               	retlw	224
  1774  046B  34E0               	retlw	224
  1775  046C  34E0               	retlw	224
  1776  046D  34E0               	retlw	224
  1777  046E  34E0               	retlw	224
  1778  046F  34E0               	retlw	224
  1779  0470  34E0               	retlw	224
  1780  0471  34E0               	retlw	224
  1781  0472  34E0               	retlw	224
  1782  0473  34E0               	retlw	224
  1783  0474  34E0               	retlw	224
  1784  0475  34E0               	retlw	224
  1785  0476  34E0               	retlw	224
  1786  0477  34E0               	retlw	224
  1787  0478  34E0               	retlw	224
  1788  0479  34E0               	retlw	224
  1789  047A  34E0               	retlw	224
  1790  047B  34E0               	retlw	224
  1791  047C  34E0               	retlw	224
  1792  047D  34E0               	retlw	224
  1793  047E  34E0               	retlw	224
  1794  047F  34E0               	retlw	224
  1795  0480  34E0               	retlw	224
  1796  0481  34E0               	retlw	224
  1797  0482  34E0               	retlw	224
  1798  0483  34E0               	retlw	224
  1799  0484  34E0               	retlw	224
  1800  0485  34E0               	retlw	224
  1801  0486  34E0               	retlw	224
  1802  0487  34E0               	retlw	224
  1803  0488  34E0               	retlw	224
  1804  0489  34E0               	retlw	224
  1805  048A  34D0               	retlw	208
  1806  048B  34D0               	retlw	208
  1807  048C  34D0               	retlw	208
  1808  048D  34D0               	retlw	208
  1809  048E  34D0               	retlw	208
  1810  048F  34D0               	retlw	208
  1811  0490  34D0               	retlw	208
  1812  0491  34D0               	retlw	208
  1813  0492  34D0               	retlw	208
  1814  0493  34D0               	retlw	208
  1815  0494  34C0               	retlw	192
  1816  0495  34C0               	retlw	192
  1817  0496  34C0               	retlw	192
  1818  0497  34C0               	retlw	192
  1819  0498  34D0               	retlw	208
  1820  0499  34D0               	retlw	208
  1821  049A  34D0               	retlw	208
  1822  049B  34D0               	retlw	208
  1823  049C  34D0               	retlw	208
  1824  049D  34D0               	retlw	208
  1825  049E  34D0               	retlw	208
  1826  049F  34D0               	retlw	208
  1827  04A0  34D0               	retlw	208
  1828  04A1  34D0               	retlw	208
  1829  04A2  34D0               	retlw	208
  1830  04A3  34D0               	retlw	208
  1831  04A4  34D0               	retlw	208
  1832  04A5  34D0               	retlw	208
  1833  04A6  34C0               	retlw	192
  1834  04A7  34C0               	retlw	192
  1835  04A8  34D0               	retlw	208
  1836  04A9  34D0               	retlw	208
  1837  04AA  34D0               	retlw	208
  1838  04AB  34D0               	retlw	208
  1839  04AC  34D0               	retlw	208
  1840  04AD  34D0               	retlw	208
  1841  04AE  34E0               	retlw	224
  1842  04AF  34D0               	retlw	208
  1843  04B0  34D0               	retlw	208
  1844  04B1  34D0               	retlw	208
  1845  04B2  34D0               	retlw	208
  1846  04B3  34D0               	retlw	208
  1847  04B4  34D0               	retlw	208
  1848  04B5  34D0               	retlw	208
  1849  04B6  34D0               	retlw	208
  1850  04B7  34D0               	retlw	208
  1851  04B8  34D0               	retlw	208
  1852  04B9  34D0               	retlw	208
  1853  04BA  34D0               	retlw	208
  1854  04BB  34D0               	retlw	208
  1855  04BC  34D0               	retlw	208
  1856  04BD  34D0               	retlw	208
  1857  04BE  34E0               	retlw	224
  1858  04BF  34D0               	retlw	208
  1859  04C0  34D0               	retlw	208
  1860  04C1  34D0               	retlw	208
  1861  04C2  34D0               	retlw	208
  1862  04C3  34D0               	retlw	208
  1863  04C4  34D0               	retlw	208
  1864  04C5  34D0               	retlw	208
  1865  04C6  34D0               	retlw	208
  1866  04C7  34D0               	retlw	208
  1867  04C8  34D0               	retlw	208
  1868  04C9  34D0               	retlw	208
  1869  04CA  34D0               	retlw	208
  1870  04CB  34D0               	retlw	208
  1871  04CC  34D0               	retlw	208
  1872  04CD  34D0               	retlw	208
  1873  04CE  34E0               	retlw	224
  1874  04CF  34D0               	retlw	208
  1875  04D0  34D0               	retlw	208
  1876  04D1  34D0               	retlw	208
  1877  04D2  34D0               	retlw	208
  1878  04D3  34D0               	retlw	208
  1879  04D4  34D0               	retlw	208
  1880  04D5  34D0               	retlw	208
  1881  04D6  34D0               	retlw	208
  1882  04D7  34D0               	retlw	208
  1883  04D8  34D0               	retlw	208
  1884  04D9  34D0               	retlw	208
  1885  04DA  34D0               	retlw	208
  1886  04DB  34D0               	retlw	208
  1887  04DC  34D0               	retlw	208
  1888  04DD  34D0               	retlw	208
  1889  04DE  34E0               	retlw	224
  1890  04DF  34D0               	retlw	208
  1891  04E0  34D0               	retlw	208
  1892  04E1  34D0               	retlw	208
  1893  04E2  34D0               	retlw	208
  1894  04E3  34D0               	retlw	208
  1895  04E4  34D0               	retlw	208
  1896  04E5  34D0               	retlw	208
  1897  04E6  34D0               	retlw	208
  1898  04E7  34D0               	retlw	208
  1899  04E8  34D0               	retlw	208
  1900  04E9  34D0               	retlw	208
  1901  04EA  34D0               	retlw	208
  1902  04EB  34D0               	retlw	208
  1903  04EC  34D0               	retlw	208
  1904  04ED  34D0               	retlw	208
  1905  04EE  34E0               	retlw	224
  1906  04EF  34D0               	retlw	208
  1907  04F0  34D0               	retlw	208
  1908  04F1  34D0               	retlw	208
  1909  04F2  34D0               	retlw	208
  1910  04F3  34D0               	retlw	208
  1911  04F4  34D0               	retlw	208
  1912  04F5  34D0               	retlw	208
  1913  04F6  34D0               	retlw	208
  1914  04F7  34D0               	retlw	208
  1915  04F8  34D0               	retlw	208
  1916  04F9  34D0               	retlw	208
  1917  04FA  34D0               	retlw	208
  1918  04FB  34D0               	retlw	208
  1919  04FC  34D0               	retlw	208
  1920  04FD  34D0               	retlw	208
  1921  04FE  34E0               	retlw	224
  1922  04FF  34D0               	retlw	208
  1923  0500  34D0               	retlw	208
  1924  0501  34D0               	retlw	208
  1925  0502  34D0               	retlw	208
  1926  0503  34D0               	retlw	208
  1927  0504  34D0               	retlw	208
  1928  0505  34D0               	retlw	208
  1929  0506  34D0               	retlw	208
  1930  0507  34D0               	retlw	208
  1931                           
  1932                           ;initializer for _song3
  1933  0508  34D4               	retlw	212
  1934  0509  34D4               	retlw	212
  1935  050A  34D4               	retlw	212
  1936  050B  34D4               	retlw	212
  1937  050C  34D4               	retlw	212
  1938  050D  34D4               	retlw	212
  1939  050E  34D4               	retlw	212
  1940  050F  34D4               	retlw	212
  1941  0510  34D4               	retlw	212
  1942  0511  34D4               	retlw	212
  1943  0512  34FC               	retlw	252
  1944  0513  34FC               	retlw	252
  1945  0514  34FC               	retlw	252
  1946  0515  34FC               	retlw	252
  1947  0516  34FC               	retlw	252
  1948  0517  34FC               	retlw	252
  1949  0518  34FC               	retlw	252
  1950  0519  34FC               	retlw	252
  1951  051A  34FC               	retlw	252
  1952  051B  34FC               	retlw	252
  1953  051C  34B2               	retlw	178
  1954  051D  34B2               	retlw	178
  1955  051E  34B2               	retlw	178
  1956  051F  34B2               	retlw	178
  1957  0520  34B2               	retlw	178
  1958  0521  34B2               	retlw	178
  1959  0522  34B2               	retlw	178
  1960  0523  34B2               	retlw	178
  1961  0524  34B2               	retlw	178
  1962  0525  34B2               	retlw	178
  1963  0526  348D               	retlw	141
  1964  0527  348D               	retlw	141
  1965  0528  34EE               	retlw	238
  1966  0529  34EE               	retlw	238
  1967  052A  34D4               	retlw	212
  1968  052B  34D4               	retlw	212
  1969  052C  34BD               	retlw	189
  1970  052D  34BD               	retlw	189
  1971  052E  349E               	retlw	158
  1972  052F  349E               	retlw	158
  1973  0530  348D               	retlw	141
  1974  0531  348D               	retlw	141
  1975  0532  34EE               	retlw	238
  1976  0533  34EE               	retlw	238
  1977  0534  34D4               	retlw	212
  1978  0535  34D4               	retlw	212
  1979  0536  34BD               	retlw	189
  1980  0537  3400               	retlw	0
  1981  0538  34BD               	retlw	189
  1982  0539  3400               	retlw	0
  1983  053A  34BD               	retlw	189
  1984  053B  3400               	retlw	0
  1985  053C  34BD               	retlw	189
  1986  053D  3400               	retlw	0
  1987  053E  34BD               	retlw	189
  1988  053F  3400               	retlw	0
  1989  0540  34BD               	retlw	189
  1990  0541  3400               	retlw	0
  1991  0542  34BD               	retlw	189
  1992  0543  3400               	retlw	0
  1993  0544  34BD               	retlw	189
  1994  0545  34BD               	retlw	189
  1995  0546  349E               	retlw	158
  1996  0547  349E               	retlw	158
  1997  0548  349E               	retlw	158
  1998  0549  349E               	retlw	158
  1999  054A  34B2               	retlw	178
  2000  054B  34B2               	retlw	178
  2001  054C  349E               	retlw	158
  2002  054D  349E               	retlw	158
  2003  054E  349E               	retlw	158
  2004  054F  349E               	retlw	158
  2005  0550  34B2               	retlw	178
  2006  0551  34B2               	retlw	178
  2007  0552  34BD               	retlw	189
  2008  0553  34BD               	retlw	189
  2009  0554  34D4               	retlw	212
  2010  0555  34D4               	retlw	212
  2011  0556  349E               	retlw	158
  2012  0557  349E               	retlw	158
  2013  0558  349E               	retlw	158
  2014  0559  349E               	retlw	158
  2015  055A  34B2               	retlw	178
  2016  055B  34B2               	retlw	178
  2017  055C  349E               	retlw	158
  2018  055D  349E               	retlw	158
  2019  055E  349E               	retlw	158
  2020  055F  349E               	retlw	158
  2021  0560  34B2               	retlw	178
  2022  0561  34B2               	retlw	178
  2023  0562  34BD               	retlw	189
  2024  0563  34BD               	retlw	189
  2025  0564  34D4               	retlw	212
  2026  0565  34D4               	retlw	212
  2027  0566  349E               	retlw	158
  2028  0567  349E               	retlw	158
  2029  0568  349E               	retlw	158
  2030  0569  349E               	retlw	158
  2031  056A  34B2               	retlw	178
  2032  056B  34B2               	retlw	178
  2033  056C  349E               	retlw	158
  2034  056D  349E               	retlw	158
  2035  056E  349E               	retlw	158
  2036  056F  349E               	retlw	158
  2037  0570  34B2               	retlw	178
  2038  0571  34B2               	retlw	178
  2039  0572  34BD               	retlw	189
  2040  0573  34BD               	retlw	189
  2041  0574  34D4               	retlw	212
  2042  0575  34D4               	retlw	212
  2043  0576  349E               	retlw	158
  2044  0577  349E               	retlw	158
  2045  0578  349E               	retlw	158
  2046  0579  349E               	retlw	158
  2047  057A  34B2               	retlw	178
  2048  057B  34B2               	retlw	178
  2049  057C  349E               	retlw	158
  2050  057D  349E               	retlw	158
  2051  057E  349E               	retlw	158
  2052  057F  349E               	retlw	158
  2053  0580  34B2               	retlw	178
  2054  0581  34B2               	retlw	178
  2055  0582  34BD               	retlw	189
  2056  0583  34BD               	retlw	189
  2057  0584  34D4               	retlw	212
  2058  0585  34D4               	retlw	212
  2059  0586  349E               	retlw	158
  2060  0587  349E               	retlw	158
  2061  0588  349E               	retlw	158
  2062  0589  349E               	retlw	158
  2063  058A  34B2               	retlw	178
  2064  058B  34B2               	retlw	178
  2065  058C  349E               	retlw	158
  2066  058D  349E               	retlw	158
  2067  058E  349E               	retlw	158
  2068  058F  349E               	retlw	158
  2069  0590  34B2               	retlw	178
  2070  0591  34B2               	retlw	178
  2071  0592  34BD               	retlw	189
  2072  0593  34BD               	retlw	189
  2073  0594  34D4               	retlw	212
  2074  0595  34D4               	retlw	212
  2075  0596  349E               	retlw	158
  2076  0597  349E               	retlw	158
  2077  0598  349E               	retlw	158
  2078  0599  349E               	retlw	158
  2079  059A  34B2               	retlw	178
  2080  059B  34B2               	retlw	178
  2081  059C  349E               	retlw	158
  2082  059D  349E               	retlw	158
  2083  059E  349E               	retlw	158
  2084  059F  349E               	retlw	158
  2085  05A0  34B2               	retlw	178
  2086  05A1  34B2               	retlw	178
  2087  05A2  34BD               	retlw	189
  2088  05A3  34BD               	retlw	189
  2089  05A4  34D4               	retlw	212
  2090  05A5  34D4               	retlw	212
  2091                           
  2092                           ;initializer for _silent_night
  2093  05A6  349E               	retlw	158
  2094  05A7  349E               	retlw	158
  2095  05A8  349E               	retlw	158
  2096  05A9  348D               	retlw	141
  2097  05AA  349E               	retlw	158
  2098  05AB  349E               	retlw	158
  2099  05AC  34BC               	retlw	188
  2100  05AD  34BC               	retlw	188
  2101  05AE  34BC               	retlw	188
  2102  05AF  34BC               	retlw	188
  2103  05B0  34BC               	retlw	188
  2104  05B1  34BC               	retlw	188
  2105  05B2  349E               	retlw	158
  2106  05B3  349E               	retlw	158
  2107  05B4  349E               	retlw	158
  2108  05B5  348D               	retlw	141
  2109  05B6  349E               	retlw	158
  2110  05B7  349E               	retlw	158
  2111  05B8  34BC               	retlw	188
  2112  05B9  34BC               	retlw	188
  2113  05BA  34BC               	retlw	188
  2114  05BB  34BC               	retlw	188
  2115  05BC  34BC               	retlw	188
  2116  05BD  34BC               	retlw	188
  2117  05BE  34D3               	retlw	211
  2118  05BF  34D3               	retlw	211
  2119  05C0  34D3               	retlw	211
  2120  05C1  34D3               	retlw	211
  2121  05C2  34D3               	retlw	211
  2122  05C3  34D3               	retlw	211
  2123  05C4  34FC               	retlw	252
  2124  05C5  34FC               	retlw	252
  2125  05C6  34FC               	retlw	252
  2126  05C7  34FC               	retlw	252
  2127  05C8  34FC               	retlw	252
  2128  05C9  34FC               	retlw	252
  2129  05CA  34EE               	retlw	238
  2130  05CB  34EE               	retlw	238
  2131  05CC  34EE               	retlw	238
  2132  05CD  34EE               	retlw	238
  2133  05CE  34EE               	retlw	238
  2134  05CF  34EE               	retlw	238
  2135  05D0  349E               	retlw	158
  2136  05D1  349E               	retlw	158
  2137  05D2  349E               	retlw	158
  2138  05D3  349E               	retlw	158
  2139  05D4  349E               	retlw	158
  2140  05D5  349E               	retlw	158
  2141  05D6  348D               	retlw	141
  2142  05D7  348D               	retlw	141
  2143  05D8  348D               	retlw	141
  2144  05D9  348D               	retlw	141
  2145  05DA  348D               	retlw	141
  2146  05DB  348D               	retlw	141
  2147  05DC  34ED               	retlw	237
  2148  05DD  34ED               	retlw	237
  2149  05DE  34ED               	retlw	237
  2150  05DF  34FC               	retlw	252
  2151  05E0  348D               	retlw	141
  2152  05E1  348D               	retlw	141
  2153  05E2  349E               	retlw	158
  2154  05E3  349E               	retlw	158
  2155  05E4  349E               	retlw	158
  2156  05E5  348D               	retlw	141
  2157  05E6  349E               	retlw	158
  2158  05E7  349E               	retlw	158
  2159  05E8  34BC               	retlw	188
  2160  05E9  34BC               	retlw	188
  2161  05EA  34BC               	retlw	188
  2162  05EB  34BC               	retlw	188
  2163  05EC  34BC               	retlw	188
  2164  05ED  34BC               	retlw	188
  2165  05EE  348D               	retlw	141
  2166  05EF  348D               	retlw	141
  2167  05F0  348D               	retlw	141
  2168  05F1  348D               	retlw	141
  2169  05F2  348D               	retlw	141
  2170  05F3  348D               	retlw	141
  2171  05F4  34ED               	retlw	237
  2172  05F5  34ED               	retlw	237
  2173  05F6  34ED               	retlw	237
  2174  05F7  34FC               	retlw	252
  2175  05F8  348D               	retlw	141
  2176  05F9  348D               	retlw	141
  2177  05FA  349E               	retlw	158
  2178  05FB  349E               	retlw	158
  2179  05FC  349E               	retlw	158
  2180  05FD  348D               	retlw	141
  2181  05FE  349E               	retlw	158
  2182  05FF  349E               	retlw	158
  2183  0600  34BC               	retlw	188
  2184  0601  34BC               	retlw	188
  2185  0602  34BC               	retlw	188
  2186  0603  34BC               	retlw	188
  2187  0604  34BC               	retlw	188
  2188  0605  34BC               	retlw	188
  2189  0606  34D3               	retlw	211
  2190  0607  34D3               	retlw	211
  2191  0608  34D3               	retlw	211
  2192  0609  34D3               	retlw	211
  2193  060A  34D3               	retlw	211
  2194  060B  34D3               	retlw	211
  2195  060C  34B1               	retlw	177
  2196  060D  34B1               	retlw	177
  2197  060E  34B1               	retlw	177
  2198  060F  34D3               	retlw	211
  2199  0610  34FC               	retlw	252
  2200  0611  34FC               	retlw	252
  2201  0612  34ED               	retlw	237
  2202  0613  34ED               	retlw	237
  2203  0614  34ED               	retlw	237
  2204  0615  34ED               	retlw	237
  2205  0616  34ED               	retlw	237
  2206  0617  34ED               	retlw	237
  2207  0618  34BC               	retlw	188
  2208  0619  34BC               	retlw	188
  2209  061A  34BC               	retlw	188
  2210  061B  34BC               	retlw	188
  2211  061C  34BC               	retlw	188
  2212  061D  34BC               	retlw	188
  2213  061E  34ED               	retlw	237
  2214  061F  34ED               	retlw	237
  2215  0620  349E               	retlw	158
  2216  0621  349E               	retlw	158
  2217  0622  34BC               	retlw	188
  2218  0623  34BC               	retlw	188
  2219  0624  349E               	retlw	158
  2220  0625  349E               	retlw	158
  2221  0626  349E               	retlw	158
  2222  0627  34B1               	retlw	177
  2223  0628  34D3               	retlw	211
  2224  0629  34D3               	retlw	211
  2225  062A  34EE               	retlw	238
  2226  062B  34EE               	retlw	238
  2227  062C  34EE               	retlw	238
  2228  062D  34EE               	retlw	238
  2229  062E  34EE               	retlw	238
  2230  062F  34EE               	retlw	238
  2231  0630  3400               	retlw	0
  2232                           
  2233                           ;initializer for _silent_night_pre
  2234  0631  34D0               	retlw	208
  2235  0632  34D0               	retlw	208
  2236  0633  34D0               	retlw	208
  2237  0634  34D0               	retlw	208
  2238  0635  34D0               	retlw	208
  2239  0636  34D0               	retlw	208
  2240  0637  34D0               	retlw	208
  2241  0638  34D0               	retlw	208
  2242  0639  34D0               	retlw	208
  2243  063A  34D0               	retlw	208
  2244  063B  34D0               	retlw	208
  2245  063C  34D0               	retlw	208
  2246  063D  34D0               	retlw	208
  2247  063E  34D0               	retlw	208
  2248  063F  34D0               	retlw	208
  2249  0640  34D0               	retlw	208
  2250  0641  34D0               	retlw	208
  2251  0642  34D0               	retlw	208
  2252  0643  34D0               	retlw	208
  2253  0644  34D0               	retlw	208
  2254  0645  34D0               	retlw	208
  2255  0646  34D0               	retlw	208
  2256  0647  34D0               	retlw	208
  2257  0648  34D0               	retlw	208
  2258  0649  34C0               	retlw	192
  2259  064A  34C0               	retlw	192
  2260  064B  34C0               	retlw	192
  2261  064C  34C0               	retlw	192
  2262  064D  34C0               	retlw	192
  2263  064E  34C0               	retlw	192
  2264  064F  34C0               	retlw	192
  2265  0650  34C0               	retlw	192
  2266  0651  34C0               	retlw	192
  2267  0652  34C0               	retlw	192
  2268  0653  34C0               	retlw	192
  2269  0654  34C0               	retlw	192
  2270  0655  34C0               	retlw	192
  2271  0656  34C0               	retlw	192
  2272  0657  34C0               	retlw	192
  2273  0658  34C0               	retlw	192
  2274  0659  34C0               	retlw	192
  2275  065A  34C0               	retlw	192
  2276  065B  34D0               	retlw	208
  2277  065C  34D0               	retlw	208
  2278  065D  34D0               	retlw	208
  2279  065E  34D0               	retlw	208
  2280  065F  34D0               	retlw	208
  2281  0660  34D0               	retlw	208
  2282  0661  34D0               	retlw	208
  2283  0662  34D0               	retlw	208
  2284  0663  34D0               	retlw	208
  2285  0664  34D0               	retlw	208
  2286  0665  34D0               	retlw	208
  2287  0666  34D0               	retlw	208
  2288  0667  34C0               	retlw	192
  2289  0668  34C0               	retlw	192
  2290  0669  34C0               	retlw	192
  2291  066A  34C0               	retlw	192
  2292  066B  34D0               	retlw	208
  2293  066C  34D0               	retlw	208
  2294  066D  34D0               	retlw	208
  2295  066E  34D0               	retlw	208
  2296  066F  34D0               	retlw	208
  2297  0670  34D0               	retlw	208
  2298  0671  34D0               	retlw	208
  2299  0672  34D0               	retlw	208
  2300  0673  34D0               	retlw	208
  2301  0674  34D0               	retlw	208
  2302  0675  34D0               	retlw	208
  2303  0676  34D0               	retlw	208
  2304  0677  34D0               	retlw	208
  2305  0678  34D0               	retlw	208
  2306  0679  34D0               	retlw	208
  2307  067A  34D0               	retlw	208
  2308  067B  34D0               	retlw	208
  2309  067C  34D0               	retlw	208
  2310  067D  34D0               	retlw	208
  2311  067E  34D0               	retlw	208
  2312  067F  34C0               	retlw	192
  2313  0680  34C0               	retlw	192
  2314  0681  34C0               	retlw	192
  2315  0682  34C0               	retlw	192
  2316  0683  34D0               	retlw	208
  2317  0684  34D0               	retlw	208
  2318  0685  34D0               	retlw	208
  2319  0686  34D0               	retlw	208
  2320  0687  34D0               	retlw	208
  2321  0688  34D0               	retlw	208
  2322  0689  34D0               	retlw	208
  2323  068A  34D0               	retlw	208
  2324  068B  34D0               	retlw	208
  2325  068C  34D0               	retlw	208
  2326  068D  34D0               	retlw	208
  2327  068E  34D0               	retlw	208
  2328  068F  34D0               	retlw	208
  2329  0690  34D0               	retlw	208
  2330  0691  34C0               	retlw	192
  2331  0692  34C0               	retlw	192
  2332  0693  34C0               	retlw	192
  2333  0694  34C0               	retlw	192
  2334  0695  34C0               	retlw	192
  2335  0696  34C0               	retlw	192
  2336  0697  34C0               	retlw	192
  2337  0698  34C0               	retlw	192
  2338  0699  34C0               	retlw	192
  2339  069A  34C0               	retlw	192
  2340  069B  34C0               	retlw	192
  2341  069C  34C0               	retlw	192
  2342  069D  34C0               	retlw	192
  2343  069E  34C0               	retlw	192
  2344  069F  34C0               	retlw	192
  2345  06A0  34C0               	retlw	192
  2346  06A1  34C0               	retlw	192
  2347  06A2  34C0               	retlw	192
  2348  06A3  34C0               	retlw	192
  2349  06A4  34C0               	retlw	192
  2350  06A5  34C0               	retlw	192
  2351  06A6  34C0               	retlw	192
  2352  06A7  34C0               	retlw	192
  2353  06A8  34C0               	retlw	192
  2354  06A9  34C0               	retlw	192
  2355  06AA  34C0               	retlw	192
  2356  06AB  34D0               	retlw	208
  2357  06AC  34D0               	retlw	208
  2358  06AD  34D0               	retlw	208
  2359  06AE  34D0               	retlw	208
  2360  06AF  34D0               	retlw	208
  2361  06B0  34D0               	retlw	208
  2362  06B1  34D0               	retlw	208
  2363  06B2  34D0               	retlw	208
  2364  06B3  34D0               	retlw	208
  2365  06B4  34D0               	retlw	208
  2366  06B5  34D0               	retlw	208
  2367  06B6  34D0               	retlw	208
  2368  06B7  34D0               	retlw	208
  2369  06B8  34D0               	retlw	208
  2370  06B9  34D0               	retlw	208
  2371  06BA  34D0               	retlw	208
  2372                           
  2373                           	psect	idataCOMMON
  2374  07FF                     __pidataCOMMON:
  2375                           
  2376                           ;initializer for _num_songs
  2377  07FF  3403               	retlw	3
  2378                           
  2379                           	psect	idataBANK0
  2380  0CB4                     __pidataBANK0:
  2381                           
  2382                           ;initializer for _song3_length
  2383  0CB4  349E               	retlw	158
  2384                           
  2385                           ;initializer for _timer_low_3
  2386  0CB5  343A               	retlw	58
  2387                           
  2388                           ;initializer for _timer_high_3
  2389  0CB6  34F1               	retlw	241
  2390                           
  2391                           ;initializer for _song2_length
  2392  0CB7  343C               	retlw	60
  2393                           
  2394                           ;initializer for _timer_low_2
  2395  0CB8  34C8               	retlw	200
  2396                           
  2397                           ;initializer for _timer_high_2
  2398  0CB9  34E7               	retlw	231
  2399                           
  2400                           	psect	idataBANK1
  2401  0CBA                     __pidataBANK1:
  2402                           
  2403                           ;initializer for _light_array
  2404  0CBA  34FE               	retlw	254
  2405  0CBB  34FF               	retlw	255
  2406  0CBC  34FE               	retlw	254
  2407  0CBD  34FF               	retlw	255
  2408  0CBE  34FE               	retlw	254
  2409  0CBF  34FF               	retlw	255
  2410  0CC0  34FE               	retlw	254
  2411                           
  2412                           	psect	idataBANK2
  2413  0758                     __pidataBANK2:
  2414                           
  2415                           ;initializer for _song2
  2416  0758  34FC               	retlw	252
  2417  0759  34FC               	retlw	252
  2418  075A  34FC               	retlw	252
  2419  075B  34FC               	retlw	252
  2420  075C  34FC               	retlw	252
  2421  075D  3400               	retlw	0
  2422  075E  34FC               	retlw	252
  2423  075F  34FC               	retlw	252
  2424  0760  34FC               	retlw	252
  2425  0761  34FC               	retlw	252
  2426  0762  34FC               	retlw	252
  2427  0763  34FC               	retlw	252
  2428  0764  34FC               	retlw	252
  2429  0765  3400               	retlw	0
  2430  0766  34BD               	retlw	189
  2431  0767  34BD               	retlw	189
  2432  0768  34BD               	retlw	189
  2433  0769  34BD               	retlw	189
  2434  076A  34BD               	retlw	189
  2435  076B  34BD               	retlw	189
  2436  076C  34BD               	retlw	189
  2437  076D  3400               	retlw	0
  2438  076E  34D4               	retlw	212
  2439  076F  34D4               	retlw	212
  2440  0770  34D4               	retlw	212
  2441  0771  34D4               	retlw	212
  2442  0772  34D4               	retlw	212
  2443  0773  34D4               	retlw	212
  2444  0774  34D4               	retlw	212
  2445  0775  348D               	retlw	141
  2446  0776  34FC               	retlw	252
  2447  0777  34FC               	retlw	252
  2448  0778  34FC               	retlw	252
  2449  0779  34FC               	retlw	252
  2450  077A  34FC               	retlw	252
  2451  077B  34FC               	retlw	252
  2452  077C  3400               	retlw	0
  2453  077D  34FC               	retlw	252
  2454  077E  34FC               	retlw	252
  2455  077F  34FC               	retlw	252
  2456  0780  34FC               	retlw	252
  2457  0781  34FC               	retlw	252
  2458  0782  34FC               	retlw	252
  2459  0783  34FC               	retlw	252
  2460  0784  34BD               	retlw	189
  2461  0785  3400               	retlw	0
  2462  0786  34FC               	retlw	252
  2463  0787  34FC               	retlw	252
  2464  0788  34FC               	retlw	252
  2465  0789  34FC               	retlw	252
  2466  078A  34FC               	retlw	252
  2467  078B  3400               	retlw	0
  2468  078C  34FC               	retlw	252
  2469  078D  34FC               	retlw	252
  2470  078E  34FC               	retlw	252
  2471  078F  34FC               	retlw	252
  2472  0790  34FC               	retlw	252
  2473  0791  34FC               	retlw	252
  2474  0792  34FC               	retlw	252
  2475  0793  34D4               	retlw	212
  2476                           
  2477                           	psect	stringtext1
  2478  1000                     __pstringtext1:
  2479  1000                     _spi1_configuration:
  2480  1000  3400               	retlw	0
  2481  1001  3440               	retlw	64
  2482  1002  3401               	retlw	1
  2483  1003  3400               	retlw	0
  2484  1004                     __end_of_spi1_configuration:
  2485                           
  2486                           	psect	stringtext2
  2487  1004                     __pstringtext2:
  2488  1004                     _a:
  2489  1004  348D               	retlw	141
  2490  1005                     __end_of_a:
  2491                           
  2492                           	psect	stringtext3
  2493  1005                     __pstringtext3:
  2494  1005                     _g:
  2495  1005  349E               	retlw	158
  2496  1006                     __end_of_g:
  2497                           
  2498                           	psect	stringtext4
  2499  1006                     __pstringtext4:
  2500  1006                     _f:
  2501  1006  34B2               	retlw	178
  2502  1007                     __end_of_f:
  2503                           
  2504                           	psect	stringtext5
  2505  1007                     __pstringtext5:
  2506  1007                     _e:
  2507  1007  34BD               	retlw	189
  2508  1008                     __end_of_e:
  2509                           
  2510                           	psect	stringtext6
  2511  1008                     __pstringtext6:
  2512  1008                     _d:
  2513  1008  34D4               	retlw	212
  2514  1009                     __end_of_d:
  2515                           
  2516                           	psect	stringtext7
  2517  1009                     __pstringtext7:
  2518  1009                     _c:
  2519  1009  34EE               	retlw	238
  2520  100A                     __end_of_c:
  2521                           
  2522                           	psect	stringtext8
  2523  100A                     __pstringtext8:
  2524  100A                     _b:
  2525  100A  34FC               	retlw	252
  2526  100B                     __end_of_b:
  2527                           
  2528                           	psect	nvCOMMON
  2529  007B                     __pnvCOMMON:
  2530  007B                     _timer1ReloadVal:
  2531  007B                     	ds	2
  2532                           
  2533                           	psect	nvBANK0
  2534  0042                     __pnvBANK0:
  2535  0042                     _TMR1_InterruptHandler:
  2536  0042                     	ds	2
  2537  0044                     _TMR0_InterruptHandler:
  2538  0044                     	ds	2
  2539  0046                     _timer0ReloadVal16bit:
  2540  0046                     	ds	2
  2541  0048                     _INT_InterruptHandler:
  2542  0048                     	ds	2
  2543  000C                     _PORTAbits	set	12
  2544  001A                     _LATCbits	set	26
  2545  0012                     _TRISAbits	set	18
  2546  000B                     _INTCONbits	set	11
  2547  0014                     _TRISC	set	20
  2548  0012                     _TRISA	set	18
  2549  001A                     _LATC	set	26
  2550  0018                     _LATA	set	24
  2551  0014                     _TRISCbits	set	20
  2552  018C                     _SSP1BUF	set	396
  2553  0191                     _SSP1CON2	set	401
  2554  0190                     _SSP1CON1bits	set	400
  2555  018D                     _SSP1ADD	set	397
  2556  0190                     _SSP1CON1	set	400
  2557  018F                     _SSP1STAT	set	399
  2558  020F                     _T1GCONbits	set	527
  2559  020E                     _T1CONbits	set	526
  2560  020E                     _T1CON	set	526
  2561  020C                     _TMR1L	set	524
  2562  020D                     _TMR1H	set	525
  2563  0211                     _T1CLK	set	529
  2564  0210                     _T1GATE	set	528
  2565  020F                     _T1GCON	set	527
  2566  028D                     _PR2	set	653
  2567  028C                     _TMR2	set	652
  2568  028E                     _T2CONbits	set	654
  2569  0291                     _T2RSTbits	set	657
  2570  028F                     _T2HLTbits	set	655
  2571  028E                     _T2CON	set	654
  2572  028C                     _T2TMR	set	652
  2573  028D                     _T2PR	set	653
  2574  0291                     _T2RST	set	657
  2575  028F                     _T2HLT	set	655
  2576  0290                     _T2CLKCON	set	656
  2577  0314                     _PWM3DCL	set	788
  2578  0315                     _PWM3DCH	set	789
  2579  0316                     _PWM3CON	set	790
  2580  059E                     _T0CON0bits	set	1438
  2581  059E                     _T0CON0	set	1438
  2582  059C                     _TMR0L	set	1436
  2583  059D                     _TMR0H	set	1437
  2584  059F                     _T0CON1	set	1439
  2585  0717                     _PIE1bits	set	1815
  2586  070C                     _PIR0bits	set	1804
  2587  0716                     _PIE0bits	set	1814
  2588  070D                     _PIR1bits	set	1805
  2589  080C                     _WDTCON	set	2060
  2590  0892                     _OSCTUNE	set	2194
  2591  0893                     _OSCFRQ	set	2195
  2592  0891                     _OSCEN	set	2193
  2593  1E90                     _INTPPS	set	7824
  2594  1EC6                     _SSP1DATPPS	set	7878
  2595  1EC5                     _SSP1CLKPPS	set	7877
  2596  1F15                     _RA5PPS	set	7957
  2597  1F52                     _INLVLC	set	8018
  2598  1F3C                     _INLVLA	set	7996
  2599  1F51                     _SLRCONC	set	8017
  2600  1F3B                     _SLRCONA	set	7995
  2601  1F50                     _ODCONC	set	8016
  2602  1F3A                     _ODCONA	set	7994
  2603  1F4F                     _WPUC	set	8015
  2604  1F39                     _WPUA	set	7993
  2605  1F38                     _ANSELA	set	7992
  2606  1F4E                     _ANSELC	set	8014
  2607  1F23                     _RC3PPS	set	7971
  2608  1F25                     _RC5PPS	set	7973
  2609                           
  2610                           	psect	cinit
  2611  0033                     start_initialization:	
  2612                           ; #config settings
  2613                           
  2614  0033                     __initialization:	;BIGRAM
  2615                           
  2616                           ; Initialize objects allocated to BIGRAM
  2617  0033  306A               	movlw	low __pidataBIGRAM
  2618  0034  0084               	movwf	4
  2619  0035  3084               	movlw	(high __pidataBIGRAM)| (0+128)
  2620  0036  0085               	movwf	5
  2621  0037  309F               	movlw	low (0+8607)
  2622  0038  0086               	movwf	6
  2623  0039  3021               	movlw	high (0+8607)
  2624  003A  0087               	movwf	7
  2625  003B  3002               	movlw	2
  2626  003C  00FF               	movwf	btemp+1
  2627  003D  3051               	movlw	81
  2628  003E  318C  24ED  3180   	fcall	init_ram
  2629                           
  2630                           ; Initialize objects allocated to COMMON
  2631  0041  3187  27FF  3180   	fcall	__pidataCOMMON	;fetch initializer
  2632  0044  00FD               	movwf	__pdataCOMMON& (0+127)
  2633                           
  2634                           ; Initialize objects allocated to BANK0
  2635  0045  30B4               	movlw	low __pidataBANK0
  2636  0046  0084               	movwf	4
  2637  0047  308C               	movlw	(high __pidataBANK0)| (0+128)
  2638  0048  0085               	movwf	5
  2639  0049  3050               	movlw	low __pdataBANK0
  2640  004A  0086               	movwf	6
  2641  004B  3000               	movlw	high __pdataBANK0
  2642  004C  0087               	movwf	7
  2643  004D  3000               	movlw	0
  2644  004E  00FF               	movwf	btemp+1
  2645  004F  3006               	movlw	6
  2646  0050  318C  24ED  3180   	fcall	init_ram
  2647                           
  2648                           ; Initialize objects allocated to BANK1
  2649  0053  30BA               	movlw	low __pidataBANK1
  2650  0054  0084               	movwf	4
  2651  0055  308C               	movlw	(high __pidataBANK1)| (0+128)
  2652  0056  0085               	movwf	5
  2653  0057  30B7               	movlw	low __pdataBANK1
  2654  0058  0086               	movwf	6
  2655  0059  3000               	movlw	high __pdataBANK1
  2656  005A  0087               	movwf	7
  2657  005B  3000               	movlw	0
  2658  005C  00FF               	movwf	btemp+1
  2659  005D  3007               	movlw	7
  2660  005E  318C  24ED  3180   	fcall	init_ram
  2661                           
  2662                           ; Initialize objects allocated to BANK2
  2663  0061  3058               	movlw	low __pidataBANK2
  2664  0062  0084               	movwf	4
  2665  0063  3087               	movlw	(high __pidataBANK2)| (0+128)
  2666  0064  0085               	movwf	5
  2667  0065  3020               	movlw	low __pdataBANK2
  2668  0066  0086               	movwf	6
  2669  0067  3001               	movlw	high __pdataBANK2
  2670  0068  0087               	movwf	7
  2671  0069  3000               	movlw	0
  2672  006A  00FF               	movwf	btemp+1
  2673  006B  303C               	movlw	60
  2674  006C  318C  24ED  3180   	fcall	init_ram
  2675                           
  2676                           ; Clear objects allocated to BANK0
  2677  006F  01CA               	clrf	__pbssBANK0& (0+127)
  2678  0070  01CB               	clrf	(__pbssBANK0+1)& (0+127)
  2679  0071  01CC               	clrf	(__pbssBANK0+2)& (0+127)
  2680  0072  01CD               	clrf	(__pbssBANK0+3)& (0+127)
  2681  0073  01CE               	clrf	(__pbssBANK0+4)& (0+127)
  2682  0074  01CF               	clrf	(__pbssBANK0+5)& (0+127)
  2683                           
  2684                           ; Clear objects allocated to BANK1
  2685  0075  0141               	movlb	1	; select bank1
  2686  0076  01BE               	clrf	__pbssBANK1& (0+127)
  2687  0077  01BF               	clrf	(__pbssBANK1+1)& (0+127)
  2688  0078  01C0               	clrf	(__pbssBANK1+2)& (0+127)
  2689  0079  01C1               	clrf	(__pbssBANK1+3)& (0+127)
  2690  007A  01C2               	clrf	(__pbssBANK1+4)& (0+127)
  2691  007B                     end_of_initialization:	
  2692                           ;End of C runtime variable initialization code
  2693                           
  2694  007B                     __end_of__initialization:
  2695  007B  107E               	bcf	int$flags,0	;clear compiler interrupt flag (level 1)
  2696  007C  0140               	movlb	0
  2697  007D  318E  2E1F         	ljmp	_main	;jump to C main() function
  2698                           
  2699                           	psect	bssCOMMON
  2700  0000                     __pbssCOMMON:
  2701  0000                     _song2_pre:
  2702  0000                     	ds	0
  2703                           
  2704                           	psect	dataCOMMON
  2705  007D                     __pdataCOMMON:
  2706  007D                     _num_songs:
  2707  007D                     	ds	1
  2708                           
  2709                           	psect	bssBANK0
  2710  004A                     __pbssBANK0:
  2711  004A                     _jungle_count:
  2712  004A                     	ds	1
  2713  004B                     _last_prescale:
  2714  004B                     	ds	1
  2715  004C                     _last_note:
  2716  004C                     	ds	1
  2717  004D                     _song2_playing:
  2718  004D                     	ds	1
  2719  004E                     _song3_playing:
  2720  004E                     	ds	1
  2721  004F                     _silent_night_playing:
  2722  004F                     	ds	1
  2723                           
  2724                           	psect	dataBANK0
  2725  0050                     __pdataBANK0:
  2726  0050                     _song3_length:
  2727  0050                     	ds	1
  2728  0051                     _timer_low_3:
  2729  0051                     	ds	1
  2730  0052                     _timer_high_3:
  2731  0052                     	ds	1
  2732  0053                     _song2_length:
  2733  0053                     	ds	1
  2734  0054                     _timer_low_2:
  2735  0054                     	ds	1
  2736  0055                     _timer_high_2:
  2737  0055                     	ds	1
  2738                           
  2739                           	psect	bssBANK1
  2740  00BE                     __pbssBANK1:
  2741  00BE                     _count:
  2742  00BE                     	ds	2
  2743  00C0                     _jungle_bool:
  2744  00C0                     	ds	1
  2745  00C1                     _presses:
  2746  00C1                     	ds	1
  2747  00C2                     _TMR0_complete:
  2748  00C2                     	ds	1
  2749                           
  2750                           	psect	dataBANK1
  2751  00B7                     __pdataBANK1:
  2752  00B7                     _light_array:
  2753  00B7                     	ds	7
  2754                           
  2755                           	psect	dataBANK2
  2756  0120                     __pdataBANK2:
  2757  0120                     _song2:
  2758  0120                     	ds	60
  2759                           
  2760                           	psect	inittext
  2761  0CED                     init_ram:
  2762  0CED  00FE               	movwf	btemp
  2763  0CEE                     initloop:
  2764  0CEE  0012               	moviw fsr0++
  2765  0CEF  001E               	movwi fsr1++
  2766  0CF0  3001               	movlw	1
  2767  0CF1  02FE               	subwf	btemp,f
  2768  0CF2  3000               	movlw	0
  2769  0CF3  3BFF               	subwfb	btemp+1,f
  2770  0CF4  087F               	movf	btemp+1,w
  2771  0CF5  047E               	iorwf	btemp,w
  2772  0CF6  1D03               	skipz
  2773  0CF7  2CEE               	goto	initloop
  2774  0CF8  3400               	retlw	0
  2775                           
  2776                           	psect	cstackBANK1
  2777  00A0                     __pcstackBANK1:
  2778  00A0                     ??_SPI1_Initialize:
  2779  00A0                     ??_PIN_MANAGER_Initialize:	
  2780                           ; 1 bytes @ 0x0
  2781                           
  2782  00A0                     ??_OSCILLATOR_Initialize:	
  2783                           ; 1 bytes @ 0x0
  2784                           
  2785  00A0                     ??_WDT_Initialize:	
  2786                           ; 1 bytes @ 0x0
  2787                           
  2788  00A0                     ??_PWM3_Initialize:	
  2789                           ; 1 bytes @ 0x0
  2790                           
  2791  00A0                     ??_TMR2_Initialize:	
  2792                           ; 1 bytes @ 0x0
  2793                           
  2794  00A0                     ?_TMR0_SetInterruptHandler:	
  2795                           ; 1 bytes @ 0x0
  2796                           
  2797  00A0                     ?_TMR1_SetInterruptHandler:	
  2798                           ; 1 bytes @ 0x0
  2799                           
  2800  00A0                     ?_playNote:	
  2801                           ; 1 bytes @ 0x0
  2802                           
  2803  00A0                     ??_SPI1_ExchangeByte:	
  2804                           ; 1 bytes @ 0x0
  2805                           
  2806  00A0                     ?_INT_SetInterruptHandler:	
  2807                           ; 1 bytes @ 0x0
  2808                           
  2809  00A0                     SPI1_ExchangeByte@data:	
  2810                           ; 1 bytes @ 0x0
  2811                           
  2812  00A0                     playNote@prescale:	
  2813                           ; 1 bytes @ 0x0
  2814                           
  2815  00A0                     INT_SetInterruptHandler@InterruptHandler:	
  2816                           ; 1 bytes @ 0x0
  2817                           
  2818  00A0                     TMR0_SetInterruptHandler@InterruptHandler:	
  2819                           ; 2 bytes @ 0x0
  2820                           
  2821  00A0                     TMR1_SetInterruptHandler@InterruptHandler:	
  2822                           ; 2 bytes @ 0x0
  2823                           
  2824                           
  2825                           ; 2 bytes @ 0x0
  2826  00A0                     	ds	1
  2827  00A1                     ?_shiftBytes:
  2828  00A1                     ??_playNote:	
  2829                           ; 1 bytes @ 0x1
  2830                           
  2831  00A1                     shiftBytes@lowSide:	
  2832                           ; 1 bytes @ 0x1
  2833                           
  2834                           
  2835                           ; 1 bytes @ 0x1
  2836  00A1                     	ds	1
  2837  00A2                     ??_TMR1_Initialize:
  2838  00A2                     ??_EXT_INT_Initialize:	
  2839                           ; 1 bytes @ 0x2
  2840                           
  2841  00A2                     ??_TMR0_Initialize:	
  2842                           ; 1 bytes @ 0x2
  2843                           
  2844  00A2                     ??_TMR0_SetInterruptHandler:	
  2845                           ; 1 bytes @ 0x2
  2846                           
  2847  00A2                     ??_TMR1_SetInterruptHandler:	
  2848                           ; 1 bytes @ 0x2
  2849                           
  2850  00A2                     ??_shiftBytes:	
  2851                           ; 1 bytes @ 0x2
  2852                           
  2853  00A2                     ??_SYSTEM_Initialize:	
  2854                           ; 1 bytes @ 0x2
  2855                           
  2856  00A2                     ??_INT_SetInterruptHandler:	
  2857                           ; 1 bytes @ 0x2
  2858                           
  2859  00A2                     playNote@note:	
  2860                           ; 1 bytes @ 0x2
  2861                           
  2862  00A2                     shiftBytes@highSide:	
  2863                           ; 1 bytes @ 0x2
  2864                           
  2865                           
  2866                           ; 1 bytes @ 0x2
  2867  00A2                     	ds	1
  2868  00A3                     ??_displayMatrix:
  2869                           
  2870                           ; 1 bytes @ 0x3
  2871  00A3                     	ds	2
  2872  00A5                     displayMatrix@states:
  2873                           
  2874                           ; 1 bytes @ 0x5
  2875  00A5                     	ds	1
  2876  00A6                     displayMatrix@i:
  2877                           
  2878                           ; 2 bytes @ 0x6
  2879  00A6                     	ds	2
  2880  00A8                     displayMatrix@lowSide:
  2881                           
  2882                           ; 1 bytes @ 0x8
  2883  00A8                     	ds	1
  2884  00A9                     ??_main:
  2885                           
  2886                           ; 1 bytes @ 0x9
  2887  00A9                     	ds	5
  2888  00AE                     main@light:
  2889                           
  2890                           ; 1 bytes @ 0xE
  2891  00AE                     	ds	1
  2892  00AF                     main@j:
  2893                           
  2894                           ; 2 bytes @ 0xF
  2895  00AF                     	ds	2
  2896  00B1                     main@i:
  2897                           
  2898                           ; 2 bytes @ 0x11
  2899  00B1                     	ds	2
  2900  00B3                     main@j_1190:
  2901                           
  2902                           ; 2 bytes @ 0x13
  2903  00B3                     	ds	2
  2904  00B5                     main@j_1192:
  2905                           
  2906                           ; 2 bytes @ 0x15
  2907  00B5                     	ds	2
  2908                           
  2909                           	psect	cstackCOMMON
  2910  0070                     __pcstackCOMMON:
  2911  0070                     ?_SPI1_Initialize:
  2912  0070                     ?_PIN_MANAGER_Initialize:	
  2913                           ; 1 bytes @ 0x0
  2914                           
  2915  0070                     ?_OSCILLATOR_Initialize:	
  2916                           ; 1 bytes @ 0x0
  2917                           
  2918  0070                     ?_WDT_Initialize:	
  2919                           ; 1 bytes @ 0x0
  2920                           
  2921  0070                     ?_PWM3_Initialize:	
  2922                           ; 1 bytes @ 0x0
  2923                           
  2924  0070                     ?_TMR2_Initialize:	
  2925                           ; 1 bytes @ 0x0
  2926                           
  2927  0070                     ?_TMR1_Initialize:	
  2928                           ; 1 bytes @ 0x0
  2929                           
  2930  0070                     ?_EXT_INT_Initialize:	
  2931                           ; 1 bytes @ 0x0
  2932                           
  2933  0070                     ?_TMR0_Initialize:	
  2934                           ; 1 bytes @ 0x0
  2935                           
  2936  0070                     ?_TMR0_ISR:	
  2937                           ; 1 bytes @ 0x0
  2938                           
  2939  0070                     ??_TMR0_ISR:	
  2940                           ; 1 bytes @ 0x0
  2941                           
  2942  0070                     ?_INT_ISR:	
  2943                           ; 1 bytes @ 0x0
  2944                           
  2945  0070                     ?_TMR1_ISR:	
  2946                           ; 1 bytes @ 0x0
  2947                           
  2948  0070                     ?_INT_CallBack:	
  2949                           ; 1 bytes @ 0x0
  2950                           
  2951  0070                     ?_TMR0_DefaultInterruptHandler:	
  2952                           ; 1 bytes @ 0x0
  2953                           
  2954  0070                     ??_TMR0_DefaultInterruptHandler:	
  2955                           ; 1 bytes @ 0x0
  2956                           
  2957  0070                     ?_TMR1_DefaultInterruptHandler:	
  2958                           ; 1 bytes @ 0x0
  2959                           
  2960  0070                     ??_TMR1_DefaultInterruptHandler:	
  2961                           ; 1 bytes @ 0x0
  2962                           
  2963  0070                     ?_EXT_ISR:	
  2964                           ; 1 bytes @ 0x0
  2965                           
  2966  0070                     ??_EXT_ISR:	
  2967                           ; 1 bytes @ 0x0
  2968                           
  2969  0070                     ?_TMR0_ISR_:	
  2970                           ; 1 bytes @ 0x0
  2971                           
  2972  0070                     ??_TMR0_ISR_:	
  2973                           ; 1 bytes @ 0x0
  2974                           
  2975  0070                     ?_TMR1_ISR_:	
  2976                           ; 1 bytes @ 0x0
  2977                           
  2978  0070                     ?_displayMatrix:	
  2979                           ; 1 bytes @ 0x0
  2980                           
  2981  0070                     ?_SYSTEM_Initialize:	
  2982                           ; 1 bytes @ 0x0
  2983                           
  2984  0070                     ?_SPI1_ExchangeByte:	
  2985                           ; 1 bytes @ 0x0
  2986                           
  2987  0070                     ?_INTERRUPT_InterruptManager:	
  2988                           ; 1 bytes @ 0x0
  2989                           
  2990  0070                     ?_INT_DefaultInterruptHandler:	
  2991                           ; 1 bytes @ 0x0
  2992                           
  2993  0070                     ??_INT_DefaultInterruptHandler:	
  2994                           ; 1 bytes @ 0x0
  2995                           
  2996  0070                     ?_TMR0_Reload:	
  2997                           ; 1 bytes @ 0x0
  2998                           
  2999  0070                     ??_TMR0_Reload:	
  3000                           ; 1 bytes @ 0x0
  3001                           
  3002  0070                     ?_TMR1_WriteTimer:	
  3003                           ; 1 bytes @ 0x0
  3004                           
  3005  0070                     ?_main:	
  3006                           ; 1 bytes @ 0x0
  3007                           
  3008  0070                     ?i1_playNote:	
  3009                           ; 1 bytes @ 0x0
  3010                           
  3011  0070                     ?___awdiv:	
  3012                           ; 1 bytes @ 0x0
  3013                           
  3014  0070                     i1playNote@prescale:	
  3015                           ; 2 bytes @ 0x0
  3016                           
  3017  0070                     TMR1_WriteTimer@timerVal:	
  3018                           ; 1 bytes @ 0x0
  3019                           
  3020  0070                     ___awdiv@divisor:	
  3021                           ; 2 bytes @ 0x0
  3022                           
  3023                           
  3024                           ; 2 bytes @ 0x0
  3025  0070                     	ds	1
  3026  0071                     ??i1_playNote:
  3027  0071                     EXT_ISR@debounce:	
  3028                           ; 1 bytes @ 0x1
  3029                           
  3030                           
  3031                           ; 1 bytes @ 0x1
  3032  0071                     	ds	1
  3033  0072                     ??_INT_ISR:
  3034  0072                     ??_INT_CallBack:	
  3035                           ; 1 bytes @ 0x2
  3036                           
  3037  0072                     ??_TMR1_WriteTimer:	
  3038                           ; 1 bytes @ 0x2
  3039                           
  3040  0072                     i1playNote@note:	
  3041                           ; 1 bytes @ 0x2
  3042                           
  3043  0072                     ___awdiv@dividend:	
  3044                           ; 1 bytes @ 0x2
  3045                           
  3046                           
  3047                           ; 2 bytes @ 0x2
  3048  0072                     	ds	2
  3049  0074                     ??___awdiv:
  3050                           
  3051                           ; 1 bytes @ 0x4
  3052  0074                     	ds	1
  3053  0075                     ___awdiv@counter:
  3054                           
  3055                           ; 1 bytes @ 0x5
  3056  0075                     	ds	1
  3057  0076                     ___awdiv@sign:
  3058                           
  3059                           ; 1 bytes @ 0x6
  3060  0076                     	ds	1
  3061  0077                     ___awdiv@quotient:
  3062                           
  3063                           ; 2 bytes @ 0x7
  3064  0077                     	ds	2
  3065  0079                     ??_TMR1_ISR_:
  3066                           
  3067                           ; 1 bytes @ 0x9
  3068  0079                     	ds	2
  3069  007B                     ??_TMR1_ISR:
  3070  007B                     ??_INTERRUPT_InterruptManager:	
  3071                           ; 1 bytes @ 0xB
  3072                           
  3073                           
  3074                           	psect	cstackBANK0
  3075  0020                     __pcstackBANK0:	
  3076                           ; 1 bytes @ 0xB
  3077                           
  3078  0020                     TMR1_ISR_@lights:
  3079                           
  3080                           ; 1 bytes @ 0x0
  3081  0020                     	ds	1
  3082  0021                     TMR1_ISR_@lights_1209:
  3083                           
  3084                           ; 1 bytes @ 0x1
  3085  0021                     	ds	1
  3086  0022                     TMR1_ISR_@lights_1218:
  3087                           
  3088                           ; 1 bytes @ 0x2
  3089  0022                     	ds	1
  3090  0023                     TMR1_ISR_@jungle_sw:
  3091                           
  3092                           ; 1 bytes @ 0x3
  3093  0023                     	ds	1
  3094  0024                     TMR1_ISR_@i_1210:
  3095                           
  3096                           ; 2 bytes @ 0x4
  3097  0024                     	ds	2
  3098  0026                     TMR1_ISR_@i_1211:
  3099                           
  3100                           ; 2 bytes @ 0x6
  3101  0026                     	ds	2
  3102  0028                     TMR1_ISR_@i_1212:
  3103                           
  3104                           ; 2 bytes @ 0x8
  3105  0028                     	ds	2
  3106  002A                     TMR1_ISR_@i_1213:
  3107                           
  3108                           ; 2 bytes @ 0xA
  3109  002A                     	ds	2
  3110  002C                     TMR1_ISR_@i_1214:
  3111                           
  3112                           ; 2 bytes @ 0xC
  3113  002C                     	ds	2
  3114  002E                     TMR1_ISR_@i_1216:
  3115                           
  3116                           ; 2 bytes @ 0xE
  3117  002E                     	ds	2
  3118  0030                     TMR1_ISR_@i_1220:
  3119                           
  3120                           ; 2 bytes @ 0x10
  3121  0030                     	ds	2
  3122  0032                     TMR1_ISR_@i_1221:
  3123                           
  3124                           ; 2 bytes @ 0x12
  3125  0032                     	ds	2
  3126  0034                     TMR1_ISR_@i_1222:
  3127                           
  3128                           ; 2 bytes @ 0x14
  3129  0034                     	ds	2
  3130  0036                     TMR1_ISR_@i_1223:
  3131                           
  3132                           ; 2 bytes @ 0x16
  3133  0036                     	ds	2
  3134  0038                     TMR1_ISR_@i_1207:
  3135                           
  3136                           ; 2 bytes @ 0x18
  3137  0038                     	ds	2
  3138  003A                     TMR1_ISR_@i_1215:
  3139                           
  3140                           ; 2 bytes @ 0x1A
  3141  003A                     	ds	2
  3142  003C                     TMR1_ISR_@i:
  3143                           
  3144                           ; 2 bytes @ 0x1C
  3145  003C                     	ds	2
  3146  003E                     TMR1_ISR_@i_1208:
  3147                           
  3148                           ; 2 bytes @ 0x1E
  3149  003E                     	ds	2
  3150  0040                     TMR1_ISR_@i_1217:
  3151                           
  3152                           ; 2 bytes @ 0x20
  3153  0040                     	ds	2
  3154                           
  3155                           	psect	maintext
  3156  0E1F                     __pmaintext:	
  3157 ;;
  3158 ;;Main: autosize = 0, tempsize = 5, incstack = 0, save=0
  3159 ;;
  3160 ;; *************** function _main *****************
  3161 ;; Defined at:
  3162 ;;		line 334 in file "main.c"
  3163 ;; Parameters:    Size  Location     Type
  3164 ;;		None
  3165 ;; Auto vars:     Size  Location     Type
  3166 ;;  light           1    0        unsigned char 
  3167 ;;  light           1   14[BANK1 ] unsigned char 
  3168 ;;  j               2   21[BANK1 ] int 
  3169 ;;  j               2   19[BANK1 ] int 
  3170 ;;  j               2   15[BANK1 ] int 
  3171 ;;  i               2   17[BANK1 ] int 
  3172 ;; Return value:  Size  Location     Type
  3173 ;;                  1    wreg      void 
  3174 ;; Registers used:
  3175 ;;		wreg, fsr0l, fsr0h, fsr1l, fsr1h, status,2, status,0, pclath, cstack
  3176 ;; Tracked objects:
  3177 ;;		On entry : B3F/0
  3178 ;;		On exit  : 0/0
  3179 ;;		Unchanged: 0/0
  3180 ;; Data sizes:     COMMON   BANK0   BANK1   BANK2   BANK3   BANK4   BANK5   BANK6   BANK7   BANK8   BANK9  BANK10  BANK1
      +1  BANK12
  3181 ;;      Params:         0       0       0       0       0       0       0       0       0       0       0       0       
      +0       0
  3182 ;;      Locals:         0       0       9       0       0       0       0       0       0       0       0       0       
      +0       0
  3183 ;;      Temps:          0       0       5       0       0       0       0       0       0       0       0       0       
      +0       0
  3184 ;;      Totals:         0       0      14       0       0       0       0       0       0       0       0       0       
      +0       0
  3185 ;;Total ram usage:       14 bytes
  3186 ;; Hardware stack levels required when called: 8
  3187 ;; This function calls:
  3188 ;;		_EXT_INT_Initialize
  3189 ;;		_INT_SetInterruptHandler
  3190 ;;		_PWM3_Initialize
  3191 ;;		_SPI1_Initialize
  3192 ;;		_SYSTEM_Initialize
  3193 ;;		_TMR0_Initialize
  3194 ;;		_TMR0_SetInterruptHandler
  3195 ;;		_TMR1_Initialize
  3196 ;;		_TMR1_SetInterruptHandler
  3197 ;;		_TMR2_Initialize
  3198 ;;		_displayMatrix
  3199 ;;		_playNote
  3200 ;;		_shiftBytes
  3201 ;; This function is called by:
  3202 ;;		Startup code after reset
  3203 ;; This function uses a non-reentrant model
  3204 ;;
  3205                           
  3206                           
  3207                           ;psect for function _main
  3208  0E1F                     _main:
  3209  0E1F                     l3030:	
  3210                           ;incstack = 0
  3211                           ; Regs used in _main: [wreg-fsr1h+status,2+status,0+pclath+cstack]
  3212                           
  3213                           
  3214                           ;main.c: 337:     SYSTEM_Initialize();
  3215  0E1F  318D  2583  318E   	fcall	_SYSTEM_Initialize
  3216  0E22                     l3032:
  3217                           
  3218                           ;main.c: 343:     (INTCONbits.GIE = 1);
  3219  0E22  178B               	bsf	11,7	;volatile
  3220  0E23                     l3034:
  3221                           
  3222                           ;main.c: 346:     (INTCONbits.PEIE = 1);
  3223  0E23  170B               	bsf	11,6	;volatile
  3224                           
  3225                           ;main.c: 355:     SPI1_Initialize();
  3226  0E24  318D  2541  318E   	fcall	_SPI1_Initialize
  3227  0E27                     l3036:
  3228                           
  3229                           ;main.c: 356:     SSP1CON1bits.SSPEN = 0;
  3230  0E27  0143               	movlb	3	; select bank3
  3231  0E28  1290               	bcf	16,5	;volatile
  3232  0E29                     l3038:
  3233                           
  3234                           ;main.c: 357:     TRISCbits.TRISC3 = 0;
  3235  0E29  0140               	movlb	0	; select bank0
  3236  0E2A  1194               	bcf	20,3	;volatile
  3237  0E2B                     l3040:
  3238                           
  3239                           ;main.c: 358:     TRISAbits.TRISA4 = 1;
  3240  0E2B  1612               	bsf	18,4	;volatile
  3241  0E2C                     l3042:
  3242                           
  3243                           ;main.c: 359:     TRISCbits.TRISC5 = 0;
  3244  0E2C  1294               	bcf	20,5	;volatile
  3245  0E2D                     l3044:
  3246                           
  3247                           ;main.c: 362:     SSP1CON1bits.SSPEN = 1;
  3248  0E2D  0143               	movlb	3	; select bank3
  3249  0E2E  1690               	bsf	16,5	;volatile
  3250                           
  3251                           ;main.c: 365:     EXT_INT_Initialize();
  3252  0E2F  318D  2506  318E   	fcall	_EXT_INT_Initialize
  3253                           
  3254                           ;main.c: 366:     INT_SetInterruptHandler(EXT_ISR);
  3255  0E32  3094               	movlw	low _EXT_ISR
  3256  0E33  0141               	movlb	1	; select bank1
  3257  0E34  00A0               	movwf	INT_SetInterruptHandler@InterruptHandler^(0+128)
  3258  0E35  3007               	movlw	high _EXT_ISR
  3259  0E36  00A1               	movwf	(INT_SetInterruptHandler@InterruptHandler^(0+128)+1)
  3260  0E37  318C  24D2  318E   	fcall	_INT_SetInterruptHandler
  3261  0E3A                     l3046:
  3262                           
  3263                           ;main.c: 367:     PIE0bits.INTE = 1;
  3264  0E3A  014E               	movlb	14	; select bank14
  3265  0E3B  1416               	bsf	22,0	;volatile
  3266                           
  3267                           ;main.c: 370:     TMR0_Initialize();
  3268  0E3C  318D  259F  318E   	fcall	_TMR0_Initialize
  3269                           
  3270                           ;main.c: 371:     TMR0_SetInterruptHandler(TMR0_ISR_);
  3271  0E3F  30A4               	movlw	low _TMR0_ISR_
  3272  0E40  0141               	movlb	1	; select bank1
  3273  0E41  00A0               	movwf	TMR0_SetInterruptHandler@InterruptHandler^(0+128)
  3274  0E42  300C               	movlw	high _TMR0_ISR_
  3275  0E43  00A1               	movwf	(TMR0_SetInterruptHandler@InterruptHandler^(0+128)+1)
  3276  0E44  318C  24DB  318E   	fcall	_TMR0_SetInterruptHandler
  3277  0E47                     l3048:
  3278                           
  3279                           ;main.c: 372:     T0CON0bits.T0EN = 0;
  3280  0E47  014B               	movlb	11	; select bank11
  3281  0E48  139E               	bcf	30,7	;volatile
  3282                           
  3283                           ;main.c: 375:     TMR1_Initialize();
  3284  0E49  318D  25BC  318E   	fcall	_TMR1_Initialize
  3285                           
  3286                           ;main.c: 376:     TMR1_SetInterruptHandler(TMR1_ISR_);
  3287  0E4C  307F               	movlw	low _TMR1_ISR_
  3288  0E4D  0141               	movlb	1	; select bank1
  3289  0E4E  00A0               	movwf	TMR1_SetInterruptHandler@InterruptHandler^(0+128)
  3290  0E4F  3000               	movlw	high _TMR1_ISR_
  3291  0E50  00A1               	movwf	(TMR1_SetInterruptHandler@InterruptHandler^(0+128)+1)
  3292  0E51  318C  24E4  318E   	fcall	_TMR1_SetInterruptHandler
  3293  0E54                     l3050:
  3294                           
  3295                           ;main.c: 377:     T1CONbits.TMR1ON = 0;
  3296  0E54  0144               	movlb	4	; select bank4
  3297  0E55  100E               	bcf	14,0	;volatile
  3298                           
  3299                           ;main.c: 380:     TMR2_Initialize();
  3300  0E56  318D  2514  318E   	fcall	_TMR2_Initialize
  3301  0E59                     l3052:
  3302                           
  3303                           ;main.c: 381:     T2CONbits.TMR2ON = 0;
  3304  0E59  0145               	movlb	5	; select bank5
  3305  0E5A  138E               	bcf	14,7	;volatile
  3306                           
  3307                           ;main.c: 384:     PWM3_Initialize();
  3308  0E5B  318C  24C1  318E   	fcall	_PWM3_Initialize
  3309  0E5E                     l3054:
  3310  0E5E  0140               	movlb	0	; select bank0
  3311  0E5F  111A               	bcf	26,2	;volatile
  3312  0E60                     l3056:
  3313  0E60  121A               	bcf	26,4	;volatile
  3314  0E61                     l3058:
  3315  0E61  101A               	bcf	26,0	;volatile
  3316  0E62                     l3060:
  3317                           
  3318                           ;main.c: 394:     for (int i = 0; i < 15; i++)
  3319  0E62  0141               	movlb	1	; select bank1
  3320  0E63  01B1               	clrf	main@i^(0+128)
  3321  0E64  01B2               	clrf	(main@i+1)^(0+128)
  3322  0E65                     l3066:
  3323                           
  3324                           ;main.c: 395:     {;main.c: 396:         for (int j = 0; j < 12; j++)
  3325  0E65  0141               	movlb	1	; select bank1
  3326  0E66  01AF               	clrf	main@j^(0+128)
  3327  0E67  01B0               	clrf	(main@j+1)^(0+128)
  3328  0E68                     l3072:
  3329                           
  3330                           ;main.c: 397:         {;main.c: 398:             displayMatrix(light_array);
  3331  0E68  30B7               	movlw	(low (_light_array| 0))& (0+255)
  3332  0E69  3187  271A  318E   	fcall	_displayMatrix
  3333  0E6C                     l3074:
  3334                           
  3335                           ;main.c: 399:         }
  3336  0E6C  3001               	movlw	1
  3337  0E6D  0141               	movlb	1	; select bank1
  3338  0E6E  07AF               	addwf	main@j^(0+128),f
  3339  0E6F  3000               	movlw	0
  3340  0E70  3DB0               	addwfc	(main@j+1)^(0+128),f
  3341  0E71                     l3076:
  3342  0E71  0830               	movf	(main@j+1)^(0+128),w
  3343  0E72  3A80               	xorlw	128
  3344  0E73  00A9               	movwf	??_main^(0+128)
  3345  0E74  3080               	movlw	128
  3346  0E75  0229               	subwf	??_main^(0+128),w
  3347  0E76  1D03               	skipz
  3348  0E77  2E7A               	goto	u2095
  3349  0E78  300C               	movlw	12
  3350  0E79  022F               	subwf	main@j^(0+128),w
  3351  0E7A                     u2095:
  3352  0E7A  1C03               	skipc
  3353  0E7B  2E7D               	goto	u2091
  3354  0E7C  2E7E               	goto	u2090
  3355  0E7D                     u2091:
  3356  0E7D  2E68               	goto	l3072
  3357  0E7E                     u2090:
  3358  0E7E                     l3078:
  3359                           
  3360                           ;main.c: 400:         if (i < 7)
  3361  0E7E  0141               	movlb	1	; select bank1
  3362  0E7F  0832               	movf	(main@i+1)^(0+128),w
  3363  0E80  3A80               	xorlw	128
  3364  0E81  00A9               	movwf	??_main^(0+128)
  3365  0E82  3080               	movlw	128
  3366  0E83  0229               	subwf	??_main^(0+128),w
  3367  0E84  1D03               	skipz
  3368  0E85  2E88               	goto	u2105
  3369  0E86  3007               	movlw	7
  3370  0E87  0231               	subwf	main@i^(0+128),w
  3371  0E88                     u2105:
  3372  0E88  1803               	skipnc
  3373  0E89  2E8B               	goto	u2101
  3374  0E8A  2E8C               	goto	u2100
  3375  0E8B                     u2101:
  3376  0E8B  2EC4               	goto	l3092
  3377  0E8C                     u2100:
  3378  0E8C                     l3080:
  3379                           
  3380                           ;main.c: 401:         {;main.c: 402:             for (int j = 0; j < 7; j++)
  3381  0E8C  0141               	movlb	1	; select bank1
  3382  0E8D  01B3               	clrf	main@j_1190^(0+128)
  3383  0E8E  01B4               	clrf	(main@j_1190+1)^(0+128)
  3384  0E8F                     l3086:
  3385                           
  3386                           ;main.c: 403:             {;main.c: 404:                 uint8_t light = (~light_array[j
      +                          ]) << 7;
  3387  0E8F  0141               	movlb	1	; select bank1
  3388  0E90  0833               	movf	main@j_1190^(0+128),w
  3389  0E91  3EB7               	addlw	(low (_light_array| 0))& (0+255)
  3390  0E92  0086               	movwf	6
  3391  0E93  0187               	clrf	7
  3392  0E94  0901               	comf	1,w
  3393  0E95  00A9               	movwf	??_main^(0+128)
  3394  0E96  3006               	movlw	6
  3395  0E97                     u2115:
  3396  0E97  35A9               	lslf	??_main^(0+128),f
  3397  0E98  3EFF               	addlw	-1
  3398  0E99  1D03               	skipz
  3399  0E9A  2E97               	goto	u2115
  3400  0E9B  3529               	lslf	??_main^(0+128),w
  3401  0E9C  00AA               	movwf	(??_main+1)^(0+128)
  3402  0E9D  082A               	movf	(??_main+1)^(0+128),w
  3403  0E9E  00AE               	movwf	main@light^(0+128)
  3404                           
  3405                           ;main.c: 405:                 light_array[j] = (light_array[j] << 1) + (light >> 7);
  3406  0E9F  082E               	movf	main@light^(0+128),w
  3407  0EA0  00A9               	movwf	??_main^(0+128)
  3408  0EA1  3007               	movlw	7
  3409  0EA2                     u2125:
  3410  0EA2  36A9               	lsrf	??_main^(0+128),f
  3411  0EA3  0B89               	decfsz	9,f
  3412  0EA4  2EA2               	goto	u2125
  3413  0EA5  0833               	movf	main@j_1190^(0+128),w
  3414  0EA6  3EB7               	addlw	(low (_light_array| 0))& (0+255)
  3415  0EA7  0086               	movwf	6
  3416  0EA8  0187               	clrf	7
  3417  0EA9  3501               	lslf	1,w
  3418  0EAA  0729               	addwf	??_main^(0+128),w
  3419  0EAB  00AA               	movwf	(??_main+1)^(0+128)
  3420  0EAC  0833               	movf	main@j_1190^(0+128),w
  3421  0EAD  3EB7               	addlw	(low (_light_array| 0))& (0+255)
  3422  0EAE  0086               	movwf	6
  3423  0EAF  0187               	clrf	7
  3424  0EB0  082A               	movf	(??_main+1)^(0+128),w
  3425  0EB1  0081               	movwf	1
  3426  0EB2                     l3088:
  3427                           
  3428                           ;main.c: 406:             }
  3429  0EB2  3001               	movlw	1
  3430  0EB3  07B3               	addwf	main@j_1190^(0+128),f
  3431  0EB4  3000               	movlw	0
  3432  0EB5  3DB4               	addwfc	(main@j_1190+1)^(0+128),f
  3433  0EB6                     l3090:
  3434  0EB6  0834               	movf	(main@j_1190+1)^(0+128),w
  3435  0EB7  3A80               	xorlw	128
  3436  0EB8  00A9               	movwf	??_main^(0+128)
  3437  0EB9  3080               	movlw	128
  3438  0EBA  0229               	subwf	??_main^(0+128),w
  3439  0EBB  1D03               	skipz
  3440  0EBC  2EBF               	goto	u2135
  3441  0EBD  3007               	movlw	7
  3442  0EBE  0233               	subwf	main@j_1190^(0+128),w
  3443  0EBF                     u2135:
  3444  0EBF  1C03               	skipc
  3445  0EC0  2EC2               	goto	u2131
  3446  0EC1  2EC3               	goto	u2130
  3447  0EC2                     u2131:
  3448  0EC2  2E8F               	goto	l3086
  3449  0EC3                     u2130:
  3450  0EC3  2EE6               	goto	l3104
  3451  0EC4                     l3092:
  3452                           
  3453                           ;main.c: 409:         {;main.c: 410:             for (int j = 0; j < 7; j++)
  3454  0EC4  0141               	movlb	1	; select bank1
  3455  0EC5  01B5               	clrf	main@j_1192^(0+128)
  3456  0EC6  01B6               	clrf	(main@j_1192+1)^(0+128)
  3457  0EC7                     l3098:
  3458                           
  3459                           ;main.c: 413:                 light_array[j] = (light_array[j] << 1) + 1;
  3460  0EC7  0141               	movlb	1	; select bank1
  3461  0EC8  0835               	movf	main@j_1192^(0+128),w
  3462  0EC9  3EB7               	addlw	(low (_light_array| 0))& (0+255)
  3463  0ECA  0086               	movwf	6
  3464  0ECB  0187               	clrf	7
  3465  0ECC  1403               	setc
  3466  0ECD  0D01               	rlf	1,w
  3467  0ECE  00A9               	movwf	??_main^(0+128)
  3468  0ECF  0835               	movf	main@j_1192^(0+128),w
  3469  0ED0  3EB7               	addlw	(low (_light_array| 0))& (0+255)
  3470  0ED1  0086               	movwf	6
  3471  0ED2  0187               	clrf	7
  3472  0ED3  0829               	movf	??_main^(0+128),w
  3473  0ED4  0081               	movwf	1
  3474  0ED5                     l3100:
  3475                           
  3476                           ;main.c: 414:             }
  3477  0ED5  3001               	movlw	1
  3478  0ED6  07B5               	addwf	main@j_1192^(0+128),f
  3479  0ED7  3000               	movlw	0
  3480  0ED8  3DB6               	addwfc	(main@j_1192+1)^(0+128),f
  3481  0ED9                     l3102:
  3482  0ED9  0836               	movf	(main@j_1192+1)^(0+128),w
  3483  0EDA  3A80               	xorlw	128
  3484  0EDB  00A9               	movwf	??_main^(0+128)
  3485  0EDC  3080               	movlw	128
  3486  0EDD  0229               	subwf	??_main^(0+128),w
  3487  0EDE  1D03               	skipz
  3488  0EDF  2EE2               	goto	u2145
  3489  0EE0  3007               	movlw	7
  3490  0EE1  0235               	subwf	main@j_1192^(0+128),w
  3491  0EE2                     u2145:
  3492  0EE2  1C03               	skipc
  3493  0EE3  2EE5               	goto	u2141
  3494  0EE4  2EE6               	goto	u2140
  3495  0EE5                     u2141:
  3496  0EE5  2EC7               	goto	l3098
  3497  0EE6                     u2140:
  3498  0EE6                     l3104:
  3499                           
  3500                           ;main.c: 416:     }
  3501  0EE6  3001               	movlw	1
  3502  0EE7  0141               	movlb	1	; select bank1
  3503  0EE8  07B1               	addwf	main@i^(0+128),f
  3504  0EE9  3000               	movlw	0
  3505  0EEA  3DB2               	addwfc	(main@i+1)^(0+128),f
  3506  0EEB  0832               	movf	(main@i+1)^(0+128),w
  3507  0EEC  3A80               	xorlw	128
  3508  0EED  00A9               	movwf	??_main^(0+128)
  3509  0EEE  3080               	movlw	128
  3510  0EEF  0229               	subwf	??_main^(0+128),w
  3511  0EF0  1D03               	skipz
  3512  0EF1  2EF4               	goto	u2155
  3513  0EF2  300F               	movlw	15
  3514  0EF3  0231               	subwf	main@i^(0+128),w
  3515  0EF4                     u2155:
  3516  0EF4  1C03               	skipc
  3517  0EF5  2EF7               	goto	u2151
  3518  0EF6  2EF8               	goto	u2150
  3519  0EF7                     u2151:
  3520  0EF7  2E65               	goto	l3066
  3521  0EF8                     u2150:
  3522  0EF8                     l549:	
  3523                           ;main.c: 424:     while (1)
  3524                           
  3525                           
  3526                           ;main.c: 425:     {;main.c: 426:         T0CON0bits.T0EN = 1;
  3527  0EF8  014B               	movlb	11	; select bank11
  3528  0EF9  179E               	bsf	30,7	;volatile
  3529  0EFA                     l3106:
  3530                           
  3531                           ;main.c: 427:         shiftBytes(0xFE, 0x08);
  3532  0EFA  3008               	movlw	8
  3533  0EFB  0141               	movlb	1	; select bank1
  3534  0EFC  00A9               	movwf	??_main^(0+128)
  3535  0EFD  0829               	movf	??_main^(0+128),w
  3536  0EFE  00A1               	movwf	shiftBytes@lowSide^(0+128)
  3537  0EFF  30FE               	movlw	254
  3538  0F00  3187  27F0  318E   	fcall	_shiftBytes
  3539  0F03                     l3108:
  3540  0F03  0140               	movlb	0	; select bank0
  3541  0F04  111A               	bcf	26,2	;volatile
  3542  0F05                     l3110:
  3543  0F05  101A               	bcf	26,0	;volatile
  3544  0F06                     l3112:
  3545                           
  3546                           ;main.c: 430:         if (presses && TMR0_complete)
  3547  0F06  0141               	movlb	1	; select bank1
  3548  0F07  0841               	movf	_presses^(0+128),w
  3549  0F08  1903               	btfsc	3,2
  3550  0F09  2F0B               	goto	u2161
  3551  0F0A  2F0C               	goto	u2160
  3552  0F0B                     u2161:
  3553  0F0B  2FE5               	goto	l3152
  3554  0F0C                     u2160:
  3555  0F0C                     l3114:
  3556  0F0C  0842               	movf	_TMR0_complete^(0+128),w
  3557  0F0D  1903               	btfsc	3,2
  3558  0F0E  2F10               	goto	u2171
  3559  0F0F  2F11               	goto	u2170
  3560  0F10                     u2171:
  3561  0F10  2FE5               	goto	l3152
  3562  0F11                     u2170:
  3563  0F11                     l3116:
  3564                           
  3565                           ;main.c: 431:         {;main.c: 432:             T0CON0bits.T0EN = 0;
  3566  0F11  014B               	movlb	11	; select bank11
  3567  0F12  139E               	bcf	30,7	;volatile
  3568                           
  3569                           ;main.c: 435:             switch (presses)
  3570  0F13  2F5C               	goto	l3132
  3571  0F14                     l3118:
  3572                           
  3573                           ;main.c: 438:                     light_array[0] = 0x88;
  3574  0F14  3088               	movlw	136
  3575  0F15  00A9               	movwf	??_main^(0+128)
  3576  0F16  0829               	movf	??_main^(0+128),w
  3577  0F17  00B7               	movwf	_light_array^(0+128)
  3578                           
  3579                           ;main.c: 439:                     light_array[1] = 0x44;
  3580  0F18  3044               	movlw	68
  3581  0F19  00A9               	movwf	??_main^(0+128)
  3582  0F1A  0829               	movf	??_main^(0+128),w
  3583  0F1B  00B8               	movwf	(_light_array^(0+128)+1)
  3584                           
  3585                           ;main.c: 440:                     light_array[2] = 0x22;
  3586  0F1C  3022               	movlw	34
  3587  0F1D  00A9               	movwf	??_main^(0+128)
  3588  0F1E  0829               	movf	??_main^(0+128),w
  3589  0F1F  00B9               	movwf	(_light_array^(0+128)+2)
  3590                           
  3591                           ;main.c: 441:                     light_array[3] = 0x11;
  3592  0F20  3011               	movlw	17
  3593  0F21  00A9               	movwf	??_main^(0+128)
  3594  0F22  0829               	movf	??_main^(0+128),w
  3595  0F23  00BA               	movwf	(_light_array^(0+128)+3)
  3596                           
  3597                           ;main.c: 442:                     light_array[4] = 0x88;
  3598  0F24  3088               	movlw	136
  3599  0F25  00A9               	movwf	??_main^(0+128)
  3600  0F26  0829               	movf	??_main^(0+128),w
  3601  0F27  00BB               	movwf	(_light_array^(0+128)+4)
  3602                           
  3603                           ;main.c: 443:                     light_array[5] = 0x44;
  3604  0F28  3044               	movlw	68
  3605  0F29  00A9               	movwf	??_main^(0+128)
  3606  0F2A  0829               	movf	??_main^(0+128),w
  3607  0F2B  00BC               	movwf	(_light_array^(0+128)+5)
  3608                           
  3609                           ;main.c: 444:                     light_array[6] = 0x22;
  3610  0F2C  3022               	movlw	34
  3611  0F2D  00A9               	movwf	??_main^(0+128)
  3612  0F2E  0829               	movf	??_main^(0+128),w
  3613  0F2F  00BD               	movwf	(_light_array^(0+128)+6)
  3614  0F30                     l3120:
  3615                           
  3616                           ;main.c: 445:                     silent_night_playing = 1;
  3617  0F30  0140               	movlb	0	; select bank0
  3618  0F31  01CF               	clrf	_silent_night_playing
  3619  0F32  0ACF               	incf	_silent_night_playing,f
  3620                           
  3621                           ;main.c: 446:                     break;
  3622  0F33  2F70               	goto	l557
  3623  0F34                     l558:	
  3624                           ;main.c: 447:                 case 2:
  3625                           
  3626                           
  3627                           ;main.c: 466:                     song2_playing = 1;
  3628  0F34  0140               	movlb	0	; select bank0
  3629  0F35  01CD               	clrf	_song2_playing
  3630  0F36  0ACD               	incf	_song2_playing,f
  3631                           
  3632                           ;main.c: 467:                     break;
  3633  0F37  2F70               	goto	l557
  3634  0F38                     l3122:
  3635                           
  3636                           ;main.c: 489:                     light_array[0] = 0xFF;
  3637  0F38  30FF               	movlw	255
  3638  0F39  00A9               	movwf	??_main^(0+128)
  3639  0F3A  0829               	movf	??_main^(0+128),w
  3640  0F3B  00B7               	movwf	_light_array^(0+128)
  3641                           
  3642                           ;main.c: 490:                     light_array[1] = 0xFF;
  3643  0F3C  30FF               	movlw	255
  3644  0F3D  00A9               	movwf	??_main^(0+128)
  3645  0F3E  0829               	movf	??_main^(0+128),w
  3646  0F3F  00B8               	movwf	(_light_array^(0+128)+1)
  3647                           
  3648                           ;main.c: 491:                     light_array[2] = 0xFF;
  3649  0F40  30FF               	movlw	255
  3650  0F41  00A9               	movwf	??_main^(0+128)
  3651  0F42  0829               	movf	??_main^(0+128),w
  3652  0F43  00B9               	movwf	(_light_array^(0+128)+2)
  3653                           
  3654                           ;main.c: 492:                     light_array[3] = 0xFF;
  3655  0F44  30FF               	movlw	255
  3656  0F45  00A9               	movwf	??_main^(0+128)
  3657  0F46  0829               	movf	??_main^(0+128),w
  3658  0F47  00BA               	movwf	(_light_array^(0+128)+3)
  3659                           
  3660                           ;main.c: 493:                     light_array[4] = 0xFF;
  3661  0F48  30FF               	movlw	255
  3662  0F49  00A9               	movwf	??_main^(0+128)
  3663  0F4A  0829               	movf	??_main^(0+128),w
  3664  0F4B  00BB               	movwf	(_light_array^(0+128)+4)
  3665                           
  3666                           ;main.c: 494:                     light_array[5] = 0xFF;
  3667  0F4C  30FF               	movlw	255
  3668  0F4D  00A9               	movwf	??_main^(0+128)
  3669  0F4E  0829               	movf	??_main^(0+128),w
  3670  0F4F  00BC               	movwf	(_light_array^(0+128)+5)
  3671                           
  3672                           ;main.c: 495:                     light_array[6] = 0xFF;
  3673  0F50  30FF               	movlw	255
  3674  0F51  00A9               	movwf	??_main^(0+128)
  3675  0F52  0829               	movf	??_main^(0+128),w
  3676  0F53  00BD               	movwf	(_light_array^(0+128)+6)
  3677  0F54                     l3124:
  3678                           
  3679                           ;main.c: 496:                     jungle_count = 0;
  3680  0F54  0140               	movlb	0	; select bank0
  3681  0F55  01CA               	clrf	_jungle_count
  3682  0F56                     l3126:
  3683                           
  3684                           ;main.c: 497:                     jungle_bool = 0;
  3685  0F56  0141               	movlb	1	; select bank1
  3686  0F57  01C0               	clrf	_jungle_bool^(0+128)
  3687  0F58                     l3128:
  3688                           
  3689                           ;main.c: 500:                     song3_playing = 1;
  3690  0F58  0140               	movlb	0	; select bank0
  3691  0F59  01CE               	clrf	_song3_playing
  3692  0F5A  0ACE               	incf	_song3_playing,f
  3693                           
  3694                           ;main.c: 501:                     break;
  3695  0F5B  2F70               	goto	l557
  3696  0F5C                     l3132:
  3697  0F5C  0141               	movlb	1	; select bank1
  3698  0F5D  0841               	movf	_presses^(0+128),w
  3699  0F5E  00A9               	movwf	??_main^(0+128)
  3700  0F5F  01AA               	clrf	(??_main^(0+128)+1)
  3701                           
  3702                           ; Switch on 2 bytes has been partitioned into a top level switch of size 1, and 1 sub-sw
      +                          itches
  3703                           ; Switch size 1, requested type "simple"
  3704                           ; Number of cases is 1, Range of values is 0 to 0
  3705                           ; switch strategies available:
  3706                           ; Name         Instructions Cycles
  3707                           ; simple_byte            4     3 (average)
  3708                           ; direct_byte            8     6 (fixed)
  3709                           ; jumptable            260     6 (fixed)
  3710                           ;	Chosen strategy is simple_byte
  3711  0F60  082A               	movf	(??_main+1)^(0+128),w
  3712  0F61  3A00               	xorlw	0	; case 0
  3713  0F62  1903               	skipnz
  3714  0F63  2F65               	goto	l3218
  3715  0F64  2F70               	goto	l557
  3716  0F65                     l3218:
  3717                           
  3718                           ; Switch size 1, requested type "simple"
  3719                           ; Number of cases is 3, Range of values is 1 to 3
  3720                           ; switch strategies available:
  3721                           ; Name         Instructions Cycles
  3722                           ; simple_byte           10     6 (average)
  3723                           ; direct_byte           15     9 (fixed)
  3724                           ; jumptable            263     9 (fixed)
  3725                           ;	Chosen strategy is simple_byte
  3726  0F65  0829               	movf	??_main^(0+128),w
  3727  0F66  3A01               	xorlw	1	; case 1
  3728  0F67  1903               	skipnz
  3729  0F68  2F14               	goto	l3118
  3730  0F69  3A03               	xorlw	3	; case 2
  3731  0F6A  1903               	skipnz
  3732  0F6B  2F34               	goto	l558
  3733  0F6C  3A01               	xorlw	1	; case 3
  3734  0F6D  1903               	skipnz
  3735  0F6E  2F38               	goto	l3122
  3736  0F6F  2F70               	goto	l557
  3737  0F70                     l557:
  3738                           
  3739                           ;main.c: 503:             T1CONbits.TMR1ON = 1;
  3740  0F70  0144               	movlb	4	; select bank4
  3741  0F71  140E               	bsf	14,0	;volatile
  3742                           
  3743                           ;main.c: 504:             T2CONbits.TMR2ON = 1;
  3744  0F72  0145               	movlb	5	; select bank5
  3745  0F73  178E               	bsf	14,7	;volatile
  3746                           
  3747                           ;main.c: 507:             while (presses == 1)
  3748  0F74  2F95               	goto	l3136
  3749  0F75                     l3134:
  3750                           
  3751                           ;main.c: 508:             {;main.c: 509:                 playNote(silent_night[count], s
      +                          ilent_night_pre[count]);
  3752  0F75  3066               	movlw	102
  3753  0F76  00A9               	movwf	??_main^(0+128)
  3754  0F77  3023               	movlw	35
  3755  0F78  00AA               	movwf	(??_main^(0+128)+1)
  3756  0F79  083E               	movf	_count^(0+128),w
  3757  0F7A  0729               	addwf	??_main^(0+128),w
  3758  0F7B  0086               	movwf	6
  3759  0F7C  083F               	movf	(_count+1)^(0+128),w
  3760  0F7D  3D2A               	addwfc	(??_main+1)^(0+128),w
  3761  0F7E  0087               	movwf	7
  3762  0F7F  0801               	movf	1,w
  3763  0F80  00AB               	movwf	(??_main+2)^(0+128)
  3764  0F81  082B               	movf	(??_main+2)^(0+128),w
  3765  0F82  00A0               	movwf	playNote@prescale^(0+128)
  3766  0F83  30DB               	movlw	219
  3767  0F84  00AC               	movwf	(??_main+3)^(0+128)
  3768  0F85  3022               	movlw	34
  3769  0F86  00AD               	movwf	((??_main+3)^(0+128)+1)
  3770  0F87  083E               	movf	_count^(0+128),w
  3771  0F88  072C               	addwf	(??_main+3)^(0+128),w
  3772  0F89  0086               	movwf	6
  3773  0F8A  083F               	movf	(_count+1)^(0+128),w
  3774  0F8B  3D2D               	addwfc	(??_main+4)^(0+128),w
  3775  0F8C  0087               	movwf	7
  3776  0F8D  0801               	movf	1,w
  3777  0F8E  318D  25F9  318E   	fcall	_playNote
  3778                           
  3779                           ;main.c: 510:                 displayMatrix(light_array);
  3780  0F91  30B7               	movlw	(low (_light_array| 0))& (0+255)
  3781  0F92  3187  271A  318E   	fcall	_displayMatrix
  3782  0F95                     l3136:
  3783                           
  3784                           ;main.c: 507:             while (presses == 1)
  3785  0F95  0141               	movlb	1	; select bank1
  3786  0F96  0341               	decf	_presses^(0+128),w
  3787  0F97  1903               	btfsc	3,2
  3788  0F98  2F9A               	goto	u2181
  3789  0F99  2F9B               	goto	u2180
  3790  0F9A                     u2181:
  3791  0F9A  2F75               	goto	l3134
  3792  0F9B                     u2180:
  3793  0F9B  2FAD               	goto	l3140
  3794  0F9C                     l3138:
  3795                           
  3796                           ;main.c: 514:             {;main.c: 537:                 playNote(song2[count], 0xD0);
  3797  0F9C  30D0               	movlw	208
  3798  0F9D  00A9               	movwf	??_main^(0+128)
  3799  0F9E  0829               	movf	??_main^(0+128),w
  3800  0F9F  00A0               	movwf	playNote@prescale^(0+128)
  3801  0FA0  083E               	movf	_count^(0+128),w
  3802  0FA1  3E20               	addlw	(low (_song2| (0+256)))& (0+255)
  3803  0FA2  0086               	movwf	6
  3804  0FA3  3001               	movlw	1	; select bank2/3
  3805  0FA4  0087               	movwf	7
  3806  0FA5  0801               	movf	1,w
  3807  0FA6  318D  25F9  318E   	fcall	_playNote
  3808                           
  3809                           ;main.c: 538:                 displayMatrix(light_array);
  3810  0FA9  30B7               	movlw	(low (_light_array| 0))& (0+255)
  3811  0FAA  3187  271A  318E   	fcall	_displayMatrix
  3812  0FAD                     l3140:
  3813                           
  3814                           ;main.c: 513:             while (presses == 2)
  3815  0FAD  3002               	movlw	2
  3816  0FAE  0141               	movlb	1	; select bank1
  3817  0FAF  0641               	xorwf	_presses^(0+128),w
  3818  0FB0  1903               	btfsc	3,2
  3819  0FB1  2FB3               	goto	u2191
  3820  0FB2  2FB4               	goto	u2190
  3821  0FB3                     u2191:
  3822  0FB3  2F9C               	goto	l3138
  3823  0FB4                     u2190:
  3824  0FB4  2FD5               	goto	l3144
  3825  0FB5                     l3142:
  3826                           
  3827                           ;main.c: 543:             {;main.c: 544:                 playNote(song3[count], song3_pr
      +                          e[count]);
  3828  0FB5  309F               	movlw	159
  3829  0FB6  00A9               	movwf	??_main^(0+128)
  3830  0FB7  3021               	movlw	33
  3831  0FB8  00AA               	movwf	(??_main^(0+128)+1)
  3832  0FB9  083E               	movf	_count^(0+128),w
  3833  0FBA  0729               	addwf	??_main^(0+128),w
  3834  0FBB  0086               	movwf	6
  3835  0FBC  083F               	movf	(_count+1)^(0+128),w
  3836  0FBD  3D2A               	addwfc	(??_main+1)^(0+128),w
  3837  0FBE  0087               	movwf	7
  3838  0FBF  0801               	movf	1,w
  3839  0FC0  00AB               	movwf	(??_main+2)^(0+128)
  3840  0FC1  082B               	movf	(??_main+2)^(0+128),w
  3841  0FC2  00A0               	movwf	playNote@prescale^(0+128)
  3842  0FC3  303D               	movlw	61
  3843  0FC4  00AC               	movwf	(??_main+3)^(0+128)
  3844  0FC5  3022               	movlw	34
  3845  0FC6  00AD               	movwf	((??_main+3)^(0+128)+1)
  3846  0FC7  083E               	movf	_count^(0+128),w
  3847  0FC8  072C               	addwf	(??_main+3)^(0+128),w
  3848  0FC9  0086               	movwf	6
  3849  0FCA  083F               	movf	(_count+1)^(0+128),w
  3850  0FCB  3D2D               	addwfc	(??_main+4)^(0+128),w
  3851  0FCC  0087               	movwf	7
  3852  0FCD  0801               	movf	1,w
  3853  0FCE  318D  25F9  318E   	fcall	_playNote
  3854                           
  3855                           ;main.c: 545:                 displayMatrix(light_array);
  3856  0FD1  30B7               	movlw	(low (_light_array| 0))& (0+255)
  3857  0FD2  3187  271A  318E   	fcall	_displayMatrix
  3858  0FD5                     l3144:
  3859                           
  3860                           ;main.c: 542:             while (presses == 3)
  3861  0FD5  3003               	movlw	3
  3862  0FD6  0141               	movlb	1	; select bank1
  3863  0FD7  0641               	xorwf	_presses^(0+128),w
  3864  0FD8  1903               	btfsc	3,2
  3865  0FD9  2FDB               	goto	u2201
  3866  0FDA  2FDC               	goto	u2200
  3867  0FDB                     u2201:
  3868  0FDB  2FB5               	goto	l3142
  3869  0FDC                     u2200:
  3870  0FDC                     l3146:
  3871                           
  3872                           ;main.c: 547:             presses = 0;
  3873  0FDC  01C1               	clrf	_presses^(0+128)
  3874                           
  3875                           ;main.c: 548:             silent_night_playing = 0;
  3876  0FDD  0140               	movlb	0	; select bank0
  3877  0FDE  01CF               	clrf	_silent_night_playing
  3878                           
  3879                           ;main.c: 549:             song2_playing = 0;
  3880  0FDF  01CD               	clrf	_song2_playing
  3881                           
  3882                           ;main.c: 550:             song3_playing = 0;
  3883  0FE0  01CE               	clrf	_song3_playing
  3884  0FE1                     l3148:
  3885                           
  3886                           ;main.c: 551:             T1CONbits.TMR1ON = 0;
  3887  0FE1  0144               	movlb	4	; select bank4
  3888  0FE2  100E               	bcf	14,0	;volatile
  3889  0FE3                     l3150:
  3890                           
  3891                           ;main.c: 552:             T2CONbits.TMR2ON = 0;
  3892  0FE3  0145               	movlb	5	; select bank5
  3893  0FE4  138E               	bcf	14,7	;volatile
  3894  0FE5                     l3152:
  3895                           
  3896                           ;main.c: 555:         if (TMR0_complete && (!presses))
  3897  0FE5  0141               	movlb	1	; select bank1
  3898  0FE6  0842               	movf	_TMR0_complete^(0+128),w
  3899  0FE7  1903               	btfsc	3,2
  3900  0FE8  2FEA               	goto	u2211
  3901  0FE9  2FEB               	goto	u2210
  3902  0FEA                     u2211:
  3903  0FEA  2EF8               	goto	l549
  3904  0FEB                     u2210:
  3905  0FEB                     l3154:
  3906  0FEB  0841               	movf	_presses^(0+128),w
  3907  0FEC  1D03               	btfss	3,2
  3908  0FED  2FEF               	goto	u2221
  3909  0FEE  2FF0               	goto	u2220
  3910  0FEF                     u2221:
  3911  0FEF  2EF8               	goto	l549
  3912  0FF0                     u2220:
  3913  0FF0                     l3156:
  3914                           
  3915                           ;main.c: 556:         {;main.c: 557:             T0CON0bits.T0EN = 0;
  3916  0FF0  014B               	movlb	11	; select bank11
  3917  0FF1  139E               	bcf	30,7	;volatile
  3918                           
  3919                           ;main.c: 558:             T1CONbits.TMR1ON = 0;
  3920  0FF2  0144               	movlb	4	; select bank4
  3921  0FF3  100E               	bcf	14,0	;volatile
  3922                           
  3923                           ;main.c: 559:             T2CONbits.TMR2ON = 0;
  3924  0FF4  0145               	movlb	5	; select bank5
  3925  0FF5  138E               	bcf	14,7	;volatile
  3926                           
  3927                           ;main.c: 560:             PIR0bits.INTF = 0;
  3928  0FF6  014E               	movlb	14	; select bank14
  3929  0FF7  100C               	bcf	12,0	;volatile
  3930                           
  3931                           ;main.c: 561:             PIE0bits.INTE = 1;
  3932  0FF8  1416               	bsf	22,0	;volatile
  3933  0FF9                     l570:	
  3934                           ;main.c: 562:             do { LATCbits.LATC2 = 1; } while(0);
  3935                           
  3936  0FF9  0140               	movlb	0	; select bank0
  3937  0FFA  151A               	bsf	26,2	;volatile
  3938  0FFB                     l572:	
  3939                           ;main.c: 563:             do { LATCbits.LATC0 = 1; } while(0);
  3940                           
  3941  0FFB  141A               	bsf	26,0	;volatile
  3942  0FFC                     l573:
  3943  0FFC  0063               	sleep	;# 
  3944  0FFD  2EF8               	goto	l549
  3945  0FFE  3180  2831         	ljmp	start
  3946  1000                     __end_of_main:
  3947                           
  3948                           	psect	text1
  3949  0DF9                     __ptext1:	
  3950 ;; *************** function _playNote *****************
  3951 ;; Defined at:
  3952 ;;		line 1010 in file "main.c"
  3953 ;; Parameters:    Size  Location     Type
  3954 ;;  note            1    wreg     unsigned char 
  3955 ;;  prescale        1    0[BANK1 ] unsigned char 
  3956 ;; Auto vars:     Size  Location     Type
  3957 ;;  note            1    2[BANK1 ] unsigned char 
  3958 ;; Return value:  Size  Location     Type
  3959 ;;                  1    wreg      void 
  3960 ;; Registers used:
  3961 ;;		wreg
  3962 ;; Tracked objects:
  3963 ;;		On entry : 0/0
  3964 ;;		On exit  : 0/0
  3965 ;;		Unchanged: 0/0
  3966 ;; Data sizes:     COMMON   BANK0   BANK1   BANK2   BANK3   BANK4   BANK5   BANK6   BANK7   BANK8   BANK9  BANK10  BANK1
      +1  BANK12
  3967 ;;      Params:         0       0       1       0       0       0       0       0       0       0       0       0       
      +0       0
  3968 ;;      Locals:         0       0       1       0       0       0       0       0       0       0       0       0       
      +0       0
  3969 ;;      Temps:          0       0       1       0       0       0       0       0       0       0       0       0       
      +0       0
  3970 ;;      Totals:         0       0       3       0       0       0       0       0       0       0       0       0       
      +0       0
  3971 ;;Total ram usage:        3 bytes
  3972 ;; Hardware stack levels used: 1
  3973 ;; Hardware stack levels required when called: 5
  3974 ;; This function calls:
  3975 ;;		Nothing
  3976 ;; This function is called by:
  3977 ;;		_main
  3978 ;; This function uses a non-reentrant model
  3979 ;;
  3980                           
  3981                           
  3982                           ;psect for function _playNote
  3983  0DF9                     _playNote:
  3984                           
  3985                           ;incstack = 0
  3986                           ; Regs used in _playNote: [wreg]
  3987                           ;playNote@note stored from wreg
  3988  0DF9  0141               	movlb	1	; select bank1
  3989  0DFA  00A2               	movwf	playNote@note^(0+128)
  3990  0DFB                     l3008:
  3991                           
  3992                           ;main.c: 1010: void playNote(uint8_t note, uint8_t prescale);main.c: 1011: {;main.c: 101
      +                          3:     if (note != last_note)
  3993  0DFB  0822               	movf	playNote@note^(0+128),w
  3994  0DFC  0140               	movlb	0	; select bank0
  3995  0DFD  064C               	xorwf	_last_note,w
  3996  0DFE  1903               	skipnz
  3997  0DFF  2E01               	goto	u2051
  3998  0E00  2E02               	goto	u2050
  3999  0E01                     u2051:
  4000  0E01  2E06               	goto	l673
  4001  0E02                     u2050:
  4002  0E02                     l3010:
  4003                           
  4004                           ;main.c: 1014:     {;main.c: 1015:         T2PR = note;
  4005  0E02  0141               	movlb	1	; select bank1
  4006  0E03  0822               	movf	playNote@note^(0+128),w
  4007  0E04  0145               	movlb	5	; select bank5
  4008  0E05  008D               	movwf	13	;volatile
  4009  0E06                     l673:	
  4010                           ;main.c: 1016:     }
  4011                           
  4012                           
  4013                           ;main.c: 1018:     if (prescale != last_prescale)
  4014  0E06  0141               	movlb	1	; select bank1
  4015  0E07  0820               	movf	playNote@prescale^(0+128),w
  4016  0E08  0140               	movlb	0	; select bank0
  4017  0E09  064B               	xorwf	_last_prescale,w
  4018  0E0A  1903               	skipnz
  4019  0E0B  2E0D               	goto	u2061
  4020  0E0C  2E0E               	goto	u2060
  4021  0E0D                     u2061:
  4022  0E0D  2E12               	goto	l674
  4023  0E0E                     u2060:
  4024  0E0E                     l3012:
  4025                           
  4026                           ;main.c: 1019:     {;main.c: 1020:         T2CON = prescale;
  4027  0E0E  0141               	movlb	1	; select bank1
  4028  0E0F  0820               	movf	playNote@prescale^(0+128),w
  4029  0E10  0145               	movlb	5	; select bank5
  4030  0E11  008E               	movwf	14	;volatile
  4031  0E12                     l674:	
  4032                           ;main.c: 1021:     }
  4033                           
  4034                           
  4035                           ;main.c: 1022:     last_note = note;
  4036  0E12  0141               	movlb	1	; select bank1
  4037  0E13  0822               	movf	playNote@note^(0+128),w
  4038  0E14  00A1               	movwf	??_playNote^(0+128)
  4039  0E15  0821               	movf	??_playNote^(0+128),w
  4040  0E16  0140               	movlb	0	; select bank0
  4041  0E17  00CC               	movwf	_last_note
  4042                           
  4043                           ;main.c: 1023:     last_prescale = prescale;
  4044  0E18  0141               	movlb	1	; select bank1
  4045  0E19  0820               	movf	playNote@prescale^(0+128),w
  4046  0E1A  00A1               	movwf	??_playNote^(0+128)
  4047  0E1B  0821               	movf	??_playNote^(0+128),w
  4048  0E1C  0140               	movlb	0	; select bank0
  4049  0E1D  00CB               	movwf	_last_prescale
  4050  0E1E                     l675:
  4051  0E1E  0008               	return
  4052  0E1F                     __end_of_playNote:
  4053                           
  4054                           	psect	text2
  4055  071A                     __ptext2:	
  4056 ;; *************** function _displayMatrix *****************
  4057 ;; Defined at:
  4058 ;;		line 1048 in file "main.c"
  4059 ;; Parameters:    Size  Location     Type
  4060 ;;  states          1    wreg     PTR unsigned char 
  4061 ;;		 -> light_array(7), 
  4062 ;; Auto vars:     Size  Location     Type
  4063 ;;  states          1    5[BANK1 ] PTR unsigned char 
  4064 ;;		 -> light_array(7), 
  4065 ;;  i               2    6[BANK1 ] int 
  4066 ;;  lowSide         1    8[BANK1 ] unsigned char 
  4067 ;; Return value:  Size  Location     Type
  4068 ;;                  1    wreg      void 
  4069 ;; Registers used:
  4070 ;;		wreg, fsr1l, fsr1h, status,2, status,0, pclath, cstack
  4071 ;; Tracked objects:
  4072 ;;		On entry : 0/0
  4073 ;;		On exit  : 0/0
  4074 ;;		Unchanged: 0/0
  4075 ;; Data sizes:     COMMON   BANK0   BANK1   BANK2   BANK3   BANK4   BANK5   BANK6   BANK7   BANK8   BANK9  BANK10  BANK1
      +1  BANK12
  4076 ;;      Params:         0       0       0       0       0       0       0       0       0       0       0       0       
      +0       0
  4077 ;;      Locals:         0       0       4       0       0       0       0       0       0       0       0       0       
      +0       0
  4078 ;;      Temps:          0       0       2       0       0       0       0       0       0       0       0       0       
      +0       0
  4079 ;;      Totals:         0       0       6       0       0       0       0       0       0       0       0       0       
      +0       0
  4080 ;;Total ram usage:        6 bytes
  4081 ;; Hardware stack levels used: 1
  4082 ;; Hardware stack levels required when called: 7
  4083 ;; This function calls:
  4084 ;;		_shiftBytes
  4085 ;; This function is called by:
  4086 ;;		_main
  4087 ;; This function uses a non-reentrant model
  4088 ;;
  4089                           
  4090                           
  4091                           ;psect for function _displayMatrix
  4092  071A                     _displayMatrix:
  4093                           
  4094                           ;incstack = 0
  4095                           ; Regs used in _displayMatrix: [wreg+fsr1l+fsr1h+status,2+status,0+pclath+cstack]
  4096                           ;displayMatrix@states stored from wreg
  4097  071A  0141               	movlb	1	; select bank1
  4098  071B  00A5               	movwf	displayMatrix@states^(0+128)
  4099  071C                     l2988:
  4100                           
  4101                           ;main.c: 1048: void displayMatrix(uint8_t states[8]);main.c: 1049: {;main.c: 1052:     u
      +                          int8_t lowSide = 0x00;
  4102  071C  01A8               	clrf	displayMatrix@lowSide^(0+128)
  4103                           
  4104                           ;main.c: 1053:     for (int i = 0; i < 7; i++)
  4105  071D  01A6               	clrf	displayMatrix@i^(0+128)
  4106  071E  01A7               	clrf	(displayMatrix@i+1)^(0+128)
  4107  071F                     l2994:
  4108                           
  4109                           ;main.c: 1054:     {;main.c: 1055:         if (!lowSide)
  4110  071F  0141               	movlb	1	; select bank1
  4111  0720  0828               	movf	displayMatrix@lowSide^(0+128),w
  4112  0721  1D03               	btfss	3,2
  4113  0722  2F24               	goto	u2031
  4114  0723  2F25               	goto	u2030
  4115  0724                     u2031:
  4116  0724  2F2A               	goto	l2998
  4117  0725                     u2030:
  4118  0725                     l2996:
  4119                           
  4120                           ;main.c: 1056:         {;main.c: 1057:             lowSide++;
  4121  0725  3001               	movlw	1
  4122  0726  00A3               	movwf	??_displayMatrix^(0+128)
  4123  0727  0823               	movf	??_displayMatrix^(0+128),w
  4124  0728  07A8               	addwf	displayMatrix@lowSide^(0+128),f
  4125                           
  4126                           ;main.c: 1058:         }
  4127  0729  2F2E               	goto	l3000
  4128  072A                     l2998:
  4129                           
  4130                           ;main.c: 1060:         {;main.c: 1061:             lowSide = lowSide << 1;
  4131  072A  3528               	lslf	displayMatrix@lowSide^(0+128),w
  4132  072B  00A3               	movwf	??_displayMatrix^(0+128)
  4133  072C  0823               	movf	??_displayMatrix^(0+128),w
  4134  072D  00A8               	movwf	displayMatrix@lowSide^(0+128)
  4135  072E                     l3000:
  4136                           
  4137                           ;main.c: 1064:         shiftBytes(states[i], lowSide);
  4138  072E  0828               	movf	displayMatrix@lowSide^(0+128),w
  4139  072F  00A3               	movwf	??_displayMatrix^(0+128)
  4140  0730  0823               	movf	??_displayMatrix^(0+128),w
  4141  0731  00A1               	movwf	shiftBytes@lowSide^(0+128)
  4142  0732  0826               	movf	displayMatrix@i^(0+128),w
  4143  0733  0725               	addwf	displayMatrix@states^(0+128),w
  4144  0734  00A4               	movwf	(??_displayMatrix+1)^(0+128)
  4145  0735  0824               	movf	(??_displayMatrix+1)^(0+128),w
  4146  0736  0086               	movwf	6
  4147  0737  0187               	clrf	7
  4148  0738  0801               	movf	1,w
  4149  0739  3187  27F0  3187   	fcall	_shiftBytes
  4150  073C                     l3002:
  4151                           
  4152                           ;main.c: 1065:         _delay((unsigned long)((1)*(8000000/4000.0)));
  4153  073C  3003               	movlw	3
  4154  073D  0141               	movlb	1	; select bank1
  4155  073E  00A3               	movwf	??_displayMatrix^(0+128)
  4156  073F  3097               	movlw	151
  4157  0740                     u2237:
  4158  0740  0B89               	decfsz	9,f
  4159  0741  2F40               	goto	u2237
  4160  0742  0BA3               	decfsz	??_displayMatrix^(0+128),f
  4161  0743  2F40               	goto	u2237
  4162  0744  3200               	nop2
  4163  0745                     l3004:
  4164                           
  4165                           ;main.c: 1066:     }
  4166  0745  3001               	movlw	1
  4167  0746  0141               	movlb	1	; select bank1
  4168  0747  07A6               	addwf	displayMatrix@i^(0+128),f
  4169  0748  3000               	movlw	0
  4170  0749  3DA7               	addwfc	(displayMatrix@i+1)^(0+128),f
  4171  074A                     l3006:
  4172  074A  0827               	movf	(displayMatrix@i+1)^(0+128),w
  4173  074B  3A80               	xorlw	128
  4174  074C  00A3               	movwf	??_displayMatrix^(0+128)
  4175  074D  3080               	movlw	128
  4176  074E  0223               	subwf	??_displayMatrix^(0+128),w
  4177  074F  1D03               	skipz
  4178  0750  2F53               	goto	u2045
  4179  0751  3007               	movlw	7
  4180  0752  0226               	subwf	displayMatrix@i^(0+128),w
  4181  0753                     u2045:
  4182  0753  1C03               	skipc
  4183  0754  2F56               	goto	u2041
  4184  0755  2F57               	goto	u2040
  4185  0756                     u2041:
  4186  0756  2F1F               	goto	l2994
  4187  0757                     u2040:
  4188  0757                     l696:
  4189  0757  0008               	return
  4190  0758                     __end_of_displayMatrix:
  4191                           
  4192                           	psect	text3
  4193  07F0                     __ptext3:	
  4194 ;; *************** function _shiftBytes *****************
  4195 ;; Defined at:
  4196 ;;		line 1036 in file "main.c"
  4197 ;; Parameters:    Size  Location     Type
  4198 ;;  highSide        1    wreg     unsigned char 
  4199 ;;  lowSide         1    1[BANK1 ] unsigned char 
  4200 ;; Auto vars:     Size  Location     Type
  4201 ;;  highSide        1    2[BANK1 ] unsigned char 
  4202 ;; Return value:  Size  Location     Type
  4203 ;;                  1    wreg      void 
  4204 ;; Registers used:
  4205 ;;		wreg, status,2, status,0, pclath, cstack
  4206 ;; Tracked objects:
  4207 ;;		On entry : 0/0
  4208 ;;		On exit  : 0/0
  4209 ;;		Unchanged: 0/0
  4210 ;; Data sizes:     COMMON   BANK0   BANK1   BANK2   BANK3   BANK4   BANK5   BANK6   BANK7   BANK8   BANK9  BANK10  BANK1
      +1  BANK12
  4211 ;;      Params:         0       0       1       0       0       0       0       0       0       0       0       0       
      +0       0
  4212 ;;      Locals:         0       0       1       0       0       0       0       0       0       0       0       0       
      +0       0
  4213 ;;      Temps:          0       0       0       0       0       0       0       0       0       0       0       0       
      +0       0
  4214 ;;      Totals:         0       0       2       0       0       0       0       0       0       0       0       0       
      +0       0
  4215 ;;Total ram usage:        2 bytes
  4216 ;; Hardware stack levels used: 1
  4217 ;; Hardware stack levels required when called: 6
  4218 ;; This function calls:
  4219 ;;		_SPI1_ExchangeByte
  4220 ;; This function is called by:
  4221 ;;		_main
  4222 ;;		_displayMatrix
  4223 ;;		_Initialize_Matrix
  4224 ;; This function uses a non-reentrant model
  4225 ;;
  4226                           
  4227                           
  4228                           ;psect for function _shiftBytes
  4229  07F0                     _shiftBytes:
  4230                           
  4231                           ;incstack = 0
  4232                           ; Regs used in _shiftBytes: [wreg+status,2+status,0+pclath+cstack]
  4233                           ;shiftBytes@highSide stored from wreg
  4234  07F0  0141               	movlb	1	; select bank1
  4235  07F1  00A2               	movwf	shiftBytes@highSide^(0+128)
  4236  07F2                     l2968:
  4237                           
  4238                           ;main.c: 1036: void shiftBytes(uint8_t highSide, uint8_t lowSide);main.c: 1037: {;main.c
      +                          : 1039:     SPI1_ExchangeByte(lowSide);
  4239  07F2  0821               	movf	shiftBytes@lowSide^(0+128),w
  4240  07F3  318D  2522  3187   	fcall	_SPI1_ExchangeByte
  4241                           
  4242                           ;main.c: 1040:     SPI1_ExchangeByte(highSide);
  4243  07F6  0141               	movlb	1	; select bank1
  4244  07F7  0822               	movf	shiftBytes@highSide^(0+128),w
  4245  07F8  318D  2522  3187   	fcall	_SPI1_ExchangeByte
  4246  07FB                     l2970:
  4247  07FB  0140               	movlb	0	; select bank0
  4248  07FC  161A               	bsf	26,4	;volatile
  4249  07FD                     l2972:
  4250  07FD  121A               	bcf	26,4	;volatile
  4251  07FE                     l689:
  4252  07FE  0008               	return
  4253  07FF                     __end_of_shiftBytes:
  4254                           
  4255                           	psect	text4
  4256  0D22                     __ptext4:	
  4257 ;; *************** function _SPI1_ExchangeByte *****************
  4258 ;; Defined at:
  4259 ;;		line 97 in file "mcc_generated_files/spi1.c"
  4260 ;; Parameters:    Size  Location     Type
  4261 ;;  data            1    wreg     unsigned char 
  4262 ;; Auto vars:     Size  Location     Type
  4263 ;;  data            1    0[BANK1 ] unsigned char 
  4264 ;; Return value:  Size  Location     Type
  4265 ;;                  1    wreg      unsigned char 
  4266 ;; Registers used:
  4267 ;;		wreg
  4268 ;; Tracked objects:
  4269 ;;		On entry : 0/0
  4270 ;;		On exit  : 0/0
  4271 ;;		Unchanged: 0/0
  4272 ;; Data sizes:     COMMON   BANK0   BANK1   BANK2   BANK3   BANK4   BANK5   BANK6   BANK7   BANK8   BANK9  BANK10  BANK1
      +1  BANK12
  4273 ;;      Params:         0       0       0       0       0       0       0       0       0       0       0       0       
      +0       0
  4274 ;;      Locals:         0       0       1       0       0       0       0       0       0       0       0       0       
      +0       0
  4275 ;;      Temps:          0       0       0       0       0       0       0       0       0       0       0       0       
      +0       0
  4276 ;;      Totals:         0       0       1       0       0       0       0       0       0       0       0       0       
      +0       0
  4277 ;;Total ram usage:        1 bytes
  4278 ;; Hardware stack levels used: 1
  4279 ;; Hardware stack levels required when called: 5
  4280 ;; This function calls:
  4281 ;;		Nothing
  4282 ;; This function is called by:
  4283 ;;		_shiftBytes
  4284 ;;		_SPI1_WriteBlock
  4285 ;;		_SPI1_ReadBlock
  4286 ;; This function uses a non-reentrant model
  4287 ;;
  4288                           
  4289                           
  4290                           ;psect for function _SPI1_ExchangeByte
  4291  0D22                     _SPI1_ExchangeByte:
  4292                           
  4293                           ;incstack = 0
  4294                           ; Regs used in _SPI1_ExchangeByte: [wreg]
  4295                           ;SPI1_ExchangeByte@data stored from wreg
  4296  0D22  0141               	movlb	1	; select bank1
  4297  0D23  00A0               	movwf	SPI1_ExchangeByte@data^(0+128)
  4298  0D24                     l2860:
  4299                           
  4300                           ;mcc_generated_files/spi1.c: 97: uint8_t SPI1_ExchangeByte(uint8_t data);mcc_generated_f
      +                          iles/spi1.c: 98: {;mcc_generated_files/spi1.c: 99:     SSP1BUF = data;
  4301  0D24  0820               	movf	SPI1_ExchangeByte@data^(0+128),w
  4302  0D25  0143               	movlb	3	; select bank3
  4303  0D26  008C               	movwf	12	;volatile
  4304  0D27                     l74:	
  4305                           ;mcc_generated_files/spi1.c: 100:     while(!PIR1bits.SSP1IF);
  4306                           
  4307  0D27  014E               	movlb	14	; select bank14
  4308  0D28  1C8D               	btfss	13,1	;volatile
  4309  0D29  2D2B               	goto	u2021
  4310  0D2A  2D2C               	goto	u2020
  4311  0D2B                     u2021:
  4312  0D2B  2D27               	goto	l74
  4313  0D2C                     u2020:
  4314  0D2C                     l76:
  4315                           
  4316                           ;mcc_generated_files/spi1.c: 101:     PIR1bits.SSP1IF = 0;
  4317  0D2C  108D               	bcf	13,1	;volatile
  4318  0D2D                     l2862:
  4319                           
  4320                           ;mcc_generated_files/spi1.c: 102:     return SSP1BUF;
  4321  0D2D  0143               	movlb	3	; select bank3
  4322  0D2E  080C               	movf	12,w	;volatile
  4323  0D2F                     l77:
  4324  0D2F  0008               	return
  4325  0D30                     __end_of_SPI1_ExchangeByte:
  4326                           
  4327                           	psect	text5
  4328  0D83                     __ptext5:	
  4329 ;; *************** function _SYSTEM_Initialize *****************
  4330 ;; Defined at:
  4331 ;;		line 50 in file "mcc_generated_files/mcc.c"
  4332 ;; Parameters:    Size  Location     Type
  4333 ;;		None
  4334 ;; Auto vars:     Size  Location     Type
  4335 ;;		None
  4336 ;; Return value:  Size  Location     Type
  4337 ;;                  1    wreg      void 
  4338 ;; Registers used:
  4339 ;;		wreg, status,2, status,0, pclath, cstack
  4340 ;; Tracked objects:
  4341 ;;		On entry : 0/0
  4342 ;;		On exit  : 0/0
  4343 ;;		Unchanged: 0/0
  4344 ;; Data sizes:     COMMON   BANK0   BANK1   BANK2   BANK3   BANK4   BANK5   BANK6   BANK7   BANK8   BANK9  BANK10  BANK1
      +1  BANK12
  4345 ;;      Params:         0       0       0       0       0       0       0       0       0       0       0       0       
      +0       0
  4346 ;;      Locals:         0       0       0       0       0       0       0       0       0       0       0       0       
      +0       0
  4347 ;;      Temps:          0       0       0       0       0       0       0       0       0       0       0       0       
      +0       0
  4348 ;;      Totals:         0       0       0       0       0       0       0       0       0       0       0       0       
      +0       0
  4349 ;;Total ram usage:        0 bytes
  4350 ;; Hardware stack levels used: 1
  4351 ;; Hardware stack levels required when called: 7
  4352 ;; This function calls:
  4353 ;;		_EXT_INT_Initialize
  4354 ;;		_OSCILLATOR_Initialize
  4355 ;;		_PIN_MANAGER_Initialize
  4356 ;;		_PWM3_Initialize
  4357 ;;		_SPI1_Initialize
  4358 ;;		_TMR0_Initialize
  4359 ;;		_TMR1_Initialize
  4360 ;;		_TMR2_Initialize
  4361 ;;		_WDT_Initialize
  4362 ;; This function is called by:
  4363 ;;		_main
  4364 ;; This function uses a non-reentrant model
  4365 ;;
  4366                           
  4367                           
  4368                           ;psect for function _SYSTEM_Initialize
  4369  0D83                     _SYSTEM_Initialize:
  4370  0D83                     l2974:	
  4371                           ;incstack = 0
  4372                           ; Regs used in _SYSTEM_Initialize: [wreg+status,2+status,0+pclath+cstack]
  4373                           
  4374                           
  4375                           ;mcc_generated_files/mcc.c: 53:     SPI1_Initialize();
  4376  0D83  318D  2541  318D   	fcall	_SPI1_Initialize
  4377                           
  4378                           ;mcc_generated_files/mcc.c: 54:     PIN_MANAGER_Initialize();
  4379  0D86  3187  27C8  318D   	fcall	_PIN_MANAGER_Initialize
  4380                           
  4381                           ;mcc_generated_files/mcc.c: 55:     OSCILLATOR_Initialize();
  4382  0D89  318C  24AE  318D   	fcall	_OSCILLATOR_Initialize
  4383  0D8C                     l2976:
  4384                           
  4385                           ;mcc_generated_files/mcc.c: 56:     WDT_Initialize();
  4386  0D8C  318C  24A1  318D   	fcall	_WDT_Initialize
  4387  0D8F                     l2978:
  4388                           
  4389                           ;mcc_generated_files/mcc.c: 57:     PWM3_Initialize();
  4390  0D8F  318C  24C1  318D   	fcall	_PWM3_Initialize
  4391  0D92                     l2980:
  4392                           
  4393                           ;mcc_generated_files/mcc.c: 58:     TMR2_Initialize();
  4394  0D92  318D  2514  318D   	fcall	_TMR2_Initialize
  4395  0D95                     l2982:
  4396                           
  4397                           ;mcc_generated_files/mcc.c: 59:     TMR1_Initialize();
  4398  0D95  318D  25BC  318D   	fcall	_TMR1_Initialize
  4399  0D98                     l2984:
  4400                           
  4401                           ;mcc_generated_files/mcc.c: 60:     EXT_INT_Initialize();
  4402  0D98  318D  2506  318D   	fcall	_EXT_INT_Initialize
  4403  0D9B                     l2986:
  4404                           
  4405                           ;mcc_generated_files/mcc.c: 61:     TMR0_Initialize();
  4406  0D9B  318D  259F  318D   	fcall	_TMR0_Initialize
  4407  0D9E                     l29:
  4408  0D9E  0008               	return
  4409  0D9F                     __end_of_SYSTEM_Initialize:
  4410                           
  4411                           	psect	text6
  4412  0CA1                     __ptext6:	
  4413 ;; *************** function _WDT_Initialize *****************
  4414 ;; Defined at:
  4415 ;;		line 74 in file "mcc_generated_files/mcc.c"
  4416 ;; Parameters:    Size  Location     Type
  4417 ;;		None
  4418 ;; Auto vars:     Size  Location     Type
  4419 ;;		None
  4420 ;; Return value:  Size  Location     Type
  4421 ;;                  1    wreg      void 
  4422 ;; Registers used:
  4423 ;;		status,2
  4424 ;; Tracked objects:
  4425 ;;		On entry : 0/0
  4426 ;;		On exit  : 0/0
  4427 ;;		Unchanged: 0/0
  4428 ;; Data sizes:     COMMON   BANK0   BANK1   BANK2   BANK3   BANK4   BANK5   BANK6   BANK7   BANK8   BANK9  BANK10  BANK1
      +1  BANK12
  4429 ;;      Params:         0       0       0       0       0       0       0       0       0       0       0       0       
      +0       0
  4430 ;;      Locals:         0       0       0       0       0       0       0       0       0       0       0       0       
      +0       0
  4431 ;;      Temps:          0       0       0       0       0       0       0       0       0       0       0       0       
      +0       0
  4432 ;;      Totals:         0       0       0       0       0       0       0       0       0       0       0       0       
      +0       0
  4433 ;;Total ram usage:        0 bytes
  4434 ;; Hardware stack levels used: 1
  4435 ;; Hardware stack levels required when called: 5
  4436 ;; This function calls:
  4437 ;;		Nothing
  4438 ;; This function is called by:
  4439 ;;		_SYSTEM_Initialize
  4440 ;; This function uses a non-reentrant model
  4441 ;;
  4442                           
  4443                           
  4444                           ;psect for function _WDT_Initialize
  4445  0CA1                     _WDT_Initialize:
  4446  0CA1                     l2918:	
  4447                           ;incstack = 0
  4448                           ; Regs used in _WDT_Initialize: [status,2]
  4449                           
  4450                           
  4451                           ;mcc_generated_files/mcc.c: 77:     WDTCON = 0x00;
  4452  0CA1  0150               	movlb	16	; select bank16
  4453  0CA2  018C               	clrf	12	;volatile
  4454  0CA3                     l35:
  4455  0CA3  0008               	return
  4456  0CA4                     __end_of_WDT_Initialize:
  4457                           
  4458                           	psect	text7
  4459  0D14                     __ptext7:	
  4460 ;; *************** function _TMR2_Initialize *****************
  4461 ;; Defined at:
  4462 ;;		line 62 in file "mcc_generated_files/tmr2.c"
  4463 ;; Parameters:    Size  Location     Type
  4464 ;;		None
  4465 ;; Auto vars:     Size  Location     Type
  4466 ;;		None
  4467 ;; Return value:  Size  Location     Type
  4468 ;;                  1    wreg      void 
  4469 ;; Registers used:
  4470 ;;		wreg, status,2
  4471 ;; Tracked objects:
  4472 ;;		On entry : 0/0
  4473 ;;		On exit  : 0/0
  4474 ;;		Unchanged: 0/0
  4475 ;; Data sizes:     COMMON   BANK0   BANK1   BANK2   BANK3   BANK4   BANK5   BANK6   BANK7   BANK8   BANK9  BANK10  BANK1
      +1  BANK12
  4476 ;;      Params:         0       0       0       0       0       0       0       0       0       0       0       0       
      +0       0
  4477 ;;      Locals:         0       0       0       0       0       0       0       0       0       0       0       0       
      +0       0
  4478 ;;      Temps:          0       0       0       0       0       0       0       0       0       0       0       0       
      +0       0
  4479 ;;      Totals:         0       0       0       0       0       0       0       0       0       0       0       0       
      +0       0
  4480 ;;Total ram usage:        0 bytes
  4481 ;; Hardware stack levels used: 1
  4482 ;; Hardware stack levels required when called: 5
  4483 ;; This function calls:
  4484 ;;		Nothing
  4485 ;; This function is called by:
  4486 ;;		_SYSTEM_Initialize
  4487 ;;		_main
  4488 ;; This function uses a non-reentrant model
  4489 ;;
  4490                           
  4491                           
  4492                           ;psect for function _TMR2_Initialize
  4493  0D14                     _TMR2_Initialize:
  4494  0D14                     l2922:	
  4495                           ;incstack = 0
  4496                           ; Regs used in _TMR2_Initialize: [wreg+status,2]
  4497                           
  4498                           
  4499                           ;mcc_generated_files/tmr2.c: 67:     T2CLKCON = 0x01;
  4500  0D14  3001               	movlw	1
  4501  0D15  0145               	movlb	5	; select bank5
  4502  0D16  0090               	movwf	16	;volatile
  4503  0D17                     l2924:
  4504                           
  4505                           ;mcc_generated_files/tmr2.c: 70:     T2HLT = 0x00;
  4506  0D17  018F               	clrf	15	;volatile
  4507  0D18                     l2926:
  4508                           
  4509                           ;mcc_generated_files/tmr2.c: 73:     T2RST = 0x00;
  4510  0D18  0191               	clrf	17	;volatile
  4511                           
  4512                           ;mcc_generated_files/tmr2.c: 76:     T2PR = 0xFF;
  4513  0D19  30FF               	movlw	255
  4514  0D1A  008D               	movwf	13	;volatile
  4515  0D1B                     l2928:
  4516                           
  4517                           ;mcc_generated_files/tmr2.c: 79:     T2TMR = 0x00;
  4518  0D1B  018C               	clrf	12	;volatile
  4519  0D1C                     l2930:
  4520                           
  4521                           ;mcc_generated_files/tmr2.c: 82:     PIR1bits.TMR2IF = 0;
  4522  0D1C  014E               	movlb	14	; select bank14
  4523  0D1D  130D               	bcf	13,6	;volatile
  4524  0D1E                     l2932:
  4525                           
  4526                           ;mcc_generated_files/tmr2.c: 85:     T2CON = 0xB0;
  4527  0D1E  30B0               	movlw	176
  4528  0D1F  0145               	movlb	5	; select bank5
  4529  0D20  008E               	movwf	14	;volatile
  4530  0D21                     l177:
  4531  0D21  0008               	return
  4532  0D22                     __end_of_TMR2_Initialize:
  4533                           
  4534                           	psect	text8
  4535  0DBC                     __ptext8:	
  4536 ;; *************** function _TMR1_Initialize *****************
  4537 ;; Defined at:
  4538 ;;		line 64 in file "mcc_generated_files/tmr1.c"
  4539 ;; Parameters:    Size  Location     Type
  4540 ;;		None
  4541 ;; Auto vars:     Size  Location     Type
  4542 ;;		None
  4543 ;; Return value:  Size  Location     Type
  4544 ;;                  1    wreg      void 
  4545 ;; Registers used:
  4546 ;;		wreg, status,2, status,0, pclath, cstack
  4547 ;; Tracked objects:
  4548 ;;		On entry : 0/0
  4549 ;;		On exit  : 0/0
  4550 ;;		Unchanged: 0/0
  4551 ;; Data sizes:     COMMON   BANK0   BANK1   BANK2   BANK3   BANK4   BANK5   BANK6   BANK7   BANK8   BANK9  BANK10  BANK1
      +1  BANK12
  4552 ;;      Params:         0       0       0       0       0       0       0       0       0       0       0       0       
      +0       0
  4553 ;;      Locals:         0       0       0       0       0       0       0       0       0       0       0       0       
      +0       0
  4554 ;;      Temps:          0       0       0       0       0       0       0       0       0       0       0       0       
      +0       0
  4555 ;;      Totals:         0       0       0       0       0       0       0       0       0       0       0       0       
      +0       0
  4556 ;;Total ram usage:        0 bytes
  4557 ;; Hardware stack levels used: 1
  4558 ;; Hardware stack levels required when called: 6
  4559 ;; This function calls:
  4560 ;;		_TMR1_SetInterruptHandler
  4561 ;; This function is called by:
  4562 ;;		_SYSTEM_Initialize
  4563 ;;		_main
  4564 ;; This function uses a non-reentrant model
  4565 ;;
  4566                           
  4567                           
  4568                           ;psect for function _TMR1_Initialize
  4569  0DBC                     _TMR1_Initialize:
  4570  0DBC                     l2934:	
  4571                           ;incstack = 0
  4572                           ; Regs used in _TMR1_Initialize: [wreg+status,2+status,0+pclath+cstack]
  4573                           
  4574                           
  4575                           ;mcc_generated_files/tmr1.c: 69:     T1GCON = 0x00;
  4576  0DBC  0144               	movlb	4	; select bank4
  4577  0DBD  018F               	clrf	15	;volatile
  4578                           
  4579                           ;mcc_generated_files/tmr1.c: 72:     T1GATE = 0x00;
  4580  0DBE  0190               	clrf	16	;volatile
  4581  0DBF                     l2936:
  4582                           
  4583                           ;mcc_generated_files/tmr1.c: 75:     T1CLK = 0x04;
  4584  0DBF  3004               	movlw	4
  4585  0DC0  0091               	movwf	17	;volatile
  4586  0DC1                     l2938:
  4587                           
  4588                           ;mcc_generated_files/tmr1.c: 78:     TMR1H = 0xE1;
  4589  0DC1  30E1               	movlw	225
  4590  0DC2  008D               	movwf	13	;volatile
  4591  0DC3                     l2940:
  4592                           
  4593                           ;mcc_generated_files/tmr1.c: 81:     TMR1L = 0xBA;
  4594  0DC3  30BA               	movlw	186
  4595  0DC4  008C               	movwf	12	;volatile
  4596  0DC5                     l2942:
  4597                           
  4598                           ;mcc_generated_files/tmr1.c: 84:     PIR1bits.TMR1IF = 0;
  4599  0DC5  014E               	movlb	14	; select bank14
  4600  0DC6  128D               	bcf	13,5	;volatile
  4601  0DC7                     l2944:
  4602                           
  4603                           ;mcc_generated_files/tmr1.c: 87:     timer1ReloadVal=(uint16_t)((TMR1H << 8) | TMR1L);
  4604  0DC7  0144               	movlb	4	; select bank4
  4605  0DC8  080D               	movf	13,w	;volatile
  4606  0DC9  00FC               	movwf	_timer1ReloadVal+1	;volatile
  4607  0DCA  080C               	movf	12,w	;volatile
  4608  0DCB  00FB               	movwf	_timer1ReloadVal	;volatile
  4609  0DCC                     l2946:
  4610                           
  4611                           ;mcc_generated_files/tmr1.c: 90:     PIE1bits.TMR1IE = 1;
  4612  0DCC  014E               	movlb	14	; select bank14
  4613  0DCD  1697               	bsf	23,5	;volatile
  4614  0DCE                     l2948:
  4615                           
  4616                           ;mcc_generated_files/tmr1.c: 93:     TMR1_SetInterruptHandler(TMR1_DefaultInterruptHandl
      +                          er);
  4617  0DCE  3003               	movlw	low _TMR1_DefaultInterruptHandler
  4618  0DCF  0141               	movlb	1	; select bank1
  4619  0DD0  00A0               	movwf	TMR1_SetInterruptHandler@InterruptHandler^(0+128)
  4620  0DD1  3000               	movlw	high _TMR1_DefaultInterruptHandler
  4621  0DD2  00A1               	movwf	(TMR1_SetInterruptHandler@InterruptHandler^(0+128)+1)
  4622  0DD3  318C  24E4  318D   	fcall	_TMR1_SetInterruptHandler
  4623  0DD6                     l2950:
  4624                           
  4625                           ;mcc_generated_files/tmr1.c: 96:     T1CON = 0x05;
  4626  0DD6  3005               	movlw	5
  4627  0DD7  0144               	movlb	4	; select bank4
  4628  0DD8  008E               	movwf	14	;volatile
  4629  0DD9                     l365:
  4630  0DD9  0008               	return
  4631  0DDA                     __end_of_TMR1_Initialize:
  4632                           
  4633                           	psect	text9
  4634  0CE4                     __ptext9:	
  4635 ;; *************** function _TMR1_SetInterruptHandler *****************
  4636 ;; Defined at:
  4637 ;;		line 178 in file "mcc_generated_files/tmr1.c"
  4638 ;; Parameters:    Size  Location     Type
  4639 ;;  InterruptHan    2    0[BANK1 ] PTR FTN()void 
  4640 ;;		 -> TMR1_ISR_(1), TMR1_DefaultInterruptHandler(1), 
  4641 ;; Auto vars:     Size  Location     Type
  4642 ;;		None
  4643 ;; Return value:  Size  Location     Type
  4644 ;;                  1    wreg      void 
  4645 ;; Registers used:
  4646 ;;		wreg
  4647 ;; Tracked objects:
  4648 ;;		On entry : 0/0
  4649 ;;		On exit  : 0/0
  4650 ;;		Unchanged: 0/0
  4651 ;; Data sizes:     COMMON   BANK0   BANK1   BANK2   BANK3   BANK4   BANK5   BANK6   BANK7   BANK8   BANK9  BANK10  BANK1
      +1  BANK12
  4652 ;;      Params:         0       0       2       0       0       0       0       0       0       0       0       0       
      +0       0
  4653 ;;      Locals:         0       0       0       0       0       0       0       0       0       0       0       0       
      +0       0
  4654 ;;      Temps:          0       0       0       0       0       0       0       0       0       0       0       0       
      +0       0
  4655 ;;      Totals:         0       0       2       0       0       0       0       0       0       0       0       0       
      +0       0
  4656 ;;Total ram usage:        2 bytes
  4657 ;; Hardware stack levels used: 1
  4658 ;; Hardware stack levels required when called: 5
  4659 ;; This function calls:
  4660 ;;		Nothing
  4661 ;; This function is called by:
  4662 ;;		_TMR1_Initialize
  4663 ;;		_main
  4664 ;; This function uses a non-reentrant model
  4665 ;;
  4666                           
  4667                           
  4668                           ;psect for function _TMR1_SetInterruptHandler
  4669  0CE4                     _TMR1_SetInterruptHandler:
  4670  0CE4                     l2870:	
  4671                           ;incstack = 0
  4672                           ; Regs used in _TMR1_SetInterruptHandler: [wreg]
  4673                           
  4674                           
  4675                           ;mcc_generated_files/tmr1.c: 179:     TMR1_InterruptHandler = InterruptHandler;
  4676  0CE4  0141               	movlb	1	; select bank1
  4677  0CE5  0821               	movf	(TMR1_SetInterruptHandler@InterruptHandler+1)^(0+128),w
  4678  0CE6  0140               	movlb	0	; select bank0
  4679  0CE7  00C3               	movwf	_TMR1_InterruptHandler+1
  4680  0CE8  0141               	movlb	1	; select bank1
  4681  0CE9  0820               	movf	TMR1_SetInterruptHandler@InterruptHandler^(0+128),w
  4682  0CEA  0140               	movlb	0	; select bank0
  4683  0CEB  00C2               	movwf	_TMR1_InterruptHandler
  4684  0CEC                     l395:
  4685  0CEC  0008               	return
  4686  0CED                     __end_of_TMR1_SetInterruptHandler:
  4687                           
  4688                           	psect	text10
  4689  0D9F                     __ptext10:	
  4690 ;; *************** function _TMR0_Initialize *****************
  4691 ;; Defined at:
  4692 ;;		line 66 in file "mcc_generated_files/tmr0.c"
  4693 ;; Parameters:    Size  Location     Type
  4694 ;;		None
  4695 ;; Auto vars:     Size  Location     Type
  4696 ;;		None
  4697 ;; Return value:  Size  Location     Type
  4698 ;;                  1    wreg      void 
  4699 ;; Registers used:
  4700 ;;		wreg, status,2, status,0, pclath, cstack
  4701 ;; Tracked objects:
  4702 ;;		On entry : 0/0
  4703 ;;		On exit  : 0/0
  4704 ;;		Unchanged: 0/0
  4705 ;; Data sizes:     COMMON   BANK0   BANK1   BANK2   BANK3   BANK4   BANK5   BANK6   BANK7   BANK8   BANK9  BANK10  BANK1
      +1  BANK12
  4706 ;;      Params:         0       0       0       0       0       0       0       0       0       0       0       0       
      +0       0
  4707 ;;      Locals:         0       0       0       0       0       0       0       0       0       0       0       0       
      +0       0
  4708 ;;      Temps:          0       0       0       0       0       0       0       0       0       0       0       0       
      +0       0
  4709 ;;      Totals:         0       0       0       0       0       0       0       0       0       0       0       0       
      +0       0
  4710 ;;Total ram usage:        0 bytes
  4711 ;; Hardware stack levels used: 1
  4712 ;; Hardware stack levels required when called: 6
  4713 ;; This function calls:
  4714 ;;		_TMR0_SetInterruptHandler
  4715 ;; This function is called by:
  4716 ;;		_SYSTEM_Initialize
  4717 ;;		_main
  4718 ;; This function uses a non-reentrant model
  4719 ;;
  4720                           
  4721                           
  4722                           ;psect for function _TMR0_Initialize
  4723  0D9F                     _TMR0_Initialize:
  4724  0D9F                     l2958:	
  4725                           ;incstack = 0
  4726                           ; Regs used in _TMR0_Initialize: [wreg+status,2+status,0+pclath+cstack]
  4727                           
  4728                           
  4729                           ;mcc_generated_files/tmr0.c: 71:     T0CON1 = 0x90;
  4730  0D9F  3090               	movlw	144
  4731  0DA0  014B               	movlb	11	; select bank11
  4732  0DA1  009F               	movwf	31	;volatile
  4733                           
  4734                           ;mcc_generated_files/tmr0.c: 74:     TMR0H = 0x86;
  4735  0DA2  3086               	movlw	134
  4736  0DA3  009D               	movwf	29	;volatile
  4737                           
  4738                           ;mcc_generated_files/tmr0.c: 77:     TMR0L = 0xE8;
  4739  0DA4  30E8               	movlw	232
  4740  0DA5  009C               	movwf	28	;volatile
  4741                           
  4742                           ;mcc_generated_files/tmr0.c: 80:     timer0ReloadVal16bit = (TMR0H << 8) | TMR0L;
  4743  0DA6  081D               	movf	29,w	;volatile
  4744  0DA7  0140               	movlb	0	; select bank0
  4745  0DA8  00C7               	movwf	_timer0ReloadVal16bit+1	;volatile
  4746  0DA9  014B               	movlb	11	; select bank11
  4747  0DAA  081C               	movf	28,w	;volatile
  4748  0DAB  0140               	movlb	0	; select bank0
  4749  0DAC  00C6               	movwf	_timer0ReloadVal16bit	;volatile
  4750  0DAD                     l2960:
  4751                           
  4752                           ;mcc_generated_files/tmr0.c: 83:     PIR0bits.TMR0IF = 0;
  4753  0DAD  014E               	movlb	14	; select bank14
  4754  0DAE  128C               	bcf	12,5	;volatile
  4755  0DAF                     l2962:
  4756                           
  4757                           ;mcc_generated_files/tmr0.c: 86:     PIE0bits.TMR0IE = 1;
  4758  0DAF  1696               	bsf	22,5	;volatile
  4759  0DB0                     l2964:
  4760                           
  4761                           ;mcc_generated_files/tmr0.c: 89:     TMR0_SetInterruptHandler(TMR0_DefaultInterruptHandl
      +                          er);
  4762  0DB0  3002               	movlw	low _TMR0_DefaultInterruptHandler
  4763  0DB1  0141               	movlb	1	; select bank1
  4764  0DB2  00A0               	movwf	TMR0_SetInterruptHandler@InterruptHandler^(0+128)
  4765  0DB3  3000               	movlw	high _TMR0_DefaultInterruptHandler
  4766  0DB4  00A1               	movwf	(TMR0_SetInterruptHandler@InterruptHandler^(0+128)+1)
  4767  0DB5  318C  24DB  318D   	fcall	_TMR0_SetInterruptHandler
  4768  0DB8                     l2966:
  4769                           
  4770                           ;mcc_generated_files/tmr0.c: 92:     T0CON0 = 0x90;
  4771  0DB8  3090               	movlw	144
  4772  0DB9  014B               	movlb	11	; select bank11
  4773  0DBA  009E               	movwf	30	;volatile
  4774  0DBB                     l309:
  4775  0DBB  0008               	return
  4776  0DBC                     __end_of_TMR0_Initialize:
  4777                           
  4778                           	psect	text11
  4779  0CDB                     __ptext11:	
  4780 ;; *************** function _TMR0_SetInterruptHandler *****************
  4781 ;; Defined at:
  4782 ;;		line 151 in file "mcc_generated_files/tmr0.c"
  4783 ;; Parameters:    Size  Location     Type
  4784 ;;  InterruptHan    2    0[BANK1 ] PTR FTN()void 
  4785 ;;		 -> TMR0_ISR_(1), TMR0_DefaultInterruptHandler(1), 
  4786 ;; Auto vars:     Size  Location     Type
  4787 ;;		None
  4788 ;; Return value:  Size  Location     Type
  4789 ;;                  1    wreg      void 
  4790 ;; Registers used:
  4791 ;;		wreg
  4792 ;; Tracked objects:
  4793 ;;		On entry : 0/0
  4794 ;;		On exit  : 0/0
  4795 ;;		Unchanged: 0/0
  4796 ;; Data sizes:     COMMON   BANK0   BANK1   BANK2   BANK3   BANK4   BANK5   BANK6   BANK7   BANK8   BANK9  BANK10  BANK1
      +1  BANK12
  4797 ;;      Params:         0       0       2       0       0       0       0       0       0       0       0       0       
      +0       0
  4798 ;;      Locals:         0       0       0       0       0       0       0       0       0       0       0       0       
      +0       0
  4799 ;;      Temps:          0       0       0       0       0       0       0       0       0       0       0       0       
      +0       0
  4800 ;;      Totals:         0       0       2       0       0       0       0       0       0       0       0       0       
      +0       0
  4801 ;;Total ram usage:        2 bytes
  4802 ;; Hardware stack levels used: 1
  4803 ;; Hardware stack levels required when called: 5
  4804 ;; This function calls:
  4805 ;;		Nothing
  4806 ;; This function is called by:
  4807 ;;		_TMR0_Initialize
  4808 ;;		_main
  4809 ;; This function uses a non-reentrant model
  4810 ;;
  4811                           
  4812                           
  4813                           ;psect for function _TMR0_SetInterruptHandler
  4814  0CDB                     _TMR0_SetInterruptHandler:
  4815  0CDB                     l2868:	
  4816                           ;incstack = 0
  4817                           ; Regs used in _TMR0_SetInterruptHandler: [wreg]
  4818                           
  4819                           
  4820                           ;mcc_generated_files/tmr0.c: 152:     TMR0_InterruptHandler = InterruptHandler;
  4821  0CDB  0141               	movlb	1	; select bank1
  4822  0CDC  0821               	movf	(TMR0_SetInterruptHandler@InterruptHandler+1)^(0+128),w
  4823  0CDD  0140               	movlb	0	; select bank0
  4824  0CDE  00C5               	movwf	_TMR0_InterruptHandler+1
  4825  0CDF  0141               	movlb	1	; select bank1
  4826  0CE0  0820               	movf	TMR0_SetInterruptHandler@InterruptHandler^(0+128),w
  4827  0CE1  0140               	movlb	0	; select bank0
  4828  0CE2  00C4               	movwf	_TMR0_InterruptHandler
  4829  0CE3                     l331:
  4830  0CE3  0008               	return
  4831  0CE4                     __end_of_TMR0_SetInterruptHandler:
  4832                           
  4833                           	psect	text12
  4834  0D41                     __ptext12:	
  4835 ;; *************** function _SPI1_Initialize *****************
  4836 ;; Defined at:
  4837 ;;		line 62 in file "mcc_generated_files/spi1.c"
  4838 ;; Parameters:    Size  Location     Type
  4839 ;;		None
  4840 ;; Auto vars:     Size  Location     Type
  4841 ;;		None
  4842 ;; Return value:  Size  Location     Type
  4843 ;;                  1    wreg      void 
  4844 ;; Registers used:
  4845 ;;		wreg, status,2
  4846 ;; Tracked objects:
  4847 ;;		On entry : 0/0
  4848 ;;		On exit  : 0/0
  4849 ;;		Unchanged: 0/0
  4850 ;; Data sizes:     COMMON   BANK0   BANK1   BANK2   BANK3   BANK4   BANK5   BANK6   BANK7   BANK8   BANK9  BANK10  BANK1
      +1  BANK12
  4851 ;;      Params:         0       0       0       0       0       0       0       0       0       0       0       0       
      +0       0
  4852 ;;      Locals:         0       0       0       0       0       0       0       0       0       0       0       0       
      +0       0
  4853 ;;      Temps:          0       0       0       0       0       0       0       0       0       0       0       0       
      +0       0
  4854 ;;      Totals:         0       0       0       0       0       0       0       0       0       0       0       0       
      +0       0
  4855 ;;Total ram usage:        0 bytes
  4856 ;; Hardware stack levels used: 1
  4857 ;; Hardware stack levels required when called: 5
  4858 ;; This function calls:
  4859 ;;		Nothing
  4860 ;; This function is called by:
  4861 ;;		_SYSTEM_Initialize
  4862 ;;		_main
  4863 ;; This function uses a non-reentrant model
  4864 ;;
  4865                           
  4866                           
  4867                           ;psect for function _SPI1_Initialize
  4868  0D41                     _SPI1_Initialize:
  4869  0D41                     l2872:	
  4870                           ;incstack = 0
  4871                           ; Regs used in _SPI1_Initialize: [wreg+status,2]
  4872                           
  4873                           
  4874                           ;mcc_generated_files/spi1.c: 65:     SSP1CLKPPS = 21;
  4875  0D41  3015               	movlw	21
  4876  0D42  017D               	movlb	61	; select bank61
  4877  0D43  00C5               	movwf	69	;volatile
  4878                           
  4879                           ;mcc_generated_files/spi1.c: 66:     SSP1DATPPS = 4;
  4880  0D44  3004               	movlw	4
  4881  0D45  00C6               	movwf	70	;volatile
  4882                           
  4883                           ;mcc_generated_files/spi1.c: 67:     RC5PPS = 7;
  4884  0D46  3007               	movlw	7
  4885  0D47  017E               	movlb	62	; select bank62
  4886  0D48  00A5               	movwf	37	;volatile
  4887                           
  4888                           ;mcc_generated_files/spi1.c: 68:     RC3PPS = 8;
  4889  0D49  3008               	movlw	8
  4890  0D4A  00A3               	movwf	35	;volatile
  4891                           
  4892                           ;mcc_generated_files/spi1.c: 70:     SSP1STAT = 0x40;
  4893  0D4B  3040               	movlw	64
  4894  0D4C  0143               	movlb	3	; select bank3
  4895  0D4D  008F               	movwf	15	;volatile
  4896  0D4E                     l2874:
  4897                           
  4898                           ;mcc_generated_files/spi1.c: 71:     SSP1CON1 = 0x00;
  4899  0D4E  0190               	clrf	16	;volatile
  4900  0D4F                     l2876:
  4901                           
  4902                           ;mcc_generated_files/spi1.c: 72:     SSP1ADD = 0x01;
  4903  0D4F  3001               	movlw	1
  4904  0D50  008D               	movwf	13	;volatile
  4905  0D51                     l2878:
  4906                           
  4907                           ;mcc_generated_files/spi1.c: 73:     TRISCbits.TRISC5 = 0;
  4908  0D51  0140               	movlb	0	; select bank0
  4909  0D52  1294               	bcf	20,5	;volatile
  4910  0D53                     l2880:
  4911                           
  4912                           ;mcc_generated_files/spi1.c: 74:     SSP1CON1bits.SSPEN = 0;
  4913  0D53  0143               	movlb	3	; select bank3
  4914  0D54  1290               	bcf	16,5	;volatile
  4915  0D55                     l64:
  4916  0D55  0008               	return
  4917  0D56                     __end_of_SPI1_Initialize:
  4918                           
  4919                           	psect	text13
  4920  0CC1                     __ptext13:	
  4921 ;; *************** function _PWM3_Initialize *****************
  4922 ;; Defined at:
  4923 ;;		line 58 in file "mcc_generated_files/pwm3.c"
  4924 ;; Parameters:    Size  Location     Type
  4925 ;;		None
  4926 ;; Auto vars:     Size  Location     Type
  4927 ;;		None
  4928 ;; Return value:  Size  Location     Type
  4929 ;;                  1    wreg      void 
  4930 ;; Registers used:
  4931 ;;		wreg
  4932 ;; Tracked objects:
  4933 ;;		On entry : 0/0
  4934 ;;		On exit  : 0/0
  4935 ;;		Unchanged: 0/0
  4936 ;; Data sizes:     COMMON   BANK0   BANK1   BANK2   BANK3   BANK4   BANK5   BANK6   BANK7   BANK8   BANK9  BANK10  BANK1
      +1  BANK12
  4937 ;;      Params:         0       0       0       0       0       0       0       0       0       0       0       0       
      +0       0
  4938 ;;      Locals:         0       0       0       0       0       0       0       0       0       0       0       0       
      +0       0
  4939 ;;      Temps:          0       0       0       0       0       0       0       0       0       0       0       0       
      +0       0
  4940 ;;      Totals:         0       0       0       0       0       0       0       0       0       0       0       0       
      +0       0
  4941 ;;Total ram usage:        0 bytes
  4942 ;; Hardware stack levels used: 1
  4943 ;; Hardware stack levels required when called: 5
  4944 ;; This function calls:
  4945 ;;		Nothing
  4946 ;; This function is called by:
  4947 ;;		_SYSTEM_Initialize
  4948 ;;		_main
  4949 ;; This function uses a non-reentrant model
  4950 ;;
  4951                           
  4952                           
  4953                           ;psect for function _PWM3_Initialize
  4954  0CC1                     _PWM3_Initialize:
  4955  0CC1                     l2920:	
  4956                           ;incstack = 0
  4957                           ; Regs used in _PWM3_Initialize: [wreg]
  4958                           
  4959                           
  4960                           ;mcc_generated_files/pwm3.c: 62:     PWM3CON = 0x80;
  4961  0CC1  3080               	movlw	128
  4962  0CC2  0146               	movlb	6	; select bank6
  4963  0CC3  0096               	movwf	22	;volatile
  4964                           
  4965                           ;mcc_generated_files/pwm3.c: 65:     PWM3DCH = 0x7F;
  4966  0CC4  307F               	movlw	127
  4967  0CC5  0095               	movwf	21	;volatile
  4968                           
  4969                           ;mcc_generated_files/pwm3.c: 68:     PWM3DCL = 0xC0;
  4970  0CC6  30C0               	movlw	192
  4971  0CC7  0094               	movwf	20	;volatile
  4972  0CC8                     l226:
  4973  0CC8  0008               	return
  4974  0CC9                     __end_of_PWM3_Initialize:
  4975                           
  4976                           	psect	text14
  4977  07C8                     __ptext14:	
  4978 ;; *************** function _PIN_MANAGER_Initialize *****************
  4979 ;; Defined at:
  4980 ;;		line 55 in file "mcc_generated_files/pin_manager.c"
  4981 ;; Parameters:    Size  Location     Type
  4982 ;;		None
  4983 ;; Auto vars:     Size  Location     Type
  4984 ;;		None
  4985 ;; Return value:  Size  Location     Type
  4986 ;;                  1    wreg      void 
  4987 ;; Registers used:
  4988 ;;		wreg, status,2
  4989 ;; Tracked objects:
  4990 ;;		On entry : 0/0
  4991 ;;		On exit  : 0/0
  4992 ;;		Unchanged: 0/0
  4993 ;; Data sizes:     COMMON   BANK0   BANK1   BANK2   BANK3   BANK4   BANK5   BANK6   BANK7   BANK8   BANK9  BANK10  BANK1
      +1  BANK12
  4994 ;;      Params:         0       0       0       0       0       0       0       0       0       0       0       0       
      +0       0
  4995 ;;      Locals:         0       0       0       0       0       0       0       0       0       0       0       0       
      +0       0
  4996 ;;      Temps:          0       0       0       0       0       0       0       0       0       0       0       0       
      +0       0
  4997 ;;      Totals:         0       0       0       0       0       0       0       0       0       0       0       0       
      +0       0
  4998 ;;Total ram usage:        0 bytes
  4999 ;; Hardware stack levels used: 1
  5000 ;; Hardware stack levels required when called: 5
  5001 ;; This function calls:
  5002 ;;		Nothing
  5003 ;; This function is called by:
  5004 ;;		_SYSTEM_Initialize
  5005 ;; This function uses a non-reentrant model
  5006 ;;
  5007                           
  5008                           
  5009                           ;psect for function _PIN_MANAGER_Initialize
  5010  07C8                     _PIN_MANAGER_Initialize:
  5011  07C8                     l2882:	
  5012                           ;incstack = 0
  5013                           ; Regs used in _PIN_MANAGER_Initialize: [wreg+status,2]
  5014                           
  5015                           
  5016                           ;mcc_generated_files/pin_manager.c: 60:     LATA = 0x00;
  5017  07C8  0140               	movlb	0	; select bank0
  5018  07C9  0198               	clrf	24	;volatile
  5019                           
  5020                           ;mcc_generated_files/pin_manager.c: 61:     LATC = 0x00;
  5021  07CA  019A               	clrf	26	;volatile
  5022  07CB                     l2884:
  5023                           
  5024                           ;mcc_generated_files/pin_manager.c: 66:     TRISA = 0x1F;
  5025  07CB  301F               	movlw	31
  5026  07CC  0092               	movwf	18	;volatile
  5027  07CD                     l2886:
  5028                           
  5029                           ;mcc_generated_files/pin_manager.c: 67:     TRISC = 0x02;
  5030  07CD  3002               	movlw	2
  5031  07CE  0094               	movwf	20	;volatile
  5032  07CF                     l2888:
  5033                           
  5034                           ;mcc_generated_files/pin_manager.c: 72:     ANSELC = 0x1F;
  5035  07CF  301F               	movlw	31
  5036  07D0  017E               	movlb	62	; select bank62
  5037  07D1  00CE               	movwf	78	;volatile
  5038  07D2                     l2890:
  5039                           
  5040                           ;mcc_generated_files/pin_manager.c: 73:     ANSELA = 0x23;
  5041  07D2  3023               	movlw	35
  5042  07D3  00B8               	movwf	56	;volatile
  5043                           
  5044                           ;mcc_generated_files/pin_manager.c: 78:     WPUA = 0x00;
  5045  07D4  01B9               	clrf	57	;volatile
  5046                           
  5047                           ;mcc_generated_files/pin_manager.c: 79:     WPUC = 0x00;
  5048  07D5  01CF               	clrf	79	;volatile
  5049                           
  5050                           ;mcc_generated_files/pin_manager.c: 84:     ODCONA = 0x00;
  5051  07D6  01BA               	clrf	58	;volatile
  5052                           
  5053                           ;mcc_generated_files/pin_manager.c: 85:     ODCONC = 0x00;
  5054  07D7  01D0               	clrf	80	;volatile
  5055  07D8                     l2892:
  5056                           
  5057                           ;mcc_generated_files/pin_manager.c: 90:     SLRCONA = 0x37;
  5058  07D8  3037               	movlw	55
  5059  07D9  00BB               	movwf	59	;volatile
  5060  07DA                     l2894:
  5061                           
  5062                           ;mcc_generated_files/pin_manager.c: 91:     SLRCONC = 0x3F;
  5063  07DA  303F               	movlw	63
  5064  07DB  00D1               	movwf	81	;volatile
  5065  07DC                     l2896:
  5066                           
  5067                           ;mcc_generated_files/pin_manager.c: 96:     INLVLA = 0x3F;
  5068  07DC  303F               	movlw	63
  5069  07DD  00BC               	movwf	60	;volatile
  5070  07DE                     l2898:
  5071                           
  5072                           ;mcc_generated_files/pin_manager.c: 97:     INLVLC = 0x3F;
  5073  07DE  303F               	movlw	63
  5074  07DF  00D2               	movwf	82	;volatile
  5075  07E0                     l2900:
  5076                           
  5077                           ;mcc_generated_files/pin_manager.c: 106:     INTPPS = 0x02;
  5078  07E0  3002               	movlw	2
  5079  07E1  017D               	movlb	61	; select bank61
  5080  07E2  0090               	movwf	16	;volatile
  5081  07E3                     l2902:
  5082                           
  5083                           ;mcc_generated_files/pin_manager.c: 107:     SSP1CLKPPS = 0x15;
  5084  07E3  3015               	movlw	21
  5085  07E4  00C5               	movwf	69	;volatile
  5086  07E5                     l2904:
  5087                           
  5088                           ;mcc_generated_files/pin_manager.c: 108:     RC3PPS = 0x08;
  5089  07E5  3008               	movlw	8
  5090  07E6  017E               	movlb	62	; select bank62
  5091  07E7  00A3               	movwf	35	;volatile
  5092  07E8                     l2906:
  5093                           
  5094                           ;mcc_generated_files/pin_manager.c: 109:     RA5PPS = 0x03;
  5095  07E8  3003               	movlw	3
  5096  07E9  0095               	movwf	21	;volatile
  5097  07EA                     l2908:
  5098                           
  5099                           ;mcc_generated_files/pin_manager.c: 110:     RC5PPS = 0x07;
  5100  07EA  3007               	movlw	7
  5101  07EB  00A5               	movwf	37	;volatile
  5102  07EC                     l2910:
  5103                           
  5104                           ;mcc_generated_files/pin_manager.c: 111:     SSP1DATPPS = 0x04;
  5105  07EC  3004               	movlw	4
  5106  07ED  017D               	movlb	61	; select bank61
  5107  07EE  00C6               	movwf	70	;volatile
  5108  07EF                     l147:
  5109  07EF  0008               	return
  5110  07F0                     __end_of_PIN_MANAGER_Initialize:
  5111                           
  5112                           	psect	text15
  5113  0CAE                     __ptext15:	
  5114 ;; *************** function _OSCILLATOR_Initialize *****************
  5115 ;; Defined at:
  5116 ;;		line 64 in file "mcc_generated_files/mcc.c"
  5117 ;; Parameters:    Size  Location     Type
  5118 ;;		None
  5119 ;; Auto vars:     Size  Location     Type
  5120 ;;		None
  5121 ;; Return value:  Size  Location     Type
  5122 ;;                  1    wreg      void 
  5123 ;; Registers used:
  5124 ;;		wreg, status,2
  5125 ;; Tracked objects:
  5126 ;;		On entry : 0/0
  5127 ;;		On exit  : 0/0
  5128 ;;		Unchanged: 0/0
  5129 ;; Data sizes:     COMMON   BANK0   BANK1   BANK2   BANK3   BANK4   BANK5   BANK6   BANK7   BANK8   BANK9  BANK10  BANK1
      +1  BANK12
  5130 ;;      Params:         0       0       0       0       0       0       0       0       0       0       0       0       
      +0       0
  5131 ;;      Locals:         0       0       0       0       0       0       0       0       0       0       0       0       
      +0       0
  5132 ;;      Temps:          0       0       0       0       0       0       0       0       0       0       0       0       
      +0       0
  5133 ;;      Totals:         0       0       0       0       0       0       0       0       0       0       0       0       
      +0       0
  5134 ;;Total ram usage:        0 bytes
  5135 ;; Hardware stack levels used: 1
  5136 ;; Hardware stack levels required when called: 5
  5137 ;; This function calls:
  5138 ;;		Nothing
  5139 ;; This function is called by:
  5140 ;;		_SYSTEM_Initialize
  5141 ;; This function uses a non-reentrant model
  5142 ;;
  5143                           
  5144                           
  5145                           ;psect for function _OSCILLATOR_Initialize
  5146  0CAE                     _OSCILLATOR_Initialize:
  5147  0CAE                     l2912:	
  5148                           ;incstack = 0
  5149                           ; Regs used in _OSCILLATOR_Initialize: [wreg+status,2]
  5150                           
  5151                           
  5152                           ;mcc_generated_files/mcc.c: 67:     OSCEN = 0x00;
  5153  0CAE  0151               	movlb	17	; select bank17
  5154  0CAF  0191               	clrf	17	;volatile
  5155  0CB0                     l2914:
  5156                           
  5157                           ;mcc_generated_files/mcc.c: 69:     OSCFRQ = 0x03;
  5158  0CB0  3003               	movlw	3
  5159  0CB1  0093               	movwf	19	;volatile
  5160  0CB2                     l2916:
  5161                           
  5162                           ;mcc_generated_files/mcc.c: 71:     OSCTUNE = 0x00;
  5163  0CB2  0192               	clrf	18	;volatile
  5164  0CB3                     l32:
  5165  0CB3  0008               	return
  5166  0CB4                     __end_of_OSCILLATOR_Initialize:
  5167                           
  5168                           	psect	text16
  5169  0D06                     __ptext16:	
  5170 ;; *************** function _EXT_INT_Initialize *****************
  5171 ;; Defined at:
  5172 ;;		line 72 in file "mcc_generated_files/ext_int.c"
  5173 ;; Parameters:    Size  Location     Type
  5174 ;;		None
  5175 ;; Auto vars:     Size  Location     Type
  5176 ;;		None
  5177 ;; Return value:  Size  Location     Type
  5178 ;;                  1    wreg      void 
  5179 ;; Registers used:
  5180 ;;		wreg, status,2, status,0, pclath, cstack
  5181 ;; Tracked objects:
  5182 ;;		On entry : 0/0
  5183 ;;		On exit  : 0/0
  5184 ;;		Unchanged: 0/0
  5185 ;; Data sizes:     COMMON   BANK0   BANK1   BANK2   BANK3   BANK4   BANK5   BANK6   BANK7   BANK8   BANK9  BANK10  BANK1
      +1  BANK12
  5186 ;;      Params:         0       0       0       0       0       0       0       0       0       0       0       0       
      +0       0
  5187 ;;      Locals:         0       0       0       0       0       0       0       0       0       0       0       0       
      +0       0
  5188 ;;      Temps:          0       0       0       0       0       0       0       0       0       0       0       0       
      +0       0
  5189 ;;      Totals:         0       0       0       0       0       0       0       0       0       0       0       0       
      +0       0
  5190 ;;Total ram usage:        0 bytes
  5191 ;; Hardware stack levels used: 1
  5192 ;; Hardware stack levels required when called: 6
  5193 ;; This function calls:
  5194 ;;		_INT_SetInterruptHandler
  5195 ;; This function is called by:
  5196 ;;		_SYSTEM_Initialize
  5197 ;;		_main
  5198 ;; This function uses a non-reentrant model
  5199 ;;
  5200                           
  5201                           
  5202                           ;psect for function _EXT_INT_Initialize
  5203  0D06                     _EXT_INT_Initialize:
  5204  0D06                     l2952:	
  5205                           ;incstack = 0
  5206                           ; Regs used in _EXT_INT_Initialize: [wreg+status,2+status,0+pclath+cstack]
  5207                           
  5208                           
  5209                           ;mcc_generated_files/ext_int.c: 77:     (PIR0bits.INTF = 0);
  5210  0D06  014E               	movlb	14	; select bank14
  5211  0D07  100C               	bcf	12,0	;volatile
  5212                           
  5213                           ;mcc_generated_files/ext_int.c: 78:     (INTCONbits.INTEDG = 1);
  5214  0D08  140B               	bsf	11,0	;volatile
  5215  0D09                     l2954:
  5216                           
  5217                           ;mcc_generated_files/ext_int.c: 80:     INT_SetInterruptHandler(INT_DefaultInterruptHand
      +                          ler);
  5218  0D09  30A0               	movlw	low _INT_DefaultInterruptHandler
  5219  0D0A  0141               	movlb	1	; select bank1
  5220  0D0B  00A0               	movwf	INT_SetInterruptHandler@InterruptHandler^(0+128)
  5221  0D0C  300C               	movlw	high _INT_DefaultInterruptHandler
  5222  0D0D  00A1               	movwf	(INT_SetInterruptHandler@InterruptHandler^(0+128)+1)
  5223  0D0E  318C  24D2  318D   	fcall	_INT_SetInterruptHandler
  5224  0D11                     l2956:
  5225                           
  5226                           ;mcc_generated_files/ext_int.c: 81:     (PIE0bits.INTE = 1);
  5227  0D11  014E               	movlb	14	; select bank14
  5228  0D12  1416               	bsf	22,0	;volatile
  5229  0D13                     l284:
  5230  0D13  0008               	return
  5231  0D14                     __end_of_EXT_INT_Initialize:
  5232                           
  5233                           	psect	text17
  5234  0CD2                     __ptext17:	
  5235 ;; *************** function _INT_SetInterruptHandler *****************
  5236 ;; Defined at:
  5237 ;;		line 63 in file "mcc_generated_files/ext_int.c"
  5238 ;; Parameters:    Size  Location     Type
  5239 ;;  InterruptHan    2    0[BANK1 ] PTR FTN()void 
  5240 ;;		 -> EXT_ISR(1), INT_DefaultInterruptHandler(1), 
  5241 ;; Auto vars:     Size  Location     Type
  5242 ;;		None
  5243 ;; Return value:  Size  Location     Type
  5244 ;;                  1    wreg      void 
  5245 ;; Registers used:
  5246 ;;		wreg
  5247 ;; Tracked objects:
  5248 ;;		On entry : 0/0
  5249 ;;		On exit  : 0/0
  5250 ;;		Unchanged: 0/0
  5251 ;; Data sizes:     COMMON   BANK0   BANK1   BANK2   BANK3   BANK4   BANK5   BANK6   BANK7   BANK8   BANK9  BANK10  BANK1
      +1  BANK12
  5252 ;;      Params:         0       0       2       0       0       0       0       0       0       0       0       0       
      +0       0
  5253 ;;      Locals:         0       0       0       0       0       0       0       0       0       0       0       0       
      +0       0
  5254 ;;      Temps:          0       0       0       0       0       0       0       0       0       0       0       0       
      +0       0
  5255 ;;      Totals:         0       0       2       0       0       0       0       0       0       0       0       0       
      +0       0
  5256 ;;Total ram usage:        2 bytes
  5257 ;; Hardware stack levels used: 1
  5258 ;; Hardware stack levels required when called: 5
  5259 ;; This function calls:
  5260 ;;		Nothing
  5261 ;; This function is called by:
  5262 ;;		_EXT_INT_Initialize
  5263 ;;		_main
  5264 ;; This function uses a non-reentrant model
  5265 ;;
  5266                           
  5267                           
  5268                           ;psect for function _INT_SetInterruptHandler
  5269  0CD2                     _INT_SetInterruptHandler:
  5270  0CD2                     l2866:	
  5271                           ;incstack = 0
  5272                           ; Regs used in _INT_SetInterruptHandler: [wreg]
  5273                           
  5274                           
  5275                           ;mcc_generated_files/ext_int.c: 64:     INT_InterruptHandler = InterruptHandler;
  5276  0CD2  0141               	movlb	1	; select bank1
  5277  0CD3  0821               	movf	(INT_SetInterruptHandler@InterruptHandler+1)^(0+128),w
  5278  0CD4  0140               	movlb	0	; select bank0
  5279  0CD5  00C9               	movwf	_INT_InterruptHandler+1
  5280  0CD6  0141               	movlb	1	; select bank1
  5281  0CD7  0820               	movf	INT_SetInterruptHandler@InterruptHandler^(0+128),w
  5282  0CD8  0140               	movlb	0	; select bank0
  5283  0CD9  00C8               	movwf	_INT_InterruptHandler
  5284  0CDA                     l278:
  5285  0CDA  0008               	return
  5286  0CDB                     __end_of_INT_SetInterruptHandler:
  5287                           
  5288                           	psect	intentry
  5289  0004                     __pintentry:	
  5290 ;; *************** function _INTERRUPT_InterruptManager *****************
  5291 ;; Defined at:
  5292 ;;		line 52 in file "mcc_generated_files/interrupt_manager.c"
  5293 ;; Parameters:    Size  Location     Type
  5294 ;;		None
  5295 ;; Auto vars:     Size  Location     Type
  5296 ;;		None
  5297 ;; Return value:  Size  Location     Type
  5298 ;;                  1    wreg      void 
  5299 ;; Registers used:
  5300 ;;		wreg, fsr0l, fsr0h, fsr1l, fsr1h, status,2, status,0, pclath, cstack
  5301 ;; Tracked objects:
  5302 ;;		On entry : 0/0
  5303 ;;		On exit  : 0/0
  5304 ;;		Unchanged: 0/0
  5305 ;; Data sizes:     COMMON   BANK0   BANK1   BANK2   BANK3   BANK4   BANK5   BANK6   BANK7   BANK8   BANK9  BANK10  BANK1
      +1  BANK12
  5306 ;;      Params:         0       0       0       0       0       0       0       0       0       0       0       0       
      +0       0
  5307 ;;      Locals:         0       0       0       0       0       0       0       0       0       0       0       0       
      +0       0
  5308 ;;      Temps:          0       0       0       0       0       0       0       0       0       0       0       0       
      +0       0
  5309 ;;      Totals:         0       0       0       0       0       0       0       0       0       0       0       0       
      +0       0
  5310 ;;Total ram usage:        0 bytes
  5311 ;; Hardware stack levels used: 1
  5312 ;; Hardware stack levels required when called: 4
  5313 ;; This function calls:
  5314 ;;		_INT_ISR
  5315 ;;		_TMR0_ISR
  5316 ;;		_TMR1_ISR
  5317 ;; This function is called by:
  5318 ;;		Interrupt level 1
  5319 ;; This function uses a non-reentrant model
  5320 ;;
  5321                           
  5322  0004                     _INTERRUPT_InterruptManager:
  5323                           
  5324                           ;incstack = 0
  5325  0004  147E               	bsf	int$flags,0	;set compiler interrupt flag (level 1)
  5326                           
  5327                           ; Regs used in _INTERRUPT_InterruptManager: [wreg-fsr1h+status,2+status,0+pclath+cstack]
  5328  0005  3180               	pagesel	$
  5329  0006                     i1l2654:
  5330                           
  5331                           ;mcc_generated_files/interrupt_manager.c: 55:     if(PIE0bits.TMR0IE == 1 && PIR0bits.TM
      +                          R0IF == 1)
  5332  0006  014E               	movlb	14	; select bank14
  5333  0007  1E96               	btfss	22,5	;volatile
  5334  0008  280A               	goto	u181_21
  5335  0009  280B               	goto	u181_20
  5336  000A                     u181_21:
  5337  000A  2813               	goto	i1l250
  5338  000B                     u181_20:
  5339  000B                     i1l2656:
  5340  000B  1E8C               	btfss	12,5	;volatile
  5341  000C  280E               	goto	u182_21
  5342  000D  280F               	goto	u182_20
  5343  000E                     u182_21:
  5344  000E  2813               	goto	i1l250
  5345  000F                     u182_20:
  5346  000F                     i1l2658:
  5347                           
  5348                           ;mcc_generated_files/interrupt_manager.c: 56:     {;mcc_generated_files/interrupt_manage
      +                          r.c: 57:         TMR0_ISR();
  5349  000F  318D  256C  3180   	fcall	_TMR0_ISR
  5350                           
  5351                           ;mcc_generated_files/interrupt_manager.c: 58:     }
  5352  0012  282F               	goto	i1l258
  5353  0013                     i1l250:	
  5354                           ;mcc_generated_files/interrupt_manager.c: 59:     else if(PIE0bits.INTE == 1 && PIR0bits
      +                          .INTF == 1)
  5355                           
  5356  0013  1C16               	btfss	22,0	;volatile
  5357  0014  2816               	goto	u183_21
  5358  0015  2817               	goto	u183_20
  5359  0016                     u183_21:
  5360  0016  281F               	goto	i1l252
  5361  0017                     u183_20:
  5362  0017                     i1l2660:
  5363  0017  1C0C               	btfss	12,0	;volatile
  5364  0018  281A               	goto	u184_21
  5365  0019  281B               	goto	u184_20
  5366  001A                     u184_21:
  5367  001A  281F               	goto	i1l252
  5368  001B                     u184_20:
  5369  001B                     i1l2662:
  5370                           
  5371                           ;mcc_generated_files/interrupt_manager.c: 60:     {;mcc_generated_files/interrupt_manage
      +                          r.c: 61:         INT_ISR();
  5372  001B  318C  24A8  3180   	fcall	_INT_ISR
  5373                           
  5374                           ;mcc_generated_files/interrupt_manager.c: 62:     }
  5375  001E  282F               	goto	i1l258
  5376  001F                     i1l252:	
  5377                           ;mcc_generated_files/interrupt_manager.c: 63:     else if(INTCONbits.PEIE == 1)
  5378                           
  5379  001F  1F0B               	btfss	11,6	;volatile
  5380  0020  2822               	goto	u185_21
  5381  0021  2823               	goto	u185_20
  5382  0022                     u185_21:
  5383  0022  282F               	goto	i1l253
  5384  0023                     u185_20:
  5385  0023                     i1l2664:
  5386                           
  5387                           ;mcc_generated_files/interrupt_manager.c: 64:     {;mcc_generated_files/interrupt_manage
      +                          r.c: 65:         if(PIE1bits.TMR1IE == 1 && PIR1bits.TMR1IF == 1)
  5388  0023  1E97               	btfss	23,5	;volatile
  5389  0024  2826               	goto	u186_21
  5390  0025  2827               	goto	u186_20
  5391  0026                     u186_21:
  5392  0026  282F               	goto	i1l253
  5393  0027                     u186_20:
  5394  0027                     i1l2666:
  5395  0027  1E8D               	btfss	13,5	;volatile
  5396  0028  282A               	goto	u187_21
  5397  0029  282B               	goto	u187_20
  5398  002A                     u187_21:
  5399  002A  282F               	goto	i1l253
  5400  002B                     u187_20:
  5401  002B                     i1l2668:
  5402                           
  5403                           ;mcc_generated_files/interrupt_manager.c: 66:         {;mcc_generated_files/interrupt_ma
      +                          nager.c: 67:             TMR1_ISR();
  5404  002B  318D  2556  3180   	fcall	_TMR1_ISR
  5405                           
  5406                           ;mcc_generated_files/interrupt_manager.c: 68:         }
  5407  002E  282F               	goto	i1l258
  5408  002F                     i1l253:
  5409  002F                     i1l258:
  5410  002F  107E               	bcf	int$flags,0	;clear compiler interrupt flag (level 1)
  5411  0030  0009               	retfie
  5412  0031                     __end_of_INTERRUPT_InterruptManager:
  5413                           
  5414                           	psect	text19
  5415  0D56                     __ptext19:	
  5416 ;; *************** function _TMR1_ISR *****************
  5417 ;; Defined at:
  5418 ;;		line 164 in file "mcc_generated_files/tmr1.c"
  5419 ;; Parameters:    Size  Location     Type
  5420 ;;		None
  5421 ;; Auto vars:     Size  Location     Type
  5422 ;;		None
  5423 ;; Return value:  Size  Location     Type
  5424 ;;                  1    wreg      void 
  5425 ;; Registers used:
  5426 ;;		wreg, fsr0l, fsr0h, fsr1l, fsr1h, status,2, status,0, pclath, cstack
  5427 ;; Tracked objects:
  5428 ;;		On entry : 0/0
  5429 ;;		On exit  : 0/0
  5430 ;;		Unchanged: 0/0
  5431 ;; Data sizes:     COMMON   BANK0   BANK1   BANK2   BANK3   BANK4   BANK5   BANK6   BANK7   BANK8   BANK9  BANK10  BANK1
      +1  BANK12
  5432 ;;      Params:         0       0       0       0       0       0       0       0       0       0       0       0       
      +0       0
  5433 ;;      Locals:         0       0       0       0       0       0       0       0       0       0       0       0       
      +0       0
  5434 ;;      Temps:          0       0       0       0       0       0       0       0       0       0       0       0       
      +0       0
  5435 ;;      Totals:         0       0       0       0       0       0       0       0       0       0       0       0       
      +0       0
  5436 ;;Total ram usage:        0 bytes
  5437 ;; Hardware stack levels used: 1
  5438 ;; Hardware stack levels required when called: 2
  5439 ;; This function calls:
  5440 ;;		Absolute function
  5441 ;;		_TMR1_DefaultInterruptHandler
  5442 ;;		_TMR1_ISR_
  5443 ;;		_TMR1_WriteTimer
  5444 ;; This function is called by:
  5445 ;;		_INTERRUPT_InterruptManager
  5446 ;; This function uses a non-reentrant model
  5447 ;;
  5448                           
  5449                           
  5450                           ;psect for function _TMR1_ISR
  5451  0D56                     _TMR1_ISR:
  5452  0D56                     i1l2604:	
  5453                           ;incstack = 0
  5454                           ; Regs used in _TMR1_ISR: [wreg-fsr1h+status,2+status,0+pclath+cstack]
  5455                           
  5456                           
  5457                           ;mcc_generated_files/tmr1.c: 168:     PIR1bits.TMR1IF = 0;
  5458  0D56  014E               	movlb	14	; select bank14
  5459  0D57  128D               	bcf	13,5	;volatile
  5460  0D58                     i1l2606:
  5461                           
  5462                           ;mcc_generated_files/tmr1.c: 169:     TMR1_WriteTimer(timer1ReloadVal);
  5463  0D58  087C               	movf	_timer1ReloadVal+1,w	;volatile
  5464  0D59  00F1               	movwf	TMR1_WriteTimer@timerVal+1
  5465  0D5A  087B               	movf	_timer1ReloadVal,w	;volatile
  5466  0D5B  00F0               	movwf	TMR1_WriteTimer@timerVal
  5467  0D5C  318D  2530  318D   	fcall	_TMR1_WriteTimer
  5468  0D5F                     i1l2608:
  5469                           
  5470                           ;mcc_generated_files/tmr1.c: 171:     if(TMR1_InterruptHandler)
  5471  0D5F  0140               	movlb	0	; select bank0
  5472  0D60  0842               	movf	_TMR1_InterruptHandler,w
  5473  0D61  0443               	iorwf	_TMR1_InterruptHandler+1,w
  5474  0D62  1903               	btfsc	3,2
  5475  0D63  2D65               	goto	u174_21
  5476  0D64  2D66               	goto	u174_20
  5477  0D65                     u174_21:
  5478  0D65  2D6B               	goto	i1l392
  5479  0D66                     u174_20:
  5480  0D66                     i1l2610:
  5481                           
  5482                           ;mcc_generated_files/tmr1.c: 172:     {;mcc_generated_files/tmr1.c: 173:         TMR1_In
      +                          terruptHandler();
  5483  0D66  0843               	movf	_TMR1_InterruptHandler+1,w
  5484  0D67  008A               	movwf	10
  5485  0D68  0842               	movf	_TMR1_InterruptHandler,w
  5486  0D69  000A               	callw
  5487  0D6A  318D               	pagesel	$
  5488  0D6B                     i1l392:
  5489  0D6B  0008               	return
  5490  0D6C                     __end_of_TMR1_ISR:
  5491                           
  5492                           	psect	text20
  5493  0D30                     __ptext20:	
  5494 ;; *************** function _TMR1_WriteTimer *****************
  5495 ;; Defined at:
  5496 ;;		line 127 in file "mcc_generated_files/tmr1.c"
  5497 ;; Parameters:    Size  Location     Type
  5498 ;;  timerVal        2    0[COMMON] unsigned short 
  5499 ;; Auto vars:     Size  Location     Type
  5500 ;;		None
  5501 ;; Return value:  Size  Location     Type
  5502 ;;                  1    wreg      void 
  5503 ;; Registers used:
  5504 ;;		wreg, status,2
  5505 ;; Tracked objects:
  5506 ;;		On entry : 0/0
  5507 ;;		On exit  : 0/0
  5508 ;;		Unchanged: 0/0
  5509 ;; Data sizes:     COMMON   BANK0   BANK1   BANK2   BANK3   BANK4   BANK5   BANK6   BANK7   BANK8   BANK9  BANK10  BANK1
      +1  BANK12
  5510 ;;      Params:         2       0       0       0       0       0       0       0       0       0       0       0       
      +0       0
  5511 ;;      Locals:         0       0       0       0       0       0       0       0       0       0       0       0       
      +0       0
  5512 ;;      Temps:          0       0       0       0       0       0       0       0       0       0       0       0       
      +0       0
  5513 ;;      Totals:         2       0       0       0       0       0       0       0       0       0       0       0       
      +0       0
  5514 ;;Total ram usage:        2 bytes
  5515 ;; Hardware stack levels used: 1
  5516 ;; This function calls:
  5517 ;;		Nothing
  5518 ;; This function is called by:
  5519 ;;		_TMR1_ISR
  5520 ;;		_TMR1_Reload
  5521 ;; This function uses a non-reentrant model
  5522 ;;
  5523                           
  5524                           
  5525                           ;psect for function _TMR1_WriteTimer
  5526  0D30                     _TMR1_WriteTimer:
  5527  0D30                     i1l2280:	
  5528                           ;incstack = 0
  5529                           ; Regs used in _TMR1_WriteTimer: [wreg+status,2]
  5530                           
  5531                           
  5532                           ;mcc_generated_files/tmr1.c: 127: void TMR1_WriteTimer(uint16_t timerVal);mcc_generated_
      +                          files/tmr1.c: 128: {;mcc_generated_files/tmr1.c: 129:     if (T1CONbits.NOT_SYNC == 1)
  5533  0D30  0144               	movlb	4	; select bank4
  5534  0D31  1D0E               	btfss	14,2	;volatile
  5535  0D32  2D34               	goto	u122_21
  5536  0D33  2D35               	goto	u122_20
  5537  0D34                     u122_21:
  5538  0D34  2D3C               	goto	i1l2290
  5539  0D35                     u122_20:
  5540  0D35                     i1l2282:
  5541                           
  5542                           ;mcc_generated_files/tmr1.c: 130:     {;mcc_generated_files/tmr1.c: 132:         T1CONbi
      +                          ts.TMR1ON = 0;
  5543  0D35  100E               	bcf	14,0	;volatile
  5544  0D36                     i1l2284:
  5545                           
  5546                           ;mcc_generated_files/tmr1.c: 135:         TMR1H = (uint8_t)(timerVal >> 8);
  5547  0D36  0871               	movf	TMR1_WriteTimer@timerVal+1,w
  5548  0D37  008D               	movwf	13	;volatile
  5549  0D38                     i1l2286:
  5550                           
  5551                           ;mcc_generated_files/tmr1.c: 136:         TMR1L = (uint8_t)timerVal;
  5552  0D38  0870               	movf	TMR1_WriteTimer@timerVal,w
  5553  0D39  008C               	movwf	12	;volatile
  5554  0D3A                     i1l2288:
  5555                           
  5556                           ;mcc_generated_files/tmr1.c: 139:         T1CONbits.TMR1ON =1;
  5557  0D3A  140E               	bsf	14,0	;volatile
  5558                           
  5559                           ;mcc_generated_files/tmr1.c: 140:     }
  5560  0D3B  2D40               	goto	i1l379
  5561  0D3C                     i1l2290:
  5562                           
  5563                           ;mcc_generated_files/tmr1.c: 142:     {;mcc_generated_files/tmr1.c: 144:         TMR1H =
      +                           (uint8_t)(timerVal >> 8);
  5564  0D3C  0871               	movf	TMR1_WriteTimer@timerVal+1,w
  5565  0D3D  008D               	movwf	13	;volatile
  5566  0D3E                     i1l2292:
  5567                           
  5568                           ;mcc_generated_files/tmr1.c: 145:         TMR1L = (uint8_t)timerVal;
  5569  0D3E  0870               	movf	TMR1_WriteTimer@timerVal,w
  5570  0D3F  008C               	movwf	12	;volatile
  5571  0D40                     i1l379:
  5572  0D40  0008               	return
  5573  0D41                     __end_of_TMR1_WriteTimer:
  5574                           
  5575                           	psect	text21
  5576  0003                     __ptext21:	
  5577 ;; *************** function _TMR1_DefaultInterruptHandler *****************
  5578 ;; Defined at:
  5579 ;;		line 182 in file "mcc_generated_files/tmr1.c"
  5580 ;; Parameters:    Size  Location     Type
  5581 ;;		None
  5582 ;; Auto vars:     Size  Location     Type
  5583 ;;		None
  5584 ;; Return value:  Size  Location     Type
  5585 ;;                  1    wreg      void 
  5586 ;; Registers used:
  5587 ;;		None
  5588 ;; Tracked objects:
  5589 ;;		On entry : 0/0
  5590 ;;		On exit  : 0/0
  5591 ;;		Unchanged: 0/0
  5592 ;; Data sizes:     COMMON   BANK0   BANK1   BANK2   BANK3   BANK4   BANK5   BANK6   BANK7   BANK8   BANK9  BANK10  BANK1
      +1  BANK12
  5593 ;;      Params:         0       0       0       0       0       0       0       0       0       0       0       0       
      +0       0
  5594 ;;      Locals:         0       0       0       0       0       0       0       0       0       0       0       0       
      +0       0
  5595 ;;      Temps:          0       0       0       0       0       0       0       0       0       0       0       0       
      +0       0
  5596 ;;      Totals:         0       0       0       0       0       0       0       0       0       0       0       0       
      +0       0
  5597 ;;Total ram usage:        0 bytes
  5598 ;; Hardware stack levels used: 1
  5599 ;; This function calls:
  5600 ;;		Nothing
  5601 ;; This function is called by:
  5602 ;;		_TMR1_Initialize
  5603 ;;		_TMR1_ISR
  5604 ;; This function uses a non-reentrant model
  5605 ;;
  5606                           
  5607                           
  5608                           ;psect for function _TMR1_DefaultInterruptHandler
  5609  0003                     _TMR1_DefaultInterruptHandler:
  5610  0003                     i1l398:	
  5611                           ;incstack = 0
  5612                           ; Regs used in _TMR1_DefaultInterruptHandler: []
  5613                           
  5614  0003  0008               	return
  5615  0004                     __end_of_TMR1_DefaultInterruptHandler:
  5616                           
  5617                           	psect	text22
  5618  007F                     __ptext22:	
  5619 ;; *************** function _TMR1_ISR_ *****************
  5620 ;; Defined at:
  5621 ;;		line 616 in file "main.c"
  5622 ;; Parameters:    Size  Location     Type
  5623 ;;		None
  5624 ;; Auto vars:     Size  Location     Type
  5625 ;;  i               2   22[BANK0 ] int 
  5626 ;;  i               2   20[BANK0 ] int 
  5627 ;;  i               2   18[BANK0 ] int 
  5628 ;;  i               2   16[BANK0 ] int 
  5629 ;;  lights          1    2[BANK0 ] unsigned char 
  5630 ;;  i               2   32[BANK0 ] int 
  5631 ;;  lights          1    0[BANK0 ] unsigned char 
  5632 ;;  jungle_sw       1    3[BANK0 ] unsigned char 
  5633 ;;  lights          1    1[BANK0 ] unsigned char 
  5634 ;;  i               2   28[BANK0 ] int 
  5635 ;;  i               2   14[BANK0 ] int 
  5636 ;;  i               2   26[BANK0 ] int 
  5637 ;;  i               2   12[BANK0 ] int 
  5638 ;;  i               2   10[BANK0 ] int 
  5639 ;;  i               2    8[BANK0 ] int 
  5640 ;;  i               2    6[BANK0 ] int 
  5641 ;;  i               2    4[BANK0 ] int 
  5642 ;;  i               2   30[BANK0 ] int 
  5643 ;;  i               2   24[BANK0 ] int 
  5644 ;; Return value:  Size  Location     Type
  5645 ;;                  1    wreg      void 
  5646 ;; Registers used:
  5647 ;;		wreg, fsr0l, fsr0h, fsr1l, fsr1h, status,2, status,0, pclath, cstack
  5648 ;; Tracked objects:
  5649 ;;		On entry : 0/0
  5650 ;;		On exit  : 0/0
  5651 ;;		Unchanged: 0/0
  5652 ;; Data sizes:     COMMON   BANK0   BANK1   BANK2   BANK3   BANK4   BANK5   BANK6   BANK7   BANK8   BANK9  BANK10  BANK1
      +1  BANK12
  5653 ;;      Params:         0       0       0       0       0       0       0       0       0       0       0       0       
      +0       0
  5654 ;;      Locals:         0      34       0       0       0       0       0       0       0       0       0       0       
      +0       0
  5655 ;;      Temps:          2       0       0       0       0       0       0       0       0       0       0       0       
      +0       0
  5656 ;;      Totals:         2      34       0       0       0       0       0       0       0       0       0       0       
      +0       0
  5657 ;;Total ram usage:       36 bytes
  5658 ;; Hardware stack levels used: 1
  5659 ;; Hardware stack levels required when called: 1
  5660 ;; This function calls:
  5661 ;;		___awdiv
  5662 ;;		i1_playNote
  5663 ;; This function is called by:
  5664 ;;		_main
  5665 ;;		_TMR1_ISR
  5666 ;; This function uses a non-reentrant model
  5667 ;;
  5668                           
  5669                           
  5670                           ;psect for function _TMR1_ISR_
  5671  007F                     _TMR1_ISR_:
  5672  007F                     i1l2302:	
  5673                           ;incstack = 0
  5674                           ; Regs used in _TMR1_ISR_: [wreg-fsr1h+status,2+status,0+pclath+cstack]
  5675                           
  5676                           
  5677                           ;main.c: 618:     count++;
  5678  007F  3001               	movlw	1
  5679  0080  0141               	movlb	1	; select bank1
  5680  0081  07BE               	addwf	_count^(0+128),f
  5681  0082  3000               	movlw	0
  5682  0083  3DBF               	addwfc	(_count+1)^(0+128),f
  5683  0084                     i1l2304:
  5684                           
  5685                           ;main.c: 621:     if (silent_night_playing)
  5686  0084  0140               	movlb	0	; select bank0
  5687  0085  084F               	movf	_silent_night_playing,w
  5688  0086  1903               	btfsc	3,2
  5689  0087  2889               	goto	u123_21
  5690  0088  288A               	goto	u123_20
  5691  0089                     u123_21:
  5692  0089  2977               	goto	i1l2358
  5693  008A                     u123_20:
  5694  008A                     i1l2306:
  5695                           
  5696                           ;main.c: 622:     {;main.c: 623:         if (count < 24 || ((count > 48) && (count < 96)
      +                          ))
  5697  008A  0141               	movlb	1	; select bank1
  5698  008B  083F               	movf	(_count+1)^(0+128),w
  5699  008C  3A80               	xorlw	128
  5700  008D  00F9               	movwf	??_TMR1_ISR_
  5701  008E  3080               	movlw	128
  5702  008F  0279               	subwf	??_TMR1_ISR_,w
  5703  0090  1D03               	skipz
  5704  0091  2894               	goto	u124_25
  5705  0092  3018               	movlw	24
  5706  0093  023E               	subwf	_count^(0+128),w
  5707  0094                     u124_25:
  5708  0094  1C03               	skipc
  5709  0095  2897               	goto	u124_21
  5710  0096  2898               	goto	u124_20
  5711  0097                     u124_21:
  5712  0097  28B4               	goto	i1l2312
  5713  0098                     u124_20:
  5714  0098                     i1l2308:
  5715  0098  0141               	movlb	1	; select bank1
  5716  0099  083F               	movf	(_count+1)^(0+128),w
  5717  009A  3A80               	xorlw	128
  5718  009B  00F9               	movwf	??_TMR1_ISR_
  5719  009C  3080               	movlw	128
  5720  009D  0279               	subwf	??_TMR1_ISR_,w
  5721  009E  1D03               	skipz
  5722  009F  28A2               	goto	u125_25
  5723  00A0  3031               	movlw	49
  5724  00A1  023E               	subwf	_count^(0+128),w
  5725  00A2                     u125_25:
  5726  00A2  1C03               	skipc
  5727  00A3  28A5               	goto	u125_21
  5728  00A4  28A6               	goto	u125_20
  5729  00A5                     u125_21:
  5730  00A5  28F6               	goto	i1l2326
  5731  00A6                     u125_20:
  5732  00A6                     i1l2310:
  5733  00A6  0141               	movlb	1	; select bank1
  5734  00A7  083F               	movf	(_count+1)^(0+128),w
  5735  00A8  3A80               	xorlw	128
  5736  00A9  00F9               	movwf	??_TMR1_ISR_
  5737  00AA  3080               	movlw	128
  5738  00AB  0279               	subwf	??_TMR1_ISR_,w
  5739  00AC  1D03               	skipz
  5740  00AD  28B0               	goto	u126_25
  5741  00AE  3060               	movlw	96
  5742  00AF  023E               	subwf	_count^(0+128),w
  5743  00B0                     u126_25:
  5744  00B0  1803               	skipnc
  5745  00B1  28B3               	goto	u126_21
  5746  00B2  28B4               	goto	u126_20
  5747  00B3                     u126_21:
  5748  00B3  28F6               	goto	i1l2326
  5749  00B4                     u126_20:
  5750  00B4                     i1l2312:
  5751                           
  5752                           ;main.c: 624:         {;main.c: 625:             if (last_note != silent_night[count])
  5753  00B4  30DB               	movlw	219
  5754  00B5  00F9               	movwf	??_TMR1_ISR_
  5755  00B6  3022               	movlw	34
  5756  00B7  00FA               	movwf	??_TMR1_ISR_+1
  5757  00B8  0141               	movlb	1	; select bank1
  5758  00B9  083E               	movf	_count^(0+128),w
  5759  00BA  0779               	addwf	??_TMR1_ISR_,w
  5760  00BB  0086               	movwf	6
  5761  00BC  083F               	movf	(_count+1)^(0+128),w
  5762  00BD  3D7A               	addwfc	??_TMR1_ISR_+1,w
  5763  00BE  0087               	movwf	7
  5764  00BF  0801               	movf	1,w
  5765  00C0  0140               	movlb	0	; select bank0
  5766  00C1  064C               	xorwf	_last_note,w
  5767  00C2  1903               	skipnz
  5768  00C3  28C5               	goto	u127_21
  5769  00C4  28C6               	goto	u127_20
  5770  00C5                     u127_21:
  5771  00C5  2977               	goto	i1l2358
  5772  00C6                     u127_20:
  5773  00C6                     i1l2314:
  5774                           
  5775                           ;main.c: 626:             {;main.c: 627:                 for (int i = 0; i < 7; i++)
  5776  00C6  01BC               	clrf	TMR1_ISR_@i
  5777  00C7  01BD               	clrf	TMR1_ISR_@i+1
  5778  00C8                     i1l2320:
  5779                           
  5780                           ;main.c: 628:                 {;main.c: 629:                     uint8_t lights = light_
      +                          array[i] >> 7;
  5781  00C8  0140               	movlb	0	; select bank0
  5782  00C9  083C               	movf	TMR1_ISR_@i,w
  5783  00CA  3EB7               	addlw	(low (_light_array| 0))& (0+255)
  5784  00CB  0086               	movwf	6
  5785  00CC  0187               	clrf	7
  5786  00CD  0801               	movf	1,w
  5787  00CE  00F9               	movwf	??_TMR1_ISR_
  5788  00CF  3007               	movlw	7
  5789  00D0                     u128_25:
  5790  00D0  36F9               	lsrf	??_TMR1_ISR_,f
  5791  00D1  0B89               	decfsz	9,f
  5792  00D2  28D0               	goto	u128_25
  5793  00D3  0879               	movf	??_TMR1_ISR_,w
  5794  00D4  00FA               	movwf	??_TMR1_ISR_+1
  5795  00D5  087A               	movf	??_TMR1_ISR_+1,w
  5796  00D6  00A0               	movwf	TMR1_ISR_@lights
  5797                           
  5798                           ;main.c: 630:                     light_array[i] = (light_array[i] << 1) + lights;
  5799  00D7  083C               	movf	TMR1_ISR_@i,w
  5800  00D8  3EB7               	addlw	(low (_light_array| 0))& (0+255)
  5801  00D9  0086               	movwf	6
  5802  00DA  0187               	clrf	7
  5803  00DB  3501               	lslf	1,w
  5804  00DC  0720               	addwf	TMR1_ISR_@lights,w
  5805  00DD  00F9               	movwf	??_TMR1_ISR_
  5806  00DE  083C               	movf	TMR1_ISR_@i,w
  5807  00DF  3EB7               	addlw	(low (_light_array| 0))& (0+255)
  5808  00E0  0086               	movwf	6
  5809  00E1  0187               	clrf	7
  5810  00E2  0879               	movf	??_TMR1_ISR_,w
  5811  00E3  0081               	movwf	1
  5812  00E4                     i1l2322:
  5813                           
  5814                           ;main.c: 631:                 }
  5815  00E4  3001               	movlw	1
  5816  00E5  07BC               	addwf	TMR1_ISR_@i,f
  5817  00E6  3000               	movlw	0
  5818  00E7  3DBD               	addwfc	TMR1_ISR_@i+1,f
  5819  00E8                     i1l2324:
  5820  00E8  083D               	movf	TMR1_ISR_@i+1,w
  5821  00E9  3A80               	xorlw	128
  5822  00EA  00F9               	movwf	??_TMR1_ISR_
  5823  00EB  3080               	movlw	128
  5824  00EC  0279               	subwf	??_TMR1_ISR_,w
  5825  00ED  1D03               	skipz
  5826  00EE  28F1               	goto	u129_25
  5827  00EF  3007               	movlw	7
  5828  00F0  023C               	subwf	TMR1_ISR_@i,w
  5829  00F1                     u129_25:
  5830  00F1  1C03               	skipc
  5831  00F2  28F4               	goto	u129_21
  5832  00F3  28F5               	goto	u129_20
  5833  00F4                     u129_21:
  5834  00F4  28C8               	goto	i1l2320
  5835  00F5                     u129_20:
  5836  00F5  2977               	goto	i1l2358
  5837  00F6                     i1l2326:
  5838  00F6  0141               	movlb	1	; select bank1
  5839  00F7  083F               	movf	(_count+1)^(0+128),w
  5840  00F8  3A80               	xorlw	128
  5841  00F9  00F9               	movwf	??_TMR1_ISR_
  5842  00FA  3080               	movlw	128
  5843  00FB  0279               	subwf	??_TMR1_ISR_,w
  5844  00FC  1D03               	skipz
  5845  00FD  2900               	goto	u130_25
  5846  00FE  3078               	movlw	120
  5847  00FF  023E               	subwf	_count^(0+128),w
  5848  0100                     u130_25:
  5849  0100  1C03               	skipc
  5850  0101  2903               	goto	u130_21
  5851  0102  2904               	goto	u130_20
  5852  0103                     u130_21:
  5853  0103  2938               	goto	i1l2342
  5854  0104                     u130_20:
  5855  0104                     i1l2328:
  5856  0104  30DB               	movlw	219
  5857  0105  00F9               	movwf	??_TMR1_ISR_
  5858  0106  3022               	movlw	34
  5859  0107  00FA               	movwf	??_TMR1_ISR_+1
  5860  0108  0141               	movlb	1	; select bank1
  5861  0109  083E               	movf	_count^(0+128),w
  5862  010A  0779               	addwf	??_TMR1_ISR_,w
  5863  010B  0086               	movwf	6
  5864  010C  083F               	movf	(_count+1)^(0+128),w
  5865  010D  3D7A               	addwfc	??_TMR1_ISR_+1,w
  5866  010E  0087               	movwf	7
  5867  010F  0801               	movf	1,w
  5868  0110  0140               	movlb	0	; select bank0
  5869  0111  064C               	xorwf	_last_note,w
  5870  0112  1903               	skipnz
  5871  0113  2915               	goto	u131_21
  5872  0114  2916               	goto	u131_20
  5873  0115                     u131_21:
  5874  0115  2938               	goto	i1l2342
  5875  0116                     u131_20:
  5876  0116                     i1l2330:
  5877                           
  5878                           ;main.c: 635:         {;main.c: 636:             for (int i = 0; i < 7; i++)
  5879  0116  01B8               	clrf	TMR1_ISR_@i_1207
  5880  0117  01B9               	clrf	TMR1_ISR_@i_1207+1
  5881  0118                     i1l2336:
  5882                           
  5883                           ;main.c: 637:             {;main.c: 638:                 light_array[i] = (light_array[i
      +                          ] << 1) + 1;
  5884  0118  0140               	movlb	0	; select bank0
  5885  0119  0838               	movf	TMR1_ISR_@i_1207,w
  5886  011A  3EB7               	addlw	(low (_light_array| 0))& (0+255)
  5887  011B  0086               	movwf	6
  5888  011C  0187               	clrf	7
  5889  011D  1403               	setc
  5890  011E  0D01               	rlf	1,w
  5891  011F  00F9               	movwf	??_TMR1_ISR_
  5892  0120  0838               	movf	TMR1_ISR_@i_1207,w
  5893  0121  3EB7               	addlw	(low (_light_array| 0))& (0+255)
  5894  0122  0086               	movwf	6
  5895  0123  0187               	clrf	7
  5896  0124  0879               	movf	??_TMR1_ISR_,w
  5897  0125  0081               	movwf	1
  5898  0126                     i1l2338:
  5899                           
  5900                           ;main.c: 639:             }
  5901  0126  3001               	movlw	1
  5902  0127  07B8               	addwf	TMR1_ISR_@i_1207,f
  5903  0128  3000               	movlw	0
  5904  0129  3DB9               	addwfc	TMR1_ISR_@i_1207+1,f
  5905  012A                     i1l2340:
  5906  012A  0839               	movf	TMR1_ISR_@i_1207+1,w
  5907  012B  3A80               	xorlw	128
  5908  012C  00F9               	movwf	??_TMR1_ISR_
  5909  012D  3080               	movlw	128
  5910  012E  0279               	subwf	??_TMR1_ISR_,w
  5911  012F  1D03               	skipz
  5912  0130  2933               	goto	u132_25
  5913  0131  3007               	movlw	7
  5914  0132  0238               	subwf	TMR1_ISR_@i_1207,w
  5915  0133                     u132_25:
  5916  0133  1C03               	skipc
  5917  0134  2936               	goto	u132_21
  5918  0135  2937               	goto	u132_20
  5919  0136                     u132_21:
  5920  0136  2918               	goto	i1l2336
  5921  0137                     u132_20:
  5922  0137  2977               	goto	i1l2358
  5923  0138                     i1l2342:
  5924  0138  0141               	movlb	1	; select bank1
  5925  0139  083F               	movf	(_count+1)^(0+128),w
  5926  013A  3A80               	xorlw	128
  5927  013B  00F9               	movwf	??_TMR1_ISR_
  5928  013C  3080               	movlw	128
  5929  013D  0279               	subwf	??_TMR1_ISR_,w
  5930  013E  1D03               	skipz
  5931  013F  2942               	goto	u133_25
  5932  0140  3078               	movlw	120
  5933  0141  023E               	subwf	_count^(0+128),w
  5934  0142                     u133_25:
  5935  0142  1803               	skipnc
  5936  0143  2945               	goto	u133_21
  5937  0144  2946               	goto	u133_20
  5938  0145                     u133_21:
  5939  0145  2977               	goto	i1l593
  5940  0146                     u133_20:
  5941  0146                     i1l2344:
  5942                           
  5943                           ;main.c: 642:         {;main.c: 643:             for (int i = 0; i < 7; i++)
  5944  0146  0140               	movlb	0	; select bank0
  5945  0147  01BE               	clrf	TMR1_ISR_@i_1208
  5946  0148  01BF               	clrf	TMR1_ISR_@i_1208+1
  5947  0149                     i1l2350:
  5948                           
  5949                           ;main.c: 644:             {;main.c: 645:                 uint8_t lights = light_array[i]
      +                           >> 7;
  5950  0149  0140               	movlb	0	; select bank0
  5951  014A  083E               	movf	TMR1_ISR_@i_1208,w
  5952  014B  3EB7               	addlw	(low (_light_array| 0))& (0+255)
  5953  014C  0086               	movwf	6
  5954  014D  0187               	clrf	7
  5955  014E  0801               	movf	1,w
  5956  014F  00F9               	movwf	??_TMR1_ISR_
  5957  0150  3007               	movlw	7
  5958  0151                     u134_25:
  5959  0151  36F9               	lsrf	??_TMR1_ISR_,f
  5960  0152  0B89               	decfsz	9,f
  5961  0153  2951               	goto	u134_25
  5962  0154  0879               	movf	??_TMR1_ISR_,w
  5963  0155  00FA               	movwf	??_TMR1_ISR_+1
  5964  0156  087A               	movf	??_TMR1_ISR_+1,w
  5965  0157  00A1               	movwf	TMR1_ISR_@lights_1209
  5966                           
  5967                           ;main.c: 646:                 light_array[i] = (light_array[i] << 1) + lights;
  5968  0158  083E               	movf	TMR1_ISR_@i_1208,w
  5969  0159  3EB7               	addlw	(low (_light_array| 0))& (0+255)
  5970  015A  0086               	movwf	6
  5971  015B  0187               	clrf	7
  5972  015C  3501               	lslf	1,w
  5973  015D  0721               	addwf	TMR1_ISR_@lights_1209,w
  5974  015E  00F9               	movwf	??_TMR1_ISR_
  5975  015F  083E               	movf	TMR1_ISR_@i_1208,w
  5976  0160  3EB7               	addlw	(low (_light_array| 0))& (0+255)
  5977  0161  0086               	movwf	6
  5978  0162  0187               	clrf	7
  5979  0163  0879               	movf	??_TMR1_ISR_,w
  5980  0164  0081               	movwf	1
  5981  0165                     i1l2352:
  5982                           
  5983                           ;main.c: 647:             }
  5984  0165  3001               	movlw	1
  5985  0166  07BE               	addwf	TMR1_ISR_@i_1208,f
  5986  0167  3000               	movlw	0
  5987  0168  3DBF               	addwfc	TMR1_ISR_@i_1208+1,f
  5988  0169                     i1l2354:
  5989  0169  083F               	movf	TMR1_ISR_@i_1208+1,w
  5990  016A  3A80               	xorlw	128
  5991  016B  00F9               	movwf	??_TMR1_ISR_
  5992  016C  3080               	movlw	128
  5993  016D  0279               	subwf	??_TMR1_ISR_,w
  5994  016E  1D03               	skipz
  5995  016F  2972               	goto	u135_25
  5996  0170  3007               	movlw	7
  5997  0171  023E               	subwf	TMR1_ISR_@i_1208,w
  5998  0172                     u135_25:
  5999  0172  1C03               	skipc
  6000  0173  2975               	goto	u135_21
  6001  0174  2976               	goto	u135_20
  6002  0175                     u135_21:
  6003  0175  2949               	goto	i1l2350
  6004  0176                     u135_20:
  6005  0176  2977               	goto	i1l2358
  6006  0177                     i1l593:	
  6007                           ;main.c: 649:     }
  6008                           
  6009  0177                     i1l2358:
  6010                           
  6011                           ;main.c: 727:     if (song3_playing)
  6012  0177  0140               	movlb	0	; select bank0
  6013  0178  084E               	movf	_song3_playing,w
  6014  0179  1903               	btfsc	3,2
  6015  017A  297C               	goto	u136_21
  6016  017B  297D               	goto	u136_20
  6017  017C                     u136_21:
  6018  017C  2C08               	goto	i1l2544
  6019  017D                     u136_20:
  6020  017D                     i1l2360:
  6021                           
  6022                           ;main.c: 728:     {;main.c: 841:         if (count < 10)
  6023  017D  0141               	movlb	1	; select bank1
  6024  017E  083F               	movf	(_count+1)^(0+128),w
  6025  017F  3A80               	xorlw	128
  6026  0180  00F9               	movwf	??_TMR1_ISR_
  6027  0181  3080               	movlw	128
  6028  0182  0279               	subwf	??_TMR1_ISR_,w
  6029  0183  1D03               	skipz
  6030  0184  2987               	goto	u137_25
  6031  0185  300A               	movlw	10
  6032  0186  023E               	subwf	_count^(0+128),w
  6033  0187                     u137_25:
  6034  0187  1803               	skipnc
  6035  0188  298A               	goto	u137_21
  6036  0189  298B               	goto	u137_20
  6037  018A                     u137_21:
  6038  018A  29A9               	goto	i1l2374
  6039  018B                     u137_20:
  6040  018B                     i1l2362:
  6041                           
  6042                           ;main.c: 842:         {;main.c: 843:            for (int i = 0; i < 7; i++)
  6043  018B  0140               	movlb	0	; select bank0
  6044  018C  01A4               	clrf	TMR1_ISR_@i_1210
  6045  018D  01A5               	clrf	TMR1_ISR_@i_1210+1
  6046  018E                     i1l2368:
  6047                           
  6048                           ;main.c: 844:              {;main.c: 845:                  light_array[i] = 0xF3;
  6049  018E  30F3               	movlw	243
  6050  018F  00F9               	movwf	??_TMR1_ISR_
  6051  0190  0140               	movlb	0	; select bank0
  6052  0191  0824               	movf	TMR1_ISR_@i_1210,w
  6053  0192  3EB7               	addlw	(low (_light_array| 0))& (0+255)
  6054  0193  0086               	movwf	6
  6055  0194  0187               	clrf	7
  6056  0195  0879               	movf	??_TMR1_ISR_,w
  6057  0196  0081               	movwf	1
  6058  0197                     i1l2370:
  6059                           
  6060                           ;main.c: 846:              }
  6061  0197  3001               	movlw	1
  6062  0198  07A4               	addwf	TMR1_ISR_@i_1210,f
  6063  0199  3000               	movlw	0
  6064  019A  3DA5               	addwfc	TMR1_ISR_@i_1210+1,f
  6065  019B                     i1l2372:
  6066  019B  0825               	movf	TMR1_ISR_@i_1210+1,w
  6067  019C  3A80               	xorlw	128
  6068  019D  00F9               	movwf	??_TMR1_ISR_
  6069  019E  3080               	movlw	128
  6070  019F  0279               	subwf	??_TMR1_ISR_,w
  6071  01A0  1D03               	skipz
  6072  01A1  29A4               	goto	u138_25
  6073  01A2  3007               	movlw	7
  6074  01A3  0224               	subwf	TMR1_ISR_@i_1210,w
  6075  01A4                     u138_25:
  6076  01A4  1C03               	skipc
  6077  01A5  29A7               	goto	u138_21
  6078  01A6  29A8               	goto	u138_20
  6079  01A7                     u138_21:
  6080  01A7  298E               	goto	i1l2368
  6081  01A8                     u138_20:
  6082  01A8  2C08               	goto	i1l2544
  6083  01A9                     i1l2374:
  6084  01A9  0141               	movlb	1	; select bank1
  6085  01AA  083F               	movf	(_count+1)^(0+128),w
  6086  01AB  3A80               	xorlw	128
  6087  01AC  00F9               	movwf	??_TMR1_ISR_
  6088  01AD  3080               	movlw	128
  6089  01AE  0279               	subwf	??_TMR1_ISR_,w
  6090  01AF  1D03               	skipz
  6091  01B0  29B3               	goto	u139_25
  6092  01B1  3014               	movlw	20
  6093  01B2  023E               	subwf	_count^(0+128),w
  6094  01B3                     u139_25:
  6095  01B3  1803               	skipnc
  6096  01B4  29B6               	goto	u139_21
  6097  01B5  29B7               	goto	u139_20
  6098  01B6                     u139_21:
  6099  01B6  29D5               	goto	i1l2388
  6100  01B7                     u139_20:
  6101  01B7                     i1l2376:
  6102                           
  6103                           ;main.c: 849:         {;main.c: 850:            for (int i = 0; i < 7; i++)
  6104  01B7  0140               	movlb	0	; select bank0
  6105  01B8  01A6               	clrf	TMR1_ISR_@i_1211
  6106  01B9  01A7               	clrf	TMR1_ISR_@i_1211+1
  6107  01BA                     i1l2382:
  6108                           
  6109                           ;main.c: 851:              {;main.c: 852:                  light_array[i] = 0x0F;
  6110  01BA  300F               	movlw	15
  6111  01BB  00F9               	movwf	??_TMR1_ISR_
  6112  01BC  0140               	movlb	0	; select bank0
  6113  01BD  0826               	movf	TMR1_ISR_@i_1211,w
  6114  01BE  3EB7               	addlw	(low (_light_array| 0))& (0+255)
  6115  01BF  0086               	movwf	6
  6116  01C0  0187               	clrf	7
  6117  01C1  0879               	movf	??_TMR1_ISR_,w
  6118  01C2  0081               	movwf	1
  6119  01C3                     i1l2384:
  6120                           
  6121                           ;main.c: 853:              }
  6122  01C3  3001               	movlw	1
  6123  01C4  07A6               	addwf	TMR1_ISR_@i_1211,f
  6124  01C5  3000               	movlw	0
  6125  01C6  3DA7               	addwfc	TMR1_ISR_@i_1211+1,f
  6126  01C7                     i1l2386:
  6127  01C7  0827               	movf	TMR1_ISR_@i_1211+1,w
  6128  01C8  3A80               	xorlw	128
  6129  01C9  00F9               	movwf	??_TMR1_ISR_
  6130  01CA  3080               	movlw	128
  6131  01CB  0279               	subwf	??_TMR1_ISR_,w
  6132  01CC  1D03               	skipz
  6133  01CD  29D0               	goto	u140_25
  6134  01CE  3007               	movlw	7
  6135  01CF  0226               	subwf	TMR1_ISR_@i_1211,w
  6136  01D0                     u140_25:
  6137  01D0  1C03               	skipc
  6138  01D1  29D3               	goto	u140_21
  6139  01D2  29D4               	goto	u140_20
  6140  01D3                     u140_21:
  6141  01D3  29BA               	goto	i1l2382
  6142  01D4                     u140_20:
  6143  01D4  2C08               	goto	i1l2544
  6144  01D5                     i1l2388:
  6145  01D5  0141               	movlb	1	; select bank1
  6146  01D6  083F               	movf	(_count+1)^(0+128),w
  6147  01D7  3A80               	xorlw	128
  6148  01D8  00F9               	movwf	??_TMR1_ISR_
  6149  01D9  3080               	movlw	128
  6150  01DA  0279               	subwf	??_TMR1_ISR_,w
  6151  01DB  1D03               	skipz
  6152  01DC  29DF               	goto	u141_25
  6153  01DD  301D               	movlw	29
  6154  01DE  023E               	subwf	_count^(0+128),w
  6155  01DF                     u141_25:
  6156  01DF  1803               	skipnc
  6157  01E0  29E2               	goto	u141_21
  6158  01E1  29E3               	goto	u141_20
  6159  01E2                     u141_21:
  6160  01E2  2A01               	goto	i1l2402
  6161  01E3                     u141_20:
  6162  01E3                     i1l2390:
  6163                           
  6164                           ;main.c: 856:         {;main.c: 857:            for (int i = 0; i < 7; i++)
  6165  01E3  0140               	movlb	0	; select bank0
  6166  01E4  01A8               	clrf	TMR1_ISR_@i_1212
  6167  01E5  01A9               	clrf	TMR1_ISR_@i_1212+1
  6168  01E6                     i1l2396:
  6169                           
  6170                           ;main.c: 858:              {;main.c: 859:                  light_array[i] = 0xFC;
  6171  01E6  30FC               	movlw	252
  6172  01E7  00F9               	movwf	??_TMR1_ISR_
  6173  01E8  0140               	movlb	0	; select bank0
  6174  01E9  0828               	movf	TMR1_ISR_@i_1212,w
  6175  01EA  3EB7               	addlw	(low (_light_array| 0))& (0+255)
  6176  01EB  0086               	movwf	6
  6177  01EC  0187               	clrf	7
  6178  01ED  0879               	movf	??_TMR1_ISR_,w
  6179  01EE  0081               	movwf	1
  6180  01EF                     i1l2398:
  6181                           
  6182                           ;main.c: 860:              }
  6183  01EF  3001               	movlw	1
  6184  01F0  07A8               	addwf	TMR1_ISR_@i_1212,f
  6185  01F1  3000               	movlw	0
  6186  01F2  3DA9               	addwfc	TMR1_ISR_@i_1212+1,f
  6187  01F3                     i1l2400:
  6188  01F3  0829               	movf	TMR1_ISR_@i_1212+1,w
  6189  01F4  3A80               	xorlw	128
  6190  01F5  00F9               	movwf	??_TMR1_ISR_
  6191  01F6  3080               	movlw	128
  6192  01F7  0279               	subwf	??_TMR1_ISR_,w
  6193  01F8  1D03               	skipz
  6194  01F9  29FC               	goto	u142_25
  6195  01FA  3007               	movlw	7
  6196  01FB  0228               	subwf	TMR1_ISR_@i_1212,w
  6197  01FC                     u142_25:
  6198  01FC  1C03               	skipc
  6199  01FD  29FF               	goto	u142_21
  6200  01FE  2A00               	goto	u142_20
  6201  01FF                     u142_21:
  6202  01FF  29E6               	goto	i1l2396
  6203  0200                     u142_20:
  6204  0200  2C08               	goto	i1l2544
  6205  0201                     i1l2402:
  6206  0201  301D               	movlw	29
  6207  0202  0141               	movlb	1	; select bank1
  6208  0203  063E               	xorwf	_count^(0+128),w
  6209  0204  043F               	iorwf	(_count+1)^(0+128),w
  6210  0205  1D03               	btfss	3,2
  6211  0206  2A08               	goto	u143_21
  6212  0207  2A09               	goto	u143_20
  6213  0208                     u143_21:
  6214  0208  2A27               	goto	i1l2416
  6215  0209                     u143_20:
  6216  0209                     i1l2404:
  6217                           
  6218                           ;main.c: 863:         {;main.c: 864:            for (int i = 0; i < 7; i++)
  6219  0209  0140               	movlb	0	; select bank0
  6220  020A  01AA               	clrf	TMR1_ISR_@i_1213
  6221  020B  01AB               	clrf	TMR1_ISR_@i_1213+1
  6222  020C                     i1l2410:
  6223                           
  6224                           ;main.c: 865:              {;main.c: 866:                  light_array[i] = 0x7F;
  6225  020C  307F               	movlw	127
  6226  020D  00F9               	movwf	??_TMR1_ISR_
  6227  020E  0140               	movlb	0	; select bank0
  6228  020F  082A               	movf	TMR1_ISR_@i_1213,w
  6229  0210  3EB7               	addlw	(low (_light_array| 0))& (0+255)
  6230  0211  0086               	movwf	6
  6231  0212  0187               	clrf	7
  6232  0213  0879               	movf	??_TMR1_ISR_,w
  6233  0214  0081               	movwf	1
  6234  0215                     i1l2412:
  6235                           
  6236                           ;main.c: 867:              }
  6237  0215  3001               	movlw	1
  6238  0216  07AA               	addwf	TMR1_ISR_@i_1213,f
  6239  0217  3000               	movlw	0
  6240  0218  3DAB               	addwfc	TMR1_ISR_@i_1213+1,f
  6241  0219                     i1l2414:
  6242  0219  082B               	movf	TMR1_ISR_@i_1213+1,w
  6243  021A  3A80               	xorlw	128
  6244  021B  00F9               	movwf	??_TMR1_ISR_
  6245  021C  3080               	movlw	128
  6246  021D  0279               	subwf	??_TMR1_ISR_,w
  6247  021E  1D03               	skipz
  6248  021F  2A22               	goto	u144_25
  6249  0220  3007               	movlw	7
  6250  0221  022A               	subwf	TMR1_ISR_@i_1213,w
  6251  0222                     u144_25:
  6252  0222  1C03               	skipc
  6253  0223  2A25               	goto	u144_21
  6254  0224  2A26               	goto	u144_20
  6255  0225                     u144_21:
  6256  0225  2A0C               	goto	i1l2410
  6257  0226                     u144_20:
  6258  0226  2C08               	goto	i1l2544
  6259  0227                     i1l2416:
  6260  0227  303D               	movlw	61
  6261  0228  00F9               	movwf	??_TMR1_ISR_
  6262  0229  3022               	movlw	34
  6263  022A  00FA               	movwf	??_TMR1_ISR_+1
  6264  022B  083E               	movf	_count^(0+128),w
  6265  022C  0779               	addwf	??_TMR1_ISR_,w
  6266  022D  0086               	movwf	6
  6267  022E  083F               	movf	(_count+1)^(0+128),w
  6268  022F  3D7A               	addwfc	??_TMR1_ISR_+1,w
  6269  0230  0087               	movwf	7
  6270  0231  0801               	movf	1,w
  6271  0232  1D03               	btfss	3,2
  6272  0233  2A35               	goto	u145_21
  6273  0234  2A36               	goto	u145_20
  6274  0235                     u145_21:
  6275  0235  2A55               	goto	i1l2430
  6276  0236                     u145_20:
  6277  0236                     i1l2418:
  6278                           
  6279                           ;main.c: 870:         {;main.c: 871:            for (int i = 0; i < 7; i++)
  6280  0236  0140               	movlb	0	; select bank0
  6281  0237  01AC               	clrf	TMR1_ISR_@i_1214
  6282  0238  01AD               	clrf	TMR1_ISR_@i_1214+1
  6283  0239                     i1l2420:
  6284  0239  082D               	movf	TMR1_ISR_@i_1214+1,w
  6285  023A  3A80               	xorlw	128
  6286  023B  00F9               	movwf	??_TMR1_ISR_
  6287  023C  3080               	movlw	128
  6288  023D  0279               	subwf	??_TMR1_ISR_,w
  6289  023E  1D03               	skipz
  6290  023F  2A42               	goto	u146_25
  6291  0240  3007               	movlw	7
  6292  0241  022C               	subwf	TMR1_ISR_@i_1214,w
  6293  0242                     u146_25:
  6294  0242  1C03               	skipc
  6295  0243  2A45               	goto	u146_21
  6296  0244  2A46               	goto	u146_20
  6297  0245                     u146_21:
  6298  0245  2A47               	goto	i1l2424
  6299  0246                     u146_20:
  6300  0246  2C08               	goto	i1l2544
  6301  0247                     i1l2424:
  6302                           
  6303                           ;main.c: 872:            {;main.c: 873:                 light_array[i] = 0x7F;
  6304  0247  307F               	movlw	127
  6305  0248  00F9               	movwf	??_TMR1_ISR_
  6306  0249  0140               	movlb	0	; select bank0
  6307  024A  082C               	movf	TMR1_ISR_@i_1214,w
  6308  024B  3EB7               	addlw	(low (_light_array| 0))& (0+255)
  6309  024C  0086               	movwf	6
  6310  024D  0187               	clrf	7
  6311  024E  0879               	movf	??_TMR1_ISR_,w
  6312  024F  0081               	movwf	1
  6313  0250                     i1l2426:
  6314                           
  6315                           ;main.c: 874:            }
  6316  0250  3001               	movlw	1
  6317  0251  07AC               	addwf	TMR1_ISR_@i_1214,f
  6318  0252  3000               	movlw	0
  6319  0253  3DAD               	addwfc	TMR1_ISR_@i_1214+1,f
  6320  0254  2A39               	goto	i1l2420
  6321  0255                     i1l2430:
  6322  0255  083F               	movf	(_count+1)^(0+128),w
  6323  0256  3A80               	xorlw	128
  6324  0257  00F9               	movwf	??_TMR1_ISR_
  6325  0258  3080               	movlw	128
  6326  0259  0279               	subwf	??_TMR1_ISR_,w
  6327  025A  1D03               	skipz
  6328  025B  2A5E               	goto	u147_25
  6329  025C  302E               	movlw	46
  6330  025D  023E               	subwf	_count^(0+128),w
  6331  025E                     u147_25:
  6332  025E  1803               	skipnc
  6333  025F  2A61               	goto	u147_21
  6334  0260  2A62               	goto	u147_20
  6335  0261                     u147_21:
  6336  0261  2A96               	goto	i1l2446
  6337  0262                     u147_20:
  6338  0262                     i1l2432:
  6339  0262  303D               	movlw	61
  6340  0263  00F9               	movwf	??_TMR1_ISR_
  6341  0264  3022               	movlw	34
  6342  0265  00FA               	movwf	??_TMR1_ISR_+1
  6343  0266  0141               	movlb	1	; select bank1
  6344  0267  083E               	movf	_count^(0+128),w
  6345  0268  0779               	addwf	??_TMR1_ISR_,w
  6346  0269  0086               	movwf	6
  6347  026A  083F               	movf	(_count+1)^(0+128),w
  6348  026B  3D7A               	addwfc	??_TMR1_ISR_+1,w
  6349  026C  0087               	movwf	7
  6350  026D  0801               	movf	1,w
  6351  026E  0140               	movlb	0	; select bank0
  6352  026F  064C               	xorwf	_last_note,w
  6353  0270  1903               	skipnz
  6354  0271  2A73               	goto	u148_21
  6355  0272  2A74               	goto	u148_20
  6356  0273                     u148_21:
  6357  0273  2A96               	goto	i1l2446
  6358  0274                     u148_20:
  6359  0274                     i1l2434:
  6360                           
  6361                           ;main.c: 877:        {;main.c: 878:            for (int i = 0; i < 7; i++)
  6362  0274  01BA               	clrf	TMR1_ISR_@i_1215
  6363  0275  01BB               	clrf	TMR1_ISR_@i_1215+1
  6364  0276                     i1l2436:
  6365  0276  083B               	movf	TMR1_ISR_@i_1215+1,w
  6366  0277  3A80               	xorlw	128
  6367  0278  00F9               	movwf	??_TMR1_ISR_
  6368  0279  3080               	movlw	128
  6369  027A  0279               	subwf	??_TMR1_ISR_,w
  6370  027B  1D03               	skipz
  6371  027C  2A7F               	goto	u149_25
  6372  027D  3007               	movlw	7
  6373  027E  023A               	subwf	TMR1_ISR_@i_1215,w
  6374  027F                     u149_25:
  6375  027F  1C03               	skipc
  6376  0280  2A82               	goto	u149_21
  6377  0281  2A83               	goto	u149_20
  6378  0282                     u149_21:
  6379  0282  2A84               	goto	i1l2440
  6380  0283                     u149_20:
  6381  0283  2C08               	goto	i1l2544
  6382  0284                     i1l2440:
  6383                           
  6384                           ;main.c: 879:            {;main.c: 880:                 light_array[i] = light_array[i] 
      +                          >> 1;
  6385  0284  0140               	movlb	0	; select bank0
  6386  0285  083A               	movf	TMR1_ISR_@i_1215,w
  6387  0286  3EB7               	addlw	(low (_light_array| 0))& (0+255)
  6388  0287  0086               	movwf	6
  6389  0288  0187               	clrf	7
  6390  0289  3601               	lsrf	1,w
  6391  028A  00F9               	movwf	??_TMR1_ISR_
  6392  028B  083A               	movf	TMR1_ISR_@i_1215,w
  6393  028C  3EB7               	addlw	(low (_light_array| 0))& (0+255)
  6394  028D  0086               	movwf	6
  6395  028E  0187               	clrf	7
  6396  028F  0879               	movf	??_TMR1_ISR_,w
  6397  0290  0081               	movwf	1
  6398  0291                     i1l2442:
  6399                           
  6400                           ;main.c: 881:            }
  6401  0291  3001               	movlw	1
  6402  0292  07BA               	addwf	TMR1_ISR_@i_1215,f
  6403  0293  3000               	movlw	0
  6404  0294  3DBB               	addwfc	TMR1_ISR_@i_1215+1,f
  6405  0295  2A76               	goto	i1l2436
  6406  0296                     i1l2446:
  6407  0296  0141               	movlb	1	; select bank1
  6408  0297  083F               	movf	(_count+1)^(0+128),w
  6409  0298  3A80               	xorlw	128
  6410  0299  00F9               	movwf	??_TMR1_ISR_
  6411  029A  3080               	movlw	128
  6412  029B  0279               	subwf	??_TMR1_ISR_,w
  6413  029C  1D03               	skipz
  6414  029D  2AA0               	goto	u150_25
  6415  029E  303E               	movlw	62
  6416  029F  023E               	subwf	_count^(0+128),w
  6417  02A0                     u150_25:
  6418  02A0  1803               	skipnc
  6419  02A1  2AA3               	goto	u150_21
  6420  02A2  2AA4               	goto	u150_20
  6421  02A3                     u150_21:
  6422  02A3  2ACE               	goto	i1l2462
  6423  02A4                     u150_20:
  6424  02A4                     i1l2448:
  6425  02A4  0141               	movlb	1	; select bank1
  6426  02A5  083F               	movf	(_count+1)^(0+128),w
  6427  02A6  3A80               	xorlw	128
  6428  02A7  00F9               	movwf	??_TMR1_ISR_
  6429  02A8  3080               	movlw	128
  6430  02A9  0279               	subwf	??_TMR1_ISR_,w
  6431  02AA  1D03               	skipz
  6432  02AB  2AAE               	goto	u151_25
  6433  02AC  302E               	movlw	46
  6434  02AD  023E               	subwf	_count^(0+128),w
  6435  02AE                     u151_25:
  6436  02AE  1C03               	skipc
  6437  02AF  2AB1               	goto	u151_21
  6438  02B0  2AB2               	goto	u151_20
  6439  02B1                     u151_21:
  6440  02B1  2ACE               	goto	i1l2462
  6441  02B2                     u151_20:
  6442  02B2                     i1l2450:
  6443                           
  6444                           ;main.c: 884:         {;main.c: 885:            for (int i = 0; i < 7; i++)
  6445  02B2  0140               	movlb	0	; select bank0
  6446  02B3  01AE               	clrf	TMR1_ISR_@i_1216
  6447  02B4  01AF               	clrf	TMR1_ISR_@i_1216+1
  6448  02B5                     i1l2452:
  6449  02B5  082F               	movf	TMR1_ISR_@i_1216+1,w
  6450  02B6  3A80               	xorlw	128
  6451  02B7  00F9               	movwf	??_TMR1_ISR_
  6452  02B8  3080               	movlw	128
  6453  02B9  0279               	subwf	??_TMR1_ISR_,w
  6454  02BA  1D03               	skipz
  6455  02BB  2ABE               	goto	u152_25
  6456  02BC  3007               	movlw	7
  6457  02BD  022E               	subwf	TMR1_ISR_@i_1216,w
  6458  02BE                     u152_25:
  6459  02BE  1C03               	skipc
  6460  02BF  2AC1               	goto	u152_21
  6461  02C0  2AC2               	goto	u152_20
  6462  02C1                     u152_21:
  6463  02C1  2AC3               	goto	i1l2456
  6464  02C2                     u152_20:
  6465  02C2  2C08               	goto	i1l2544
  6466  02C3                     i1l2456:
  6467                           
  6468                           ;main.c: 886:            {;main.c: 887:                 light_array[i] = 0x00;
  6469  02C3  0140               	movlb	0	; select bank0
  6470  02C4  082E               	movf	TMR1_ISR_@i_1216,w
  6471  02C5  3EB7               	addlw	(low (_light_array| 0))& (0+255)
  6472  02C6  0086               	movwf	6
  6473  02C7  0187               	clrf	7
  6474  02C8  0181               	clrf	1
  6475  02C9                     i1l2458:
  6476                           
  6477                           ;main.c: 888:            }
  6478  02C9  3001               	movlw	1
  6479  02CA  07AE               	addwf	TMR1_ISR_@i_1216,f
  6480  02CB  3000               	movlw	0
  6481  02CC  3DAF               	addwfc	TMR1_ISR_@i_1216+1,f
  6482  02CD  2AB5               	goto	i1l2452
  6483  02CE                     i1l2462:
  6484  02CE  0141               	movlb	1	; select bank1
  6485  02CF  083F               	movf	(_count+1)^(0+128),w
  6486  02D0  3A80               	xorlw	128
  6487  02D1  00F9               	movwf	??_TMR1_ISR_
  6488  02D2  3080               	movlw	128
  6489  02D3  0279               	subwf	??_TMR1_ISR_,w
  6490  02D4  1D03               	skipz
  6491  02D5  2AD8               	goto	u153_25
  6492  02D6  303E               	movlw	62
  6493  02D7  023E               	subwf	_count^(0+128),w
  6494  02D8                     u153_25:
  6495  02D8  1C03               	skipc
  6496  02D9  2ADB               	goto	u153_21
  6497  02DA  2ADC               	goto	u153_20
  6498  02DB                     u153_21:
  6499  02DB  2C08               	goto	i1l2544
  6500  02DC                     u153_20:
  6501  02DC                     i1l2464:
  6502                           
  6503                           ;main.c: 891:        {;main.c: 892:            jungle_count++;
  6504  02DC  3001               	movlw	1
  6505  02DD  00F9               	movwf	??_TMR1_ISR_
  6506  02DE  0879               	movf	??_TMR1_ISR_,w
  6507  02DF  0140               	movlb	0	; select bank0
  6508  02E0  07CA               	addwf	_jungle_count,f
  6509                           
  6510                           ;main.c: 893:            if (jungle_count == 1)
  6511  02E1  034A               	decf	_jungle_count,w
  6512  02E2  1D03               	btfss	3,2
  6513  02E3  2AE5               	goto	u154_21
  6514  02E4  2AE6               	goto	u154_20
  6515  02E5                     u154_21:
  6516  02E5  2B04               	goto	i1l2468
  6517  02E6                     u154_20:
  6518  02E6                     i1l2466:
  6519                           
  6520                           ;main.c: 894:            {;main.c: 895:                 light_array[0] = 0x88;
  6521  02E6  3088               	movlw	136
  6522  02E7  00F9               	movwf	??_TMR1_ISR_
  6523  02E8  0879               	movf	??_TMR1_ISR_,w
  6524  02E9  0141               	movlb	1	; select bank1
  6525  02EA  00B7               	movwf	_light_array^(0+128)
  6526                           
  6527                           ;main.c: 896:                 light_array[1] = 0x44;
  6528  02EB  3044               	movlw	68
  6529  02EC  00F9               	movwf	??_TMR1_ISR_
  6530  02ED  0879               	movf	??_TMR1_ISR_,w
  6531  02EE  00B8               	movwf	(_light_array^(0+128)+1)
  6532                           
  6533                           ;main.c: 897:                 light_array[2] = 0x22;
  6534  02EF  3022               	movlw	34
  6535  02F0  00F9               	movwf	??_TMR1_ISR_
  6536  02F1  0879               	movf	??_TMR1_ISR_,w
  6537  02F2  00B9               	movwf	(_light_array^(0+128)+2)
  6538                           
  6539                           ;main.c: 898:                 light_array[3] = 0x11;
  6540  02F3  3011               	movlw	17
  6541  02F4  00F9               	movwf	??_TMR1_ISR_
  6542  02F5  0879               	movf	??_TMR1_ISR_,w
  6543  02F6  00BA               	movwf	(_light_array^(0+128)+3)
  6544                           
  6545                           ;main.c: 899:                 light_array[4] = 0x88;
  6546  02F7  3088               	movlw	136
  6547  02F8  00F9               	movwf	??_TMR1_ISR_
  6548  02F9  0879               	movf	??_TMR1_ISR_,w
  6549  02FA  00BB               	movwf	(_light_array^(0+128)+4)
  6550                           
  6551                           ;main.c: 900:                 light_array[5] = 0x44;
  6552  02FB  3044               	movlw	68
  6553  02FC  00F9               	movwf	??_TMR1_ISR_
  6554  02FD  0879               	movf	??_TMR1_ISR_,w
  6555  02FE  00BC               	movwf	(_light_array^(0+128)+5)
  6556                           
  6557                           ;main.c: 901:                 light_array[6] = 0x22;
  6558  02FF  3022               	movlw	34
  6559  0300  00F9               	movwf	??_TMR1_ISR_
  6560  0301  0879               	movf	??_TMR1_ISR_,w
  6561  0302  00BD               	movwf	(_light_array^(0+128)+6)
  6562                           
  6563                           ;main.c: 902:            }
  6564  0303  2C08               	goto	i1l2544
  6565  0304                     i1l2468:
  6566  0304  3009               	movlw	9
  6567  0305  024A               	subwf	_jungle_count,w
  6568  0306  1803               	skipnc
  6569  0307  2B09               	goto	u155_21
  6570  0308  2B0A               	goto	u155_20
  6571  0309                     u155_21:
  6572  0309  2B4D               	goto	i1l2484
  6573  030A                     u155_20:
  6574  030A                     i1l2470:
  6575                           
  6576                           ;main.c: 904:            {;main.c: 905:                if (last_note != song3[count])
  6577  030A  303D               	movlw	61
  6578  030B  00F9               	movwf	??_TMR1_ISR_
  6579  030C  3022               	movlw	34
  6580  030D  00FA               	movwf	??_TMR1_ISR_+1
  6581  030E  0141               	movlb	1	; select bank1
  6582  030F  083E               	movf	_count^(0+128),w
  6583  0310  0779               	addwf	??_TMR1_ISR_,w
  6584  0311  0086               	movwf	6
  6585  0312  083F               	movf	(_count+1)^(0+128),w
  6586  0313  3D7A               	addwfc	??_TMR1_ISR_+1,w
  6587  0314  0087               	movwf	7
  6588  0315  0801               	movf	1,w
  6589  0316  0140               	movlb	0	; select bank0
  6590  0317  064C               	xorwf	_last_note,w
  6591  0318  1903               	skipnz
  6592  0319  2B1B               	goto	u156_21
  6593  031A  2B1C               	goto	u156_20
  6594  031B                     u156_21:
  6595  031B  2C08               	goto	i1l2544
  6596  031C                     u156_20:
  6597  031C                     i1l2472:
  6598                           
  6599                           ;main.c: 906:                {;main.c: 907:                     for (int i = 0; i < 7; i
      +                          ++)
  6600  031C  01C0               	clrf	TMR1_ISR_@i_1217
  6601  031D  01C1               	clrf	TMR1_ISR_@i_1217+1
  6602  031E                     i1l2474:
  6603  031E  0841               	movf	TMR1_ISR_@i_1217+1,w
  6604  031F  3A80               	xorlw	128
  6605  0320  00F9               	movwf	??_TMR1_ISR_
  6606  0321  3080               	movlw	128
  6607  0322  0279               	subwf	??_TMR1_ISR_,w
  6608  0323  1D03               	skipz
  6609  0324  2B27               	goto	u157_25
  6610  0325  3007               	movlw	7
  6611  0326  0240               	subwf	TMR1_ISR_@i_1217,w
  6612  0327                     u157_25:
  6613  0327  1C03               	skipc
  6614  0328  2B2A               	goto	u157_21
  6615  0329  2B2B               	goto	u157_20
  6616  032A                     u157_21:
  6617  032A  2B2C               	goto	i1l2478
  6618  032B                     u157_20:
  6619  032B  2C08               	goto	i1l2544
  6620  032C                     i1l2478:
  6621                           
  6622                           ;main.c: 908:                     {;main.c: 909:                         uint8_t lights 
      +                          = light_array[i] >> 7;
  6623  032C  0140               	movlb	0	; select bank0
  6624  032D  0840               	movf	TMR1_ISR_@i_1217,w
  6625  032E  3EB7               	addlw	(low (_light_array| 0))& (0+255)
  6626  032F  0086               	movwf	6
  6627  0330  0187               	clrf	7
  6628  0331  0801               	movf	1,w
  6629  0332  00F9               	movwf	??_TMR1_ISR_
  6630  0333  3007               	movlw	7
  6631  0334                     u158_25:
  6632  0334  36F9               	lsrf	??_TMR1_ISR_,f
  6633  0335  0B89               	decfsz	9,f
  6634  0336  2B34               	goto	u158_25
  6635  0337  0879               	movf	??_TMR1_ISR_,w
  6636  0338  00FA               	movwf	??_TMR1_ISR_+1
  6637  0339  087A               	movf	??_TMR1_ISR_+1,w
  6638  033A  00A2               	movwf	TMR1_ISR_@lights_1218
  6639                           
  6640                           ;main.c: 910:                         light_array[i] = (light_array[i] << 1) + lights;
  6641  033B  0840               	movf	TMR1_ISR_@i_1217,w
  6642  033C  3EB7               	addlw	(low (_light_array| 0))& (0+255)
  6643  033D  0086               	movwf	6
  6644  033E  0187               	clrf	7
  6645  033F  3501               	lslf	1,w
  6646  0340  0722               	addwf	TMR1_ISR_@lights_1218,w
  6647  0341  00F9               	movwf	??_TMR1_ISR_
  6648  0342  0840               	movf	TMR1_ISR_@i_1217,w
  6649  0343  3EB7               	addlw	(low (_light_array| 0))& (0+255)
  6650  0344  0086               	movwf	6
  6651  0345  0187               	clrf	7
  6652  0346  0879               	movf	??_TMR1_ISR_,w
  6653  0347  0081               	movwf	1
  6654  0348                     i1l2480:
  6655                           
  6656                           ;main.c: 911:                     }
  6657  0348  3001               	movlw	1
  6658  0349  07C0               	addwf	TMR1_ISR_@i_1217,f
  6659  034A  3000               	movlw	0
  6660  034B  3DC1               	addwfc	TMR1_ISR_@i_1217+1,f
  6661  034C  2B1E               	goto	i1l2474
  6662  034D                     i1l2484:
  6663  034D  3010               	movlw	16
  6664  034E  024A               	subwf	_jungle_count,w
  6665  034F  1803               	skipnc
  6666  0350  2B52               	goto	u159_21
  6667  0351  2B53               	goto	u159_20
  6668  0352                     u159_21:
  6669  0352  2C07               	goto	i1l2542
  6670  0353                     u159_20:
  6671  0353                     i1l2486:
  6672                           
  6673                           ;main.c: 915:            {;main.c: 916:                if (last_note != song3[count])
  6674  0353  303D               	movlw	61
  6675  0354  00F9               	movwf	??_TMR1_ISR_
  6676  0355  3022               	movlw	34
  6677  0356  00FA               	movwf	??_TMR1_ISR_+1
  6678  0357  0141               	movlb	1	; select bank1
  6679  0358  083E               	movf	_count^(0+128),w
  6680  0359  0779               	addwf	??_TMR1_ISR_,w
  6681  035A  0086               	movwf	6
  6682  035B  083F               	movf	(_count+1)^(0+128),w
  6683  035C  3D7A               	addwfc	??_TMR1_ISR_+1,w
  6684  035D  0087               	movwf	7
  6685  035E  0801               	movf	1,w
  6686  035F  0140               	movlb	0	; select bank0
  6687  0360  064C               	xorwf	_last_note,w
  6688  0361  1903               	skipnz
  6689  0362  2B64               	goto	u160_21
  6690  0363  2B65               	goto	u160_20
  6691  0364                     u160_21:
  6692  0364  2C08               	goto	i1l2544
  6693  0365                     u160_20:
  6694  0365                     i1l2488:
  6695                           
  6696                           ;main.c: 917:                {;main.c: 918:                    uint8_t jungle_sw = (jung
      +                          le_count - 8)/2;
  6697  0365  3002               	movlw	2
  6698  0366  00F0               	movwf	___awdiv@divisor
  6699  0367  3000               	movlw	0
  6700  0368  00F1               	movwf	___awdiv@divisor+1
  6701  0369  084A               	movf	_jungle_count,w
  6702  036A  3EF8               	addlw	248
  6703  036B  00F2               	movwf	___awdiv@dividend
  6704  036C  30FF               	movlw	255
  6705  036D  1803               	skipnc
  6706  036E  3000               	movlw	0
  6707  036F  00F3               	movwf	___awdiv@dividend+1
  6708  0370  3186  26BB  3180   	fcall	___awdiv
  6709  0373  0870               	movf	?___awdiv,w
  6710  0374  00F9               	movwf	??_TMR1_ISR_
  6711  0375  0879               	movf	??_TMR1_ISR_,w
  6712  0376  0140               	movlb	0	; select bank0
  6713  0377  00A3               	movwf	TMR1_ISR_@jungle_sw
  6714                           
  6715                           ;main.c: 919:                    switch (jungle_sw)
  6716  0378  2BF1               	goto	i1l2540
  6717  0379                     i1l2490:
  6718                           
  6719                           ;main.c: 922:                             for (int i = 0; i < 7; i++)
  6720  0379  01B0               	clrf	TMR1_ISR_@i_1220
  6721  037A  01B1               	clrf	TMR1_ISR_@i_1220+1
  6722  037B                     i1l2492:
  6723  037B  0831               	movf	TMR1_ISR_@i_1220+1,w
  6724  037C  3A80               	xorlw	128
  6725  037D  00F9               	movwf	??_TMR1_ISR_
  6726  037E  3080               	movlw	128
  6727  037F  0279               	subwf	??_TMR1_ISR_,w
  6728  0380  1D03               	skipz
  6729  0381  2B84               	goto	u161_25
  6730  0382  3007               	movlw	7
  6731  0383  0230               	subwf	TMR1_ISR_@i_1220,w
  6732  0384                     u161_25:
  6733  0384  1C03               	skipc
  6734  0385  2B87               	goto	u161_21
  6735  0386  2B88               	goto	u161_20
  6736  0387                     u161_21:
  6737  0387  2B89               	goto	i1l2496
  6738  0388                     u161_20:
  6739  0388  2C08               	goto	i1l2544
  6740  0389                     i1l2496:
  6741                           
  6742                           ;main.c: 923:                             {;main.c: 924:                                
      +                           light_array[i] = 0x81;
  6743  0389  3081               	movlw	129
  6744  038A  00F9               	movwf	??_TMR1_ISR_
  6745  038B  0140               	movlb	0	; select bank0
  6746  038C  0830               	movf	TMR1_ISR_@i_1220,w
  6747  038D  3EB7               	addlw	(low (_light_array| 0))& (0+255)
  6748  038E  0086               	movwf	6
  6749  038F  0187               	clrf	7
  6750  0390  0879               	movf	??_TMR1_ISR_,w
  6751  0391  0081               	movwf	1
  6752  0392                     i1l2498:
  6753                           
  6754                           ;main.c: 925:                             }
  6755  0392  3001               	movlw	1
  6756  0393  07B0               	addwf	TMR1_ISR_@i_1220,f
  6757  0394  3000               	movlw	0
  6758  0395  3DB1               	addwfc	TMR1_ISR_@i_1220+1,f
  6759  0396  2B7B               	goto	i1l2492
  6760  0397                     i1l2502:
  6761                           
  6762                           ;main.c: 928:                             for (int i = 0; i < 7; i++)
  6763  0397  01B2               	clrf	TMR1_ISR_@i_1221
  6764  0398  01B3               	clrf	TMR1_ISR_@i_1221+1
  6765  0399                     i1l2504:
  6766  0399  0833               	movf	TMR1_ISR_@i_1221+1,w
  6767  039A  3A80               	xorlw	128
  6768  039B  00F9               	movwf	??_TMR1_ISR_
  6769  039C  3080               	movlw	128
  6770  039D  0279               	subwf	??_TMR1_ISR_,w
  6771  039E  1D03               	skipz
  6772  039F  2BA2               	goto	u162_25
  6773  03A0  3007               	movlw	7
  6774  03A1  0232               	subwf	TMR1_ISR_@i_1221,w
  6775  03A2                     u162_25:
  6776  03A2  1C03               	skipc
  6777  03A3  2BA5               	goto	u162_21
  6778  03A4  2BA6               	goto	u162_20
  6779  03A5                     u162_21:
  6780  03A5  2BA7               	goto	i1l2508
  6781  03A6                     u162_20:
  6782  03A6  2C08               	goto	i1l2544
  6783  03A7                     i1l2508:
  6784                           
  6785                           ;main.c: 929:                             {;main.c: 930:                                
      +                           light_array[i] = 0xC3;
  6786  03A7  30C3               	movlw	195
  6787  03A8  00F9               	movwf	??_TMR1_ISR_
  6788  03A9  0140               	movlb	0	; select bank0
  6789  03AA  0832               	movf	TMR1_ISR_@i_1221,w
  6790  03AB  3EB7               	addlw	(low (_light_array| 0))& (0+255)
  6791  03AC  0086               	movwf	6
  6792  03AD  0187               	clrf	7
  6793  03AE  0879               	movf	??_TMR1_ISR_,w
  6794  03AF  0081               	movwf	1
  6795  03B0                     i1l2510:
  6796                           
  6797                           ;main.c: 931:                             }
  6798  03B0  3001               	movlw	1
  6799  03B1  07B2               	addwf	TMR1_ISR_@i_1221,f
  6800  03B2  3000               	movlw	0
  6801  03B3  3DB3               	addwfc	TMR1_ISR_@i_1221+1,f
  6802  03B4  2B99               	goto	i1l2504
  6803  03B5                     i1l2514:
  6804                           
  6805                           ;main.c: 934:                             for (int i = 0; i < 7; i++)
  6806  03B5  01B4               	clrf	TMR1_ISR_@i_1222
  6807  03B6  01B5               	clrf	TMR1_ISR_@i_1222+1
  6808  03B7                     i1l2516:
  6809  03B7  0835               	movf	TMR1_ISR_@i_1222+1,w
  6810  03B8  3A80               	xorlw	128
  6811  03B9  00F9               	movwf	??_TMR1_ISR_
  6812  03BA  3080               	movlw	128
  6813  03BB  0279               	subwf	??_TMR1_ISR_,w
  6814  03BC  1D03               	skipz
  6815  03BD  2BC0               	goto	u163_25
  6816  03BE  3007               	movlw	7
  6817  03BF  0234               	subwf	TMR1_ISR_@i_1222,w
  6818  03C0                     u163_25:
  6819  03C0  1C03               	skipc
  6820  03C1  2BC3               	goto	u163_21
  6821  03C2  2BC4               	goto	u163_20
  6822  03C3                     u163_21:
  6823  03C3  2BC5               	goto	i1l2520
  6824  03C4                     u163_20:
  6825  03C4  2C08               	goto	i1l2544
  6826  03C5                     i1l2520:
  6827                           
  6828                           ;main.c: 935:                             {;main.c: 936:                                
      +                           light_array[i] = 0xE7;
  6829  03C5  30E7               	movlw	231
  6830  03C6  00F9               	movwf	??_TMR1_ISR_
  6831  03C7  0140               	movlb	0	; select bank0
  6832  03C8  0834               	movf	TMR1_ISR_@i_1222,w
  6833  03C9  3EB7               	addlw	(low (_light_array| 0))& (0+255)
  6834  03CA  0086               	movwf	6
  6835  03CB  0187               	clrf	7
  6836  03CC  0879               	movf	??_TMR1_ISR_,w
  6837  03CD  0081               	movwf	1
  6838  03CE                     i1l2522:
  6839                           
  6840                           ;main.c: 937:                             }
  6841  03CE  3001               	movlw	1
  6842  03CF  07B4               	addwf	TMR1_ISR_@i_1222,f
  6843  03D0  3000               	movlw	0
  6844  03D1  3DB5               	addwfc	TMR1_ISR_@i_1222+1,f
  6845  03D2  2BB7               	goto	i1l2516
  6846  03D3                     i1l2526:
  6847                           
  6848                           ;main.c: 940:                             for (int i = 0; i < 7; i++)
  6849  03D3  01B6               	clrf	TMR1_ISR_@i_1223
  6850  03D4  01B7               	clrf	TMR1_ISR_@i_1223+1
  6851  03D5                     i1l2528:
  6852  03D5  0837               	movf	TMR1_ISR_@i_1223+1,w
  6853  03D6  3A80               	xorlw	128
  6854  03D7  00F9               	movwf	??_TMR1_ISR_
  6855  03D8  3080               	movlw	128
  6856  03D9  0279               	subwf	??_TMR1_ISR_,w
  6857  03DA  1D03               	skipz
  6858  03DB  2BDE               	goto	u164_25
  6859  03DC  3007               	movlw	7
  6860  03DD  0236               	subwf	TMR1_ISR_@i_1223,w
  6861  03DE                     u164_25:
  6862  03DE  1C03               	skipc
  6863  03DF  2BE1               	goto	u164_21
  6864  03E0  2BE2               	goto	u164_20
  6865  03E1                     u164_21:
  6866  03E1  2BE3               	goto	i1l2532
  6867  03E2                     u164_20:
  6868  03E2  2C08               	goto	i1l2544
  6869  03E3                     i1l2532:
  6870                           
  6871                           ;main.c: 941:                             {;main.c: 942:                                
      +                           light_array[i] = 0xFF;
  6872  03E3  30FF               	movlw	255
  6873  03E4  00F9               	movwf	??_TMR1_ISR_
  6874  03E5  0140               	movlb	0	; select bank0
  6875  03E6  0836               	movf	TMR1_ISR_@i_1223,w
  6876  03E7  3EB7               	addlw	(low (_light_array| 0))& (0+255)
  6877  03E8  0086               	movwf	6
  6878  03E9  0187               	clrf	7
  6879  03EA  0879               	movf	??_TMR1_ISR_,w
  6880  03EB  0081               	movwf	1
  6881  03EC                     i1l2534:
  6882                           
  6883                           ;main.c: 943:                             }
  6884  03EC  3001               	movlw	1
  6885  03ED  07B6               	addwf	TMR1_ISR_@i_1223,f
  6886  03EE  3000               	movlw	0
  6887  03EF  3DB7               	addwfc	TMR1_ISR_@i_1223+1,f
  6888  03F0  2BD5               	goto	i1l2528
  6889  03F1                     i1l2540:
  6890  03F1  0823               	movf	TMR1_ISR_@jungle_sw,w
  6891  03F2  00F9               	movwf	??_TMR1_ISR_
  6892  03F3  01FA               	clrf	??_TMR1_ISR_+1
  6893                           
  6894                           ; Switch on 2 bytes has been partitioned into a top level switch of size 1, and 1 sub-sw
      +                          itches
  6895                           ; Switch size 1, requested type "simple"
  6896                           ; Number of cases is 1, Range of values is 0 to 0
  6897                           ; switch strategies available:
  6898                           ; Name         Instructions Cycles
  6899                           ; simple_byte            4     3 (average)
  6900                           ; direct_byte            8     6 (fixed)
  6901                           ; jumptable            260     6 (fixed)
  6902                           ;	Chosen strategy is simple_byte
  6903  03F4  087A               	movf	??_TMR1_ISR_+1,w
  6904  03F5  3A00               	xorlw	0	; case 0
  6905  03F6  1903               	skipnz
  6906  03F7  2BF9               	goto	i1l3220
  6907  03F8  2C08               	goto	i1l2544
  6908  03F9                     i1l3220:
  6909                           
  6910                           ; Switch size 1, requested type "simple"
  6911                           ; Number of cases is 4, Range of values is 0 to 3
  6912                           ; switch strategies available:
  6913                           ; Name         Instructions Cycles
  6914                           ; simple_byte           13     7 (average)
  6915                           ; direct_byte           14     6 (fixed)
  6916                           ; jumptable            260     6 (fixed)
  6917                           ;	Chosen strategy is simple_byte
  6918  03F9  0879               	movf	??_TMR1_ISR_,w
  6919  03FA  3A00               	xorlw	0	; case 0
  6920  03FB  1903               	skipnz
  6921  03FC  2B79               	goto	i1l2490
  6922  03FD  3A01               	xorlw	1	; case 1
  6923  03FE  1903               	skipnz
  6924  03FF  2B97               	goto	i1l2502
  6925  0400  3A03               	xorlw	3	; case 2
  6926  0401  1903               	skipnz
  6927  0402  2BB5               	goto	i1l2514
  6928  0403  3A01               	xorlw	1	; case 3
  6929  0404  1903               	skipnz
  6930  0405  2BD3               	goto	i1l2526
  6931  0406  2C08               	goto	i1l2544
  6932  0407                     i1l2542:
  6933                           
  6934                           ;main.c: 949:            {;main.c: 950:                jungle_count = 0;
  6935  0407  01CA               	clrf	_jungle_count
  6936  0408                     i1l2544:
  6937                           
  6938                           ;main.c: 961:     if (song2_playing)
  6939  0408  0140               	movlb	0	; select bank0
  6940  0409  084D               	movf	_song2_playing,w
  6941  040A  1903               	btfsc	3,2
  6942  040B  2C0D               	goto	u165_21
  6943  040C  2C0E               	goto	u165_20
  6944  040D                     u165_21:
  6945  040D  2C1B               	goto	i1l2552
  6946  040E                     u165_20:
  6947  040E                     i1l2546:
  6948                           
  6949                           ;main.c: 962:     {;main.c: 964:         playNote(0, 0);
  6950  040E  01F0               	clrf	i1playNote@prescale
  6951  040F  3000               	movlw	0
  6952  0410  318D  25DA  3180   	fcall	i1_playNote
  6953  0413                     i1l2548:
  6954                           
  6955                           ;main.c: 966:         TMR1H = timer_high_2;
  6956  0413  0140               	movlb	0	; select bank0
  6957  0414  0855               	movf	_timer_high_2,w
  6958  0415  0144               	movlb	4	; select bank4
  6959  0416  008D               	movwf	13	;volatile
  6960  0417                     i1l2550:
  6961                           
  6962                           ;main.c: 967:         TMR1L = timer_low_2;
  6963  0417  0140               	movlb	0	; select bank0
  6964  0418  0854               	movf	_timer_low_2,w
  6965  0419  0144               	movlb	4	; select bank4
  6966  041A  008C               	movwf	12	;volatile
  6967  041B                     i1l2552:
  6968                           
  6969                           ;main.c: 971:     if (song3_playing)
  6970  041B  0140               	movlb	0	; select bank0
  6971  041C  084E               	movf	_song3_playing,w
  6972  041D  1903               	btfsc	3,2
  6973  041E  2C20               	goto	u166_21
  6974  041F  2C21               	goto	u166_20
  6975  0420                     u166_21:
  6976  0420  2C28               	goto	i1l664
  6977  0421                     u166_20:
  6978  0421                     i1l2554:
  6979                           
  6980                           ;main.c: 972:     {;main.c: 973:         TMR1H = timer_high_3;
  6981  0421  0852               	movf	_timer_high_3,w
  6982  0422  0144               	movlb	4	; select bank4
  6983  0423  008D               	movwf	13	;volatile
  6984                           
  6985                           ;main.c: 974:         TMR1L = timer_low_3;
  6986  0424  0140               	movlb	0	; select bank0
  6987  0425  0851               	movf	_timer_low_3,w
  6988  0426  0144               	movlb	4	; select bank4
  6989  0427  008C               	movwf	12	;volatile
  6990  0428                     i1l664:	
  6991                           ;main.c: 975:     }
  6992                           
  6993                           
  6994                           ;main.c: 978:     if ((count > 138) && silent_night_playing)
  6995  0428  0141               	movlb	1	; select bank1
  6996  0429  083F               	movf	(_count+1)^(0+128),w
  6997  042A  3A80               	xorlw	128
  6998  042B  00F9               	movwf	??_TMR1_ISR_
  6999  042C  3080               	movlw	128
  7000  042D  0279               	subwf	??_TMR1_ISR_,w
  7001  042E  1D03               	skipz
  7002  042F  2C32               	goto	u167_25
  7003  0430  308B               	movlw	139
  7004  0431  023E               	subwf	_count^(0+128),w
  7005  0432                     u167_25:
  7006  0432  1C03               	skipc
  7007  0433  2C35               	goto	u167_21
  7008  0434  2C36               	goto	u167_20
  7009  0435                     u167_21:
  7010  0435  2C41               	goto	i1l2560
  7011  0436                     u167_20:
  7012  0436                     i1l2556:
  7013  0436  0140               	movlb	0	; select bank0
  7014  0437  084F               	movf	_silent_night_playing,w
  7015  0438  1903               	btfsc	3,2
  7016  0439  2C3B               	goto	u168_21
  7017  043A  2C3C               	goto	u168_20
  7018  043B                     u168_21:
  7019  043B  2C41               	goto	i1l2560
  7020  043C                     u168_20:
  7021  043C                     i1l2558:
  7022                           
  7023                           ;main.c: 979:     {;main.c: 980:         presses = 0;
  7024  043C  0141               	movlb	1	; select bank1
  7025  043D  01C1               	clrf	_presses^(0+128)
  7026                           
  7027                           ;main.c: 981:         count = 0;
  7028  043E  01BE               	clrf	_count^(0+128)
  7029  043F  01BF               	clrf	(_count+1)^(0+128)
  7030                           
  7031                           ;main.c: 982:     }
  7032  0440  2C69               	goto	i1l670
  7033  0441                     i1l2560:
  7034  0441  0141               	movlb	1	; select bank1
  7035  0442  083F               	movf	(_count+1)^(0+128),w
  7036  0443  3A80               	xorlw	128
  7037  0444  3C80               	sublw	128
  7038  0445  1D03               	skipz
  7039  0446  2C4A               	goto	u169_25
  7040  0447  083E               	movf	_count^(0+128),w
  7041  0448  0140               	movlb	0	; select bank0
  7042  0449  0253               	subwf	_song2_length,w
  7043  044A                     u169_25:
  7044  044A  1803               	skipnc
  7045  044B  2C4D               	goto	u169_21
  7046  044C  2C4E               	goto	u169_20
  7047  044D                     u169_21:
  7048  044D  2C55               	goto	i1l2566
  7049  044E                     u169_20:
  7050  044E                     i1l2562:
  7051  044E  0140               	movlb	0	; select bank0
  7052  044F  084D               	movf	_song2_playing,w
  7053  0450  1903               	btfsc	3,2
  7054  0451  2C53               	goto	u170_21
  7055  0452  2C54               	goto	u170_20
  7056  0453                     u170_21:
  7057  0453  2C55               	goto	i1l2566
  7058  0454                     u170_20:
  7059  0454  2C3C               	goto	i1l2558
  7060  0455                     i1l2566:
  7061  0455  0141               	movlb	1	; select bank1
  7062  0456  083F               	movf	(_count+1)^(0+128),w
  7063  0457  3A80               	xorlw	128
  7064  0458  3C80               	sublw	128
  7065  0459  1D03               	skipz
  7066  045A  2C5E               	goto	u171_25
  7067  045B  083E               	movf	_count^(0+128),w
  7068  045C  0140               	movlb	0	; select bank0
  7069  045D  0250               	subwf	_song3_length,w
  7070  045E                     u171_25:
  7071  045E  1803               	skipnc
  7072  045F  2C61               	goto	u171_21
  7073  0460  2C62               	goto	u171_20
  7074  0461                     u171_21:
  7075  0461  2C69               	goto	i1l670
  7076  0462                     u171_20:
  7077  0462                     i1l2568:
  7078  0462  0140               	movlb	0	; select bank0
  7079  0463  084E               	movf	_song3_playing,w
  7080  0464  1903               	btfsc	3,2
  7081  0465  2C67               	goto	u172_21
  7082  0466  2C68               	goto	u172_20
  7083  0467                     u172_21:
  7084  0467  2C69               	goto	i1l670
  7085  0468                     u172_20:
  7086  0468  2C3C               	goto	i1l2558
  7087  0469                     i1l670:
  7088  0469  0008               	return
  7089  046A                     __end_of_TMR1_ISR_:
  7090                           
  7091                           	psect	text23
  7092  0DDA                     __ptext23:	
  7093 ;; *************** function i1_playNote *****************
  7094 ;; Defined at:
  7095 ;;		line 1010 in file "main.c"
  7096 ;; Parameters:    Size  Location     Type
  7097 ;;  note            1    wreg     unsigned char 
  7098 ;;  prescale        1    0[COMMON] unsigned char 
  7099 ;; Auto vars:     Size  Location     Type
  7100 ;;  note            1    2[COMMON] unsigned char 
  7101 ;; Return value:  Size  Location     Type
  7102 ;;                  1    wreg      void 
  7103 ;; Registers used:
  7104 ;;		wreg
  7105 ;; Tracked objects:
  7106 ;;		On entry : 0/0
  7107 ;;		On exit  : 0/0
  7108 ;;		Unchanged: 0/0
  7109 ;; Data sizes:     COMMON   BANK0   BANK1   BANK2   BANK3   BANK4   BANK5   BANK6   BANK7   BANK8   BANK9  BANK10  BANK1
      +1  BANK12
  7110 ;;      Params:         1       0       0       0       0       0       0       0       0       0       0       0       
      +0       0
  7111 ;;      Locals:         1       0       0       0       0       0       0       0       0       0       0       0       
      +0       0
  7112 ;;      Temps:          1       0       0       0       0       0       0       0       0       0       0       0       
      +0       0
  7113 ;;      Totals:         3       0       0       0       0       0       0       0       0       0       0       0       
      +0       0
  7114 ;;Total ram usage:        3 bytes
  7115 ;; Hardware stack levels used: 1
  7116 ;; This function calls:
  7117 ;;		Nothing
  7118 ;; This function is called by:
  7119 ;;		_TMR1_ISR_
  7120 ;; This function uses a non-reentrant model
  7121 ;;
  7122                           
  7123                           
  7124                           ;psect for function i1_playNote
  7125  0DDA                     i1_playNote:
  7126                           
  7127                           ;incstack = 0
  7128                           ; Regs used in i1_playNote: [wreg]
  7129                           ;i1playNote@note stored from wreg
  7130  0DDA  00F2               	movwf	i1playNote@note
  7131  0DDB                     i1l2174:
  7132                           
  7133                           ;main.c: 1010: void playNote(uint8_t note, uint8_t prescale);main.c: 1011: {;main.c: 101
      +                          3:     if (note != last_note)
  7134  0DDB  0872               	movf	i1playNote@note,w
  7135  0DDC  0140               	movlb	0	; select bank0
  7136  0DDD  064C               	xorwf	_last_note,w
  7137  0DDE  1903               	skipnz
  7138  0DDF  2DE1               	goto	u119_21
  7139  0DE0  2DE2               	goto	u119_20
  7140  0DE1                     u119_21:
  7141  0DE1  2DE5               	goto	i1l673
  7142  0DE2                     u119_20:
  7143  0DE2                     i1l2176:
  7144                           
  7145                           ;main.c: 1014:     {;main.c: 1015:         T2PR = note;
  7146  0DE2  0872               	movf	i1playNote@note,w
  7147  0DE3  0145               	movlb	5	; select bank5
  7148  0DE4  008D               	movwf	13	;volatile
  7149  0DE5                     i1l673:	
  7150                           ;main.c: 1016:     }
  7151                           
  7152                           
  7153                           ;main.c: 1018:     if (prescale != last_prescale)
  7154  0DE5  0870               	movf	i1playNote@prescale,w
  7155  0DE6  0140               	movlb	0	; select bank0
  7156  0DE7  064B               	xorwf	_last_prescale,w
  7157  0DE8  1903               	skipnz
  7158  0DE9  2DEB               	goto	u120_21
  7159  0DEA  2DEC               	goto	u120_20
  7160  0DEB                     u120_21:
  7161  0DEB  2DEF               	goto	i1l674
  7162  0DEC                     u120_20:
  7163  0DEC                     i1l2178:
  7164                           
  7165                           ;main.c: 1019:     {;main.c: 1020:         T2CON = prescale;
  7166  0DEC  0870               	movf	i1playNote@prescale,w
  7167  0DED  0145               	movlb	5	; select bank5
  7168  0DEE  008E               	movwf	14	;volatile
  7169  0DEF                     i1l674:	
  7170                           ;main.c: 1021:     }
  7171                           
  7172                           
  7173                           ;main.c: 1022:     last_note = note;
  7174  0DEF  0872               	movf	i1playNote@note,w
  7175  0DF0  00F1               	movwf	??i1_playNote
  7176  0DF1  0871               	movf	??i1_playNote,w
  7177  0DF2  0140               	movlb	0	; select bank0
  7178  0DF3  00CC               	movwf	_last_note
  7179                           
  7180                           ;main.c: 1023:     last_prescale = prescale;
  7181  0DF4  0870               	movf	i1playNote@prescale,w
  7182  0DF5  00F1               	movwf	??i1_playNote
  7183  0DF6  0871               	movf	??i1_playNote,w
  7184  0DF7  00CB               	movwf	_last_prescale
  7185  0DF8                     i1l675:
  7186  0DF8  0008               	return
  7187  0DF9                     __end_ofi1_playNote:
  7188                           
  7189                           	psect	text24
  7190  06BB                     __ptext24:	
  7191 ;; *************** function ___awdiv *****************
  7192 ;; Defined at:
  7193 ;;		line 5 in file "C:\Program Files\Microchip\xc8\v2.32\pic\sources\c99\common\awdiv.c"
  7194 ;; Parameters:    Size  Location     Type
  7195 ;;  divisor         2    0[COMMON] int 
  7196 ;;  dividend        2    2[COMMON] int 
  7197 ;; Auto vars:     Size  Location     Type
  7198 ;;  quotient        2    7[COMMON] int 
  7199 ;;  sign            1    6[COMMON] unsigned char 
  7200 ;;  counter         1    5[COMMON] unsigned char 
  7201 ;; Return value:  Size  Location     Type
  7202 ;;                  2    0[COMMON] int 
  7203 ;; Registers used:
  7204 ;;		wreg, status,2, status,0
  7205 ;; Tracked objects:
  7206 ;;		On entry : 0/0
  7207 ;;		On exit  : 0/0
  7208 ;;		Unchanged: 0/0
  7209 ;; Data sizes:     COMMON   BANK0   BANK1   BANK2   BANK3   BANK4   BANK5   BANK6   BANK7   BANK8   BANK9  BANK10  BANK1
      +1  BANK12
  7210 ;;      Params:         4       0       0       0       0       0       0       0       0       0       0       0       
      +0       0
  7211 ;;      Locals:         4       0       0       0       0       0       0       0       0       0       0       0       
      +0       0
  7212 ;;      Temps:          1       0       0       0       0       0       0       0       0       0       0       0       
      +0       0
  7213 ;;      Totals:         9       0       0       0       0       0       0       0       0       0       0       0       
      +0       0
  7214 ;;Total ram usage:        9 bytes
  7215 ;; Hardware stack levels used: 1
  7216 ;; This function calls:
  7217 ;;		Nothing
  7218 ;; This function is called by:
  7219 ;;		_TMR1_ISR_
  7220 ;; This function uses a non-reentrant model
  7221 ;;
  7222                           
  7223                           
  7224                           ;psect for function ___awdiv
  7225  06BB                     ___awdiv:
  7226  06BB                     i1l2130:	
  7227                           ;incstack = 0
  7228                           ; Regs used in ___awdiv: [wreg+status,2+status,0]
  7229                           
  7230  06BB  01F6               	clrf	___awdiv@sign
  7231  06BC                     i1l2132:
  7232  06BC  1FF1               	btfss	___awdiv@divisor+1,7
  7233  06BD  2EBF               	goto	u109_21
  7234  06BE  2EC0               	goto	u109_20
  7235  06BF                     u109_21:
  7236  06BF  2EC7               	goto	i1l2138
  7237  06C0                     u109_20:
  7238  06C0                     i1l2134:
  7239  06C0  09F0               	comf	___awdiv@divisor,f
  7240  06C1  09F1               	comf	___awdiv@divisor+1,f
  7241  06C2  0AF0               	incf	___awdiv@divisor,f
  7242  06C3  1903               	skipnz
  7243  06C4  0AF1               	incf	___awdiv@divisor+1,f
  7244  06C5                     i1l2136:
  7245  06C5  01F6               	clrf	___awdiv@sign
  7246  06C6  0AF6               	incf	___awdiv@sign,f
  7247  06C7                     i1l2138:
  7248  06C7  1FF3               	btfss	___awdiv@dividend+1,7
  7249  06C8  2ECA               	goto	u110_21
  7250  06C9  2ECB               	goto	u110_20
  7251  06CA                     u110_21:
  7252  06CA  2ED4               	goto	i1l2144
  7253  06CB                     u110_20:
  7254  06CB                     i1l2140:
  7255  06CB  09F2               	comf	___awdiv@dividend,f
  7256  06CC  09F3               	comf	___awdiv@dividend+1,f
  7257  06CD  0AF2               	incf	___awdiv@dividend,f
  7258  06CE  1903               	skipnz
  7259  06CF  0AF3               	incf	___awdiv@dividend+1,f
  7260  06D0                     i1l2142:
  7261  06D0  3001               	movlw	1
  7262  06D1  00F4               	movwf	??___awdiv
  7263  06D2  0874               	movf	??___awdiv,w
  7264  06D3  06F6               	xorwf	___awdiv@sign,f
  7265  06D4                     i1l2144:
  7266  06D4  01F7               	clrf	___awdiv@quotient
  7267  06D5  01F8               	clrf	___awdiv@quotient+1
  7268  06D6                     i1l2146:
  7269  06D6  0870               	movf	___awdiv@divisor,w
  7270  06D7  0471               	iorwf	___awdiv@divisor+1,w
  7271  06D8  1903               	btfsc	3,2
  7272  06D9  2EDB               	goto	u111_21
  7273  06DA  2EDC               	goto	u111_20
  7274  06DB                     u111_21:
  7275  06DB  2F0B               	goto	i1l2166
  7276  06DC                     u111_20:
  7277  06DC                     i1l2148:
  7278  06DC  01F5               	clrf	___awdiv@counter
  7279  06DD  0AF5               	incf	___awdiv@counter,f
  7280  06DE  2EE8               	goto	i1l2154
  7281  06DF                     i1l2150:
  7282  06DF  3001               	movlw	1
  7283  06E0                     u112_25:
  7284  06E0  35F0               	lslf	___awdiv@divisor,f
  7285  06E1  0DF1               	rlf	___awdiv@divisor+1,f
  7286  06E2  0B89               	decfsz	9,f
  7287  06E3  2EE0               	goto	u112_25
  7288  06E4                     i1l2152:
  7289  06E4  3001               	movlw	1
  7290  06E5  00F4               	movwf	??___awdiv
  7291  06E6  0874               	movf	??___awdiv,w
  7292  06E7  07F5               	addwf	___awdiv@counter,f
  7293  06E8                     i1l2154:
  7294  06E8  1FF1               	btfss	___awdiv@divisor+1,7
  7295  06E9  2EEB               	goto	u113_21
  7296  06EA  2EEC               	goto	u113_20
  7297  06EB                     u113_21:
  7298  06EB  2EDF               	goto	i1l2150
  7299  06EC                     u113_20:
  7300  06EC                     i1l2156:
  7301  06EC  3001               	movlw	1
  7302  06ED                     u114_25:
  7303  06ED  35F7               	lslf	___awdiv@quotient,f
  7304  06EE  0DF8               	rlf	___awdiv@quotient+1,f
  7305  06EF  0B89               	decfsz	9,f
  7306  06F0  2EED               	goto	u114_25
  7307  06F1  0871               	movf	___awdiv@divisor+1,w
  7308  06F2  0273               	subwf	___awdiv@dividend+1,w
  7309  06F3  1D03               	skipz
  7310  06F4  2EF7               	goto	u115_25
  7311  06F5  0870               	movf	___awdiv@divisor,w
  7312  06F6  0272               	subwf	___awdiv@dividend,w
  7313  06F7                     u115_25:
  7314  06F7  1C03               	skipc
  7315  06F8  2EFA               	goto	u115_21
  7316  06F9  2EFB               	goto	u115_20
  7317  06FA                     u115_21:
  7318  06FA  2F00               	goto	i1l2162
  7319  06FB                     u115_20:
  7320  06FB                     i1l2158:
  7321  06FB  0870               	movf	___awdiv@divisor,w
  7322  06FC  02F2               	subwf	___awdiv@dividend,f
  7323  06FD  0871               	movf	___awdiv@divisor+1,w
  7324  06FE  3BF3               	subwfb	___awdiv@dividend+1,f
  7325  06FF                     i1l2160:
  7326  06FF  1477               	bsf	___awdiv@quotient,0
  7327  0700                     i1l2162:
  7328  0700  3001               	movlw	1
  7329  0701                     u116_25:
  7330  0701  36F1               	lsrf	___awdiv@divisor+1,f
  7331  0702  0CF0               	rrf	___awdiv@divisor,f
  7332  0703  0B89               	decfsz	9,f
  7333  0704  2F01               	goto	u116_25
  7334  0705                     i1l2164:
  7335  0705  3001               	movlw	1
  7336  0706  02F5               	subwf	___awdiv@counter,f
  7337  0707  1D03               	btfss	3,2
  7338  0708  2F0A               	goto	u117_21
  7339  0709  2F0B               	goto	u117_20
  7340  070A                     u117_21:
  7341  070A  2EEC               	goto	i1l2156
  7342  070B                     u117_20:
  7343  070B                     i1l2166:
  7344  070B  0876               	movf	___awdiv@sign,w
  7345  070C  1903               	btfsc	3,2
  7346  070D  2F0F               	goto	u118_21
  7347  070E  2F10               	goto	u118_20
  7348  070F                     u118_21:
  7349  070F  2F15               	goto	i1l2170
  7350  0710                     u118_20:
  7351  0710                     i1l2168:
  7352  0710  09F7               	comf	___awdiv@quotient,f
  7353  0711  09F8               	comf	___awdiv@quotient+1,f
  7354  0712  0AF7               	incf	___awdiv@quotient,f
  7355  0713  1903               	skipnz
  7356  0714  0AF8               	incf	___awdiv@quotient+1,f
  7357  0715                     i1l2170:
  7358  0715  0878               	movf	___awdiv@quotient+1,w
  7359  0716  00F1               	movwf	?___awdiv+1
  7360  0717  0877               	movf	___awdiv@quotient,w
  7361  0718  00F0               	movwf	?___awdiv
  7362  0719                     i1l917:
  7363  0719  0008               	return
  7364  071A                     __end_of___awdiv:
  7365                           
  7366                           	psect	text25
  7367  0D6C                     __ptext25:	
  7368 ;; *************** function _TMR0_ISR *****************
  7369 ;; Defined at:
  7370 ;;		line 134 in file "mcc_generated_files/tmr0.c"
  7371 ;; Parameters:    Size  Location     Type
  7372 ;;		None
  7373 ;; Auto vars:     Size  Location     Type
  7374 ;;		None
  7375 ;; Return value:  Size  Location     Type
  7376 ;;                  1    wreg      void 
  7377 ;; Registers used:
  7378 ;;		wreg, status,2, status,0, pclath, cstack
  7379 ;; Tracked objects:
  7380 ;;		On entry : 0/0
  7381 ;;		On exit  : 0/0
  7382 ;;		Unchanged: 0/0
  7383 ;; Data sizes:     COMMON   BANK0   BANK1   BANK2   BANK3   BANK4   BANK5   BANK6   BANK7   BANK8   BANK9  BANK10  BANK1
      +1  BANK12
  7384 ;;      Params:         0       0       0       0       0       0       0       0       0       0       0       0       
      +0       0
  7385 ;;      Locals:         0       0       0       0       0       0       0       0       0       0       0       0       
      +0       0
  7386 ;;      Temps:          0       0       0       0       0       0       0       0       0       0       0       0       
      +0       0
  7387 ;;      Totals:         0       0       0       0       0       0       0       0       0       0       0       0       
      +0       0
  7388 ;;Total ram usage:        0 bytes
  7389 ;; Hardware stack levels used: 1
  7390 ;; Hardware stack levels required when called: 1
  7391 ;; This function calls:
  7392 ;;		Absolute function
  7393 ;;		_TMR0_DefaultInterruptHandler
  7394 ;;		_TMR0_ISR_
  7395 ;; This function is called by:
  7396 ;;		_INTERRUPT_InterruptManager
  7397 ;; This function uses a non-reentrant model
  7398 ;;
  7399                           
  7400                           
  7401                           ;psect for function _TMR0_ISR
  7402  0D6C                     _TMR0_ISR:
  7403  0D6C                     i1l2590:	
  7404                           ;incstack = 0
  7405                           ; Regs used in _TMR0_ISR: [wreg+status,2+status,0+pclath+cstack]
  7406                           
  7407                           
  7408                           ;mcc_generated_files/tmr0.c: 137:     PIR0bits.TMR0IF = 0;
  7409  0D6C  014E               	movlb	14	; select bank14
  7410  0D6D  128C               	bcf	12,5	;volatile
  7411  0D6E                     i1l2592:
  7412                           
  7413                           ;mcc_generated_files/tmr0.c: 139:     TMR0H = timer0ReloadVal16bit >> 8;
  7414  0D6E  0140               	movlb	0	; select bank0
  7415  0D6F  0847               	movf	_timer0ReloadVal16bit+1,w	;volatile
  7416  0D70  014B               	movlb	11	; select bank11
  7417  0D71  009D               	movwf	29	;volatile
  7418  0D72                     i1l2594:
  7419                           
  7420                           ;mcc_generated_files/tmr0.c: 140:     TMR0L = (uint8_t) timer0ReloadVal16bit;
  7421  0D72  0140               	movlb	0	; select bank0
  7422  0D73  0846               	movf	_timer0ReloadVal16bit,w	;volatile
  7423  0D74  014B               	movlb	11	; select bank11
  7424  0D75  009C               	movwf	28	;volatile
  7425  0D76                     i1l2596:
  7426                           
  7427                           ;mcc_generated_files/tmr0.c: 142:     if(TMR0_InterruptHandler)
  7428  0D76  0140               	movlb	0	; select bank0
  7429  0D77  0844               	movf	_TMR0_InterruptHandler,w
  7430  0D78  0445               	iorwf	_TMR0_InterruptHandler+1,w
  7431  0D79  1903               	btfsc	3,2
  7432  0D7A  2D7C               	goto	u173_21
  7433  0D7B  2D7D               	goto	u173_20
  7434  0D7C                     u173_21:
  7435  0D7C  2D82               	goto	i1l328
  7436  0D7D                     u173_20:
  7437  0D7D                     i1l2598:
  7438                           
  7439                           ;mcc_generated_files/tmr0.c: 143:     {;mcc_generated_files/tmr0.c: 144:         TMR0_In
      +                          terruptHandler();
  7440  0D7D  0845               	movf	_TMR0_InterruptHandler+1,w
  7441  0D7E  008A               	movwf	10
  7442  0D7F  0844               	movf	_TMR0_InterruptHandler,w
  7443  0D80  000A               	callw
  7444  0D81  318D               	pagesel	$
  7445  0D82                     i1l328:
  7446  0D82  0008               	return
  7447  0D83                     __end_of_TMR0_ISR:
  7448                           
  7449                           	psect	text26
  7450  0002                     __ptext26:	
  7451 ;; *************** function _TMR0_DefaultInterruptHandler *****************
  7452 ;; Defined at:
  7453 ;;		line 155 in file "mcc_generated_files/tmr0.c"
  7454 ;; Parameters:    Size  Location     Type
  7455 ;;		None
  7456 ;; Auto vars:     Size  Location     Type
  7457 ;;		None
  7458 ;; Return value:  Size  Location     Type
  7459 ;;                  1    wreg      void 
  7460 ;; Registers used:
  7461 ;;		None
  7462 ;; Tracked objects:
  7463 ;;		On entry : 0/0
  7464 ;;		On exit  : 0/0
  7465 ;;		Unchanged: 0/0
  7466 ;; Data sizes:     COMMON   BANK0   BANK1   BANK2   BANK3   BANK4   BANK5   BANK6   BANK7   BANK8   BANK9  BANK10  BANK1
      +1  BANK12
  7467 ;;      Params:         0       0       0       0       0       0       0       0       0       0       0       0       
      +0       0
  7468 ;;      Locals:         0       0       0       0       0       0       0       0       0       0       0       0       
      +0       0
  7469 ;;      Temps:          0       0       0       0       0       0       0       0       0       0       0       0       
      +0       0
  7470 ;;      Totals:         0       0       0       0       0       0       0       0       0       0       0       0       
      +0       0
  7471 ;;Total ram usage:        0 bytes
  7472 ;; Hardware stack levels used: 1
  7473 ;; This function calls:
  7474 ;;		Nothing
  7475 ;; This function is called by:
  7476 ;;		_TMR0_Initialize
  7477 ;;		_TMR0_ISR
  7478 ;; This function uses a non-reentrant model
  7479 ;;
  7480                           
  7481                           
  7482                           ;psect for function _TMR0_DefaultInterruptHandler
  7483  0002                     _TMR0_DefaultInterruptHandler:
  7484  0002                     i1l334:	
  7485                           ;incstack = 0
  7486                           ; Regs used in _TMR0_DefaultInterruptHandler: []
  7487                           
  7488  0002  0008               	return
  7489  0003                     __end_of_TMR0_DefaultInterruptHandler:
  7490                           
  7491                           	psect	text27
  7492  0CA4                     __ptext27:	
  7493 ;; *************** function _TMR0_ISR_ *****************
  7494 ;; Defined at:
  7495 ;;		line 610 in file "main.c"
  7496 ;; Parameters:    Size  Location     Type
  7497 ;;		None
  7498 ;; Auto vars:     Size  Location     Type
  7499 ;;		None
  7500 ;; Return value:  Size  Location     Type
  7501 ;;                  1    wreg      void 
  7502 ;; Registers used:
  7503 ;;		None
  7504 ;; Tracked objects:
  7505 ;;		On entry : 0/0
  7506 ;;		On exit  : 0/0
  7507 ;;		Unchanged: 0/0
  7508 ;; Data sizes:     COMMON   BANK0   BANK1   BANK2   BANK3   BANK4   BANK5   BANK6   BANK7   BANK8   BANK9  BANK10  BANK1
      +1  BANK12
  7509 ;;      Params:         0       0       0       0       0       0       0       0       0       0       0       0       
      +0       0
  7510 ;;      Locals:         0       0       0       0       0       0       0       0       0       0       0       0       
      +0       0
  7511 ;;      Temps:          0       0       0       0       0       0       0       0       0       0       0       0       
      +0       0
  7512 ;;      Totals:         0       0       0       0       0       0       0       0       0       0       0       0       
      +0       0
  7513 ;;Total ram usage:        0 bytes
  7514 ;; Hardware stack levels used: 1
  7515 ;; This function calls:
  7516 ;;		Nothing
  7517 ;; This function is called by:
  7518 ;;		_main
  7519 ;;		_TMR0_ISR
  7520 ;; This function uses a non-reentrant model
  7521 ;;
  7522                           
  7523                           
  7524                           ;psect for function _TMR0_ISR_
  7525  0CA4                     _TMR0_ISR_:
  7526  0CA4                     i1l2300:	
  7527                           ;incstack = 0
  7528                           ; Regs used in _TMR0_ISR_: []
  7529                           
  7530                           
  7531                           ;main.c: 612:     TMR0_complete = 1;
  7532  0CA4  0141               	movlb	1	; select bank1
  7533  0CA5  01C2               	clrf	_TMR0_complete^(0+128)
  7534  0CA6  0AC2               	incf	_TMR0_complete^(0+128),f
  7535  0CA7                     i1l590:
  7536  0CA7  0008               	return
  7537  0CA8                     __end_of_TMR0_ISR_:
  7538                           
  7539                           	psect	text28
  7540  0CA8                     __ptext28:	
  7541 ;; *************** function _INT_ISR *****************
  7542 ;; Defined at:
  7543 ;;		line 33 in file "mcc_generated_files/ext_int.c"
  7544 ;; Parameters:    Size  Location     Type
  7545 ;;		None
  7546 ;; Auto vars:     Size  Location     Type
  7547 ;;		None
  7548 ;; Return value:  Size  Location     Type
  7549 ;;                  1    wreg      void 
  7550 ;; Registers used:
  7551 ;;		wreg, status,2, status,0, pclath, cstack
  7552 ;; Tracked objects:
  7553 ;;		On entry : 0/0
  7554 ;;		On exit  : 0/0
  7555 ;;		Unchanged: 0/0
  7556 ;; Data sizes:     COMMON   BANK0   BANK1   BANK2   BANK3   BANK4   BANK5   BANK6   BANK7   BANK8   BANK9  BANK10  BANK1
      +1  BANK12
  7557 ;;      Params:         0       0       0       0       0       0       0       0       0       0       0       0       
      +0       0
  7558 ;;      Locals:         0       0       0       0       0       0       0       0       0       0       0       0       
      +0       0
  7559 ;;      Temps:          0       0       0       0       0       0       0       0       0       0       0       0       
      +0       0
  7560 ;;      Totals:         0       0       0       0       0       0       0       0       0       0       0       0       
      +0       0
  7561 ;;Total ram usage:        0 bytes
  7562 ;; Hardware stack levels used: 1
  7563 ;; Hardware stack levels required when called: 3
  7564 ;; This function calls:
  7565 ;;		_INT_CallBack
  7566 ;; This function is called by:
  7567 ;;		_INTERRUPT_InterruptManager
  7568 ;; This function uses a non-reentrant model
  7569 ;;
  7570                           
  7571                           
  7572                           ;psect for function _INT_ISR
  7573  0CA8                     _INT_ISR:
  7574  0CA8                     i1l2600:	
  7575                           ;incstack = 0
  7576                           ; Regs used in _INT_ISR: [wreg+status,2+status,0+pclath+cstack]
  7577                           
  7578                           
  7579                           ;mcc_generated_files/ext_int.c: 47:     (PIR0bits.INTF = 0);
  7580  0CA8  014E               	movlb	14	; select bank14
  7581  0CA9  100C               	bcf	12,0	;volatile
  7582  0CAA                     i1l2602:
  7583                           
  7584                           ;mcc_generated_files/ext_int.c: 50:     INT_CallBack();
  7585  0CAA  318C  24F9  318C   	fcall	_INT_CallBack
  7586  0CAD                     i1l271:
  7587  0CAD  0008               	return
  7588  0CAE                     __end_of_INT_ISR:
  7589                           
  7590                           	psect	text29
  7591  0CF9                     __ptext29:	
  7592 ;; *************** function _INT_CallBack *****************
  7593 ;; Defined at:
  7594 ;;		line 54 in file "mcc_generated_files/ext_int.c"
  7595 ;; Parameters:    Size  Location     Type
  7596 ;;		None
  7597 ;; Auto vars:     Size  Location     Type
  7598 ;;		None
  7599 ;; Return value:  Size  Location     Type
  7600 ;;                  1    wreg      void 
  7601 ;; Registers used:
  7602 ;;		wreg, status,2, status,0, pclath, cstack
  7603 ;; Tracked objects:
  7604 ;;		On entry : 0/0
  7605 ;;		On exit  : 0/0
  7606 ;;		Unchanged: 0/0
  7607 ;; Data sizes:     COMMON   BANK0   BANK1   BANK2   BANK3   BANK4   BANK5   BANK6   BANK7   BANK8   BANK9  BANK10  BANK1
      +1  BANK12
  7608 ;;      Params:         0       0       0       0       0       0       0       0       0       0       0       0       
      +0       0
  7609 ;;      Locals:         0       0       0       0       0       0       0       0       0       0       0       0       
      +0       0
  7610 ;;      Temps:          0       0       0       0       0       0       0       0       0       0       0       0       
      +0       0
  7611 ;;      Totals:         0       0       0       0       0       0       0       0       0       0       0       0       
      +0       0
  7612 ;;Total ram usage:        0 bytes
  7613 ;; Hardware stack levels used: 1
  7614 ;; Hardware stack levels required when called: 2
  7615 ;; This function calls:
  7616 ;;		Absolute function
  7617 ;;		_EXT_ISR
  7618 ;;		_INT_DefaultInterruptHandler
  7619 ;; This function is called by:
  7620 ;;		_INT_ISR
  7621 ;; This function uses a non-reentrant model
  7622 ;;
  7623                           
  7624                           
  7625                           ;psect for function _INT_CallBack
  7626  0CF9                     _INT_CallBack:
  7627  0CF9                     i1l2276:	
  7628                           ;incstack = 0
  7629                           ; Regs used in _INT_CallBack: [wreg+status,2+status,0+pclath+cstack]
  7630                           
  7631                           
  7632                           ;mcc_generated_files/ext_int.c: 57:     if(INT_InterruptHandler)
  7633  0CF9  0140               	movlb	0	; select bank0
  7634  0CFA  0848               	movf	_INT_InterruptHandler,w
  7635  0CFB  0449               	iorwf	_INT_InterruptHandler+1,w
  7636  0CFC  1903               	btfsc	3,2
  7637  0CFD  2CFF               	goto	u121_21
  7638  0CFE  2D00               	goto	u121_20
  7639  0CFF                     u121_21:
  7640  0CFF  2D05               	goto	i1l275
  7641  0D00                     u121_20:
  7642  0D00                     i1l2278:
  7643                           
  7644                           ;mcc_generated_files/ext_int.c: 58:     {;mcc_generated_files/ext_int.c: 59:         INT
      +                          _InterruptHandler();
  7645  0D00  0849               	movf	_INT_InterruptHandler+1,w
  7646  0D01  008A               	movwf	10
  7647  0D02  0848               	movf	_INT_InterruptHandler,w
  7648  0D03  000A               	callw
  7649  0D04  318C               	pagesel	$
  7650  0D05                     i1l275:
  7651  0D05  0008               	return
  7652  0D06                     __end_of_INT_CallBack:
  7653                           
  7654                           	psect	text30
  7655  0794                     __ptext30:	
  7656 ;; *************** function _EXT_ISR *****************
  7657 ;; Defined at:
  7658 ;;		line 573 in file "main.c"
  7659 ;; Parameters:    Size  Location     Type
  7660 ;;		None
  7661 ;; Auto vars:     Size  Location     Type
  7662 ;;  debounce        1    1[COMMON] unsigned char 
  7663 ;; Return value:  Size  Location     Type
  7664 ;;                  1    wreg      void 
  7665 ;; Registers used:
  7666 ;;		wreg, status,2, status,0, pclath, cstack
  7667 ;; Tracked objects:
  7668 ;;		On entry : 0/0
  7669 ;;		On exit  : 0/0
  7670 ;;		Unchanged: 0/0
  7671 ;; Data sizes:     COMMON   BANK0   BANK1   BANK2   BANK3   BANK4   BANK5   BANK6   BANK7   BANK8   BANK9  BANK10  BANK1
      +1  BANK12
  7672 ;;      Params:         0       0       0       0       0       0       0       0       0       0       0       0       
      +0       0
  7673 ;;      Locals:         1       0       0       0       0       0       0       0       0       0       0       0       
      +0       0
  7674 ;;      Temps:          1       0       0       0       0       0       0       0       0       0       0       0       
      +0       0
  7675 ;;      Totals:         2       0       0       0       0       0       0       0       0       0       0       0       
      +0       0
  7676 ;;Total ram usage:        2 bytes
  7677 ;; Hardware stack levels used: 1
  7678 ;; Hardware stack levels required when called: 1
  7679 ;; This function calls:
  7680 ;;		_TMR0_Reload
  7681 ;; This function is called by:
  7682 ;;		_main
  7683 ;;		_INT_CallBack
  7684 ;; This function uses a non-reentrant model
  7685 ;;
  7686                           
  7687                           
  7688                           ;psect for function _EXT_ISR
  7689  0794                     _EXT_ISR:
  7690  0794                     i1l2106:	
  7691                           ;incstack = 0
  7692                           ; Regs used in _EXT_ISR: [wreg+status,2+status,0+pclath+cstack]
  7693                           
  7694                           
  7695                           ;main.c: 575:     uint8_t debounce = 0;
  7696  0794  01F1               	clrf	EXT_ISR@debounce
  7697                           
  7698                           ;main.c: 576:     while (debounce < 20)
  7699  0795  2FA6               	goto	i1l2114
  7700  0796                     i1l580:
  7701                           
  7702                           ;main.c: 577:     {;main.c: 578:         if (PORTAbits.RA2)
  7703  0796  0140               	movlb	0	; select bank0
  7704  0797  1D0C               	btfss	12,2	;volatile
  7705  0798  2F9A               	goto	u105_21
  7706  0799  2F9B               	goto	u105_20
  7707  079A                     u105_21:
  7708  079A  2F94               	goto	i1l2106
  7709  079B                     u105_20:
  7710  079B                     i1l2108:
  7711                           
  7712                           ;main.c: 579:         {;main.c: 580:             debounce++;
  7713  079B  3001               	movlw	1
  7714  079C  00F0               	movwf	??_EXT_ISR
  7715  079D  0870               	movf	??_EXT_ISR,w
  7716  079E  07F1               	addwf	EXT_ISR@debounce,f
  7717  079F                     i1l2110:
  7718                           
  7719                           ;main.c: 581:             _delay((unsigned long)((1)*(8000000/4000.0)));
  7720  079F  3003               	movlw	3
  7721  07A0  00F0               	movwf	??_EXT_ISR
  7722  07A1  3098               	movlw	152
  7723  07A2                     u224_27:
  7724  07A2  0B89               	decfsz	9,f
  7725  07A3  2FA2               	goto	u224_27
  7726  07A4  0BF0               	decfsz	??_EXT_ISR,f
  7727  07A5  2FA2               	goto	u224_27
  7728  07A6                     i1l2114:	
  7729                           ;main.c: 582:         }
  7730                           
  7731                           
  7732                           ;main.c: 576:     while (debounce < 20)
  7733  07A6  3014               	movlw	20
  7734  07A7  0271               	subwf	EXT_ISR@debounce,w
  7735  07A8  1C03               	skipc
  7736  07A9  2FAB               	goto	u106_21
  7737  07AA  2FAC               	goto	u106_20
  7738  07AB                     u106_21:
  7739  07AB  2F96               	goto	i1l580
  7740  07AC                     u106_20:
  7741  07AC                     i1l2116:
  7742                           
  7743                           ;main.c: 588:     presses++;
  7744  07AC  3001               	movlw	1
  7745  07AD  00F0               	movwf	??_EXT_ISR
  7746  07AE  0870               	movf	??_EXT_ISR,w
  7747  07AF  0141               	movlb	1	; select bank1
  7748  07B0  07C1               	addwf	_presses^(0+128),f
  7749  07B1                     i1l2118:
  7750                           
  7751                           ;main.c: 589:     TMR0_Reload();
  7752  07B1  318C  24C9  3187   	fcall	_TMR0_Reload
  7753  07B4                     i1l2120:
  7754                           
  7755                           ;main.c: 592:     if (T1CONbits.TMR1ON)
  7756  07B4  0144               	movlb	4	; select bank4
  7757  07B5  1C0E               	btfss	14,0	;volatile
  7758  07B6  2FB8               	goto	u107_21
  7759  07B7  2FB9               	goto	u107_20
  7760  07B8                     u107_21:
  7761  07B8  2FBE               	goto	i1l2124
  7762  07B9                     u107_20:
  7763  07B9                     i1l2122:
  7764                           
  7765                           ;main.c: 593:     {;main.c: 594:         presses = 0;
  7766  07B9  0141               	movlb	1	; select bank1
  7767  07BA  01C1               	clrf	_presses^(0+128)
  7768                           
  7769                           ;main.c: 595:         count = 0;
  7770  07BB  01BE               	clrf	_count^(0+128)
  7771  07BC  01BF               	clrf	(_count+1)^(0+128)
  7772                           
  7773                           ;main.c: 596:     }
  7774  07BD  2FC0               	goto	i1l2126
  7775  07BE                     i1l2124:
  7776                           
  7777                           ;main.c: 599:     {;main.c: 600:         TMR0_complete = 0;
  7778  07BE  0141               	movlb	1	; select bank1
  7779  07BF  01C2               	clrf	_TMR0_complete^(0+128)
  7780  07C0                     i1l2126:
  7781                           
  7782                           ;main.c: 603:     if (presses > num_songs)
  7783  07C0  0841               	movf	_presses^(0+128),w
  7784  07C1  027D               	subwf	_num_songs,w
  7785  07C2  1803               	skipnc
  7786  07C3  2FC5               	goto	u108_21
  7787  07C4  2FC6               	goto	u108_20
  7788  07C5                     u108_21:
  7789  07C5  2FC7               	goto	i1l587
  7790  07C6                     u108_20:
  7791  07C6                     i1l2128:
  7792                           
  7793                           ;main.c: 604:     {;main.c: 605:         presses = 0;
  7794  07C6  01C1               	clrf	_presses^(0+128)
  7795  07C7                     i1l587:
  7796  07C7  0008               	return
  7797  07C8                     __end_of_EXT_ISR:
  7798                           
  7799                           	psect	text31
  7800  0CA0                     __ptext31:	
  7801 ;; *************** function _INT_DefaultInterruptHandler *****************
  7802 ;; Defined at:
  7803 ;;		line 67 in file "mcc_generated_files/ext_int.c"
  7804 ;; Parameters:    Size  Location     Type
  7805 ;;		None
  7806 ;; Auto vars:     Size  Location     Type
  7807 ;;		None
  7808 ;; Return value:  Size  Location     Type
  7809 ;;                  1    wreg      void 
  7810 ;; Registers used:
  7811 ;;		None
  7812 ;; Tracked objects:
  7813 ;;		On entry : 0/0
  7814 ;;		On exit  : 0/0
  7815 ;;		Unchanged: 0/0
  7816 ;; Data sizes:     COMMON   BANK0   BANK1   BANK2   BANK3   BANK4   BANK5   BANK6   BANK7   BANK8   BANK9  BANK10  BANK1
      +1  BANK12
  7817 ;;      Params:         0       0       0       0       0       0       0       0       0       0       0       0       
      +0       0
  7818 ;;      Locals:         0       0       0       0       0       0       0       0       0       0       0       0       
      +0       0
  7819 ;;      Temps:          0       0       0       0       0       0       0       0       0       0       0       0       
      +0       0
  7820 ;;      Totals:         0       0       0       0       0       0       0       0       0       0       0       0       
      +0       0
  7821 ;;Total ram usage:        0 bytes
  7822 ;; Hardware stack levels used: 1
  7823 ;; This function calls:
  7824 ;;		Nothing
  7825 ;; This function is called by:
  7826 ;;		_EXT_INT_Initialize
  7827 ;;		_INT_CallBack
  7828 ;; This function uses a non-reentrant model
  7829 ;;
  7830                           
  7831                           
  7832                           ;psect for function _INT_DefaultInterruptHandler
  7833  0CA0                     _INT_DefaultInterruptHandler:
  7834  0CA0                     i1l281:	
  7835                           ;incstack = 0
  7836                           ; Regs used in _INT_DefaultInterruptHandler: []
  7837                           
  7838  0CA0  0008               	return
  7839  0CA1                     __end_of_INT_DefaultInterruptHandler:
  7840                           
  7841                           	psect	text32
  7842  0CC9                     __ptext32:	
  7843 ;; *************** function _TMR0_Reload *****************
  7844 ;; Defined at:
  7845 ;;		line 127 in file "mcc_generated_files/tmr0.c"
  7846 ;; Parameters:    Size  Location     Type
  7847 ;;		None
  7848 ;; Auto vars:     Size  Location     Type
  7849 ;;		None
  7850 ;; Return value:  Size  Location     Type
  7851 ;;                  1    wreg      void 
  7852 ;; Registers used:
  7853 ;;		wreg, status,2
  7854 ;; Tracked objects:
  7855 ;;		On entry : 0/0
  7856 ;;		On exit  : 0/0
  7857 ;;		Unchanged: 0/0
  7858 ;; Data sizes:     COMMON   BANK0   BANK1   BANK2   BANK3   BANK4   BANK5   BANK6   BANK7   BANK8   BANK9  BANK10  BANK1
      +1  BANK12
  7859 ;;      Params:         0       0       0       0       0       0       0       0       0       0       0       0       
      +0       0
  7860 ;;      Locals:         0       0       0       0       0       0       0       0       0       0       0       0       
      +0       0
  7861 ;;      Temps:          0       0       0       0       0       0       0       0       0       0       0       0       
      +0       0
  7862 ;;      Totals:         0       0       0       0       0       0       0       0       0       0       0       0       
      +0       0
  7863 ;;Total ram usage:        0 bytes
  7864 ;; Hardware stack levels used: 1
  7865 ;; This function calls:
  7866 ;;		Nothing
  7867 ;; This function is called by:
  7868 ;;		_EXT_ISR
  7869 ;; This function uses a non-reentrant model
  7870 ;;
  7871                           
  7872                           
  7873                           ;psect for function _TMR0_Reload
  7874  0CC9                     _TMR0_Reload:
  7875  0CC9                     i1l2090:	
  7876                           ;incstack = 0
  7877                           ; Regs used in _TMR0_Reload: [wreg+status,2]
  7878                           
  7879                           
  7880                           ;mcc_generated_files/tmr0.c: 130:     TMR0H = timer0ReloadVal16bit >> 8;
  7881  0CC9  0140               	movlb	0	; select bank0
  7882  0CCA  0847               	movf	_timer0ReloadVal16bit+1,w	;volatile
  7883  0CCB  014B               	movlb	11	; select bank11
  7884  0CCC  009D               	movwf	29	;volatile
  7885  0CCD                     i1l2092:
  7886                           
  7887                           ;mcc_generated_files/tmr0.c: 131:     TMR0L = (uint8_t) timer0ReloadVal16bit;
  7888  0CCD  0140               	movlb	0	; select bank0
  7889  0CCE  0846               	movf	_timer0ReloadVal16bit,w	;volatile
  7890  0CCF  014B               	movlb	11	; select bank11
  7891  0CD0  009C               	movwf	28	;volatile
  7892  0CD1                     i1l324:
  7893  0CD1  0008               	return
  7894  0CD2                     __end_of_TMR0_Reload:
  7895  007E                     btemp	set	126	;btemp
  7896  007E                     int$flags	set	126
  7897  007E                     wtemp0	set	126
  7898  219F                     
  7899                           	psect	config
  7900                           
  7901                           ;Config register CONFIG1 @ 0x8007
  7902                           ;	External Oscillator Mode Selection bits
  7903                           ;	FEXTOSC = OFF, Oscillator not enabled
  7904                           ;	Power-up Default Value for COSC bits
  7905                           ;	RSTOSC = HFINTOSC_1MHZ, HFINTOSC (1 MHz)
  7906                           ;	Clock Out Enable bit
  7907                           ;	CLKOUTEN = OFF, CLKOUT function is disabled; I/O function on RA4
  7908                           ;	VDD Range Analog Calibration Selection bit
  7909                           ;	VDDAR = HI, Internal analog systems are calibrated for operation between VDD = 2.3V - 
      +                          5.5V
  7910  8007                     	org	32775
  7911  8007  3FED               	dw	16365
  7912                           
  7913                           ;Config register CONFIG2 @ 0x8008
  7914                           ;	Master Clear Enable bit
  7915                           ;	MCLRE = EXTMCLR, If LVP = 0, MCLR pin is MCLR; If LVP = 1, RA3 pin function is MCLR
  7916                           ;	Power-up Timer Selection bits
  7917                           ;	PWRTS = PWRT_OFF, PWRT is disabled
  7918                           ;	WDT Operating Mode bits
  7919                           ;	WDTE = OFF, WDT disabled; SEN is ignored
  7920                           ;	Brown-out Reset Enable bits
  7921                           ;	BOREN = ON, Brown-out Reset Enabled, SBOREN bit is ignored
  7922                           ;	Brown-out Reset Voltage Selection bit
  7923                           ;	BORV = LO, Brown-out Reset Voltage (VBOR) set to 1.9V
  7924                           ;	PPSLOCKED One-Way Set Enable bit
  7925                           ;	PPS1WAY = ON, The PPSLOCKED bit can be set once after an unlocking sequence is execute
      +                          d; once PPSLOCKED is set, all future changes to PPS registers are prevented
  7926                           ;	Stack Overflow/Underflow Reset Enable bit
  7927                           ;	STVREN = ON, Stack Overflow or Underflow will cause a reset
  7928  8008                     	org	32776
  7929  8008  3FE7               	dw	16359
  7930                           
  7931                           ;Config register CONFIG4 @ 0x800A
  7932                           ;	Boot Block Size Selection bits
  7933                           ;	BBSIZE = BB512, 512 words boot block size
  7934                           ;	Boot Block Enable bit
  7935                           ;	BBEN = OFF, Boot Block is disabled
  7936                           ;	SAF Enable bit
  7937                           ;	SAFEN = OFF, SAF is disabled
  7938                           ;	Application Block Write Protection bit
  7939                           ;	WRTAPP = OFF, Application Block is not write-protected
  7940                           ;	Boot Block Write Protection bit
  7941                           ;	WRTB = OFF, Boot Block is not write-protected
  7942                           ;	Configuration Registers Write Protection bit
  7943                           ;	WRTC = OFF, Configuration Registers are not write-protected
  7944                           ;	Storage Area Flash (SAF) Write Protection bit
  7945                           ;	WRTSAF = OFF, SAF is not write-protected
  7946                           ;	Low Voltage Programming Enable bit
  7947                           ;	LVP = ON, Low Voltage programming enabled. MCLR/Vpp pin function is MCLR. MCLRE Config
      +                          uration bit is ignored.
  7948  800A                     	org	32778
  7949  800A  3FFF               	dw	16383
  7950                           
  7951                           ;Config register CONFIG5 @ 0x800B
  7952                           ;	User Program Flash Memory Code Protection bit
  7953                           ;	CP = OFF, User Program Flash Memory code protection is disabled
  7954  800B                     	org	32779
  7955  800B  3FFF               	dw	16383

Data Sizes:
    Strings     0
    Constant    11
    Data        667
    BSS         11
    Persistent  42
    Stack       0

Auto Spaces:
    Space          Size  Autos    Used
    COMMON           14     11      14
    BANK0            80     34      54
    BANK1            80     23      35
    BANK2            80      0      60
    BANK3            80      0       0
    BANK4            80      0       0
    BANK5            15      0       0
    BANK6             0      0       0
    BANK7             0      0       0
    BANK8             0      0       0
    BANK9             0      0       0
    BANK10            0      0       0
    BANK11            0      0       0
    BANK12            0      0       0

Pointer List with Targets:

    displayMatrix@states	PTR unsigned char  size(1) Largest target is 7
		 -> light_array(BANK1[7]), 

    TMR1_SetInterruptHandler@InterruptHandler	PTR FTN()void  size(2) Largest target is 1
		 -> TMR1_ISR_(), TMR1_DefaultInterruptHandler(), 

    TMR1_InterruptHandler	PTR FTN()void  size(2) Largest target is 1
		 -> TMR1_ISR_(), TMR1_DefaultInterruptHandler(), Absolute function(), 

    TMR0_SetInterruptHandler@InterruptHandler	PTR FTN()void  size(2) Largest target is 1
		 -> TMR0_ISR_(), TMR0_DefaultInterruptHandler(), 

    TMR0_InterruptHandler	PTR FTN()void  size(2) Largest target is 1
		 -> TMR0_ISR_(), TMR0_DefaultInterruptHandler(), Absolute function(), 

    INT_SetInterruptHandler@InterruptHandler	PTR FTN()void  size(2) Largest target is 1
		 -> EXT_ISR(), INT_DefaultInterruptHandler(), 

    INT_InterruptHandler	PTR FTN()void  size(2) Largest target is 1
		 -> EXT_ISR(), INT_DefaultInterruptHandler(), Absolute function(), 


Critical Paths under _main in COMMON

    None.

Critical Paths under _INTERRUPT_InterruptManager in COMMON

    _TMR1_ISR->_TMR1_ISR_
    _TMR1_ISR_->___awdiv
    _INT_CallBack->_EXT_ISR

Critical Paths under _main in BANK0

    None.

Critical Paths under _INTERRUPT_InterruptManager in BANK0

    _TMR1_ISR->_TMR1_ISR_

Critical Paths under _main in BANK1

    _main->_displayMatrix
    _displayMatrix->_shiftBytes
    _shiftBytes->_SPI1_ExchangeByte
    _TMR1_Initialize->_TMR1_SetInterruptHandler
    _TMR0_Initialize->_TMR0_SetInterruptHandler
    _EXT_INT_Initialize->_INT_SetInterruptHandler

Critical Paths under _INTERRUPT_InterruptManager in BANK1

    None.

Critical Paths under _main in BANK2

    None.

Critical Paths under _INTERRUPT_InterruptManager in BANK2

    None.

Critical Paths under _main in BANK3

    None.

Critical Paths under _INTERRUPT_InterruptManager in BANK3

    None.

Critical Paths under _main in BANK4

    None.

Critical Paths under _INTERRUPT_InterruptManager in BANK4

    None.

Critical Paths under _main in BANK5

    None.

Critical Paths under _INTERRUPT_InterruptManager in BANK5

    None.

Critical Paths under _main in BANK6

    None.

Critical Paths under _INTERRUPT_InterruptManager in BANK6

    None.

Critical Paths under _main in BANK7

    None.

Critical Paths under _INTERRUPT_InterruptManager in BANK7

    None.

Critical Paths under _main in BANK8

    None.

Critical Paths under _INTERRUPT_InterruptManager in BANK8

    None.

Critical Paths under _main in BANK9

    None.

Critical Paths under _INTERRUPT_InterruptManager in BANK9

    None.

Critical Paths under _main in BANK10

    None.

Critical Paths under _INTERRUPT_InterruptManager in BANK10

    None.

Critical Paths under _main in BANK11

    None.

Critical Paths under _INTERRUPT_InterruptManager in BANK11

    None.

Critical Paths under _main in BANK12

    None.

Critical Paths under _INTERRUPT_InterruptManager in BANK12

    None.

Call Graph Tables:

 ---------------------------------------------------------------------------------
 (Depth) Function   	        Calls       Base Space   Used Autos Params    Refs
 ---------------------------------------------------------------------------------
 (0) _main                                                15    15      0    4038
                                              9 BANK1     14    14      0
                 _EXT_INT_Initialize
            _INT_SetInterruptHandler
                    _PWM3_Initialize
                    _SPI1_Initialize
                  _SYSTEM_Initialize
                    _TMR0_Initialize
           _TMR0_SetInterruptHandler
                    _TMR1_Initialize
           _TMR1_SetInterruptHandler
                    _TMR2_Initialize
                      _displayMatrix
                           _playNote
                         _shiftBytes
 ---------------------------------------------------------------------------------
 (1) _playNote                                             3     2      1     511
                                              0 BANK1      3     2      1
 ---------------------------------------------------------------------------------
 (1) _displayMatrix                                        6     6      0     739
                                              3 BANK1      6     6      0
                         _shiftBytes
 ---------------------------------------------------------------------------------
 (1) _shiftBytes                                           2     1      1     363
                                              1 BANK1      2     1      1
                  _SPI1_ExchangeByte
 ---------------------------------------------------------------------------------
 (2) _SPI1_ExchangeByte                                    1     1      0      31
                                              0 BANK1      1     1      0
 ---------------------------------------------------------------------------------
 (1) _SYSTEM_Initialize                                    0     0      0     633
                 _EXT_INT_Initialize
              _OSCILLATOR_Initialize
             _PIN_MANAGER_Initialize
                    _PWM3_Initialize
                    _SPI1_Initialize
                    _TMR0_Initialize
                    _TMR1_Initialize
                    _TMR2_Initialize
                     _WDT_Initialize
 ---------------------------------------------------------------------------------
 (2) _WDT_Initialize                                       0     0      0       0
 ---------------------------------------------------------------------------------
 (1) _TMR2_Initialize                                      0     0      0       0
 ---------------------------------------------------------------------------------
 (1) _TMR1_Initialize                                      0     0      0     211
           _TMR1_SetInterruptHandler
 ---------------------------------------------------------------------------------
 (1) _TMR1_SetInterruptHandler                             2     0      2     211
                                              0 BANK1      2     0      2
 ---------------------------------------------------------------------------------
 (1) _TMR0_Initialize                                      0     0      0     211
           _TMR0_SetInterruptHandler
 ---------------------------------------------------------------------------------
 (1) _TMR0_SetInterruptHandler                             2     0      2     211
                                              0 BANK1      2     0      2
 ---------------------------------------------------------------------------------
 (2) _SPI1_Initialize                                      0     0      0       0
 ---------------------------------------------------------------------------------
 (2) _PWM3_Initialize                                      0     0      0       0
 ---------------------------------------------------------------------------------
 (2) _PIN_MANAGER_Initialize                               0     0      0       0
 ---------------------------------------------------------------------------------
 (2) _OSCILLATOR_Initialize                                0     0      0       0
 ---------------------------------------------------------------------------------
 (2) _EXT_INT_Initialize                                   0     0      0     211
            _INT_SetInterruptHandler
 ---------------------------------------------------------------------------------
 (3) _INT_SetInterruptHandler                              2     0      2     211
                                              0 BANK1      2     0      2
 ---------------------------------------------------------------------------------
 Estimated maximum stack depth 3
 ---------------------------------------------------------------------------------
 (Depth) Function   	        Calls       Base Space   Used Autos Params    Refs
 ---------------------------------------------------------------------------------
 (4) _INTERRUPT_InterruptManager                           0     0      0    2163
                            _INT_ISR
                           _TMR0_ISR
                           _TMR1_ISR
 ---------------------------------------------------------------------------------
 (5) _TMR1_ISR                                             0     0      0    2138
                   Absolute function *
       _TMR1_DefaultInterruptHandler *
                          _TMR1_ISR_ *
                    _TMR1_WriteTimer
 ---------------------------------------------------------------------------------
 (6) _TMR1_WriteTimer                                      2     0      2     240
                                              0 COMMON     2     0      2
 ---------------------------------------------------------------------------------
 (6) _TMR1_ISR_                                           36    36      0    1898
                                              9 COMMON     2     2      0
                                              0 BANK0     34    34      0
                            ___awdiv
                         i1_playNote
 ---------------------------------------------------------------------------------
 (7) i1_playNote                                           3     2      1     158
                                              0 COMMON     3     2      1
 ---------------------------------------------------------------------------------
 (7) ___awdiv                                              9     5      4     452
                                              0 COMMON     9     5      4
 ---------------------------------------------------------------------------------
 (6) _TMR1_DefaultInterruptHandler                         0     0      0       0
 ---------------------------------------------------------------------------------
 (5) _TMR0_ISR                                             0     0      0       0
                   Absolute function *
       _TMR0_DefaultInterruptHandler *
                          _TMR0_ISR_ *
 ---------------------------------------------------------------------------------
 (6) _TMR0_ISR_                                            0     0      0       0
 ---------------------------------------------------------------------------------
 (6) _TMR0_DefaultInterruptHandler                         0     0      0       0
 ---------------------------------------------------------------------------------
 (5) _INT_ISR                                              0     0      0      25
                       _INT_CallBack
 ---------------------------------------------------------------------------------
 (6) _INT_CallBack                                         0     0      0      25
                   Absolute function *
                            _EXT_ISR *
        _INT_DefaultInterruptHandler *
 ---------------------------------------------------------------------------------
 (7) _INT_DefaultInterruptHandler                          0     0      0       0
 ---------------------------------------------------------------------------------
 (7) _EXT_ISR                                              2     2      0      25
                                              0 COMMON     2     2      0
                        _TMR0_Reload
 ---------------------------------------------------------------------------------
 (8) _TMR0_Reload                                          0     0      0       0
 ---------------------------------------------------------------------------------
 (6) Absolute function(Fake)                               0     0      0       0
 ---------------------------------------------------------------------------------
 Estimated maximum stack depth 8
 ---------------------------------------------------------------------------------

 Call Graph Graphs:

 _main (ROOT)
   _EXT_INT_Initialize
     _INT_SetInterruptHandler
   _INT_SetInterruptHandler
   _PWM3_Initialize
   _SPI1_Initialize
   _SYSTEM_Initialize
     _EXT_INT_Initialize
     _OSCILLATOR_Initialize
     _PIN_MANAGER_Initialize
     _PWM3_Initialize
     _SPI1_Initialize
     _TMR0_Initialize
       _TMR0_SetInterruptHandler
     _TMR1_Initialize
       _TMR1_SetInterruptHandler
     _TMR2_Initialize
     _WDT_Initialize
   _TMR0_Initialize
   _TMR0_SetInterruptHandler
   _TMR1_Initialize
   _TMR1_SetInterruptHandler
   _TMR2_Initialize
   _displayMatrix
     _shiftBytes
       _SPI1_ExchangeByte
   _playNote
   _shiftBytes

 _INTERRUPT_InterruptManager (ROOT)
   _INT_ISR
     _INT_CallBack
       Absolute function(Fake) *
       _EXT_ISR *
         _TMR0_Reload
       _INT_DefaultInterruptHandler *
   _TMR0_ISR
     Absolute function(Fake) *
     _TMR0_DefaultInterruptHandler *
     _TMR0_ISR_ *
   _TMR1_ISR
     Absolute function(Fake) *
     _TMR1_DefaultInterruptHandler *
     _TMR1_ISR_ *
       ___awdiv
       i1_playNote
     _TMR1_WriteTimer *

 Address spaces:
Name               Size   Autos  Total    Cost      Usage
BIGRAM             3F0      0       0       0        0.0%
NULL                 0      0       0       0        0.0%
CODE                 0      0       0       0        0.0%
BITCOMMON            E      0       0       1        0.0%
BITSFR0              0      0       0       1        0.0%
SFR0                 0      0       0       1        0.0%
COMMON               E      B       E       2      100.0%
BITSFR1              0      0       0       2        0.0%
SFR1                 0      0       0       2        0.0%
BITSFR2              0      0       0       3        0.0%
SFR2                 0      0       0       3        0.0%
STACK                0      0       0       3        0.0%
BITSFR3              0      0       0       4        0.0%
SFR3                 0      0       0       4        0.0%
ABS                  0      0      A3       4        0.0%
BITBANK0            50      0       0       5        0.0%
BITSFR4              0      0       0       5        0.0%
SFR4                 0      0       0       5        0.0%
BANK0               50     22      36       6       67.5%
BITSFR5              0      0       0       6        0.0%
SFR5                 0      0       0       6        0.0%
BITBANK1            50      0       0       7        0.0%
BITSFR6              0      0       0       7        0.0%
SFR6                 0      0       0       7        0.0%
BANK1               50     17      23       8       43.8%
BITSFR7              0      0       0       8        0.0%
SFR7                 0      0       0       8        0.0%
BITBANK2            50      0       0       9        0.0%
BITSFR8              0      0       0       9        0.0%
SFR8                 0      0       0       9        0.0%
BANK2               50      0      3C      10       75.0%
BITSFR9              0      0       0      10        0.0%
SFR9                 0      0       0      10        0.0%
BITBANK3            50      0       0      11        0.0%
BITSFR10             0      0       0      11        0.0%
SFR10                0      0       0      11        0.0%
BANK3               50      0       0      12        0.0%
BITSFR11             0      0       0      12        0.0%
SFR11                0      0       0      12        0.0%
BITBANK4            50      0       0      13        0.0%
BITSFR12             0      0       0      13        0.0%
SFR12                0      0       0      13        0.0%
BANK4               50      0       0      14        0.0%
BITSFR13             0      0       0      14        0.0%
SFR13                0      0       0      14        0.0%
BITBANK5            50      0       0      15        0.0%
BITSFR14             0      0       0      15        0.0%
SFR14                0      0       0      15        0.0%
BANK5                F      0       0      16        0.0%
BITSFR15             0      0       0      16        0.0%
SFR15                0      0       0      16        0.0%
BITBANK6            50      0       0      17        0.0%
BITSFR16             0      0       0      17        0.0%
SFR16                0      0       0      17        0.0%
BITSFR17             0      0       0      18        0.0%
SFR17                0      0       0      18        0.0%
BANK6                0      0       0      18        0.0%
BITBANK7            50      0       0      19        0.0%
BITSFR18             0      0       0      19        0.0%
SFR18                0      0       0      19        0.0%
BITSFR19             0      0       0      20        0.0%
SFR19                0      0       0      20        0.0%
BANK7                0      0       0      20        0.0%
BITBANK8            50      0       0      21        0.0%
BITSFR20             0      0       0      21        0.0%
SFR20                0      0       0      21        0.0%
BITSFR21             0      0       0      22        0.0%
SFR21                0      0       0      22        0.0%
BANK8                0      0       0      22        0.0%
BITBANK9            50      0       0      23        0.0%
BITSFR22             0      0       0      23        0.0%
SFR22                0      0       0      23        0.0%
BITSFR23             0      0       0      24        0.0%
SFR23                0      0       0      24        0.0%
BANK9                0      0       0      24        0.0%
BITBANK10           50      0       0      25        0.0%
BITSFR24             0      0       0      25        0.0%
SFR24                0      0       0      25        0.0%
BITSFR25             0      0       0      26        0.0%
SFR25                0      0       0      26        0.0%
BANK10               0      0       0      26        0.0%
BITBANK11           50      0       0      27        0.0%
BITSFR26             0      0       0      27        0.0%
SFR26                0      0       0      27        0.0%
BITSFR27             0      0       0      28        0.0%
SFR27                0      0       0      28        0.0%
BANK11               0      0       0      28        0.0%
BITBANK12           30      0       0      29        0.0%
BITSFR28             0      0       0      29        0.0%
SFR28                0      0       0      29        0.0%
BITSFR29             0      0       0      30        0.0%
SFR29                0      0       0      30        0.0%
BANK12               0      0       0      30        0.0%
BITSFR30             0      0       0      31        0.0%
SFR30                0      0       0      31        0.0%
DATA                 0      0      A3      31        0.0%
BITSFR31             0      0       0      32        0.0%
SFR31                0      0       0      32        0.0%
BITSFR32             0      0       0      33        0.0%
SFR32                0      0       0      33        0.0%
BITSFR33             0      0       0      34        0.0%
SFR33                0      0       0      34        0.0%
BITSFR34             0      0       0      35        0.0%
SFR34                0      0       0      35        0.0%
BITSFR35             0      0       0      36        0.0%
SFR35                0      0       0      36        0.0%
BITSFR36             0      0       0      37        0.0%
SFR36                0      0       0      37        0.0%
BITSFR37             0      0       0      38        0.0%
SFR37                0      0       0      38        0.0%
BITSFR38             0      0       0      39        0.0%
SFR38                0      0       0      39        0.0%
BITSFR39             0      0       0      40        0.0%
SFR39                0      0       0      40        0.0%
BITSFR40             0      0       0      41        0.0%
SFR40                0      0       0      41        0.0%
BITSFR41             0      0       0      42        0.0%
SFR41                0      0       0      42        0.0%
BITSFR42             0      0       0      43        0.0%
SFR42                0      0       0      43        0.0%
BITSFR43             0      0       0      44        0.0%
SFR43                0      0       0      44        0.0%
BITSFR44             0      0       0      45        0.0%
SFR44                0      0       0      45        0.0%
BITSFR45             0      0       0      46        0.0%
SFR45                0      0       0      46        0.0%
BITSFR46             0      0       0      47        0.0%
SFR46                0      0       0      47        0.0%
BITSFR47             0      0       0      48        0.0%
SFR47                0      0       0      48        0.0%
BITSFR48             0      0       0      49        0.0%
SFR48                0      0       0      49        0.0%
BITSFR49             0      0       0      50        0.0%
SFR49                0      0       0      50        0.0%
BITSFR50             0      0       0      51        0.0%
SFR50                0      0       0      51        0.0%
BITSFR51             0      0       0      52        0.0%
SFR51                0      0       0      52        0.0%
BITSFR52             0      0       0      53        0.0%
SFR52                0      0       0      53        0.0%
BITSFR53             0      0       0      54        0.0%
SFR53                0      0       0      54        0.0%
BITSFR54             0      0       0      55        0.0%
SFR54                0      0       0      55        0.0%
BITSFR55             0      0       0      56        0.0%
SFR55                0      0       0      56        0.0%
BITSFR56             0      0       0      57        0.0%
SFR56                0      0       0      57        0.0%
BITSFR57             0      0       0      58        0.0%
SFR57                0      0       0      58        0.0%
BITSFR58             0      0       0      59        0.0%
SFR58                0      0       0      59        0.0%
BITSFR59             0      0       0      60        0.0%
SFR59                0      0       0      60        0.0%
BITSFR60             0      0       0      61        0.0%
SFR60                0      0       0      61        0.0%
BITSFR61             0      0       0      62        0.0%
SFR61                0      0       0      62        0.0%
BITSFR62             0      0       0      63        0.0%
SFR62                0      0       0      63        0.0%
BITSFR63             0      0       0      64        0.0%
SFR63                0      0       0      64        0.0%


Microchip Technology PIC Macro Assembler V2.32 build 20210201212658 
Symbol Table                                                                                   Thu Dec 23 11:09:30 2021

                       _SPI1_ExchangeByte 0D22                                         _a 1004  
                                       _b 100A                                         _c 1009  
                                       _d 1008                                         _e 1007  
                                       _f 1006                                         _g 1005  
                                      l32 0CB3                                        l35 0CA3  
                                      l29 0D9E                                        l64 0D55  
                                      l74 0D27                                        l76 0D2C  
                                      l77 0D2F                              ___awdiv@sign 0076  
                      ?_SPI1_ExchangeByte 0070                                       l226 0CC8  
                                     l147 07EF                                       l331 0CE3  
                                     l309 0DBB                                       l177 0D21  
                                     l284 0D13                                       l365 0DD9  
                                     l278 0CDA                                       l570 0FF9  
                                     l395 0CEC                                       l572 0FFB  
                                     l573 0FFC                                       l557 0F70  
                                     l549 0EF8                                       l558 0F34  
                                     l673 0E06                                       l674 0E12  
                                     l675 0E1E                                       l696 0757  
                                     l689 07FE                                       _PR2 028D  
                         _timer1ReloadVal 007B                       ??_SPI1_ExchangeByte 00A0  
                         _TMR2_Initialize 0D14                                       wreg 0009  
                          ?_displayMatrix 0070                                      l3000 072E  
                                    l3002 073C                                      l3010 0E02  
                                    l3004 0745                                      l3012 0E0E  
                                    l3100 0ED5                                      l3006 074A  
                                    l3110 0F05                                      l3102 0ED9  
                                    l3030 0E1F                                      l3008 0DFB  
                                    l3120 0F30                                      l3112 0F06  
                                    l3104 0EE6                                      l3040 0E2B  
                                    l3032 0E22                                      l3122 0F38  
                                    l3114 0F0C                                      l3106 0EFA  
                                    l3050 0E54                                      l3042 0E2C  
                                    l3034 0E23                                      l3140 0FAD  
                                    l3124 0F54                                      l3132 0F5C  
                                    l3116 0F11                                      l3108 0F03  
                                    l3060 0E62                                      l3052 0E59  
                                    l3044 0E2D                                      l3036 0E27  
                                    l3150 0FE3                                      l3142 0FB5  
                                    l3134 0F75                                      l3126 0F56  
                                    l3118 0F14                                      l3054 0E5E  
                                    l3046 0E3A                                      l3038 0E29  
                                    l3144 0FD5                                      l3136 0F95  
                                    l3128 0F58                                      l3152 0FE5  
                                    l3080 0E8C                                      l3072 0E68  
                                    l3056 0E60                                      l3048 0E47  
                                    l3154 0FEB                                      l3146 0FDC  
                                    l3138 0F9C                                      l3218 0F65  
                                    l3090 0EB6                                      l3074 0E6C  
                                    l3066 0E65                                      l3058 0E61  
                                    l3156 0FF0                                      l3148 0FE1  
                                    l3092 0EC4                                      l3076 0E71  
                                    l3086 0E8F                                      l3078 0E7E  
                                    l3088 0EB2                                      l3098 0EC7  
                                    l2900 07E0                                      l2910 07EC  
                                    l2902 07E3                                      l2912 0CAE  
                                    l2904 07E5                                      l2920 0CC1  
                                    l2914 0CB0                                      l2906 07E8  
                                    l2930 0D1C                                      l2922 0D14  
                                    l2916 0CB2                                      l2908 07EA  
                                    l2940 0DC3                                      l2932 0D1E  
                                    l2924 0D17                                      l2860 0D24  
                                    l2870 0CE4                                      l2950 0DD6  
                                    l2942 0DC5                                      l2934 0DBC  
                                    l2926 0D18                                      l2918 0CA1  
                                    l2862 0D2D                                      l2952 0D06  
                                    l2880 0D53                                      l2872 0D41  
                                    l2960 0DAD                                      l2944 0DC7  
                                    l2936 0DBF                                      l2928 0D1B  
                                    l2866 0CD2                                      l2954 0D09  
                                    l2890 07D2                                      l2882 07C8  
                                    l2874 0D4E                                      l2962 0DAF  
                                    l2946 0DCC                                      l2938 0DC1  
                                    l2970 07FB                                      l2956 0D11  
                                    l2892 07D8                                      l2884 07CB  
                                    l2876 0D4F                                      l2868 0CDB  
                                    l2964 0DB0                                      l2948 0DCE  
                                    l2980 0D92                                      l2972 07FD  
                                    l2894 07DA                                      l2886 07CD  
                                    l2878 0D51                                      l2966 0DB8  
                                    l2958 0D9F                                      l2982 0D95  
                                    l2974 0D83                                      l2896 07DC  
                                    l2888 07CF                                      l2984 0D98  
                                    l2976 0D8C                                      l2968 07F2  
                                    l2898 07DE                                      l2986 0D9B  
                                    l2978 0D8F                                      l2994 071F  
                                    l2996 0725                                      l2988 071C  
                                    l2998 072A                                      u2020 0D2C  
                                    u2100 0E8C                                      u2021 0D2B  
                                    u2101 0E8B                                      u2030 0725  
                                    u2031 0724                                      u2040 0757  
                                    u2200 0FDC                                      u2041 0756  
                                    u2201 0FDB                                      u2105 0E88  
                                    u2050 0E02                                      u2210 0FEB  
                                    u2130 0EC3                                      u2051 0E01  
                                    u2211 0FEA                                      u2131 0EC2  
                                    u2115 0E97                                      u2060 0E0E  
                                    u2220 0FF0                                      u2140 0EE6  
                                    u2045 0753                                      u2061 0E0D  
                                    u2221 0FEF                                      u2141 0EE5  
                                    u2125 0EA2                                      _LATA 0018  
                                    u2150 0EF8                           __end_of_INT_ISR 0CAE  
                                    u2151 0EF7                                      u2135 0EBF  
                                    _LATC 001A                                      u2160 0F0C  
                                    u2161 0F0B                                      u2145 0EE2  
                                    u2170 0F11                                      u2090 0E7E  
                                    u2171 0F10                                      u2155 0EF4  
                                    u2091 0E7D                                      u2180 0F9B  
                                    u2237 0740                                      u2181 0F9A  
                                    u2190 0FB4                                      u2191 0FB3  
                                    u2095 0E7A                                      _T2PR 028D  
                         __end_of_EXT_ISR 07C8                                      _TMR2 028C  
                                    _WPUA 1F39                                      _WPUC 1F4F  
                                    _main 0E1F                                i1_playNote 0DDA  
                                    fsr0h 0005                                      fsr1h 0007  
                                    fsr0l 0004                                      indf1 0001  
                                    fsr1l 0006                                      btemp 007E  
     __end_of_INT_DefaultInterruptHandler 0CA1               _INT_DefaultInterruptHandler 0CA0  
                                    start 0031           __end_of_INT_SetInterruptHandler 0CDB  
               __end_of_SPI1_ExchangeByte 0D30                ??_TMR1_SetInterruptHandler 00A2  
                 __end_of_TMR0_Initialize 0DBC            ??_TMR0_DefaultInterruptHandler 0070  
          __size_of_OSCILLATOR_Initialize 0006             __end_of_OSCILLATOR_Initialize 0CB4  
                                   ?_main 0070                           __end_of___awdiv 071A  
                                   _T1CLK 0211                           ___awdiv@divisor 0070  
                                   _T1CON 020E                                     _T2CON 028E  
                                   _T2HLT 028F                                     _T2TMR 028C  
                                   i1l250 0013                                     _T2RST 0291  
                                   i1l324 0CD1                                     i1l252 001F  
                                   i1l253 002F                                     i1l334 0002  
                                   i1l271 0CAD                                     i1l328 0D82  
                                   i1l281 0CA0                                     i1l258 002F  
                                   i1l275 0D05                                     i1l392 0D6B  
                                   i1l379 0D40                                     i1l580 0796  
                                   i1l590 0CA7                                     i1l670 0469  
                                   i1l398 0003                                     i1l664 0428  
                                   i1l673 0DE5                                     i1l593 0177  
                                   i1l674 0DEF                                     i1l587 07C7  
                                   i1l675 0DF8                                     i1l917 0719  
                         ___awdiv@counter 0075                                     _OSCEN 0891  
                                   _TMR0H 059D                          playNote@prescale 00A0  
                                   _TMR1H 020D                                     _TMR0L 059C  
                                   _TMR1L 020C                                     _TRISA 0012  
                                   _TRISC 0014         __size_of_TMR0_SetInterruptHandler 0009  
               ?_TMR0_SetInterruptHandler 00A0                        __size_of_TMR0_ISR_ 0004  
                      __size_of_TMR1_ISR_ 03EB                          __end_of_TMR0_ISR 0D83  
                        __end_of_TMR1_ISR 0D6C                            _WDT_Initialize 0CA1  
                                   _count 00BE                                     _song2 0120  
                                   _song3 223D                                     main@i 00B1  
                                   main@j 00AF                   __end_of_PWM3_Initialize 0CC9  
                 __end_of_TMR1_Initialize 0DDA                                     pclath 000A  
                                   status 0003                                     wtemp0 007E  
                         _TMR1_WriteTimer 0D30                  __size_of_SPI1_Initialize 0015  
                         __initialization 0033                              __end_of_main 1000  
                 __end_of_TMR2_Initialize 0D22               ?_INTERRUPT_InterruptManager 0070  
                    TMR1_ISR_@lights_1209 0021                      TMR1_ISR_@lights_1218 0022  
                                  ??_main 00A9                           ??_displayMatrix 00A3  
                  __end_of_WDT_Initialize 0CA4                                 ??_INT_ISR 0072  
                               ??_EXT_ISR 0070                          ___awdiv@dividend 0072  
                                  _ANSELA 1F38                                    _ANSELC 1F4E  
                                  _T0CON0 059E                                    _T0CON1 059F  
                                  _T1GATE 0210                                    _T1GCON 020F  
                                  _RA5PPS 1F15                                    _RC3PPS 1F23  
                                  u110_20 06CB                                    u110_21 06CA  
                 TMR1_WriteTimer@timerVal 0070                                    i1l2110 079F  
                                  i1l2120 07B4                                    u111_20 06DC  
                                  u111_21 06DB                                    i1l2122 07B9  
                                  i1l2114 07A6                                    i1l2106 0794  
                                  i1l2130 06BB                                    _RC5PPS 1F25  
                                  i1l2124 07BE                                    i1l2116 07AC  
                                  i1l2108 079B                                    i1l2300 0CA4  
                                  i1l2140 06CB                                    i1l2132 06BC  
                                  i1l2126 07C0                                    i1l2118 07B1  
                                  i1l2150 06DF                                    i1l2142 06D0  
                                  i1l2134 06C0                                    i1l2310 00A6  
                                  i1l2302 007F                                    i1l2128 07C6  
                                  i1l2160 06FF                                    i1l2152 06E4  
                                  i1l2144 06D4                                    i1l2136 06C5  
                                  u120_20 0DEC                                    i1l2400 01F3  
                                  i1l2320 00C8                                    i1l2312 00B4  
                                  i1l2304 0084                                    u120_21 0DEB  
                                  _ODCONA 1F3A                                    i1l2090 0CC9  
                                  i1l2170 0715                                    i1l2162 0700  
                                  i1l2154 06E8                                    i1l2146 06D6  
                                  i1l2138 06C7                                    i1l2410 020C  
                                  i1l2402 0201                                    i1l2330 0116  
                                  i1l2322 00E4                                    i1l2314 00C6  
                                  i1l2306 008A                                    _ODCONC 1F50  
                                  i1l2092 0CCD                                    i1l2164 0705  
                                  i1l2156 06EC                                    i1l2148 06DC  
                                  i1l3220 03F9                                    i1l2420 0239  
                                  i1l2412 0215                                    i1l2404 0209  
                                  i1l2340 012A                                    i1l2324 00E8  
                                  i1l2308 0098                                    u112_25 06E0  
                                  i1l2158 06FB                                    i1l2166 070B  
                                  i1l2174 0DDB                                    i1l2510 03B0  
                                  i1l2502 0397                                    i1l2430 0255  
                                  i1l2414 0219                                    i1l2350 0149  
                                  i1l2342 0138                                    i1l2326 00F6  
                                  u105_20 079B                                    u121_20 0D00  
                                  i1l2600 0CA8                                    i1l2168 0710  
                                  u113_20 06EC                                    i1l2176 0DE2  
                                  i1l2520 03C5                                    i1l2504 0399  
                                  i1l2440 0284                                    i1l2432 0262  
                                  i1l2424 0247                                    i1l2416 0227  
                                  i1l2360 017D                                    i1l2352 0165  
                                  i1l2344 0146                                    i1l2336 0118  
                                  i1l2328 0104                                    i1l2280 0D30  
                                  u105_21 079A                                    u121_21 0CFF  
                                  u113_21 06EB                                    i1l2602 0CAA  
                                  i1l2178 0DEC                                    i1l2522 03CE  
                                  i1l2514 03B5                                    i1l2450 02B2  
                                  i1l2442 0291                                    i1l2434 0274  
                                  i1l2426 0250                                    i1l2418 0236  
                                  i1l2370 0197                                    i1l2362 018B  
                                  i1l2354 0169                                    i1l2338 0126  
                                  i1l2282 0D35                                    i1l2290 0D3C  
                                  i1l2610 0D66                                    i1l2276 0CF9  
                                  i1l2532 03E3                                    i1l2516 03B7  
                                  i1l2508 03A7                                    i1l2540 03F1  
                                  i1l2452 02B5                                    i1l2436 0276  
                                  i1l2372 019B                                    i1l2292 0D3E  
                                  i1l2284 0D36                                    i1l2604 0D56  
                                  i1l2278 0D00                                    i1l2550 0417  
                                  i1l2534 03EC                                    i1l2526 03D3  
                                  i1l2542 0407                                    i1l2470 030A  
                                  i1l2462 02CE                                    i1l2446 0296  
                                  i1l2390 01E3                                    i1l2382 01BA  
                                  i1l2374 01A9                                    i1l2358 0177  
                                  i1l2286 0D38                                    i1l2606 0D58  
                                  u106_20 07AC                                    i1l2560 0441  
                                  i1l2552 041B                                    i1l2528 03D5  
                                  i1l2480 0348                                    i1l2472 031C  
                                  i1l2464 02DC                                    i1l2456 02C3  
                                  i1l2448 02A4                                    i1l2384 01C3  
                                  i1l2376 01B7                                    i1l2368 018E  
                                  i1l2544 0408                                    u130_20 0104  
                                  i1l2288 0D3A                                    u122_20 0D35  
                                  i1l2608 0D5F                                    u106_21 07AB  
                                  u130_21 0103                                    u122_21 0D34  
                                  i1l2562 044E                                    i1l2554 0421  
                                  i1l2546 040E                                    i1l2490 0379  
                                  i1l2474 031E                                    i1l2466 02E6  
                                  i1l2458 02C9                                    i1l2386 01C7  
                                  i1l2556 0436                                    i1l2548 0413  
                                  i1l2492 037B                                    i1l2484 034D  
                                  i1l2468 0304                                    i1l2396 01E6  
                                  i1l2388 01D5                                    i1l2660 0017  
                                  u114_25 06ED                                    u130_25 0100  
                                  i1l2590 0D6C                                    i1l2566 0455  
                                  i1l2558 043C                                    i1l2486 0353  
                                  i1l2478 032C                                    i1l2398 01EF  
                                  i1l2662 001B                                    i1l2654 0006  
                                  u107_20 07B9                                    i1l2592 0D6E  
                                  u115_20 06FB                                    i1l2568 0462  
                                  i1l2496 0389                                    i1l2488 0365  
                                  u131_20 0116                                    u123_20 008A  
                                  i1l2664 0023                                    i1l2656 000B  
                                  u107_21 07B8                                    u115_21 06FA  
                                  u131_21 0115                                    u123_21 0089  
                                  i1l2594 0D72                                    i1l2498 0392  
                                  i1l2666 0027                                    i1l2658 000F  
                                  i1l2596 0D76                                    i1l2668 002B  
                                  u115_25 06F7                                    i1l2598 0D7D  
                                  u108_20 07C6                                    u140_20 01D4  
                                  u132_20 0137                                    u124_20 0098  
                                  u108_21 07C5                                    u140_21 01D3  
                                  u132_21 0136                                    u124_21 0097  
                                  u116_25 0701                                    u140_25 01D0  
                                  u132_25 0133                                    u124_25 0094  
                                  u117_20 070B                                    u109_20 06C0  
                                  u141_20 01E3                                    u133_20 0146  
                                  u125_20 00A6                                    u117_21 070A  
                                  u109_21 06BF                                    u141_21 01E2  
                                  u133_21 0145                                    u125_21 00A5  
                                  u141_25 01DF                                    u133_25 0142  
                                  u125_25 00A2                                    u118_20 0710  
                                  u150_20 02A4                                    u142_20 0200  
                                  u126_20 00B4                                    u118_21 070F  
                                  u150_21 02A3                                    u142_21 01FF  
                                  u126_21 00B3                                    u150_25 02A0  
                                  u142_25 01FC                                    u134_25 0151  
                                  u126_25 00B0                                    u119_20 0DE2  
                                  u151_20 02B2                                    u143_20 0209  
                                  u135_20 0176                                    u127_20 00C6  
                                  u119_21 0DE1                                    u151_21 02B1  
                                  u143_21 0208                                    u135_21 0175  
                                  u127_21 00C5                                    u151_25 02AE  
                                  u135_25 0172                                    u160_20 0365  
                                  u152_20 02C2                                    u144_20 0226  
                                  u136_20 017D                                    u160_21 0364  
                                  u152_21 02C1                                    u144_21 0225  
                                  u136_21 017C                                    _INLVLA 1F3C  
                                  _INLVLC 1F52                                    u152_25 02BE  
                                  u144_25 0222                                    u128_25 00D0  
                                  u224_27 07A2                                    u161_20 0388  
                                  u153_20 02DC                                    u145_20 0236  
                                  u137_20 018B                                    u129_20 00F5  
                                  u161_21 0387                                    u153_21 02DB  
                                  u145_21 0235                                    u137_21 018A  
                                  u129_21 00F4                                    u161_25 0384  
                                  u153_25 02D8                                    u137_25 0187  
                                  u129_25 00F1                                    u170_20 0454  
                                  u162_20 03A6                                    u154_20 02E6  
                                  u146_20 0246                                    u138_20 01A8  
                                  u170_21 0453                                    u162_21 03A5  
                                  u154_21 02E5                                    u146_21 0245  
                                  u138_21 01A7                                    u162_25 03A2  
                                  u146_25 0242                                    u138_25 01A4  
                                  u171_20 0462                                    u163_20 03C4  
                                  u155_20 030A                                    u147_20 0262  
                                  u139_20 01B7                                    u171_21 0461  
                                  u163_21 03C3                                    u155_21 0309  
                                  u147_21 0261                                    u139_21 01B6  
                                  u171_25 045E                                    u163_25 03C0  
                                  u147_25 025E                                    u139_25 01B3  
                                  u172_20 0468                                    u164_20 03E2  
                                  u156_20 031C                                    u148_20 0274  
                                  u172_21 0467                                    u164_21 03E1  
                                  u156_21 031B                                    u148_21 0273  
                                  u164_25 03DE                                    u173_20 0D7D  
                                  u165_20 040E                                    u157_20 032B  
                                  u149_20 0283                                    u181_20 000B  
                                  u173_21 0D7C                                    u165_21 040D  
                                  u157_21 032A                                    u149_21 0282  
                                  u181_21 000A                                    u157_25 0327  
                                  u149_25 027F                                    u166_20 0421  
                                  u174_20 0D66                                    u182_20 000F  
                                  u166_21 0420                                    u174_21 0D65  
                                  u182_21 000E                                    u158_25 0334  
                                  u167_20 0436                                    u159_20 0353  
                                  u183_20 0017                                    u167_21 0435  
                                  u159_21 0352                                    u183_21 0016  
                                  u167_25 0432                                    u168_20 043C  
                                  u184_20 001B                                    u168_21 043B  
                                  u184_21 001A                                    _INTPPS 1E90  
                                  u169_20 044E                                    u185_20 0023  
                                  u169_21 044D                                    u185_21 0022  
                                  u169_25 044A                                    u186_20 0027  
                                  u186_21 0026                                    u187_20 002B  
                                  u187_21 002A                                    _OSCFRQ 0893  
                                  _WDTCON 080C                               ?i1_playNote 0070  
              __size_of_SPI1_ExchangeByte 000E      __end_of_TMR1_DefaultInterruptHandler 0004  
   __size_of_TMR1_DefaultInterruptHandler 0001              _TMR1_DefaultInterruptHandler 0003  
                       __end_of_TMR0_ISR_ 0CA8                         __end_of_TMR1_ISR_ 046A  
                            ?_TMR0_Reload 0070                                 ??___awdiv 0074  
                        ?_TMR0_Initialize 0070                          ___awdiv@quotient 0077  
                           ?_INT_CallBack 0070                          __end_of_playNote 0E1F  
                            __pdataBIGRAM 219F                              __pdataCOMMON 007D  
                         ?_WDT_Initialize 0070          __size_of_INT_SetInterruptHandler 0009  
TMR1_SetInterruptHandler@InterruptHandler 00A0  TMR0_SetInterruptHandler@InterruptHandler 00A0  
 INT_SetInterruptHandler@InterruptHandler 00A0                   __end_of_TMR1_WriteTimer 0D41  
                        ?_TMR1_Initialize 0070                          ?_PWM3_Initialize 0070  
                       _SYSTEM_Initialize 0D83                   __end_of__initialization 007B  
                      ?_SYSTEM_Initialize 0070                             _last_prescale 004B  
                    _silent_night_playing 004F                            __pcstackCOMMON 0070  
                            __pidataBANK0 0CB4                              __pidataBANK1 0CBA  
                            __pidataBANK2 0758                       ??_SYSTEM_Initialize 00A2  
                               ?_TMR0_ISR 0070                                 ?_TMR1_ISR 0070  
           ?_TMR1_DefaultInterruptHandler 0070                        i1playNote@prescale 0070  
                       ??_SPI1_Initialize 00A0                          ?_TMR2_Initialize 0070  
                          ??_INT_CallBack 0072                     SPI1_ExchangeByte@data 00A0  
                         EXT_ISR@debounce 0071                         shiftBytes@lowSide 00A1  
                      _spi1_configuration 1000               __size_of_EXT_INT_Initialize 000E  
                     __size_ofi1_playNote 001F                 __end_of_SYSTEM_Initialize 0D9F  
                      TMR1_ISR_@jungle_sw 0023                                __pbssBANK0 004A  
                              __pbssBANK1 00BE                                __pnvCOMMON 007B  
                              __pmaintext 0E1F          __end_of_TMR0_SetInterruptHandler 0CE4  
                              ??_TMR0_ISR 0070                                ??_TMR1_ISR 007B  
                              __pintentry 0004                      displayMatrix@lowSide 00A8  
                                 _INT_ISR 0CA8                                   _EXT_ISR 0794  
                                 _OSCTUNE 0892                                   _PWM3DCH 0315  
                                 _PWM3DCL 0314                                   _PWM3CON 0316  
                                 _SSP1ADD 018D                                   _SLRCONA 1F3B  
                                 _SLRCONC 1F51                                   _SSP1BUF 018C  
                        ?_TMR1_WriteTimer 0070                                 ?_playNote 00A0  
                                 ___awdiv 06BB                      __size_of_TMR0_Reload 0009  
                                 __ptext1 0DF9                                   __ptext2 071A  
                                 __ptext3 07F0                                   __ptext4 0D22  
                                 __ptext5 0D83                                   __ptext6 0CA1  
                                 __ptext7 0D14                                   __ptext8 0DBC  
                                 __ptext9 0CE4            ??_TMR1_DefaultInterruptHandler 0070  
                               _T1CONbits 020E                     _OSCILLATOR_Initialize 0CAE  
                               _T2CONbits 028E                            displayMatrix@i 00A6  
       __size_of_TMR1_SetInterruptHandler 0009                  ??_PIN_MANAGER_Initialize 00A0  
               ?_TMR1_SetInterruptHandler 00A0                                 _T2HLTbits 028F  
                 _INT_SetInterruptHandler 0CD2                                   _presses 00C1  
              __size_of_SYSTEM_Initialize 001C                      end_of_initialization 007B  
                               _T2RSTbits 0291                                   init_ram 0CED  
                            ??i1_playNote 0071                                   initloop 0CEE  
                    __end_of_INT_CallBack 0D06                                _shiftBytes 07F0  
                              ??_playNote 00A1                                 _TMR0_ISR_ 0CA4  
                               _TMR1_ISR_ 007F                          ??_WDT_Initialize 00A0  
                _TMR0_SetInterruptHandler 0CDB                                 _PORTAbits 000C  
                      __end_ofi1_playNote 0DF9                                 _TRISAbits 0012  
                               _TRISCbits 0014                     __end_of_displayMatrix 0758  
                              main@j_1190 00B3                                main@j_1192 00B5  
                        _silent_night_pre 2366                           _SPI1_Initialize 0D41  
                    _timer0ReloadVal16bit 0046                             __pidataBIGRAM 046A  
                              ?_TMR0_ISR_ 0070                                ?_TMR1_ISR_ 0070  
                           __pidataCOMMON 07FF                         __size_of_TMR0_ISR 0017  
                       __size_of_TMR1_ISR 0016                    ?_OSCILLATOR_Initialize 0070  
               ??_INT_SetInterruptHandler 00A2                        shiftBytes@highSide 00A2  
                     start_initialization 0033                  __size_of_TMR0_Initialize 001D  
         __size_of_PIN_MANAGER_Initialize 0028              ?_INT_DefaultInterruptHandler 0070  
                             ?_shiftBytes 00A1                  __size_of_PWM3_Initialize 0008  
                __size_of_TMR1_Initialize 001E                               __pdataBANK0 0050  
                             __pdataBANK1 00B7                               __pdataBANK2 0120  
              __end_of_EXT_INT_Initialize 0D14                               __pbssCOMMON 0000  
                               ___latbits 0002                                  ?_INT_ISR 0070  
                           __pcstackBANK0 0020                             __pcstackBANK1 00A0  
                                ?_EXT_ISR 0070                  __size_of_TMR2_Initialize 000E  
                 __end_of_SPI1_Initialize 0D56                     __size_of_INT_CallBack 000D  
                               __end_of_a 1005                                 __end_of_b 100B  
                               __end_of_c 100A                                 __end_of_d 1009  
                               __end_of_e 1008                                 __end_of_f 1007  
                               __end_of_g 1006                           TMR1_ISR_@i_1210 0024  
                         TMR1_ISR_@i_1211 0026                           TMR1_ISR_@i_1220 0030  
                         TMR1_ISR_@i_1212 0028                           TMR1_ISR_@i_1221 0032  
                         TMR1_ISR_@i_1213 002A                           TMR1_ISR_@i_1222 0034  
                         TMR1_ISR_@i_1214 002C                           TMR1_ISR_@i_1215 003A  
                         TMR1_ISR_@i_1207 0038                           TMR1_ISR_@i_1223 0036  
                         TMR1_ISR_@i_1208 003E                           TMR1_ISR_@i_1216 002E  
                         TMR1_ISR_@i_1217 0040                     _TMR0_InterruptHandler 0044  
                               __pnvBANK0 0042                           TMR1_ISR_@lights 0020  
                  _PIN_MANAGER_Initialize 07C8             ??_INT_DefaultInterruptHandler 0070  
                       __size_of_playNote 0026          __end_of_TMR1_SetInterruptHandler 0CED  
                                ?___awdiv 0070                               ??_TMR0_ISR_ 0070  
                             ??_TMR1_ISR_ 0079              ??_INTERRUPT_InterruptManager 007B  
                     displayMatrix@states 00A5                              _INT_CallBack 0CF9  
                            playNote@note 00A2                       __size_of_shiftBytes 000F  
                               _last_note 004C                                TMR1_ISR_@i 003C  
                                _T2CLKCON 0290                         ??_TMR0_Initialize 00A2  
                                _LATCbits 001A                                  _PIE0bits 0716  
                                _PIE1bits 0717                  __size_of_TMR1_WriteTimer 0011  
     __size_of_INTERRUPT_InterruptManager 002D                ??_TMR0_SetInterruptHandler 00A2  
                                _PIR0bits 070C                                  _PIR1bits 070D  
                           ??_TMR0_Reload 0070                                 _song2_pre 0000  
                               _song3_pre 219F                                  _SSP1CON1 0190  
                                _SSP1CON2 0191                                  _TMR0_ISR 0D6C  
                                _TMR1_ISR 0D56                                 _num_songs 007D  
                                _SSP1STAT 018F                         ??_TMR1_Initialize 00A2  
                       ??_PWM3_Initialize 00A0                                 main@light 00AE  
    __size_of_INT_DefaultInterruptHandler 0001                            i1playNote@note 0072  
                        __size_of_INT_ISR 0006                          __size_of_EXT_ISR 0034  
                        ?_SPI1_Initialize 0070                         ??_TMR2_Initialize 00A0  
                           _song2_playing 004D                             _song3_playing 004E  
                           _TMR0_complete 00C2                   ??_OSCILLATOR_Initialize 00A0  
                            _jungle_count 004A                          __size_of___awdiv 005F  
                             _light_array 00B7                  _TMR1_SetInterruptHandler 0CE4  
                     __end_of_TMR0_Reload 0CD2                     _TMR1_InterruptHandler 0042  
                              _T0CON0bits 059E                                  __ptext10 0D9F  
                                __ptext11 0CDB                                  __ptext20 0D30  
                                __ptext12 0D41                                  __ptext21 0003  
                                __ptext13 0CC1                                _T1GCONbits 020F  
                                __ptext30 0794                                  __ptext22 007F  
                                __ptext14 07C8                                  __ptext31 0CA0  
                                __ptext23 0DDA                                  __ptext15 0CAE  
                                __ptext32 0CC9                                  __ptext24 06BB  
                                __ptext16 0D06                                  __ptext25 0D6C  
                                __ptext17 0CD2                                  __ptext26 0002  
                                __ptext27 0CA4                                  __ptext19 0D56  
                                __ptext28 0CA8                                  __ptext29 0CF9  
                            _SSP1CON1bits 0190                             __size_of_main 01E1  
    __end_of_TMR0_DefaultInterruptHandler 0003     __size_of_TMR0_DefaultInterruptHandler 0001  
            _TMR0_DefaultInterruptHandler 0002                              ??_shiftBytes 00A2  
                                _playNote 0DF9                    __size_of_displayMatrix 003E  
                                int$flags 007E        __end_of_INTERRUPT_InterruptManager 0031  
              _INTERRUPT_InterruptManager 0004                         ??_TMR1_WriteTimer 0072  
                            _song2_length 0053                              _song3_length 0050  
                              _INTCONbits 000B                      _INT_InterruptHandler 0048  
                      __end_of_shiftBytes 07FF                               _jungle_bool 00C0  
                            _silent_night 22DB                        _EXT_INT_Initialize 0D06  
                 __size_of_WDT_Initialize 0003                                  intlevel1 0000  
                 ?_PIN_MANAGER_Initialize 0070                       ?_EXT_INT_Initialize 0070  
           ?_TMR0_DefaultInterruptHandler 0070                               _TMR0_Reload 0CC9  
                            _timer_high_2 0055                              _timer_high_3 0052  
                ?_INT_SetInterruptHandler 00A0                             __pstringtext1 1000  
                           __pstringtext2 1004                             __pstringtext3 1005  
                           __pstringtext4 1006                             __pstringtext5 1007  
                           __pstringtext6 1008                             __pstringtext7 1009  
                           __pstringtext8 100A                      ??_EXT_INT_Initialize 00A2  
                              _SSP1DATPPS 1EC6                                _SSP1CLKPPS 1EC5  
                         _TMR0_Initialize 0D9F                               _timer_low_2 0054  
                             _timer_low_3 0051                             _displayMatrix 071A  
          __end_of_PIN_MANAGER_Initialize 07F0                           _TMR1_Initialize 0DBC  
                         _PWM3_Initialize 0CC1                __end_of_spi1_configuration 1004  
