

Microchip MPLAB XC8 Assembler V2.32 build 20210201212658 
                                                                                               Thu Dec 23 11:01:29 2021

Microchip MPLAB XC8 C Compiler v2.32 (Free license) build 20210201212658 Og1 
     1                           	processor	16F15225
     2                           	pagewidth 120
     3                           	opt	flic
     4                           	psect	idataBIGRAM,global,class=CODE,delta=2,noexec
     5                           	psect	idataCOMMON,global,class=CODE,delta=2,noexec
     6                           	psect	idataBANK0,global,class=CODE,delta=2,noexec
     7                           	psect	idataBANK1,global,class=CODE,delta=2,noexec
     8                           	psect	idataBANK2,global,class=CODE,delta=2,noexec
     9                           	psect	stringtext1,global,class=STRCODE,delta=2,noexec
    10                           	psect	stringtext2,global,class=STRCODE,delta=2,noexec
    11                           	psect	stringtext3,global,class=STRCODE,delta=2,noexec
    12                           	psect	stringtext4,global,class=STRCODE,delta=2,noexec
    13                           	psect	stringtext5,global,class=STRCODE,delta=2,noexec
    14                           	psect	stringtext6,global,class=STRCODE,delta=2,noexec
    15                           	psect	stringtext7,global,class=STRCODE,delta=2,noexec
    16                           	psect	stringtext8,global,class=STRCODE,delta=2,noexec
    17                           	psect	nvCOMMON,global,class=COMMON,space=1,delta=1,noexec
    18                           	psect	nvBANK0,global,class=BANK0,space=1,delta=1,noexec
    19                           	psect	cinit,global,class=CODE,merge=1,delta=2
    20                           	psect	dataBIGRAM,global,delta=1
    21                           	psect	bssCOMMON,global,class=COMMON,space=1,delta=1,noexec
    22                           	psect	dataCOMMON,global,class=COMMON,space=1,delta=1,noexec
    23                           	psect	bssBANK0,global,class=BANK0,space=1,delta=1,noexec
    24                           	psect	dataBANK0,global,class=BANK0,space=1,delta=1,noexec
    25                           	psect	bssBANK1,global,class=BANK1,space=1,delta=1,noexec
    26                           	psect	dataBANK1,global,class=BANK1,space=1,delta=1,noexec
    27                           	psect	dataBANK2,global,class=BANK2,space=1,delta=1,noexec
    28                           	psect	inittext,global,class=CODE,delta=2
    29                           	psect	cstackBANK1,global,class=BANK1,space=1,delta=1,noexec
    30                           	psect	cstackCOMMON,global,class=COMMON,space=1,delta=1,noexec
    31                           	psect	cstackBANK0,global,class=BANK0,space=1,delta=1,noexec
    32                           	psect	maintext,global,class=CODE,merge=1,split=1,delta=2
    33                           	psect	text1,local,class=CODE,merge=1,delta=2
    34                           	psect	text2,local,class=CODE,merge=1,delta=2
    35                           	psect	text3,local,class=CODE,merge=1,delta=2
    36                           	psect	text4,local,class=CODE,merge=1,delta=2
    37                           	psect	text5,local,class=CODE,merge=1,delta=2
    38                           	psect	text6,local,class=CODE,merge=1,delta=2
    39                           	psect	text7,local,class=CODE,merge=1,delta=2
    40                           	psect	text8,local,class=CODE,merge=1,delta=2
    41                           	psect	text9,local,class=CODE,merge=1,delta=2
    42                           	psect	text10,local,class=CODE,merge=1,delta=2
    43                           	psect	text11,local,class=CODE,merge=1,delta=2
    44                           	psect	text12,local,class=CODE,merge=1,delta=2
    45                           	psect	text13,local,class=CODE,merge=1,delta=2
    46                           	psect	text14,local,class=CODE,merge=1,delta=2
    47                           	psect	text15,local,class=CODE,merge=1,delta=2
    48                           	psect	text16,local,class=CODE,merge=1,delta=2
    49                           	psect	text17,local,class=CODE,merge=1,delta=2
    50                           	psect	intentry,global,class=CODE,delta=2
    51                           	psect	text19,local,class=CODE,merge=1,delta=2
    52                           	psect	text20,local,class=CODE,merge=1,delta=2
    53                           	psect	text21,local,class=CODE,merge=1,delta=2
    54                           	psect	text22,local,class=CODE,merge=1,delta=2
    55                           	psect	text23,local,class=CODE,merge=1,delta=2
    56                           	psect	text24,local,class=CODE,merge=1,delta=2,group=1
    57                           	psect	text25,local,class=CODE,merge=1,delta=2
    58                           	psect	text26,local,class=CODE,merge=1,delta=2
    59                           	psect	text27,local,class=CODE,merge=1,delta=2
    60                           	psect	text28,local,class=CODE,merge=1,delta=2
    61                           	psect	text29,local,class=CODE,merge=1,delta=2
    62                           	psect	text30,local,class=CODE,merge=1,delta=2
    63                           	psect	text31,local,class=CODE,merge=1,delta=2
    64                           	psect	text32,local,class=CODE,merge=1,delta=2
    65                           	psect	config,global,abs,ovrld,class=CONFIG,space=4,delta=2,noexec
    66                           	dabs	1,0x620,48
    67                           	dabs	1,0x5A0,80
    68                           	dabs	1,0x566,10
    69                           	dabs	1,0x520,70
    70                           	dabs	1,0x4AB,69
    71                           	dabs	1,0x4A0,11
    72                           	dabs	1,0x420,80
    73                           	dabs	1,0x3AD,67
    74                           	dabs	1,0x3A0,13
    75                           	dabs	1,0x320,80
    76                           	dabs	1,0x2AF,65
    77                           	dabs	1,0x219F,0,_song3_pre
    78                           	dabs	1,0x223D,0,_song3
    79                           	dabs	1,0x22DB,0,_silent_night
    80                           	dabs	1,0x2366,0,_silent_night_pre
    81                           	dabs	1,0x7E,2
    82  0000                     
    83                           ; Version 2.35
    84                           ; Generated 13/04/2021 GMT
    85                           ; 
    86                           ; Copyright © 2021, Microchip Technology Inc. and its subsidiaries ("Microchip")
    87                           ; All rights reserved.
    88                           ; 
    89                           ; This software is developed by Microchip Technology Inc. and its subsidiaries ("Microch
      +                          ip").
    90                           ; 
    91                           ; Redistribution and use in source and binary forms, with or without modification, are
    92                           ; permitted provided that the following conditions are met:
    93                           ; 
    94                           ;     1. Redistributions of source code must retain the above copyright notice, this lis
      +                          t of
    95                           ;        conditions and the following disclaimer.
    96                           ; 
    97                           ;     2. Redistributions in binary form must reproduce the above copyright notice, this 
      +                          list
    98                           ;        of conditions and the following disclaimer in the documentation and/or other
    99                           ;        materials provided with the distribution. Publication is not required when
   100                           ;        this file is used in an embedded application.
   101                           ; 
   102                           ;     3. Microchip's name may not be used to endorse or promote products derived from th
      +                          is
   103                           ;        software without specific prior written permission.
   104                           ; 
   105                           ; THIS SOFTWARE IS PROVIDED BY MICROCHIP "AS IS" AND ANY EXPRESS OR IMPLIED WARRANTIES,
   106                           ; INCLUDING, BUT NOT LIMITED TO, THE IMPLIED WARRANTIES OF MERCHANTABILITY AND FITNESS F
      +                          OR
   107                           ; PURPOSE ARE DISCLAIMED.  IN NO EVENT SHALL MICROCHIP BE LIABLE FOR ANY DIRECT, INDIREC
      +                          T,
   108                           ; INCIDENTAL, SPECIAL, EXEMPLARY, OR CONSEQUENTIAL DAMAGES (INCLUDING BUT NOT LIMITED TO
   109                           ; PROCUREMENT OF SUBSTITUTE GOODS OR SERVICES; LOSS OF USE, DATA OR PROFITS; OR BUSINESS
   110                           ; INTERRUPTION) HOWSOEVER CAUSED AND ON ANY THEORY OF LIABILITY, WHETHER IN CONTRACT, ST
      +                          RICT
   111                           ; LIABILITY, OR TORT (INCLUDING NEGLIGENCE OR OTHERWISE) ARISING IN ANY WAY OUT OF THE U
      +                          SE OF
   112                           ; THIS SOFTWARE, EVEN IF ADVISED OF THE POSSIBILITY OF SUCH DAMAGE.
   113                           ; 
   114                           ; 
   115                           ; Code-generator required, PIC16F15225 Definitions
   116                           ; 
   117                           ; SFR Addresses
   118  0000                     	;# 
   119  0001                     	;# 
   120  0002                     	;# 
   121  0003                     	;# 
   122  0004                     	;# 
   123  0005                     	;# 
   124  0006                     	;# 
   125  0007                     	;# 
   126  0008                     	;# 
   127  0009                     	;# 
   128  000A                     	;# 
   129  000B                     	;# 
   130  000C                     	;# 
   131  000E                     	;# 
   132  0012                     	;# 
   133  0014                     	;# 
   134  0018                     	;# 
   135  001A                     	;# 
   136  009A                     	;# 
   137  009B                     	;# 
   138  009B                     	;# 
   139  009C                     	;# 
   140  009D                     	;# 
   141  009E                     	;# 
   142  009F                     	;# 
   143  010E                     	;# 
   144  010F                     	;# 
   145  0119                     	;# 
   146  011A                     	;# 
   147  011B                     	;# 
   148  011B                     	;# 
   149  011C                     	;# 
   150  011D                     	;# 
   151  011E                     	;# 
   152  011F                     	;# 
   153  018C                     	;# 
   154  018D                     	;# 
   155  018E                     	;# 
   156  018F                     	;# 
   157  0190                     	;# 
   158  0191                     	;# 
   159  0192                     	;# 
   160  020C                     	;# 
   161  020D                     	;# 
   162  020E                     	;# 
   163  020E                     	;# 
   164  020F                     	;# 
   165  020F                     	;# 
   166  0210                     	;# 
   167  0210                     	;# 
   168  0211                     	;# 
   169  0211                     	;# 
   170  028C                     	;# 
   171  028C                     	;# 
   172  028D                     	;# 
   173  028D                     	;# 
   174  028E                     	;# 
   175  028F                     	;# 
   176  0290                     	;# 
   177  0291                     	;# 
   178  030C                     	;# 
   179  030C                     	;# 
   180  030D                     	;# 
   181  030E                     	;# 
   182  030F                     	;# 
   183  0310                     	;# 
   184  0310                     	;# 
   185  0311                     	;# 
   186  0312                     	;# 
   187  0313                     	;# 
   188  0314                     	;# 
   189  0314                     	;# 
   190  0315                     	;# 
   191  0316                     	;# 
   192  0318                     	;# 
   193  0318                     	;# 
   194  0319                     	;# 
   195  031A                     	;# 
   196  059C                     	;# 
   197  059C                     	;# 
   198  059D                     	;# 
   199  059D                     	;# 
   200  059E                     	;# 
   201  059F                     	;# 
   202  070C                     	;# 
   203  070D                     	;# 
   204  070E                     	;# 
   205  0716                     	;# 
   206  0717                     	;# 
   207  0718                     	;# 
   208  080C                     	;# 
   209  0811                     	;# 
   210  0813                     	;# 
   211  0814                     	;# 
   212  081A                     	;# 
   213  081A                     	;# 
   214  081B                     	;# 
   215  081C                     	;# 
   216  081C                     	;# 
   217  081D                     	;# 
   218  081E                     	;# 
   219  081F                     	;# 
   220  088E                     	;# 
   221  0890                     	;# 
   222  0891                     	;# 
   223  0892                     	;# 
   224  0893                     	;# 
   225  090C                     	;# 
   226  1E8F                     	;# 
   227  1E90                     	;# 
   228  1E91                     	;# 
   229  1E92                     	;# 
   230  1E93                     	;# 
   231  1E9C                     	;# 
   232  1EA1                     	;# 
   233  1EA2                     	;# 
   234  1EC3                     	;# 
   235  1EC5                     	;# 
   236  1EC6                     	;# 
   237  1EC7                     	;# 
   238  1ECB                     	;# 
   239  1ECB                     	;# 
   240  1ECB                     	;# 
   241  1ECC                     	;# 
   242  1ECC                     	;# 
   243  1ECC                     	;# 
   244  1F10                     	;# 
   245  1F11                     	;# 
   246  1F12                     	;# 
   247  1F14                     	;# 
   248  1F15                     	;# 
   249  1F20                     	;# 
   250  1F21                     	;# 
   251  1F22                     	;# 
   252  1F23                     	;# 
   253  1F24                     	;# 
   254  1F25                     	;# 
   255  1F38                     	;# 
   256  1F39                     	;# 
   257  1F3A                     	;# 
   258  1F3B                     	;# 
   259  1F3C                     	;# 
   260  1F3D                     	;# 
   261  1F3E                     	;# 
   262  1F3F                     	;# 
   263  1F4E                     	;# 
   264  1F4F                     	;# 
   265  1F50                     	;# 
   266  1F51                     	;# 
   267  1F52                     	;# 
   268  1F53                     	;# 
   269  1F54                     	;# 
   270  1F55                     	;# 
   271  1FE4                     	;# 
   272  1FE5                     	;# 
   273  1FE6                     	;# 
   274  1FE7                     	;# 
   275  1FE8                     	;# 
   276  1FE8                     	;# 
   277  1FE9                     	;# 
   278  1FEA                     	;# 
   279  1FEB                     	;# 
   280  1FED                     	;# 
   281  1FEE                     	;# 
   282  1FEF                     	;# 
   283  0000                     	;# 
   284  0001                     	;# 
   285  0002                     	;# 
   286  0003                     	;# 
   287  0004                     	;# 
   288  0005                     	;# 
   289  0006                     	;# 
   290  0007                     	;# 
   291  0008                     	;# 
   292  0009                     	;# 
   293  000A                     	;# 
   294  000B                     	;# 
   295  000C                     	;# 
   296  000E                     	;# 
   297  0012                     	;# 
   298  0014                     	;# 
   299  0018                     	;# 
   300  001A                     	;# 
   301  009A                     	;# 
   302  009B                     	;# 
   303  009B                     	;# 
   304  009C                     	;# 
   305  009D                     	;# 
   306  009E                     	;# 
   307  009F                     	;# 
   308  010E                     	;# 
   309  010F                     	;# 
   310  0119                     	;# 
   311  011A                     	;# 
   312  011B                     	;# 
   313  011B                     	;# 
   314  011C                     	;# 
   315  011D                     	;# 
   316  011E                     	;# 
   317  011F                     	;# 
   318  018C                     	;# 
   319  018D                     	;# 
   320  018E                     	;# 
   321  018F                     	;# 
   322  0190                     	;# 
   323  0191                     	;# 
   324  0192                     	;# 
   325  020C                     	;# 
   326  020D                     	;# 
   327  020E                     	;# 
   328  020E                     	;# 
   329  020F                     	;# 
   330  020F                     	;# 
   331  0210                     	;# 
   332  0210                     	;# 
   333  0211                     	;# 
   334  0211                     	;# 
   335  028C                     	;# 
   336  028C                     	;# 
   337  028D                     	;# 
   338  028D                     	;# 
   339  028E                     	;# 
   340  028F                     	;# 
   341  0290                     	;# 
   342  0291                     	;# 
   343  030C                     	;# 
   344  030C                     	;# 
   345  030D                     	;# 
   346  030E                     	;# 
   347  030F                     	;# 
   348  0310                     	;# 
   349  0310                     	;# 
   350  0311                     	;# 
   351  0312                     	;# 
   352  0313                     	;# 
   353  0314                     	;# 
   354  0314                     	;# 
   355  0315                     	;# 
   356  0316                     	;# 
   357  0318                     	;# 
   358  0318                     	;# 
   359  0319                     	;# 
   360  031A                     	;# 
   361  059C                     	;# 
   362  059C                     	;# 
   363  059D                     	;# 
   364  059D                     	;# 
   365  059E                     	;# 
   366  059F                     	;# 
   367  070C                     	;# 
   368  070D                     	;# 
   369  070E                     	;# 
   370  0716                     	;# 
   371  0717                     	;# 
   372  0718                     	;# 
   373  080C                     	;# 
   374  0811                     	;# 
   375  0813                     	;# 
   376  0814                     	;# 
   377  081A                     	;# 
   378  081A                     	;# 
   379  081B                     	;# 
   380  081C                     	;# 
   381  081C                     	;# 
   382  081D                     	;# 
   383  081E                     	;# 
   384  081F                     	;# 
   385  088E                     	;# 
   386  0890                     	;# 
   387  0891                     	;# 
   388  0892                     	;# 
   389  0893                     	;# 
   390  090C                     	;# 
   391  1E8F                     	;# 
   392  1E90                     	;# 
   393  1E91                     	;# 
   394  1E92                     	;# 
   395  1E93                     	;# 
   396  1E9C                     	;# 
   397  1EA1                     	;# 
   398  1EA2                     	;# 
   399  1EC3                     	;# 
   400  1EC5                     	;# 
   401  1EC6                     	;# 
   402  1EC7                     	;# 
   403  1ECB                     	;# 
   404  1ECB                     	;# 
   405  1ECB                     	;# 
   406  1ECC                     	;# 
   407  1ECC                     	;# 
   408  1ECC                     	;# 
   409  1F10                     	;# 
   410  1F11                     	;# 
   411  1F12                     	;# 
   412  1F14                     	;# 
   413  1F15                     	;# 
   414  1F20                     	;# 
   415  1F21                     	;# 
   416  1F22                     	;# 
   417  1F23                     	;# 
   418  1F24                     	;# 
   419  1F25                     	;# 
   420  1F38                     	;# 
   421  1F39                     	;# 
   422  1F3A                     	;# 
   423  1F3B                     	;# 
   424  1F3C                     	;# 
   425  1F3D                     	;# 
   426  1F3E                     	;# 
   427  1F3F                     	;# 
   428  1F4E                     	;# 
   429  1F4F                     	;# 
   430  1F50                     	;# 
   431  1F51                     	;# 
   432  1F52                     	;# 
   433  1F53                     	;# 
   434  1F54                     	;# 
   435  1F55                     	;# 
   436  1FE4                     	;# 
   437  1FE5                     	;# 
   438  1FE6                     	;# 
   439  1FE7                     	;# 
   440  1FE8                     	;# 
   441  1FE8                     	;# 
   442  1FE9                     	;# 
   443  1FEA                     	;# 
   444  1FEB                     	;# 
   445  1FED                     	;# 
   446  1FEE                     	;# 
   447  1FEF                     	;# 
   448  0000                     	;# 
   449  0001                     	;# 
   450  0002                     	;# 
   451  0003                     	;# 
   452  0004                     	;# 
   453  0005                     	;# 
   454  0006                     	;# 
   455  0007                     	;# 
   456  0008                     	;# 
   457  0009                     	;# 
   458  000A                     	;# 
   459  000B                     	;# 
   460  000C                     	;# 
   461  000E                     	;# 
   462  0012                     	;# 
   463  0014                     	;# 
   464  0018                     	;# 
   465  001A                     	;# 
   466  009A                     	;# 
   467  009B                     	;# 
   468  009B                     	;# 
   469  009C                     	;# 
   470  009D                     	;# 
   471  009E                     	;# 
   472  009F                     	;# 
   473  010E                     	;# 
   474  010F                     	;# 
   475  0119                     	;# 
   476  011A                     	;# 
   477  011B                     	;# 
   478  011B                     	;# 
   479  011C                     	;# 
   480  011D                     	;# 
   481  011E                     	;# 
   482  011F                     	;# 
   483  018C                     	;# 
   484  018D                     	;# 
   485  018E                     	;# 
   486  018F                     	;# 
   487  0190                     	;# 
   488  0191                     	;# 
   489  0192                     	;# 
   490  020C                     	;# 
   491  020D                     	;# 
   492  020E                     	;# 
   493  020E                     	;# 
   494  020F                     	;# 
   495  020F                     	;# 
   496  0210                     	;# 
   497  0210                     	;# 
   498  0211                     	;# 
   499  0211                     	;# 
   500  028C                     	;# 
   501  028C                     	;# 
   502  028D                     	;# 
   503  028D                     	;# 
   504  028E                     	;# 
   505  028F                     	;# 
   506  0290                     	;# 
   507  0291                     	;# 
   508  030C                     	;# 
   509  030C                     	;# 
   510  030D                     	;# 
   511  030E                     	;# 
   512  030F                     	;# 
   513  0310                     	;# 
   514  0310                     	;# 
   515  0311                     	;# 
   516  0312                     	;# 
   517  0313                     	;# 
   518  0314                     	;# 
   519  0314                     	;# 
   520  0315                     	;# 
   521  0316                     	;# 
   522  0318                     	;# 
   523  0318                     	;# 
   524  0319                     	;# 
   525  031A                     	;# 
   526  059C                     	;# 
   527  059C                     	;# 
   528  059D                     	;# 
   529  059D                     	;# 
   530  059E                     	;# 
   531  059F                     	;# 
   532  070C                     	;# 
   533  070D                     	;# 
   534  070E                     	;# 
   535  0716                     	;# 
   536  0717                     	;# 
   537  0718                     	;# 
   538  080C                     	;# 
   539  0811                     	;# 
   540  0813                     	;# 
   541  0814                     	;# 
   542  081A                     	;# 
   543  081A                     	;# 
   544  081B                     	;# 
   545  081C                     	;# 
   546  081C                     	;# 
   547  081D                     	;# 
   548  081E                     	;# 
   549  081F                     	;# 
   550  088E                     	;# 
   551  0890                     	;# 
   552  0891                     	;# 
   553  0892                     	;# 
   554  0893                     	;# 
   555  090C                     	;# 
   556  1E8F                     	;# 
   557  1E90                     	;# 
   558  1E91                     	;# 
   559  1E92                     	;# 
   560  1E93                     	;# 
   561  1E9C                     	;# 
   562  1EA1                     	;# 
   563  1EA2                     	;# 
   564  1EC3                     	;# 
   565  1EC5                     	;# 
   566  1EC6                     	;# 
   567  1EC7                     	;# 
   568  1ECB                     	;# 
   569  1ECB                     	;# 
   570  1ECB                     	;# 
   571  1ECC                     	;# 
   572  1ECC                     	;# 
   573  1ECC                     	;# 
   574  1F10                     	;# 
   575  1F11                     	;# 
   576  1F12                     	;# 
   577  1F14                     	;# 
   578  1F15                     	;# 
   579  1F20                     	;# 
   580  1F21                     	;# 
   581  1F22                     	;# 
   582  1F23                     	;# 
   583  1F24                     	;# 
   584  1F25                     	;# 
   585  1F38                     	;# 
   586  1F39                     	;# 
   587  1F3A                     	;# 
   588  1F3B                     	;# 
   589  1F3C                     	;# 
   590  1F3D                     	;# 
   591  1F3E                     	;# 
   592  1F3F                     	;# 
   593  1F4E                     	;# 
   594  1F4F                     	;# 
   595  1F50                     	;# 
   596  1F51                     	;# 
   597  1F52                     	;# 
   598  1F53                     	;# 
   599  1F54                     	;# 
   600  1F55                     	;# 
   601  1FE4                     	;# 
   602  1FE5                     	;# 
   603  1FE6                     	;# 
   604  1FE7                     	;# 
   605  1FE8                     	;# 
   606  1FE8                     	;# 
   607  1FE9                     	;# 
   608  1FEA                     	;# 
   609  1FEB                     	;# 
   610  1FED                     	;# 
   611  1FEE                     	;# 
   612  1FEF                     	;# 
   613  0000                     	;# 
   614  0001                     	;# 
   615  0002                     	;# 
   616  0003                     	;# 
   617  0004                     	;# 
   618  0005                     	;# 
   619  0006                     	;# 
   620  0007                     	;# 
   621  0008                     	;# 
   622  0009                     	;# 
   623  000A                     	;# 
   624  000B                     	;# 
   625  000C                     	;# 
   626  000E                     	;# 
   627  0012                     	;# 
   628  0014                     	;# 
   629  0018                     	;# 
   630  001A                     	;# 
   631  009A                     	;# 
   632  009B                     	;# 
   633  009B                     	;# 
   634  009C                     	;# 
   635  009D                     	;# 
   636  009E                     	;# 
   637  009F                     	;# 
   638  010E                     	;# 
   639  010F                     	;# 
   640  0119                     	;# 
   641  011A                     	;# 
   642  011B                     	;# 
   643  011B                     	;# 
   644  011C                     	;# 
   645  011D                     	;# 
   646  011E                     	;# 
   647  011F                     	;# 
   648  018C                     	;# 
   649  018D                     	;# 
   650  018E                     	;# 
   651  018F                     	;# 
   652  0190                     	;# 
   653  0191                     	;# 
   654  0192                     	;# 
   655  020C                     	;# 
   656  020D                     	;# 
   657  020E                     	;# 
   658  020E                     	;# 
   659  020F                     	;# 
   660  020F                     	;# 
   661  0210                     	;# 
   662  0210                     	;# 
   663  0211                     	;# 
   664  0211                     	;# 
   665  028C                     	;# 
   666  028C                     	;# 
   667  028D                     	;# 
   668  028D                     	;# 
   669  028E                     	;# 
   670  028F                     	;# 
   671  0290                     	;# 
   672  0291                     	;# 
   673  030C                     	;# 
   674  030C                     	;# 
   675  030D                     	;# 
   676  030E                     	;# 
   677  030F                     	;# 
   678  0310                     	;# 
   679  0310                     	;# 
   680  0311                     	;# 
   681  0312                     	;# 
   682  0313                     	;# 
   683  0314                     	;# 
   684  0314                     	;# 
   685  0315                     	;# 
   686  0316                     	;# 
   687  0318                     	;# 
   688  0318                     	;# 
   689  0319                     	;# 
   690  031A                     	;# 
   691  059C                     	;# 
   692  059C                     	;# 
   693  059D                     	;# 
   694  059D                     	;# 
   695  059E                     	;# 
   696  059F                     	;# 
   697  070C                     	;# 
   698  070D                     	;# 
   699  070E                     	;# 
   700  0716                     	;# 
   701  0717                     	;# 
   702  0718                     	;# 
   703  080C                     	;# 
   704  0811                     	;# 
   705  0813                     	;# 
   706  0814                     	;# 
   707  081A                     	;# 
   708  081A                     	;# 
   709  081B                     	;# 
   710  081C                     	;# 
   711  081C                     	;# 
   712  081D                     	;# 
   713  081E                     	;# 
   714  081F                     	;# 
   715  088E                     	;# 
   716  0890                     	;# 
   717  0891                     	;# 
   718  0892                     	;# 
   719  0893                     	;# 
   720  090C                     	;# 
   721  1E8F                     	;# 
   722  1E90                     	;# 
   723  1E91                     	;# 
   724  1E92                     	;# 
   725  1E93                     	;# 
   726  1E9C                     	;# 
   727  1EA1                     	;# 
   728  1EA2                     	;# 
   729  1EC3                     	;# 
   730  1EC5                     	;# 
   731  1EC6                     	;# 
   732  1EC7                     	;# 
   733  1ECB                     	;# 
   734  1ECB                     	;# 
   735  1ECB                     	;# 
   736  1ECC                     	;# 
   737  1ECC                     	;# 
   738  1ECC                     	;# 
   739  1F10                     	;# 
   740  1F11                     	;# 
   741  1F12                     	;# 
   742  1F14                     	;# 
   743  1F15                     	;# 
   744  1F20                     	;# 
   745  1F21                     	;# 
   746  1F22                     	;# 
   747  1F23                     	;# 
   748  1F24                     	;# 
   749  1F25                     	;# 
   750  1F38                     	;# 
   751  1F39                     	;# 
   752  1F3A                     	;# 
   753  1F3B                     	;# 
   754  1F3C                     	;# 
   755  1F3D                     	;# 
   756  1F3E                     	;# 
   757  1F3F                     	;# 
   758  1F4E                     	;# 
   759  1F4F                     	;# 
   760  1F50                     	;# 
   761  1F51                     	;# 
   762  1F52                     	;# 
   763  1F53                     	;# 
   764  1F54                     	;# 
   765  1F55                     	;# 
   766  1FE4                     	;# 
   767  1FE5                     	;# 
   768  1FE6                     	;# 
   769  1FE7                     	;# 
   770  1FE8                     	;# 
   771  1FE8                     	;# 
   772  1FE9                     	;# 
   773  1FEA                     	;# 
   774  1FEB                     	;# 
   775  1FED                     	;# 
   776  1FEE                     	;# 
   777  1FEF                     	;# 
   778  0000                     	;# 
   779  0001                     	;# 
   780  0002                     	;# 
   781  0003                     	;# 
   782  0004                     	;# 
   783  0005                     	;# 
   784  0006                     	;# 
   785  0007                     	;# 
   786  0008                     	;# 
   787  0009                     	;# 
   788  000A                     	;# 
   789  000B                     	;# 
   790  000C                     	;# 
   791  000E                     	;# 
   792  0012                     	;# 
   793  0014                     	;# 
   794  0018                     	;# 
   795  001A                     	;# 
   796  009A                     	;# 
   797  009B                     	;# 
   798  009B                     	;# 
   799  009C                     	;# 
   800  009D                     	;# 
   801  009E                     	;# 
   802  009F                     	;# 
   803  010E                     	;# 
   804  010F                     	;# 
   805  0119                     	;# 
   806  011A                     	;# 
   807  011B                     	;# 
   808  011B                     	;# 
   809  011C                     	;# 
   810  011D                     	;# 
   811  011E                     	;# 
   812  011F                     	;# 
   813  018C                     	;# 
   814  018D                     	;# 
   815  018E                     	;# 
   816  018F                     	;# 
   817  0190                     	;# 
   818  0191                     	;# 
   819  0192                     	;# 
   820  020C                     	;# 
   821  020D                     	;# 
   822  020E                     	;# 
   823  020E                     	;# 
   824  020F                     	;# 
   825  020F                     	;# 
   826  0210                     	;# 
   827  0210                     	;# 
   828  0211                     	;# 
   829  0211                     	;# 
   830  028C                     	;# 
   831  028C                     	;# 
   832  028D                     	;# 
   833  028D                     	;# 
   834  028E                     	;# 
   835  028F                     	;# 
   836  0290                     	;# 
   837  0291                     	;# 
   838  030C                     	;# 
   839  030C                     	;# 
   840  030D                     	;# 
   841  030E                     	;# 
   842  030F                     	;# 
   843  0310                     	;# 
   844  0310                     	;# 
   845  0311                     	;# 
   846  0312                     	;# 
   847  0313                     	;# 
   848  0314                     	;# 
   849  0314                     	;# 
   850  0315                     	;# 
   851  0316                     	;# 
   852  0318                     	;# 
   853  0318                     	;# 
   854  0319                     	;# 
   855  031A                     	;# 
   856  059C                     	;# 
   857  059C                     	;# 
   858  059D                     	;# 
   859  059D                     	;# 
   860  059E                     	;# 
   861  059F                     	;# 
   862  070C                     	;# 
   863  070D                     	;# 
   864  070E                     	;# 
   865  0716                     	;# 
   866  0717                     	;# 
   867  0718                     	;# 
   868  080C                     	;# 
   869  0811                     	;# 
   870  0813                     	;# 
   871  0814                     	;# 
   872  081A                     	;# 
   873  081A                     	;# 
   874  081B                     	;# 
   875  081C                     	;# 
   876  081C                     	;# 
   877  081D                     	;# 
   878  081E                     	;# 
   879  081F                     	;# 
   880  088E                     	;# 
   881  0890                     	;# 
   882  0891                     	;# 
   883  0892                     	;# 
   884  0893                     	;# 
   885  090C                     	;# 
   886  1E8F                     	;# 
   887  1E90                     	;# 
   888  1E91                     	;# 
   889  1E92                     	;# 
   890  1E93                     	;# 
   891  1E9C                     	;# 
   892  1EA1                     	;# 
   893  1EA2                     	;# 
   894  1EC3                     	;# 
   895  1EC5                     	;# 
   896  1EC6                     	;# 
   897  1EC7                     	;# 
   898  1ECB                     	;# 
   899  1ECB                     	;# 
   900  1ECB                     	;# 
   901  1ECC                     	;# 
   902  1ECC                     	;# 
   903  1ECC                     	;# 
   904  1F10                     	;# 
   905  1F11                     	;# 
   906  1F12                     	;# 
   907  1F14                     	;# 
   908  1F15                     	;# 
   909  1F20                     	;# 
   910  1F21                     	;# 
   911  1F22                     	;# 
   912  1F23                     	;# 
   913  1F24                     	;# 
   914  1F25                     	;# 
   915  1F38                     	;# 
   916  1F39                     	;# 
   917  1F3A                     	;# 
   918  1F3B                     	;# 
   919  1F3C                     	;# 
   920  1F3D                     	;# 
   921  1F3E                     	;# 
   922  1F3F                     	;# 
   923  1F4E                     	;# 
   924  1F4F                     	;# 
   925  1F50                     	;# 
   926  1F51                     	;# 
   927  1F52                     	;# 
   928  1F53                     	;# 
   929  1F54                     	;# 
   930  1F55                     	;# 
   931  1FE4                     	;# 
   932  1FE5                     	;# 
   933  1FE6                     	;# 
   934  1FE7                     	;# 
   935  1FE8                     	;# 
   936  1FE8                     	;# 
   937  1FE9                     	;# 
   938  1FEA                     	;# 
   939  1FEB                     	;# 
   940  1FED                     	;# 
   941  1FEE                     	;# 
   942  1FEF                     	;# 
   943  0000                     	;# 
   944  0001                     	;# 
   945  0002                     	;# 
   946  0003                     	;# 
   947  0004                     	;# 
   948  0005                     	;# 
   949  0006                     	;# 
   950  0007                     	;# 
   951  0008                     	;# 
   952  0009                     	;# 
   953  000A                     	;# 
   954  000B                     	;# 
   955  000C                     	;# 
   956  000E                     	;# 
   957  0012                     	;# 
   958  0014                     	;# 
   959  0018                     	;# 
   960  001A                     	;# 
   961  009A                     	;# 
   962  009B                     	;# 
   963  009B                     	;# 
   964  009C                     	;# 
   965  009D                     	;# 
   966  009E                     	;# 
   967  009F                     	;# 
   968  010E                     	;# 
   969  010F                     	;# 
   970  0119                     	;# 
   971  011A                     	;# 
   972  011B                     	;# 
   973  011B                     	;# 
   974  011C                     	;# 
   975  011D                     	;# 
   976  011E                     	;# 
   977  011F                     	;# 
   978  018C                     	;# 
   979  018D                     	;# 
   980  018E                     	;# 
   981  018F                     	;# 
   982  0190                     	;# 
   983  0191                     	;# 
   984  0192                     	;# 
   985  020C                     	;# 
   986  020D                     	;# 
   987  020E                     	;# 
   988  020E                     	;# 
   989  020F                     	;# 
   990  020F                     	;# 
   991  0210                     	;# 
   992  0210                     	;# 
   993  0211                     	;# 
   994  0211                     	;# 
   995  028C                     	;# 
   996  028C                     	;# 
   997  028D                     	;# 
   998  028D                     	;# 
   999  028E                     	;# 
  1000  028F                     	;# 
  1001  0290                     	;# 
  1002  0291                     	;# 
  1003  030C                     	;# 
  1004  030C                     	;# 
  1005  030D                     	;# 
  1006  030E                     	;# 
  1007  030F                     	;# 
  1008  0310                     	;# 
  1009  0310                     	;# 
  1010  0311                     	;# 
  1011  0312                     	;# 
  1012  0313                     	;# 
  1013  0314                     	;# 
  1014  0314                     	;# 
  1015  0315                     	;# 
  1016  0316                     	;# 
  1017  0318                     	;# 
  1018  0318                     	;# 
  1019  0319                     	;# 
  1020  031A                     	;# 
  1021  059C                     	;# 
  1022  059C                     	;# 
  1023  059D                     	;# 
  1024  059D                     	;# 
  1025  059E                     	;# 
  1026  059F                     	;# 
  1027  070C                     	;# 
  1028  070D                     	;# 
  1029  070E                     	;# 
  1030  0716                     	;# 
  1031  0717                     	;# 
  1032  0718                     	;# 
  1033  080C                     	;# 
  1034  0811                     	;# 
  1035  0813                     	;# 
  1036  0814                     	;# 
  1037  081A                     	;# 
  1038  081A                     	;# 
  1039  081B                     	;# 
  1040  081C                     	;# 
  1041  081C                     	;# 
  1042  081D                     	;# 
  1043  081E                     	;# 
  1044  081F                     	;# 
  1045  088E                     	;# 
  1046  0890                     	;# 
  1047  0891                     	;# 
  1048  0892                     	;# 
  1049  0893                     	;# 
  1050  090C                     	;# 
  1051  1E8F                     	;# 
  1052  1E90                     	;# 
  1053  1E91                     	;# 
  1054  1E92                     	;# 
  1055  1E93                     	;# 
  1056  1E9C                     	;# 
  1057  1EA1                     	;# 
  1058  1EA2                     	;# 
  1059  1EC3                     	;# 
  1060  1EC5                     	;# 
  1061  1EC6                     	;# 
  1062  1EC7                     	;# 
  1063  1ECB                     	;# 
  1064  1ECB                     	;# 
  1065  1ECB                     	;# 
  1066  1ECC                     	;# 
  1067  1ECC                     	;# 
  1068  1ECC                     	;# 
  1069  1F10                     	;# 
  1070  1F11                     	;# 
  1071  1F12                     	;# 
  1072  1F14                     	;# 
  1073  1F15                     	;# 
  1074  1F20                     	;# 
  1075  1F21                     	;# 
  1076  1F22                     	;# 
  1077  1F23                     	;# 
  1078  1F24                     	;# 
  1079  1F25                     	;# 
  1080  1F38                     	;# 
  1081  1F39                     	;# 
  1082  1F3A                     	;# 
  1083  1F3B                     	;# 
  1084  1F3C                     	;# 
  1085  1F3D                     	;# 
  1086  1F3E                     	;# 
  1087  1F3F                     	;# 
  1088  1F4E                     	;# 
  1089  1F4F                     	;# 
  1090  1F50                     	;# 
  1091  1F51                     	;# 
  1092  1F52                     	;# 
  1093  1F53                     	;# 
  1094  1F54                     	;# 
  1095  1F55                     	;# 
  1096  1FE4                     	;# 
  1097  1FE5                     	;# 
  1098  1FE6                     	;# 
  1099  1FE7                     	;# 
  1100  1FE8                     	;# 
  1101  1FE8                     	;# 
  1102  1FE9                     	;# 
  1103  1FEA                     	;# 
  1104  1FEB                     	;# 
  1105  1FED                     	;# 
  1106  1FEE                     	;# 
  1107  1FEF                     	;# 
  1108  0000                     	;# 
  1109  0001                     	;# 
  1110  0002                     	;# 
  1111  0003                     	;# 
  1112  0004                     	;# 
  1113  0005                     	;# 
  1114  0006                     	;# 
  1115  0007                     	;# 
  1116  0008                     	;# 
  1117  0009                     	;# 
  1118  000A                     	;# 
  1119  000B                     	;# 
  1120  000C                     	;# 
  1121  000E                     	;# 
  1122  0012                     	;# 
  1123  0014                     	;# 
  1124  0018                     	;# 
  1125  001A                     	;# 
  1126  009A                     	;# 
  1127  009B                     	;# 
  1128  009B                     	;# 
  1129  009C                     	;# 
  1130  009D                     	;# 
  1131  009E                     	;# 
  1132  009F                     	;# 
  1133  010E                     	;# 
  1134  010F                     	;# 
  1135  0119                     	;# 
  1136  011A                     	;# 
  1137  011B                     	;# 
  1138  011B                     	;# 
  1139  011C                     	;# 
  1140  011D                     	;# 
  1141  011E                     	;# 
  1142  011F                     	;# 
  1143  018C                     	;# 
  1144  018D                     	;# 
  1145  018E                     	;# 
  1146  018F                     	;# 
  1147  0190                     	;# 
  1148  0191                     	;# 
  1149  0192                     	;# 
  1150  020C                     	;# 
  1151  020D                     	;# 
  1152  020E                     	;# 
  1153  020E                     	;# 
  1154  020F                     	;# 
  1155  020F                     	;# 
  1156  0210                     	;# 
  1157  0210                     	;# 
  1158  0211                     	;# 
  1159  0211                     	;# 
  1160  028C                     	;# 
  1161  028C                     	;# 
  1162  028D                     	;# 
  1163  028D                     	;# 
  1164  028E                     	;# 
  1165  028F                     	;# 
  1166  0290                     	;# 
  1167  0291                     	;# 
  1168  030C                     	;# 
  1169  030C                     	;# 
  1170  030D                     	;# 
  1171  030E                     	;# 
  1172  030F                     	;# 
  1173  0310                     	;# 
  1174  0310                     	;# 
  1175  0311                     	;# 
  1176  0312                     	;# 
  1177  0313                     	;# 
  1178  0314                     	;# 
  1179  0314                     	;# 
  1180  0315                     	;# 
  1181  0316                     	;# 
  1182  0318                     	;# 
  1183  0318                     	;# 
  1184  0319                     	;# 
  1185  031A                     	;# 
  1186  059C                     	;# 
  1187  059C                     	;# 
  1188  059D                     	;# 
  1189  059D                     	;# 
  1190  059E                     	;# 
  1191  059F                     	;# 
  1192  070C                     	;# 
  1193  070D                     	;# 
  1194  070E                     	;# 
  1195  0716                     	;# 
  1196  0717                     	;# 
  1197  0718                     	;# 
  1198  080C                     	;# 
  1199  0811                     	;# 
  1200  0813                     	;# 
  1201  0814                     	;# 
  1202  081A                     	;# 
  1203  081A                     	;# 
  1204  081B                     	;# 
  1205  081C                     	;# 
  1206  081C                     	;# 
  1207  081D                     	;# 
  1208  081E                     	;# 
  1209  081F                     	;# 
  1210  088E                     	;# 
  1211  0890                     	;# 
  1212  0891                     	;# 
  1213  0892                     	;# 
  1214  0893                     	;# 
  1215  090C                     	;# 
  1216  1E8F                     	;# 
  1217  1E90                     	;# 
  1218  1E91                     	;# 
  1219  1E92                     	;# 
  1220  1E93                     	;# 
  1221  1E9C                     	;# 
  1222  1EA1                     	;# 
  1223  1EA2                     	;# 
  1224  1EC3                     	;# 
  1225  1EC5                     	;# 
  1226  1EC6                     	;# 
  1227  1EC7                     	;# 
  1228  1ECB                     	;# 
  1229  1ECB                     	;# 
  1230  1ECB                     	;# 
  1231  1ECC                     	;# 
  1232  1ECC                     	;# 
  1233  1ECC                     	;# 
  1234  1F10                     	;# 
  1235  1F11                     	;# 
  1236  1F12                     	;# 
  1237  1F14                     	;# 
  1238  1F15                     	;# 
  1239  1F20                     	;# 
  1240  1F21                     	;# 
  1241  1F22                     	;# 
  1242  1F23                     	;# 
  1243  1F24                     	;# 
  1244  1F25                     	;# 
  1245  1F38                     	;# 
  1246  1F39                     	;# 
  1247  1F3A                     	;# 
  1248  1F3B                     	;# 
  1249  1F3C                     	;# 
  1250  1F3D                     	;# 
  1251  1F3E                     	;# 
  1252  1F3F                     	;# 
  1253  1F4E                     	;# 
  1254  1F4F                     	;# 
  1255  1F50                     	;# 
  1256  1F51                     	;# 
  1257  1F52                     	;# 
  1258  1F53                     	;# 
  1259  1F54                     	;# 
  1260  1F55                     	;# 
  1261  1FE4                     	;# 
  1262  1FE5                     	;# 
  1263  1FE6                     	;# 
  1264  1FE7                     	;# 
  1265  1FE8                     	;# 
  1266  1FE8                     	;# 
  1267  1FE9                     	;# 
  1268  1FEA                     	;# 
  1269  1FEB                     	;# 
  1270  1FED                     	;# 
  1271  1FEE                     	;# 
  1272  1FEF                     	;# 
  1273  0000                     	;# 
  1274  0001                     	;# 
  1275  0002                     	;# 
  1276  0003                     	;# 
  1277  0004                     	;# 
  1278  0005                     	;# 
  1279  0006                     	;# 
  1280  0007                     	;# 
  1281  0008                     	;# 
  1282  0009                     	;# 
  1283  000A                     	;# 
  1284  000B                     	;# 
  1285  000C                     	;# 
  1286  000E                     	;# 
  1287  0012                     	;# 
  1288  0014                     	;# 
  1289  0018                     	;# 
  1290  001A                     	;# 
  1291  009A                     	;# 
  1292  009B                     	;# 
  1293  009B                     	;# 
  1294  009C                     	;# 
  1295  009D                     	;# 
  1296  009E                     	;# 
  1297  009F                     	;# 
  1298  010E                     	;# 
  1299  010F                     	;# 
  1300  0119                     	;# 
  1301  011A                     	;# 
  1302  011B                     	;# 
  1303  011B                     	;# 
  1304  011C                     	;# 
  1305  011D                     	;# 
  1306  011E                     	;# 
  1307  011F                     	;# 
  1308  018C                     	;# 
  1309  018D                     	;# 
  1310  018E                     	;# 
  1311  018F                     	;# 
  1312  0190                     	;# 
  1313  0191                     	;# 
  1314  0192                     	;# 
  1315  020C                     	;# 
  1316  020D                     	;# 
  1317  020E                     	;# 
  1318  020E                     	;# 
  1319  020F                     	;# 
  1320  020F                     	;# 
  1321  0210                     	;# 
  1322  0210                     	;# 
  1323  0211                     	;# 
  1324  0211                     	;# 
  1325  028C                     	;# 
  1326  028C                     	;# 
  1327  028D                     	;# 
  1328  028D                     	;# 
  1329  028E                     	;# 
  1330  028F                     	;# 
  1331  0290                     	;# 
  1332  0291                     	;# 
  1333  030C                     	;# 
  1334  030C                     	;# 
  1335  030D                     	;# 
  1336  030E                     	;# 
  1337  030F                     	;# 
  1338  0310                     	;# 
  1339  0310                     	;# 
  1340  0311                     	;# 
  1341  0312                     	;# 
  1342  0313                     	;# 
  1343  0314                     	;# 
  1344  0314                     	;# 
  1345  0315                     	;# 
  1346  0316                     	;# 
  1347  0318                     	;# 
  1348  0318                     	;# 
  1349  0319                     	;# 
  1350  031A                     	;# 
  1351  059C                     	;# 
  1352  059C                     	;# 
  1353  059D                     	;# 
  1354  059D                     	;# 
  1355  059E                     	;# 
  1356  059F                     	;# 
  1357  070C                     	;# 
  1358  070D                     	;# 
  1359  070E                     	;# 
  1360  0716                     	;# 
  1361  0717                     	;# 
  1362  0718                     	;# 
  1363  080C                     	;# 
  1364  0811                     	;# 
  1365  0813                     	;# 
  1366  0814                     	;# 
  1367  081A                     	;# 
  1368  081A                     	;# 
  1369  081B                     	;# 
  1370  081C                     	;# 
  1371  081C                     	;# 
  1372  081D                     	;# 
  1373  081E                     	;# 
  1374  081F                     	;# 
  1375  088E                     	;# 
  1376  0890                     	;# 
  1377  0891                     	;# 
  1378  0892                     	;# 
  1379  0893                     	;# 
  1380  090C                     	;# 
  1381  1E8F                     	;# 
  1382  1E90                     	;# 
  1383  1E91                     	;# 
  1384  1E92                     	;# 
  1385  1E93                     	;# 
  1386  1E9C                     	;# 
  1387  1EA1                     	;# 
  1388  1EA2                     	;# 
  1389  1EC3                     	;# 
  1390  1EC5                     	;# 
  1391  1EC6                     	;# 
  1392  1EC7                     	;# 
  1393  1ECB                     	;# 
  1394  1ECB                     	;# 
  1395  1ECB                     	;# 
  1396  1ECC                     	;# 
  1397  1ECC                     	;# 
  1398  1ECC                     	;# 
  1399  1F10                     	;# 
  1400  1F11                     	;# 
  1401  1F12                     	;# 
  1402  1F14                     	;# 
  1403  1F15                     	;# 
  1404  1F20                     	;# 
  1405  1F21                     	;# 
  1406  1F22                     	;# 
  1407  1F23                     	;# 
  1408  1F24                     	;# 
  1409  1F25                     	;# 
  1410  1F38                     	;# 
  1411  1F39                     	;# 
  1412  1F3A                     	;# 
  1413  1F3B                     	;# 
  1414  1F3C                     	;# 
  1415  1F3D                     	;# 
  1416  1F3E                     	;# 
  1417  1F3F                     	;# 
  1418  1F4E                     	;# 
  1419  1F4F                     	;# 
  1420  1F50                     	;# 
  1421  1F51                     	;# 
  1422  1F52                     	;# 
  1423  1F53                     	;# 
  1424  1F54                     	;# 
  1425  1F55                     	;# 
  1426  1FE4                     	;# 
  1427  1FE5                     	;# 
  1428  1FE6                     	;# 
  1429  1FE7                     	;# 
  1430  1FE8                     	;# 
  1431  1FE8                     	;# 
  1432  1FE9                     	;# 
  1433  1FEA                     	;# 
  1434  1FEB                     	;# 
  1435  1FED                     	;# 
  1436  1FEE                     	;# 
  1437  1FEF                     	;# 
  1438  0000                     	;# 
  1439  0001                     	;# 
  1440  0002                     	;# 
  1441  0003                     	;# 
  1442  0004                     	;# 
  1443  0005                     	;# 
  1444  0006                     	;# 
  1445  0007                     	;# 
  1446  0008                     	;# 
  1447  0009                     	;# 
  1448  000A                     	;# 
  1449  000B                     	;# 
  1450  000C                     	;# 
  1451  000E                     	;# 
  1452  0012                     	;# 
  1453  0014                     	;# 
  1454  0018                     	;# 
  1455  001A                     	;# 
  1456  009A                     	;# 
  1457  009B                     	;# 
  1458  009B                     	;# 
  1459  009C                     	;# 
  1460  009D                     	;# 
  1461  009E                     	;# 
  1462  009F                     	;# 
  1463  010E                     	;# 
  1464  010F                     	;# 
  1465  0119                     	;# 
  1466  011A                     	;# 
  1467  011B                     	;# 
  1468  011B                     	;# 
  1469  011C                     	;# 
  1470  011D                     	;# 
  1471  011E                     	;# 
  1472  011F                     	;# 
  1473  018C                     	;# 
  1474  018D                     	;# 
  1475  018E                     	;# 
  1476  018F                     	;# 
  1477  0190                     	;# 
  1478  0191                     	;# 
  1479  0192                     	;# 
  1480  020C                     	;# 
  1481  020D                     	;# 
  1482  020E                     	;# 
  1483  020E                     	;# 
  1484  020F                     	;# 
  1485  020F                     	;# 
  1486  0210                     	;# 
  1487  0210                     	;# 
  1488  0211                     	;# 
  1489  0211                     	;# 
  1490  028C                     	;# 
  1491  028C                     	;# 
  1492  028D                     	;# 
  1493  028D                     	;# 
  1494  028E                     	;# 
  1495  028F                     	;# 
  1496  0290                     	;# 
  1497  0291                     	;# 
  1498  030C                     	;# 
  1499  030C                     	;# 
  1500  030D                     	;# 
  1501  030E                     	;# 
  1502  030F                     	;# 
  1503  0310                     	;# 
  1504  0310                     	;# 
  1505  0311                     	;# 
  1506  0312                     	;# 
  1507  0313                     	;# 
  1508  0314                     	;# 
  1509  0314                     	;# 
  1510  0315                     	;# 
  1511  0316                     	;# 
  1512  0318                     	;# 
  1513  0318                     	;# 
  1514  0319                     	;# 
  1515  031A                     	;# 
  1516  059C                     	;# 
  1517  059C                     	;# 
  1518  059D                     	;# 
  1519  059D                     	;# 
  1520  059E                     	;# 
  1521  059F                     	;# 
  1522  070C                     	;# 
  1523  070D                     	;# 
  1524  070E                     	;# 
  1525  0716                     	;# 
  1526  0717                     	;# 
  1527  0718                     	;# 
  1528  080C                     	;# 
  1529  0811                     	;# 
  1530  0813                     	;# 
  1531  0814                     	;# 
  1532  081A                     	;# 
  1533  081A                     	;# 
  1534  081B                     	;# 
  1535  081C                     	;# 
  1536  081C                     	;# 
  1537  081D                     	;# 
  1538  081E                     	;# 
  1539  081F                     	;# 
  1540  088E                     	;# 
  1541  0890                     	;# 
  1542  0891                     	;# 
  1543  0892                     	;# 
  1544  0893                     	;# 
  1545  090C                     	;# 
  1546  1E8F                     	;# 
  1547  1E90                     	;# 
  1548  1E91                     	;# 
  1549  1E92                     	;# 
  1550  1E93                     	;# 
  1551  1E9C                     	;# 
  1552  1EA1                     	;# 
  1553  1EA2                     	;# 
  1554  1EC3                     	;# 
  1555  1EC5                     	;# 
  1556  1EC6                     	;# 
  1557  1EC7                     	;# 
  1558  1ECB                     	;# 
  1559  1ECB                     	;# 
  1560  1ECB                     	;# 
  1561  1ECC                     	;# 
  1562  1ECC                     	;# 
  1563  1ECC                     	;# 
  1564  1F10                     	;# 
  1565  1F11                     	;# 
  1566  1F12                     	;# 
  1567  1F14                     	;# 
  1568  1F15                     	;# 
  1569  1F20                     	;# 
  1570  1F21                     	;# 
  1571  1F22                     	;# 
  1572  1F23                     	;# 
  1573  1F24                     	;# 
  1574  1F25                     	;# 
  1575  1F38                     	;# 
  1576  1F39                     	;# 
  1577  1F3A                     	;# 
  1578  1F3B                     	;# 
  1579  1F3C                     	;# 
  1580  1F3D                     	;# 
  1581  1F3E                     	;# 
  1582  1F3F                     	;# 
  1583  1F4E                     	;# 
  1584  1F4F                     	;# 
  1585  1F50                     	;# 
  1586  1F51                     	;# 
  1587  1F52                     	;# 
  1588  1F53                     	;# 
  1589  1F54                     	;# 
  1590  1F55                     	;# 
  1591  1FE4                     	;# 
  1592  1FE5                     	;# 
  1593  1FE6                     	;# 
  1594  1FE7                     	;# 
  1595  1FE8                     	;# 
  1596  1FE8                     	;# 
  1597  1FE9                     	;# 
  1598  1FEA                     	;# 
  1599  1FEB                     	;# 
  1600  1FED                     	;# 
  1601  1FEE                     	;# 
  1602  1FEF                     	;# 
  1603  0000                     	;# 
  1604  0001                     	;# 
  1605  0002                     	;# 
  1606  0003                     	;# 
  1607  0004                     	;# 
  1608  0005                     	;# 
  1609  0006                     	;# 
  1610  0007                     	;# 
  1611  0008                     	;# 
  1612  0009                     	;# 
  1613  000A                     	;# 
  1614  000B                     	;# 
  1615  000C                     	;# 
  1616  000E                     	;# 
  1617  0012                     	;# 
  1618  0014                     	;# 
  1619  0018                     	;# 
  1620  001A                     	;# 
  1621  009A                     	;# 
  1622  009B                     	;# 
  1623  009B                     	;# 
  1624  009C                     	;# 
  1625  009D                     	;# 
  1626  009E                     	;# 
  1627  009F                     	;# 
  1628  010E                     	;# 
  1629  010F                     	;# 
  1630  0119                     	;# 
  1631  011A                     	;# 
  1632  011B                     	;# 
  1633  011B                     	;# 
  1634  011C                     	;# 
  1635  011D                     	;# 
  1636  011E                     	;# 
  1637  011F                     	;# 
  1638  018C                     	;# 
  1639  018D                     	;# 
  1640  018E                     	;# 
  1641  018F                     	;# 
  1642  0190                     	;# 
  1643  0191                     	;# 
  1644  0192                     	;# 
  1645  020C                     	;# 
  1646  020D                     	;# 
  1647  020E                     	;# 
  1648  020E                     	;# 
  1649  020F                     	;# 
  1650  020F                     	;# 
  1651  0210                     	;# 
  1652  0210                     	;# 
  1653  0211                     	;# 
  1654  0211                     	;# 
  1655  028C                     	;# 
  1656  028C                     	;# 
  1657  028D                     	;# 
  1658  028D                     	;# 
  1659  028E                     	;# 
  1660  028F                     	;# 
  1661  0290                     	;# 
  1662  0291                     	;# 
  1663  030C                     	;# 
  1664  030C                     	;# 
  1665  030D                     	;# 
  1666  030E                     	;# 
  1667  030F                     	;# 
  1668  0310                     	;# 
  1669  0310                     	;# 
  1670  0311                     	;# 
  1671  0312                     	;# 
  1672  0313                     	;# 
  1673  0314                     	;# 
  1674  0314                     	;# 
  1675  0315                     	;# 
  1676  0316                     	;# 
  1677  0318                     	;# 
  1678  0318                     	;# 
  1679  0319                     	;# 
  1680  031A                     	;# 
  1681  059C                     	;# 
  1682  059C                     	;# 
  1683  059D                     	;# 
  1684  059D                     	;# 
  1685  059E                     	;# 
  1686  059F                     	;# 
  1687  070C                     	;# 
  1688  070D                     	;# 
  1689  070E                     	;# 
  1690  0716                     	;# 
  1691  0717                     	;# 
  1692  0718                     	;# 
  1693  080C                     	;# 
  1694  0811                     	;# 
  1695  0813                     	;# 
  1696  0814                     	;# 
  1697  081A                     	;# 
  1698  081A                     	;# 
  1699  081B                     	;# 
  1700  081C                     	;# 
  1701  081C                     	;# 
  1702  081D                     	;# 
  1703  081E                     	;# 
  1704  081F                     	;# 
  1705  088E                     	;# 
  1706  0890                     	;# 
  1707  0891                     	;# 
  1708  0892                     	;# 
  1709  0893                     	;# 
  1710  090C                     	;# 
  1711  1E8F                     	;# 
  1712  1E90                     	;# 
  1713  1E91                     	;# 
  1714  1E92                     	;# 
  1715  1E93                     	;# 
  1716  1E9C                     	;# 
  1717  1EA1                     	;# 
  1718  1EA2                     	;# 
  1719  1EC3                     	;# 
  1720  1EC5                     	;# 
  1721  1EC6                     	;# 
  1722  1EC7                     	;# 
  1723  1ECB                     	;# 
  1724  1ECB                     	;# 
  1725  1ECB                     	;# 
  1726  1ECC                     	;# 
  1727  1ECC                     	;# 
  1728  1ECC                     	;# 
  1729  1F10                     	;# 
  1730  1F11                     	;# 
  1731  1F12                     	;# 
  1732  1F14                     	;# 
  1733  1F15                     	;# 
  1734  1F20                     	;# 
  1735  1F21                     	;# 
  1736  1F22                     	;# 
  1737  1F23                     	;# 
  1738  1F24                     	;# 
  1739  1F25                     	;# 
  1740  1F38                     	;# 
  1741  1F39                     	;# 
  1742  1F3A                     	;# 
  1743  1F3B                     	;# 
  1744  1F3C                     	;# 
  1745  1F3D                     	;# 
  1746  1F3E                     	;# 
  1747  1F3F                     	;# 
  1748  1F4E                     	;# 
  1749  1F4F                     	;# 
  1750  1F50                     	;# 
  1751  1F51                     	;# 
  1752  1F52                     	;# 
  1753  1F53                     	;# 
  1754  1F54                     	;# 
  1755  1F55                     	;# 
  1756  1FE4                     	;# 
  1757  1FE5                     	;# 
  1758  1FE6                     	;# 
  1759  1FE7                     	;# 
  1760  1FE8                     	;# 
  1761  1FE8                     	;# 
  1762  1FE9                     	;# 
  1763  1FEA                     	;# 
  1764  1FEB                     	;# 
  1765  1FED                     	;# 
  1766  1FEE                     	;# 
  1767  1FEF                     	;_song3_pre
  1768                           
  1769                           	psect	idataBIGRAM
  1770  046A                     __pidataBIGRAM:
  1771                           
  1772                           ;initializer for _song3_pre
  1773  046A  34E0               	retlw	224
  1774  046B  34E0               	retlw	224
  1775  046C  34E0               	retlw	224
  1776  046D  34E0               	retlw	224
  1777  046E  34E0               	retlw	224
  1778  046F  34E0               	retlw	224
  1779  0470  34E0               	retlw	224
  1780  0471  34E0               	retlw	224
  1781  0472  34E0               	retlw	224
  1782  0473  34E0               	retlw	224
  1783  0474  34E0               	retlw	224
  1784  0475  34E0               	retlw	224
  1785  0476  34E0               	retlw	224
  1786  0477  34E0               	retlw	224
  1787  0478  34E0               	retlw	224
  1788  0479  34E0               	retlw	224
  1789  047A  34E0               	retlw	224
  1790  047B  34E0               	retlw	224
  1791  047C  34E0               	retlw	224
  1792  047D  34E0               	retlw	224
  1793  047E  34E0               	retlw	224
  1794  047F  34E0               	retlw	224
  1795  0480  34E0               	retlw	224
  1796  0481  34E0               	retlw	224
  1797  0482  34E0               	retlw	224
  1798  0483  34E0               	retlw	224
  1799  0484  34E0               	retlw	224
  1800  0485  34E0               	retlw	224
  1801  0486  34E0               	retlw	224
  1802  0487  34E0               	retlw	224
  1803  0488  34E0               	retlw	224
  1804  0489  34E0               	retlw	224
  1805  048A  34D0               	retlw	208
  1806  048B  34D0               	retlw	208
  1807  048C  34D0               	retlw	208
  1808  048D  34D0               	retlw	208
  1809  048E  34D0               	retlw	208
  1810  048F  34D0               	retlw	208
  1811  0490  34D0               	retlw	208
  1812  0491  34D0               	retlw	208
  1813  0492  34D0               	retlw	208
  1814  0493  34D0               	retlw	208
  1815  0494  34C0               	retlw	192
  1816  0495  34C0               	retlw	192
  1817  0496  34C0               	retlw	192
  1818  0497  34C0               	retlw	192
  1819  0498  34D0               	retlw	208
  1820  0499  34D0               	retlw	208
  1821  049A  34D0               	retlw	208
  1822  049B  34D0               	retlw	208
  1823  049C  34D0               	retlw	208
  1824  049D  34D0               	retlw	208
  1825  049E  34D0               	retlw	208
  1826  049F  34D0               	retlw	208
  1827  04A0  34D0               	retlw	208
  1828  04A1  34D0               	retlw	208
  1829  04A2  34D0               	retlw	208
  1830  04A3  34D0               	retlw	208
  1831  04A4  34D0               	retlw	208
  1832  04A5  34D0               	retlw	208
  1833  04A6  34C0               	retlw	192
  1834  04A7  34C0               	retlw	192
  1835  04A8  34D0               	retlw	208
  1836  04A9  34D0               	retlw	208
  1837  04AA  34D0               	retlw	208
  1838  04AB  34D0               	retlw	208
  1839  04AC  34D0               	retlw	208
  1840  04AD  34D0               	retlw	208
  1841  04AE  34E0               	retlw	224
  1842  04AF  34D0               	retlw	208
  1843  04B0  34D0               	retlw	208
  1844  04B1  34D0               	retlw	208
  1845  04B2  34D0               	retlw	208
  1846  04B3  34D0               	retlw	208
  1847  04B4  34D0               	retlw	208
  1848  04B5  34D0               	retlw	208
  1849  04B6  34D0               	retlw	208
  1850  04B7  34D0               	retlw	208
  1851  04B8  34D0               	retlw	208
  1852  04B9  34D0               	retlw	208
  1853  04BA  34D0               	retlw	208
  1854  04BB  34D0               	retlw	208
  1855  04BC  34D0               	retlw	208
  1856  04BD  34D0               	retlw	208
  1857  04BE  34E0               	retlw	224
  1858  04BF  34D0               	retlw	208
  1859  04C0  34D0               	retlw	208
  1860  04C1  34D0               	retlw	208
  1861  04C2  34D0               	retlw	208
  1862  04C3  34D0               	retlw	208
  1863  04C4  34D0               	retlw	208
  1864  04C5  34D0               	retlw	208
  1865  04C6  34D0               	retlw	208
  1866  04C7  34D0               	retlw	208
  1867  04C8  34D0               	retlw	208
  1868  04C9  34D0               	retlw	208
  1869  04CA  34D0               	retlw	208
  1870  04CB  34D0               	retlw	208
  1871  04CC  34D0               	retlw	208
  1872  04CD  34D0               	retlw	208
  1873  04CE  34E0               	retlw	224
  1874  04CF  34D0               	retlw	208
  1875  04D0  34D0               	retlw	208
  1876  04D1  34D0               	retlw	208
  1877  04D2  34D0               	retlw	208
  1878  04D3  34D0               	retlw	208
  1879  04D4  34D0               	retlw	208
  1880  04D5  34D0               	retlw	208
  1881  04D6  34D0               	retlw	208
  1882  04D7  34D0               	retlw	208
  1883  04D8  34D0               	retlw	208
  1884  04D9  34D0               	retlw	208
  1885  04DA  34D0               	retlw	208
  1886  04DB  34D0               	retlw	208
  1887  04DC  34D0               	retlw	208
  1888  04DD  34D0               	retlw	208
  1889  04DE  34E0               	retlw	224
  1890  04DF  34D0               	retlw	208
  1891  04E0  34D0               	retlw	208
  1892  04E1  34D0               	retlw	208
  1893  04E2  34D0               	retlw	208
  1894  04E3  34D0               	retlw	208
  1895  04E4  34D0               	retlw	208
  1896  04E5  34D0               	retlw	208
  1897  04E6  34D0               	retlw	208
  1898  04E7  34D0               	retlw	208
  1899  04E8  34D0               	retlw	208
  1900  04E9  34D0               	retlw	208
  1901  04EA  34D0               	retlw	208
  1902  04EB  34D0               	retlw	208
  1903  04EC  34D0               	retlw	208
  1904  04ED  34D0               	retlw	208
  1905  04EE  34E0               	retlw	224
  1906  04EF  34D0               	retlw	208
  1907  04F0  34D0               	retlw	208
  1908  04F1  34D0               	retlw	208
  1909  04F2  34D0               	retlw	208
  1910  04F3  34D0               	retlw	208
  1911  04F4  34D0               	retlw	208
  1912  04F5  34D0               	retlw	208
  1913  04F6  34D0               	retlw	208
  1914  04F7  34D0               	retlw	208
  1915  04F8  34D0               	retlw	208
  1916  04F9  34D0               	retlw	208
  1917  04FA  34D0               	retlw	208
  1918  04FB  34D0               	retlw	208
  1919  04FC  34D0               	retlw	208
  1920  04FD  34D0               	retlw	208
  1921  04FE  34E0               	retlw	224
  1922  04FF  34D0               	retlw	208
  1923  0500  34D0               	retlw	208
  1924  0501  34D0               	retlw	208
  1925  0502  34D0               	retlw	208
  1926  0503  34D0               	retlw	208
  1927  0504  34D0               	retlw	208
  1928  0505  34D0               	retlw	208
  1929  0506  34D0               	retlw	208
  1930  0507  34D0               	retlw	208
  1931                           
  1932                           ;initializer for _song3
  1933  0508  34D4               	retlw	212
  1934  0509  34D4               	retlw	212
  1935  050A  34D4               	retlw	212
  1936  050B  34D4               	retlw	212
  1937  050C  34D4               	retlw	212
  1938  050D  34D4               	retlw	212
  1939  050E  34D4               	retlw	212
  1940  050F  34D4               	retlw	212
  1941  0510  34D4               	retlw	212
  1942  0511  34D4               	retlw	212
  1943  0512  34FC               	retlw	252
  1944  0513  34FC               	retlw	252
  1945  0514  34FC               	retlw	252
  1946  0515  34FC               	retlw	252
  1947  0516  34FC               	retlw	252
  1948  0517  34FC               	retlw	252
  1949  0518  34FC               	retlw	252
  1950  0519  34FC               	retlw	252
  1951  051A  34FC               	retlw	252
  1952  051B  34FC               	retlw	252
  1953  051C  34B2               	retlw	178
  1954  051D  34B2               	retlw	178
  1955  051E  34B2               	retlw	178
  1956  051F  34B2               	retlw	178
  1957  0520  34B2               	retlw	178
  1958  0521  34B2               	retlw	178
  1959  0522  34B2               	retlw	178
  1960  0523  34B2               	retlw	178
  1961  0524  34B2               	retlw	178
  1962  0525  34B2               	retlw	178
  1963  0526  348D               	retlw	141
  1964  0527  348D               	retlw	141
  1965  0528  34EE               	retlw	238
  1966  0529  34EE               	retlw	238
  1967  052A  34D4               	retlw	212
  1968  052B  34D4               	retlw	212
  1969  052C  34BD               	retlw	189
  1970  052D  34BD               	retlw	189
  1971  052E  349E               	retlw	158
  1972  052F  349E               	retlw	158
  1973  0530  348D               	retlw	141
  1974  0531  348D               	retlw	141
  1975  0532  34EE               	retlw	238
  1976  0533  34EE               	retlw	238
  1977  0534  34D4               	retlw	212
  1978  0535  34D4               	retlw	212
  1979  0536  34BD               	retlw	189
  1980  0537  3400               	retlw	0
  1981  0538  34BD               	retlw	189
  1982  0539  3400               	retlw	0
  1983  053A  34BD               	retlw	189
  1984  053B  3400               	retlw	0
  1985  053C  34BD               	retlw	189
  1986  053D  3400               	retlw	0
  1987  053E  34BD               	retlw	189
  1988  053F  3400               	retlw	0
  1989  0540  34BD               	retlw	189
  1990  0541  3400               	retlw	0
  1991  0542  34BD               	retlw	189
  1992  0543  3400               	retlw	0
  1993  0544  34BD               	retlw	189
  1994  0545  34BD               	retlw	189
  1995  0546  349E               	retlw	158
  1996  0547  349E               	retlw	158
  1997  0548  349E               	retlw	158
  1998  0549  349E               	retlw	158
  1999  054A  34B2               	retlw	178
  2000  054B  34B2               	retlw	178
  2001  054C  349E               	retlw	158
  2002  054D  349E               	retlw	158
  2003  054E  349E               	retlw	158
  2004  054F  349E               	retlw	158
  2005  0550  34B2               	retlw	178
  2006  0551  34B2               	retlw	178
  2007  0552  34BD               	retlw	189
  2008  0553  34BD               	retlw	189
  2009  0554  34D4               	retlw	212
  2010  0555  34D4               	retlw	212
  2011  0556  349E               	retlw	158
  2012  0557  349E               	retlw	158
  2013  0558  349E               	retlw	158
  2014  0559  349E               	retlw	158
  2015  055A  34B2               	retlw	178
  2016  055B  34B2               	retlw	178
  2017  055C  349E               	retlw	158
  2018  055D  349E               	retlw	158
  2019  055E  349E               	retlw	158
  2020  055F  349E               	retlw	158
  2021  0560  34B2               	retlw	178
  2022  0561  34B2               	retlw	178
  2023  0562  34BD               	retlw	189
  2024  0563  34BD               	retlw	189
  2025  0564  34D4               	retlw	212
  2026  0565  34D4               	retlw	212
  2027  0566  349E               	retlw	158
  2028  0567  349E               	retlw	158
  2029  0568  349E               	retlw	158
  2030  0569  349E               	retlw	158
  2031  056A  34B2               	retlw	178
  2032  056B  34B2               	retlw	178
  2033  056C  349E               	retlw	158
  2034  056D  349E               	retlw	158
  2035  056E  349E               	retlw	158
  2036  056F  349E               	retlw	158
  2037  0570  34B2               	retlw	178
  2038  0571  34B2               	retlw	178
  2039  0572  34BD               	retlw	189
  2040  0573  34BD               	retlw	189
  2041  0574  34D4               	retlw	212
  2042  0575  34D4               	retlw	212
  2043  0576  349E               	retlw	158
  2044  0577  349E               	retlw	158
  2045  0578  349E               	retlw	158
  2046  0579  349E               	retlw	158
  2047  057A  34B2               	retlw	178
  2048  057B  34B2               	retlw	178
  2049  057C  349E               	retlw	158
  2050  057D  349E               	retlw	158
  2051  057E  349E               	retlw	158
  2052  057F  349E               	retlw	158
  2053  0580  34B2               	retlw	178
  2054  0581  34B2               	retlw	178
  2055  0582  34BD               	retlw	189
  2056  0583  34BD               	retlw	189
  2057  0584  34D4               	retlw	212
  2058  0585  34D4               	retlw	212
  2059  0586  349E               	retlw	158
  2060  0587  349E               	retlw	158
  2061  0588  349E               	retlw	158
  2062  0589  349E               	retlw	158
  2063  058A  34B2               	retlw	178
  2064  058B  34B2               	retlw	178
  2065  058C  349E               	retlw	158
  2066  058D  349E               	retlw	158
  2067  058E  349E               	retlw	158
  2068  058F  349E               	retlw	158
  2069  0590  34B2               	retlw	178
  2070  0591  34B2               	retlw	178
  2071  0592  34BD               	retlw	189
  2072  0593  34BD               	retlw	189
  2073  0594  34D4               	retlw	212
  2074  0595  34D4               	retlw	212
  2075  0596  349E               	retlw	158
  2076  0597  349E               	retlw	158
  2077  0598  349E               	retlw	158
  2078  0599  349E               	retlw	158
  2079  059A  34B2               	retlw	178
  2080  059B  34B2               	retlw	178
  2081  059C  349E               	retlw	158
  2082  059D  349E               	retlw	158
  2083  059E  349E               	retlw	158
  2084  059F  349E               	retlw	158
  2085  05A0  34B2               	retlw	178
  2086  05A1  34B2               	retlw	178
  2087  05A2  34BD               	retlw	189
  2088  05A3  34BD               	retlw	189
  2089  05A4  34D4               	retlw	212
  2090  05A5  34D4               	retlw	212
  2091                           
  2092                           ;initializer for _silent_night
  2093  05A6  349E               	retlw	158
  2094  05A7  349E               	retlw	158
  2095  05A8  349E               	retlw	158
  2096  05A9  348D               	retlw	141
  2097  05AA  349E               	retlw	158
  2098  05AB  349E               	retlw	158
  2099  05AC  34BC               	retlw	188
  2100  05AD  34BC               	retlw	188
  2101  05AE  34BC               	retlw	188
  2102  05AF  34BC               	retlw	188
  2103  05B0  34BC               	retlw	188
  2104  05B1  34BC               	retlw	188
  2105  05B2  349E               	retlw	158
  2106  05B3  349E               	retlw	158
  2107  05B4  349E               	retlw	158
  2108  05B5  348D               	retlw	141
  2109  05B6  349E               	retlw	158
  2110  05B7  349E               	retlw	158
  2111  05B8  34BC               	retlw	188
  2112  05B9  34BC               	retlw	188
  2113  05BA  34BC               	retlw	188
  2114  05BB  34BC               	retlw	188
  2115  05BC  34BC               	retlw	188
  2116  05BD  34BC               	retlw	188
  2117  05BE  34D3               	retlw	211
  2118  05BF  34D3               	retlw	211
  2119  05C0  34D3               	retlw	211
  2120  05C1  34D3               	retlw	211
  2121  05C2  34D3               	retlw	211
  2122  05C3  34D3               	retlw	211
  2123  05C4  34FC               	retlw	252
  2124  05C5  34FC               	retlw	252
  2125  05C6  34FC               	retlw	252
  2126  05C7  34FC               	retlw	252
  2127  05C8  34FC               	retlw	252
  2128  05C9  34FC               	retlw	252
  2129  05CA  34EE               	retlw	238
  2130  05CB  34EE               	retlw	238
  2131  05CC  34EE               	retlw	238
  2132  05CD  34EE               	retlw	238
  2133  05CE  34EE               	retlw	238
  2134  05CF  34EE               	retlw	238
  2135  05D0  349E               	retlw	158
  2136  05D1  349E               	retlw	158
  2137  05D2  349E               	retlw	158
  2138  05D3  349E               	retlw	158
  2139  05D4  349E               	retlw	158
  2140  05D5  349E               	retlw	158
  2141  05D6  348D               	retlw	141
  2142  05D7  348D               	retlw	141
  2143  05D8  348D               	retlw	141
  2144  05D9  348D               	retlw	141
  2145  05DA  348D               	retlw	141
  2146  05DB  348D               	retlw	141
  2147  05DC  34ED               	retlw	237
  2148  05DD  34ED               	retlw	237
  2149  05DE  34ED               	retlw	237
  2150  05DF  34FC               	retlw	252
  2151  05E0  348D               	retlw	141
  2152  05E1  348D               	retlw	141
  2153  05E2  349E               	retlw	158
  2154  05E3  349E               	retlw	158
  2155  05E4  349E               	retlw	158
  2156  05E5  348D               	retlw	141
  2157  05E6  349E               	retlw	158
  2158  05E7  349E               	retlw	158
  2159  05E8  34BC               	retlw	188
  2160  05E9  34BC               	retlw	188
  2161  05EA  34BC               	retlw	188
  2162  05EB  34BC               	retlw	188
  2163  05EC  34BC               	retlw	188
  2164  05ED  34BC               	retlw	188
  2165  05EE  348D               	retlw	141
  2166  05EF  348D               	retlw	141
  2167  05F0  348D               	retlw	141
  2168  05F1  348D               	retlw	141
  2169  05F2  348D               	retlw	141
  2170  05F3  348D               	retlw	141
  2171  05F4  34ED               	retlw	237
  2172  05F5  34ED               	retlw	237
  2173  05F6  34ED               	retlw	237
  2174  05F7  34FC               	retlw	252
  2175  05F8  348D               	retlw	141
  2176  05F9  348D               	retlw	141
  2177  05FA  349E               	retlw	158
  2178  05FB  349E               	retlw	158
  2179  05FC  349E               	retlw	158
  2180  05FD  348D               	retlw	141
  2181  05FE  349E               	retlw	158
  2182  05FF  349E               	retlw	158
  2183  0600  34BC               	retlw	188
  2184  0601  34BC               	retlw	188
  2185  0602  34BC               	retlw	188
  2186  0603  34BC               	retlw	188
  2187  0604  34BC               	retlw	188
  2188  0605  34BC               	retlw	188
  2189  0606  34D3               	retlw	211
  2190  0607  34D3               	retlw	211
  2191  0608  34D3               	retlw	211
  2192  0609  34D3               	retlw	211
  2193  060A  34D3               	retlw	211
  2194  060B  34D3               	retlw	211
  2195  060C  34B1               	retlw	177
  2196  060D  34B1               	retlw	177
  2197  060E  34B1               	retlw	177
  2198  060F  34D3               	retlw	211
  2199  0610  34FC               	retlw	252
  2200  0611  34FC               	retlw	252
  2201  0612  34ED               	retlw	237
  2202  0613  34ED               	retlw	237
  2203  0614  34ED               	retlw	237
  2204  0615  34ED               	retlw	237
  2205  0616  34ED               	retlw	237
  2206  0617  34ED               	retlw	237
  2207  0618  34BC               	retlw	188
  2208  0619  34BC               	retlw	188
  2209  061A  34BC               	retlw	188
  2210  061B  34BC               	retlw	188
  2211  061C  34BC               	retlw	188
  2212  061D  34BC               	retlw	188
  2213  061E  34ED               	retlw	237
  2214  061F  34ED               	retlw	237
  2215  0620  349E               	retlw	158
  2216  0621  349E               	retlw	158
  2217  0622  34BC               	retlw	188
  2218  0623  34BC               	retlw	188
  2219  0624  349E               	retlw	158
  2220  0625  349E               	retlw	158
  2221  0626  349E               	retlw	158
  2222  0627  34B1               	retlw	177
  2223  0628  34D3               	retlw	211
  2224  0629  34D3               	retlw	211
  2225  062A  34EE               	retlw	238
  2226  062B  34EE               	retlw	238
  2227  062C  34EE               	retlw	238
  2228  062D  34EE               	retlw	238
  2229  062E  34EE               	retlw	238
  2230  062F  34EE               	retlw	238
  2231  0630  3400               	retlw	0
  2232                           
  2233                           ;initializer for _silent_night_pre
  2234  0631  34D0               	retlw	208
  2235  0632  34D0               	retlw	208
  2236  0633  34D0               	retlw	208
  2237  0634  34D0               	retlw	208
  2238  0635  34D0               	retlw	208
  2239  0636  34D0               	retlw	208
  2240  0637  34D0               	retlw	208
  2241  0638  34D0               	retlw	208
  2242  0639  34D0               	retlw	208
  2243  063A  34D0               	retlw	208
  2244  063B  34D0               	retlw	208
  2245  063C  34D0               	retlw	208
  2246  063D  34D0               	retlw	208
  2247  063E  34D0               	retlw	208
  2248  063F  34D0               	retlw	208
  2249  0640  34D0               	retlw	208
  2250  0641  34D0               	retlw	208
  2251  0642  34D0               	retlw	208
  2252  0643  34D0               	retlw	208
  2253  0644  34D0               	retlw	208
  2254  0645  34D0               	retlw	208
  2255  0646  34D0               	retlw	208
  2256  0647  34D0               	retlw	208
  2257  0648  34D0               	retlw	208
  2258  0649  34C0               	retlw	192
  2259  064A  34C0               	retlw	192
  2260  064B  34C0               	retlw	192
  2261  064C  34C0               	retlw	192
  2262  064D  34C0               	retlw	192
  2263  064E  34C0               	retlw	192
  2264  064F  34C0               	retlw	192
  2265  0650  34C0               	retlw	192
  2266  0651  34C0               	retlw	192
  2267  0652  34C0               	retlw	192
  2268  0653  34C0               	retlw	192
  2269  0654  34C0               	retlw	192
  2270  0655  34C0               	retlw	192
  2271  0656  34C0               	retlw	192
  2272  0657  34C0               	retlw	192
  2273  0658  34C0               	retlw	192
  2274  0659  34C0               	retlw	192
  2275  065A  34C0               	retlw	192
  2276  065B  34D0               	retlw	208
  2277  065C  34D0               	retlw	208
  2278  065D  34D0               	retlw	208
  2279  065E  34D0               	retlw	208
  2280  065F  34D0               	retlw	208
  2281  0660  34D0               	retlw	208
  2282  0661  34D0               	retlw	208
  2283  0662  34D0               	retlw	208
  2284  0663  34D0               	retlw	208
  2285  0664  34D0               	retlw	208
  2286  0665  34D0               	retlw	208
  2287  0666  34D0               	retlw	208
  2288  0667  34C0               	retlw	192
  2289  0668  34C0               	retlw	192
  2290  0669  34C0               	retlw	192
  2291  066A  34C0               	retlw	192
  2292  066B  34D0               	retlw	208
  2293  066C  34D0               	retlw	208
  2294  066D  34D0               	retlw	208
  2295  066E  34D0               	retlw	208
  2296  066F  34D0               	retlw	208
  2297  0670  34D0               	retlw	208
  2298  0671  34D0               	retlw	208
  2299  0672  34D0               	retlw	208
  2300  0673  34D0               	retlw	208
  2301  0674  34D0               	retlw	208
  2302  0675  34D0               	retlw	208
  2303  0676  34D0               	retlw	208
  2304  0677  34D0               	retlw	208
  2305  0678  34D0               	retlw	208
  2306  0679  34D0               	retlw	208
  2307  067A  34D0               	retlw	208
  2308  067B  34D0               	retlw	208
  2309  067C  34D0               	retlw	208
  2310  067D  34D0               	retlw	208
  2311  067E  34D0               	retlw	208
  2312  067F  34C0               	retlw	192
  2313  0680  34C0               	retlw	192
  2314  0681  34C0               	retlw	192
  2315  0682  34C0               	retlw	192
  2316  0683  34D0               	retlw	208
  2317  0684  34D0               	retlw	208
  2318  0685  34D0               	retlw	208
  2319  0686  34D0               	retlw	208
  2320  0687  34D0               	retlw	208
  2321  0688  34D0               	retlw	208
  2322  0689  34D0               	retlw	208
  2323  068A  34D0               	retlw	208
  2324  068B  34D0               	retlw	208
  2325  068C  34D0               	retlw	208
  2326  068D  34D0               	retlw	208
  2327  068E  34D0               	retlw	208
  2328  068F  34D0               	retlw	208
  2329  0690  34D0               	retlw	208
  2330  0691  34C0               	retlw	192
  2331  0692  34C0               	retlw	192
  2332  0693  34C0               	retlw	192
  2333  0694  34C0               	retlw	192
  2334  0695  34C0               	retlw	192
  2335  0696  34C0               	retlw	192
  2336  0697  34C0               	retlw	192
  2337  0698  34C0               	retlw	192
  2338  0699  34C0               	retlw	192
  2339  069A  34C0               	retlw	192
  2340  069B  34C0               	retlw	192
  2341  069C  34C0               	retlw	192
  2342  069D  34C0               	retlw	192
  2343  069E  34C0               	retlw	192
  2344  069F  34C0               	retlw	192
  2345  06A0  34C0               	retlw	192
  2346  06A1  34C0               	retlw	192
  2347  06A2  34C0               	retlw	192
  2348  06A3  34C0               	retlw	192
  2349  06A4  34C0               	retlw	192
  2350  06A5  34C0               	retlw	192
  2351  06A6  34C0               	retlw	192
  2352  06A7  34C0               	retlw	192
  2353  06A8  34C0               	retlw	192
  2354  06A9  34C0               	retlw	192
  2355  06AA  34C0               	retlw	192
  2356  06AB  34D0               	retlw	208
  2357  06AC  34D0               	retlw	208
  2358  06AD  34D0               	retlw	208
  2359  06AE  34D0               	retlw	208
  2360  06AF  34D0               	retlw	208
  2361  06B0  34D0               	retlw	208
  2362  06B1  34D0               	retlw	208
  2363  06B2  34D0               	retlw	208
  2364  06B3  34D0               	retlw	208
  2365  06B4  34D0               	retlw	208
  2366  06B5  34D0               	retlw	208
  2367  06B6  34D0               	retlw	208
  2368  06B7  34D0               	retlw	208
  2369  06B8  34D0               	retlw	208
  2370  06B9  34D0               	retlw	208
  2371  06BA  34D0               	retlw	208
  2372                           
  2373                           	psect	idataCOMMON
  2374  0003                     __pidataCOMMON:
  2375                           
  2376                           ;initializer for _num_songs
  2377  0003  3403               	retlw	3
  2378                           
  2379                           	psect	idataBANK0
  2380  0CCD                     __pidataBANK0:
  2381                           
  2382                           ;initializer for _song3_length
  2383  0CCD  349E               	retlw	158
  2384                           
  2385                           ;initializer for _timer_low_3
  2386  0CCE  343A               	retlw	58
  2387                           
  2388                           ;initializer for _timer_high_3
  2389  0CCF  34F1               	retlw	241
  2390                           
  2391                           ;initializer for _song2_length
  2392  0CD0  343C               	retlw	60
  2393                           
  2394                           ;initializer for _timer_low_2
  2395  0CD1  34C8               	retlw	200
  2396                           
  2397                           ;initializer for _timer_high_2
  2398  0CD2  34E7               	retlw	231
  2399                           
  2400                           	psect	idataBANK1
  2401  0CD3                     __pidataBANK1:
  2402                           
  2403                           ;initializer for _light_array
  2404  0CD3  34FE               	retlw	254
  2405  0CD4  34FF               	retlw	255
  2406  0CD5  34FE               	retlw	254
  2407  0CD6  34FF               	retlw	255
  2408  0CD7  34FE               	retlw	254
  2409  0CD8  34FF               	retlw	255
  2410  0CD9  34FE               	retlw	254
  2411                           
  2412                           	psect	idataBANK2
  2413  0758                     __pidataBANK2:
  2414                           
  2415                           ;initializer for _song2
  2416  0758  34FC               	retlw	252
  2417  0759  34FC               	retlw	252
  2418  075A  34FC               	retlw	252
  2419  075B  34FC               	retlw	252
  2420  075C  34FC               	retlw	252
  2421  075D  3400               	retlw	0
  2422  075E  34FC               	retlw	252
  2423  075F  34FC               	retlw	252
  2424  0760  34FC               	retlw	252
  2425  0761  34FC               	retlw	252
  2426  0762  34FC               	retlw	252
  2427  0763  34FC               	retlw	252
  2428  0764  34FC               	retlw	252
  2429  0765  3400               	retlw	0
  2430  0766  34BD               	retlw	189
  2431  0767  34BD               	retlw	189
  2432  0768  34BD               	retlw	189
  2433  0769  34BD               	retlw	189
  2434  076A  34BD               	retlw	189
  2435  076B  34BD               	retlw	189
  2436  076C  34BD               	retlw	189
  2437  076D  3400               	retlw	0
  2438  076E  34D4               	retlw	212
  2439  076F  34D4               	retlw	212
  2440  0770  34D4               	retlw	212
  2441  0771  34D4               	retlw	212
  2442  0772  34D4               	retlw	212
  2443  0773  34D4               	retlw	212
  2444  0774  34D4               	retlw	212
  2445  0775  348D               	retlw	141
  2446  0776  34FC               	retlw	252
  2447  0777  34FC               	retlw	252
  2448  0778  34FC               	retlw	252
  2449  0779  34FC               	retlw	252
  2450  077A  34FC               	retlw	252
  2451  077B  34FC               	retlw	252
  2452  077C  3400               	retlw	0
  2453  077D  34FC               	retlw	252
  2454  077E  34FC               	retlw	252
  2455  077F  34FC               	retlw	252
  2456  0780  34FC               	retlw	252
  2457  0781  34FC               	retlw	252
  2458  0782  34FC               	retlw	252
  2459  0783  34FC               	retlw	252
  2460  0784  34BD               	retlw	189
  2461  0785  3400               	retlw	0
  2462  0786  34FC               	retlw	252
  2463  0787  34FC               	retlw	252
  2464  0788  34FC               	retlw	252
  2465  0789  34FC               	retlw	252
  2466  078A  34FC               	retlw	252
  2467  078B  3400               	retlw	0
  2468  078C  34FC               	retlw	252
  2469  078D  34FC               	retlw	252
  2470  078E  34FC               	retlw	252
  2471  078F  34FC               	retlw	252
  2472  0790  34FC               	retlw	252
  2473  0791  34FC               	retlw	252
  2474  0792  34FC               	retlw	252
  2475  0793  34D4               	retlw	212
  2476                           
  2477                           	psect	stringtext1
  2478  1000                     __pstringtext1:
  2479  1000                     _spi1_configuration:
  2480  1000  3400               	retlw	0
  2481  1001  3440               	retlw	64
  2482  1002  3401               	retlw	1
  2483  1003  3400               	retlw	0
  2484  1004                     __end_of_spi1_configuration:
  2485                           
  2486                           	psect	stringtext2
  2487  1004                     __pstringtext2:
  2488  1004                     _a:
  2489  1004  348D               	retlw	141
  2490  1005                     __end_of_a:
  2491                           
  2492                           	psect	stringtext3
  2493  1005                     __pstringtext3:
  2494  1005                     _g:
  2495  1005  349E               	retlw	158
  2496  1006                     __end_of_g:
  2497                           
  2498                           	psect	stringtext4
  2499  1006                     __pstringtext4:
  2500  1006                     _f:
  2501  1006  34B2               	retlw	178
  2502  1007                     __end_of_f:
  2503                           
  2504                           	psect	stringtext5
  2505  1007                     __pstringtext5:
  2506  1007                     _e:
  2507  1007  34BD               	retlw	189
  2508  1008                     __end_of_e:
  2509                           
  2510                           	psect	stringtext6
  2511  1008                     __pstringtext6:
  2512  1008                     _d:
  2513  1008  34D4               	retlw	212
  2514  1009                     __end_of_d:
  2515                           
  2516                           	psect	stringtext7
  2517  1009                     __pstringtext7:
  2518  1009                     _c:
  2519  1009  34EE               	retlw	238
  2520  100A                     __end_of_c:
  2521                           
  2522                           	psect	stringtext8
  2523  100A                     __pstringtext8:
  2524  100A                     _b:
  2525  100A  34FC               	retlw	252
  2526  100B                     __end_of_b:
  2527                           
  2528                           	psect	nvCOMMON
  2529  007B                     __pnvCOMMON:
  2530  007B                     _timer1ReloadVal:
  2531  007B                     	ds	2
  2532                           
  2533                           	psect	nvBANK0
  2534  0042                     __pnvBANK0:
  2535  0042                     _TMR1_InterruptHandler:
  2536  0042                     	ds	2
  2537  0044                     _TMR0_InterruptHandler:
  2538  0044                     	ds	2
  2539  0046                     _timer0ReloadVal16bit:
  2540  0046                     	ds	2
  2541  0048                     _INT_InterruptHandler:
  2542  0048                     	ds	2
  2543  001A                     _LATCbits	set	26
  2544  0012                     _TRISAbits	set	18
  2545  000B                     _INTCONbits	set	11
  2546  0014                     _TRISC	set	20
  2547  0012                     _TRISA	set	18
  2548  001A                     _LATC	set	26
  2549  0018                     _LATA	set	24
  2550  0014                     _TRISCbits	set	20
  2551  018C                     _SSP1BUF	set	396
  2552  0191                     _SSP1CON2	set	401
  2553  0190                     _SSP1CON1bits	set	400
  2554  018D                     _SSP1ADD	set	397
  2555  0190                     _SSP1CON1	set	400
  2556  018F                     _SSP1STAT	set	399
  2557  020F                     _T1GCONbits	set	527
  2558  020E                     _T1CONbits	set	526
  2559  020E                     _T1CON	set	526
  2560  020C                     _TMR1L	set	524
  2561  020D                     _TMR1H	set	525
  2562  0211                     _T1CLK	set	529
  2563  0210                     _T1GATE	set	528
  2564  020F                     _T1GCON	set	527
  2565  028D                     _PR2	set	653
  2566  028C                     _TMR2	set	652
  2567  028E                     _T2CONbits	set	654
  2568  0291                     _T2RSTbits	set	657
  2569  028F                     _T2HLTbits	set	655
  2570  028E                     _T2CON	set	654
  2571  028C                     _T2TMR	set	652
  2572  028D                     _T2PR	set	653
  2573  0291                     _T2RST	set	657
  2574  028F                     _T2HLT	set	655
  2575  0290                     _T2CLKCON	set	656
  2576  0314                     _PWM3DCL	set	788
  2577  0315                     _PWM3DCH	set	789
  2578  0316                     _PWM3CON	set	790
  2579  059E                     _T0CON0bits	set	1438
  2580  059E                     _T0CON0	set	1438
  2581  059C                     _TMR0L	set	1436
  2582  059D                     _TMR0H	set	1437
  2583  059F                     _T0CON1	set	1439
  2584  0717                     _PIE1bits	set	1815
  2585  070C                     _PIR0bits	set	1804
  2586  0716                     _PIE0bits	set	1814
  2587  070D                     _PIR1bits	set	1805
  2588  080C                     _WDTCON	set	2060
  2589  0892                     _OSCTUNE	set	2194
  2590  0893                     _OSCFRQ	set	2195
  2591  0891                     _OSCEN	set	2193
  2592  1E90                     _INTPPS	set	7824
  2593  1EC6                     _SSP1DATPPS	set	7878
  2594  1EC5                     _SSP1CLKPPS	set	7877
  2595  1F15                     _RA5PPS	set	7957
  2596  1F52                     _INLVLC	set	8018
  2597  1F3C                     _INLVLA	set	7996
  2598  1F51                     _SLRCONC	set	8017
  2599  1F3B                     _SLRCONA	set	7995
  2600  1F50                     _ODCONC	set	8016
  2601  1F3A                     _ODCONA	set	7994
  2602  1F4F                     _WPUC	set	8015
  2603  1F39                     _WPUA	set	7993
  2604  1F38                     _ANSELA	set	7992
  2605  1F4E                     _ANSELC	set	8014
  2606  1F23                     _RC3PPS	set	7971
  2607  1F25                     _RC5PPS	set	7973
  2608                           
  2609                           	psect	cinit
  2610  0033                     start_initialization:	
  2611                           ; #config settings
  2612                           
  2613  0033                     __initialization:	;BIGRAM
  2614                           
  2615                           ; Initialize objects allocated to BIGRAM
  2616  0033  306A               	movlw	low __pidataBIGRAM
  2617  0034  0084               	movwf	4
  2618  0035  3084               	movlw	(high __pidataBIGRAM)| (0+128)
  2619  0036  0085               	movwf	5
  2620  0037  309F               	movlw	low (0+8607)
  2621  0038  0086               	movwf	6
  2622  0039  3021               	movlw	high (0+8607)
  2623  003A  0087               	movwf	7
  2624  003B  3002               	movlw	2
  2625  003C  00FF               	movwf	btemp+1
  2626  003D  3051               	movlw	81
  2627  003E  318D  2506  3180   	fcall	init_ram
  2628                           
  2629                           ; Initialize objects allocated to COMMON
  2630  0041  3180  2003  3180   	fcall	__pidataCOMMON	;fetch initializer
  2631  0044  00FD               	movwf	__pdataCOMMON& (0+127)
  2632                           
  2633                           ; Initialize objects allocated to BANK0
  2634  0045  30CD               	movlw	low __pidataBANK0
  2635  0046  0084               	movwf	4
  2636  0047  308C               	movlw	(high __pidataBANK0)| (0+128)
  2637  0048  0085               	movwf	5
  2638  0049  3050               	movlw	low __pdataBANK0
  2639  004A  0086               	movwf	6
  2640  004B  3000               	movlw	high __pdataBANK0
  2641  004C  0087               	movwf	7
  2642  004D  3000               	movlw	0
  2643  004E  00FF               	movwf	btemp+1
  2644  004F  3006               	movlw	6
  2645  0050  318D  2506  3180   	fcall	init_ram
  2646                           
  2647                           ; Initialize objects allocated to BANK1
  2648  0053  30D3               	movlw	low __pidataBANK1
  2649  0054  0084               	movwf	4
  2650  0055  308C               	movlw	(high __pidataBANK1)| (0+128)
  2651  0056  0085               	movwf	5
  2652  0057  30B7               	movlw	low __pdataBANK1
  2653  0058  0086               	movwf	6
  2654  0059  3000               	movlw	high __pdataBANK1
  2655  005A  0087               	movwf	7
  2656  005B  3000               	movlw	0
  2657  005C  00FF               	movwf	btemp+1
  2658  005D  3007               	movlw	7
  2659  005E  318D  2506  3180   	fcall	init_ram
  2660                           
  2661                           ; Initialize objects allocated to BANK2
  2662  0061  3058               	movlw	low __pidataBANK2
  2663  0062  0084               	movwf	4
  2664  0063  3087               	movlw	(high __pidataBANK2)| (0+128)
  2665  0064  0085               	movwf	5
  2666  0065  3020               	movlw	low __pdataBANK2
  2667  0066  0086               	movwf	6
  2668  0067  3001               	movlw	high __pdataBANK2
  2669  0068  0087               	movwf	7
  2670  0069  3000               	movlw	0
  2671  006A  00FF               	movwf	btemp+1
  2672  006B  303C               	movlw	60
  2673  006C  318D  2506  3180   	fcall	init_ram
  2674                           
  2675                           ; Clear objects allocated to BANK0
  2676  006F  01CA               	clrf	__pbssBANK0& (0+127)
  2677  0070  01CB               	clrf	(__pbssBANK0+1)& (0+127)
  2678  0071  01CC               	clrf	(__pbssBANK0+2)& (0+127)
  2679  0072  01CD               	clrf	(__pbssBANK0+3)& (0+127)
  2680  0073  01CE               	clrf	(__pbssBANK0+4)& (0+127)
  2681  0074  01CF               	clrf	(__pbssBANK0+5)& (0+127)
  2682                           
  2683                           ; Clear objects allocated to BANK1
  2684  0075  0141               	movlb	1	; select bank1
  2685  0076  01BE               	clrf	__pbssBANK1& (0+127)
  2686  0077  01BF               	clrf	(__pbssBANK1+1)& (0+127)
  2687  0078  01C0               	clrf	(__pbssBANK1+2)& (0+127)
  2688  0079  01C1               	clrf	(__pbssBANK1+3)& (0+127)
  2689  007A  01C2               	clrf	(__pbssBANK1+4)& (0+127)
  2690  007B                     end_of_initialization:	
  2691                           ;End of C runtime variable initialization code
  2692                           
  2693  007B                     __end_of__initialization:
  2694  007B  107E               	bcf	int$flags,0	;clear compiler interrupt flag (level 1)
  2695  007C  0140               	movlb	0
  2696  007D  318E  2E1F         	ljmp	_main	;jump to C main() function
  2697                           
  2698                           	psect	bssCOMMON
  2699  0000                     __pbssCOMMON:
  2700  0000                     _song2_pre:
  2701  0000                     	ds	0
  2702                           
  2703                           	psect	dataCOMMON
  2704  007D                     __pdataCOMMON:
  2705  007D                     _num_songs:
  2706  007D                     	ds	1
  2707                           
  2708                           	psect	bssBANK0
  2709  004A                     __pbssBANK0:
  2710  004A                     _jungle_count:
  2711  004A                     	ds	1
  2712  004B                     _last_prescale:
  2713  004B                     	ds	1
  2714  004C                     _last_note:
  2715  004C                     	ds	1
  2716  004D                     _song2_playing:
  2717  004D                     	ds	1
  2718  004E                     _song3_playing:
  2719  004E                     	ds	1
  2720  004F                     _silent_night_playing:
  2721  004F                     	ds	1
  2722                           
  2723                           	psect	dataBANK0
  2724  0050                     __pdataBANK0:
  2725  0050                     _song3_length:
  2726  0050                     	ds	1
  2727  0051                     _timer_low_3:
  2728  0051                     	ds	1
  2729  0052                     _timer_high_3:
  2730  0052                     	ds	1
  2731  0053                     _song2_length:
  2732  0053                     	ds	1
  2733  0054                     _timer_low_2:
  2734  0054                     	ds	1
  2735  0055                     _timer_high_2:
  2736  0055                     	ds	1
  2737                           
  2738                           	psect	bssBANK1
  2739  00BE                     __pbssBANK1:
  2740  00BE                     _count:
  2741  00BE                     	ds	2
  2742  00C0                     _jungle_bool:
  2743  00C0                     	ds	1
  2744  00C1                     _presses:
  2745  00C1                     	ds	1
  2746  00C2                     _TMR0_complete:
  2747  00C2                     	ds	1
  2748                           
  2749                           	psect	dataBANK1
  2750  00B7                     __pdataBANK1:
  2751  00B7                     _light_array:
  2752  00B7                     	ds	7
  2753                           
  2754                           	psect	dataBANK2
  2755  0120                     __pdataBANK2:
  2756  0120                     _song2:
  2757  0120                     	ds	60
  2758                           
  2759                           	psect	inittext
  2760  0D06                     init_ram:
  2761  0D06  00FE               	movwf	btemp
  2762  0D07                     initloop:
  2763  0D07  0012               	moviw fsr0++
  2764  0D08  001E               	movwi fsr1++
  2765  0D09  3001               	movlw	1
  2766  0D0A  02FE               	subwf	btemp,f
  2767  0D0B  3000               	movlw	0
  2768  0D0C  3BFF               	subwfb	btemp+1,f
  2769  0D0D  087F               	movf	btemp+1,w
  2770  0D0E  047E               	iorwf	btemp,w
  2771  0D0F  1D03               	skipz
  2772  0D10  2D07               	goto	initloop
  2773  0D11  3400               	retlw	0
  2774                           
  2775                           	psect	cstackBANK1
  2776  00A0                     __pcstackBANK1:
  2777  00A0                     ??_SPI1_Initialize:
  2778  00A0                     ??_PIN_MANAGER_Initialize:	
  2779                           ; 1 bytes @ 0x0
  2780                           
  2781  00A0                     ??_OSCILLATOR_Initialize:	
  2782                           ; 1 bytes @ 0x0
  2783                           
  2784  00A0                     ??_WDT_Initialize:	
  2785                           ; 1 bytes @ 0x0
  2786                           
  2787  00A0                     ??_PWM3_Initialize:	
  2788                           ; 1 bytes @ 0x0
  2789                           
  2790  00A0                     ??_TMR2_Initialize:	
  2791                           ; 1 bytes @ 0x0
  2792                           
  2793  00A0                     ?_TMR0_SetInterruptHandler:	
  2794                           ; 1 bytes @ 0x0
  2795                           
  2796  00A0                     ?_TMR1_SetInterruptHandler:	
  2797                           ; 1 bytes @ 0x0
  2798                           
  2799  00A0                     ?_playNote:	
  2800                           ; 1 bytes @ 0x0
  2801                           
  2802  00A0                     ??_SPI1_ExchangeByte:	
  2803                           ; 1 bytes @ 0x0
  2804                           
  2805  00A0                     ?_INT_SetInterruptHandler:	
  2806                           ; 1 bytes @ 0x0
  2807                           
  2808  00A0                     SPI1_ExchangeByte@data:	
  2809                           ; 1 bytes @ 0x0
  2810                           
  2811  00A0                     playNote@prescale:	
  2812                           ; 1 bytes @ 0x0
  2813                           
  2814  00A0                     INT_SetInterruptHandler@InterruptHandler:	
  2815                           ; 1 bytes @ 0x0
  2816                           
  2817  00A0                     TMR0_SetInterruptHandler@InterruptHandler:	
  2818                           ; 2 bytes @ 0x0
  2819                           
  2820  00A0                     TMR1_SetInterruptHandler@InterruptHandler:	
  2821                           ; 2 bytes @ 0x0
  2822                           
  2823                           
  2824                           ; 2 bytes @ 0x0
  2825  00A0                     	ds	1
  2826  00A1                     ?_shiftBytes:
  2827  00A1                     ??_playNote:	
  2828                           ; 1 bytes @ 0x1
  2829                           
  2830  00A1                     shiftBytes@lowSide:	
  2831                           ; 1 bytes @ 0x1
  2832                           
  2833                           
  2834                           ; 1 bytes @ 0x1
  2835  00A1                     	ds	1
  2836  00A2                     ??_TMR1_Initialize:
  2837  00A2                     ??_EXT_INT_Initialize:	
  2838                           ; 1 bytes @ 0x2
  2839                           
  2840  00A2                     ??_TMR0_Initialize:	
  2841                           ; 1 bytes @ 0x2
  2842                           
  2843  00A2                     ??_TMR0_SetInterruptHandler:	
  2844                           ; 1 bytes @ 0x2
  2845                           
  2846  00A2                     ??_TMR1_SetInterruptHandler:	
  2847                           ; 1 bytes @ 0x2
  2848                           
  2849  00A2                     ??_shiftBytes:	
  2850                           ; 1 bytes @ 0x2
  2851                           
  2852  00A2                     ??_SYSTEM_Initialize:	
  2853                           ; 1 bytes @ 0x2
  2854                           
  2855  00A2                     ??_INT_SetInterruptHandler:	
  2856                           ; 1 bytes @ 0x2
  2857                           
  2858  00A2                     playNote@note:	
  2859                           ; 1 bytes @ 0x2
  2860                           
  2861  00A2                     shiftBytes@highSide:	
  2862                           ; 1 bytes @ 0x2
  2863                           
  2864                           
  2865                           ; 1 bytes @ 0x2
  2866  00A2                     	ds	1
  2867  00A3                     ??_displayMatrix:
  2868                           
  2869                           ; 1 bytes @ 0x3
  2870  00A3                     	ds	2
  2871  00A5                     displayMatrix@states:
  2872                           
  2873                           ; 1 bytes @ 0x5
  2874  00A5                     	ds	1
  2875  00A6                     displayMatrix@i:
  2876                           
  2877                           ; 2 bytes @ 0x6
  2878  00A6                     	ds	2
  2879  00A8                     displayMatrix@lowSide:
  2880                           
  2881                           ; 1 bytes @ 0x8
  2882  00A8                     	ds	1
  2883  00A9                     ??_main:
  2884                           
  2885                           ; 1 bytes @ 0x9
  2886  00A9                     	ds	5
  2887  00AE                     main@light:
  2888                           
  2889                           ; 1 bytes @ 0xE
  2890  00AE                     	ds	1
  2891  00AF                     main@j:
  2892                           
  2893                           ; 2 bytes @ 0xF
  2894  00AF                     	ds	2
  2895  00B1                     main@i:
  2896                           
  2897                           ; 2 bytes @ 0x11
  2898  00B1                     	ds	2
  2899  00B3                     main@j_1173:
  2900                           
  2901                           ; 2 bytes @ 0x13
  2902  00B3                     	ds	2
  2903  00B5                     main@j_1175:
  2904                           
  2905                           ; 2 bytes @ 0x15
  2906  00B5                     	ds	2
  2907                           
  2908                           	psect	cstackCOMMON
  2909  0070                     __pcstackCOMMON:
  2910  0070                     ?_SPI1_Initialize:
  2911  0070                     ?_PIN_MANAGER_Initialize:	
  2912                           ; 1 bytes @ 0x0
  2913                           
  2914  0070                     ?_OSCILLATOR_Initialize:	
  2915                           ; 1 bytes @ 0x0
  2916                           
  2917  0070                     ?_WDT_Initialize:	
  2918                           ; 1 bytes @ 0x0
  2919                           
  2920  0070                     ?_PWM3_Initialize:	
  2921                           ; 1 bytes @ 0x0
  2922                           
  2923  0070                     ?_TMR2_Initialize:	
  2924                           ; 1 bytes @ 0x0
  2925                           
  2926  0070                     ?_TMR1_Initialize:	
  2927                           ; 1 bytes @ 0x0
  2928                           
  2929  0070                     ?_EXT_INT_Initialize:	
  2930                           ; 1 bytes @ 0x0
  2931                           
  2932  0070                     ?_TMR0_Initialize:	
  2933                           ; 1 bytes @ 0x0
  2934                           
  2935  0070                     ?_TMR0_ISR:	
  2936                           ; 1 bytes @ 0x0
  2937                           
  2938  0070                     ??_TMR0_ISR:	
  2939                           ; 1 bytes @ 0x0
  2940                           
  2941  0070                     ?_INT_ISR:	
  2942                           ; 1 bytes @ 0x0
  2943                           
  2944  0070                     ?_TMR1_ISR:	
  2945                           ; 1 bytes @ 0x0
  2946                           
  2947  0070                     ?_INT_CallBack:	
  2948                           ; 1 bytes @ 0x0
  2949                           
  2950  0070                     ?_TMR0_DefaultInterruptHandler:	
  2951                           ; 1 bytes @ 0x0
  2952                           
  2953  0070                     ??_TMR0_DefaultInterruptHandler:	
  2954                           ; 1 bytes @ 0x0
  2955                           
  2956  0070                     ?_TMR1_DefaultInterruptHandler:	
  2957                           ; 1 bytes @ 0x0
  2958                           
  2959  0070                     ??_TMR1_DefaultInterruptHandler:	
  2960                           ; 1 bytes @ 0x0
  2961                           
  2962  0070                     ?_EXT_ISR:	
  2963                           ; 1 bytes @ 0x0
  2964                           
  2965  0070                     ??_EXT_ISR:	
  2966                           ; 1 bytes @ 0x0
  2967                           
  2968  0070                     ?_TMR0_ISR_:	
  2969                           ; 1 bytes @ 0x0
  2970                           
  2971  0070                     ??_TMR0_ISR_:	
  2972                           ; 1 bytes @ 0x0
  2973                           
  2974  0070                     ?_TMR1_ISR_:	
  2975                           ; 1 bytes @ 0x0
  2976                           
  2977  0070                     ?_displayMatrix:	
  2978                           ; 1 bytes @ 0x0
  2979                           
  2980  0070                     ?_SYSTEM_Initialize:	
  2981                           ; 1 bytes @ 0x0
  2982                           
  2983  0070                     ?_SPI1_ExchangeByte:	
  2984                           ; 1 bytes @ 0x0
  2985                           
  2986  0070                     ?_INTERRUPT_InterruptManager:	
  2987                           ; 1 bytes @ 0x0
  2988                           
  2989  0070                     ?_INT_DefaultInterruptHandler:	
  2990                           ; 1 bytes @ 0x0
  2991                           
  2992  0070                     ??_INT_DefaultInterruptHandler:	
  2993                           ; 1 bytes @ 0x0
  2994                           
  2995  0070                     ?_TMR0_Reload:	
  2996                           ; 1 bytes @ 0x0
  2997                           
  2998  0070                     ??_TMR0_Reload:	
  2999                           ; 1 bytes @ 0x0
  3000                           
  3001  0070                     ?_TMR1_WriteTimer:	
  3002                           ; 1 bytes @ 0x0
  3003                           
  3004  0070                     ?_main:	
  3005                           ; 1 bytes @ 0x0
  3006                           
  3007  0070                     ?i1_playNote:	
  3008                           ; 1 bytes @ 0x0
  3009                           
  3010  0070                     ?___awdiv:	
  3011                           ; 1 bytes @ 0x0
  3012                           
  3013  0070                     i1playNote@prescale:	
  3014                           ; 2 bytes @ 0x0
  3015                           
  3016  0070                     TMR1_WriteTimer@timerVal:	
  3017                           ; 1 bytes @ 0x0
  3018                           
  3019  0070                     ___awdiv@divisor:	
  3020                           ; 2 bytes @ 0x0
  3021                           
  3022                           
  3023                           ; 2 bytes @ 0x0
  3024  0070                     	ds	1
  3025  0071                     ??_INT_ISR:
  3026  0071                     ??_INT_CallBack:	
  3027                           ; 1 bytes @ 0x1
  3028                           
  3029  0071                     ??i1_playNote:	
  3030                           ; 1 bytes @ 0x1
  3031                           
  3032                           
  3033                           ; 1 bytes @ 0x1
  3034  0071                     	ds	1
  3035  0072                     ??_TMR1_WriteTimer:
  3036  0072                     i1playNote@note:	
  3037                           ; 1 bytes @ 0x2
  3038                           
  3039  0072                     ___awdiv@dividend:	
  3040                           ; 1 bytes @ 0x2
  3041                           
  3042                           
  3043                           ; 2 bytes @ 0x2
  3044  0072                     	ds	2
  3045  0074                     ??___awdiv:
  3046                           
  3047                           ; 1 bytes @ 0x4
  3048  0074                     	ds	1
  3049  0075                     ___awdiv@counter:
  3050                           
  3051                           ; 1 bytes @ 0x5
  3052  0075                     	ds	1
  3053  0076                     ___awdiv@sign:
  3054                           
  3055                           ; 1 bytes @ 0x6
  3056  0076                     	ds	1
  3057  0077                     ___awdiv@quotient:
  3058                           
  3059                           ; 2 bytes @ 0x7
  3060  0077                     	ds	2
  3061  0079                     ??_TMR1_ISR_:
  3062                           
  3063                           ; 1 bytes @ 0x9
  3064  0079                     	ds	2
  3065  007B                     ??_TMR1_ISR:
  3066  007B                     ??_INTERRUPT_InterruptManager:	
  3067                           ; 1 bytes @ 0xB
  3068                           
  3069                           
  3070                           	psect	cstackBANK0
  3071  0020                     __pcstackBANK0:	
  3072                           ; 1 bytes @ 0xB
  3073                           
  3074  0020                     TMR1_ISR_@lights:
  3075                           
  3076                           ; 1 bytes @ 0x0
  3077  0020                     	ds	1
  3078  0021                     TMR1_ISR_@lights_1185:
  3079                           
  3080                           ; 1 bytes @ 0x1
  3081  0021                     	ds	1
  3082  0022                     TMR1_ISR_@lights_1194:
  3083                           
  3084                           ; 1 bytes @ 0x2
  3085  0022                     	ds	1
  3086  0023                     TMR1_ISR_@jungle_sw:
  3087                           
  3088                           ; 1 bytes @ 0x3
  3089  0023                     	ds	1
  3090  0024                     TMR1_ISR_@i_1186:
  3091                           
  3092                           ; 2 bytes @ 0x4
  3093  0024                     	ds	2
  3094  0026                     TMR1_ISR_@i_1187:
  3095                           
  3096                           ; 2 bytes @ 0x6
  3097  0026                     	ds	2
  3098  0028                     TMR1_ISR_@i_1188:
  3099                           
  3100                           ; 2 bytes @ 0x8
  3101  0028                     	ds	2
  3102  002A                     TMR1_ISR_@i_1189:
  3103                           
  3104                           ; 2 bytes @ 0xA
  3105  002A                     	ds	2
  3106  002C                     TMR1_ISR_@i_1190:
  3107                           
  3108                           ; 2 bytes @ 0xC
  3109  002C                     	ds	2
  3110  002E                     TMR1_ISR_@i_1192:
  3111                           
  3112                           ; 2 bytes @ 0xE
  3113  002E                     	ds	2
  3114  0030                     TMR1_ISR_@i_1196:
  3115                           
  3116                           ; 2 bytes @ 0x10
  3117  0030                     	ds	2
  3118  0032                     TMR1_ISR_@i_1197:
  3119                           
  3120                           ; 2 bytes @ 0x12
  3121  0032                     	ds	2
  3122  0034                     TMR1_ISR_@i_1198:
  3123                           
  3124                           ; 2 bytes @ 0x14
  3125  0034                     	ds	2
  3126  0036                     TMR1_ISR_@i_1199:
  3127                           
  3128                           ; 2 bytes @ 0x16
  3129  0036                     	ds	2
  3130  0038                     TMR1_ISR_@i_1183:
  3131                           
  3132                           ; 2 bytes @ 0x18
  3133  0038                     	ds	2
  3134  003A                     TMR1_ISR_@i_1191:
  3135                           
  3136                           ; 2 bytes @ 0x1A
  3137  003A                     	ds	2
  3138  003C                     TMR1_ISR_@i:
  3139                           
  3140                           ; 2 bytes @ 0x1C
  3141  003C                     	ds	2
  3142  003E                     TMR1_ISR_@i_1184:
  3143                           
  3144                           ; 2 bytes @ 0x1E
  3145  003E                     	ds	2
  3146  0040                     TMR1_ISR_@i_1193:
  3147                           
  3148                           ; 2 bytes @ 0x20
  3149  0040                     	ds	2
  3150                           
  3151                           	psect	maintext
  3152  0E1F                     __pmaintext:	
  3153 ;;
  3154 ;;Main: autosize = 0, tempsize = 5, incstack = 0, save=0
  3155 ;;
  3156 ;; *************** function _main *****************
  3157 ;; Defined at:
  3158 ;;		line 334 in file "main.c"
  3159 ;; Parameters:    Size  Location     Type
  3160 ;;		None
  3161 ;; Auto vars:     Size  Location     Type
  3162 ;;  light           1    0        unsigned char 
  3163 ;;  light           1   14[BANK1 ] unsigned char 
  3164 ;;  j               2   21[BANK1 ] int 
  3165 ;;  j               2   19[BANK1 ] int 
  3166 ;;  j               2   15[BANK1 ] int 
  3167 ;;  i               2   17[BANK1 ] int 
  3168 ;; Return value:  Size  Location     Type
  3169 ;;                  1    wreg      void 
  3170 ;; Registers used:
  3171 ;;		wreg, fsr0l, fsr0h, fsr1l, fsr1h, status,2, status,0, pclath, cstack
  3172 ;; Tracked objects:
  3173 ;;		On entry : B3F/0
  3174 ;;		On exit  : 0/0
  3175 ;;		Unchanged: 0/0
  3176 ;; Data sizes:     COMMON   BANK0   BANK1   BANK2   BANK3   BANK4   BANK5   BANK6   BANK7   BANK8   BANK9  BANK10  BANK1
      +1  BANK12
  3177 ;;      Params:         0       0       0       0       0       0       0       0       0       0       0       0       
      +0       0
  3178 ;;      Locals:         0       0       9       0       0       0       0       0       0       0       0       0       
      +0       0
  3179 ;;      Temps:          0       0       5       0       0       0       0       0       0       0       0       0       
      +0       0
  3180 ;;      Totals:         0       0      14       0       0       0       0       0       0       0       0       0       
      +0       0
  3181 ;;Total ram usage:       14 bytes
  3182 ;; Hardware stack levels required when called: 8
  3183 ;; This function calls:
  3184 ;;		_EXT_INT_Initialize
  3185 ;;		_INT_SetInterruptHandler
  3186 ;;		_PWM3_Initialize
  3187 ;;		_SPI1_Initialize
  3188 ;;		_SYSTEM_Initialize
  3189 ;;		_TMR0_Initialize
  3190 ;;		_TMR0_SetInterruptHandler
  3191 ;;		_TMR1_Initialize
  3192 ;;		_TMR1_SetInterruptHandler
  3193 ;;		_TMR2_Initialize
  3194 ;;		_displayMatrix
  3195 ;;		_playNote
  3196 ;;		_shiftBytes
  3197 ;; This function is called by:
  3198 ;;		Startup code after reset
  3199 ;; This function uses a non-reentrant model
  3200 ;;
  3201                           
  3202                           
  3203                           ;psect for function _main
  3204  0E1F                     _main:
  3205  0E1F                     l3003:	
  3206                           ;incstack = 0
  3207                           ; Regs used in _main: [wreg-fsr1h+status,2+status,0+pclath+cstack]
  3208                           
  3209                           
  3210                           ;main.c: 337:     SYSTEM_Initialize();
  3211  0E1F  318D  25C7  318E   	fcall	_SYSTEM_Initialize
  3212  0E22                     l3005:
  3213                           
  3214                           ;main.c: 343:     (INTCONbits.GIE = 1);
  3215  0E22  178B               	bsf	11,7	;volatile
  3216  0E23                     l3007:
  3217                           
  3218                           ;main.c: 346:     (INTCONbits.PEIE = 1);
  3219  0E23  170B               	bsf	11,6	;volatile
  3220                           
  3221                           ;main.c: 355:     SPI1_Initialize();
  3222  0E24  318D  2569  318E   	fcall	_SPI1_Initialize
  3223  0E27                     l3009:
  3224                           
  3225                           ;main.c: 356:     SSP1CON1bits.SSPEN = 0;
  3226  0E27  0143               	movlb	3	; select bank3
  3227  0E28  1290               	bcf	16,5	;volatile
  3228  0E29                     l3011:
  3229                           
  3230                           ;main.c: 357:     TRISCbits.TRISC3 = 0;
  3231  0E29  0140               	movlb	0	; select bank0
  3232  0E2A  1194               	bcf	20,3	;volatile
  3233  0E2B                     l3013:
  3234                           
  3235                           ;main.c: 358:     TRISAbits.TRISA4 = 1;
  3236  0E2B  1612               	bsf	18,4	;volatile
  3237  0E2C                     l3015:
  3238                           
  3239                           ;main.c: 359:     TRISCbits.TRISC5 = 0;
  3240  0E2C  1294               	bcf	20,5	;volatile
  3241  0E2D                     l3017:
  3242                           
  3243                           ;main.c: 362:     SSP1CON1bits.SSPEN = 1;
  3244  0E2D  0143               	movlb	3	; select bank3
  3245  0E2E  1690               	bsf	16,5	;volatile
  3246                           
  3247                           ;main.c: 365:     EXT_INT_Initialize();
  3248  0E2F  318D  251F  318E   	fcall	_EXT_INT_Initialize
  3249                           
  3250                           ;main.c: 366:     INT_SetInterruptHandler(EXT_ISR);
  3251  0E32  30AB               	movlw	low _EXT_ISR
  3252  0E33  0141               	movlb	1	; select bank1
  3253  0E34  00A0               	movwf	INT_SetInterruptHandler@InterruptHandler^(0+128)
  3254  0E35  300D               	movlw	high _EXT_ISR
  3255  0E36  00A1               	movwf	(INT_SetInterruptHandler@InterruptHandler^(0+128)+1)
  3256  0E37  318C  24EB  318E   	fcall	_INT_SetInterruptHandler
  3257  0E3A                     l3019:
  3258                           
  3259                           ;main.c: 367:     PIE0bits.INTE = 1;
  3260  0E3A  014E               	movlb	14	; select bank14
  3261  0E3B  1416               	bsf	22,0	;volatile
  3262                           
  3263                           ;main.c: 370:     TMR0_Initialize();
  3264  0E3C  318D  25E3  318E   	fcall	_TMR0_Initialize
  3265                           
  3266                           ;main.c: 371:     TMR0_SetInterruptHandler(TMR0_ISR_);
  3267  0E3F  30BD               	movlw	low _TMR0_ISR_
  3268  0E40  0141               	movlb	1	; select bank1
  3269  0E41  00A0               	movwf	TMR0_SetInterruptHandler@InterruptHandler^(0+128)
  3270  0E42  300C               	movlw	high _TMR0_ISR_
  3271  0E43  00A1               	movwf	(TMR0_SetInterruptHandler@InterruptHandler^(0+128)+1)
  3272  0E44  318C  24F4  318E   	fcall	_TMR0_SetInterruptHandler
  3273  0E47                     l3021:
  3274                           
  3275                           ;main.c: 372:     T0CON0bits.T0EN = 0;
  3276  0E47  014B               	movlb	11	; select bank11
  3277  0E48  139E               	bcf	30,7	;volatile
  3278                           
  3279                           ;main.c: 375:     TMR1_Initialize();
  3280  0E49  3187  27E2  318E   	fcall	_TMR1_Initialize
  3281                           
  3282                           ;main.c: 376:     TMR1_SetInterruptHandler(TMR1_ISR_);
  3283  0E4C  307F               	movlw	low _TMR1_ISR_
  3284  0E4D  0141               	movlb	1	; select bank1
  3285  0E4E  00A0               	movwf	TMR1_SetInterruptHandler@InterruptHandler^(0+128)
  3286  0E4F  3000               	movlw	high _TMR1_ISR_
  3287  0E50  00A1               	movwf	(TMR1_SetInterruptHandler@InterruptHandler^(0+128)+1)
  3288  0E51  318C  24FD  318E   	fcall	_TMR1_SetInterruptHandler
  3289  0E54                     l3023:
  3290                           
  3291                           ;main.c: 377:     T1CONbits.TMR1ON = 0;
  3292  0E54  0144               	movlb	4	; select bank4
  3293  0E55  100E               	bcf	14,0	;volatile
  3294                           
  3295                           ;main.c: 380:     TMR2_Initialize();
  3296  0E56  318D  252D  318E   	fcall	_TMR2_Initialize
  3297  0E59                     l3025:
  3298                           
  3299                           ;main.c: 381:     T2CONbits.TMR2ON = 0;
  3300  0E59  0145               	movlb	5	; select bank5
  3301  0E5A  138E               	bcf	14,7	;volatile
  3302                           
  3303                           ;main.c: 384:     PWM3_Initialize();
  3304  0E5B  318C  24DA  318E   	fcall	_PWM3_Initialize
  3305  0E5E                     l3027:
  3306  0E5E  0140               	movlb	0	; select bank0
  3307  0E5F  111A               	bcf	26,2	;volatile
  3308  0E60                     l3029:
  3309  0E60  121A               	bcf	26,4	;volatile
  3310  0E61                     l3031:
  3311  0E61  101A               	bcf	26,0	;volatile
  3312  0E62                     l3033:
  3313                           
  3314                           ;main.c: 394:     for (int i = 0; i < 15; i++)
  3315  0E62  0141               	movlb	1	; select bank1
  3316  0E63  01B1               	clrf	main@i^(0+128)
  3317  0E64  01B2               	clrf	(main@i+1)^(0+128)
  3318  0E65                     l3039:
  3319                           
  3320                           ;main.c: 395:     {;main.c: 396:         for (int j = 0; j < 12; j++)
  3321  0E65  0141               	movlb	1	; select bank1
  3322  0E66  01AF               	clrf	main@j^(0+128)
  3323  0E67  01B0               	clrf	(main@j+1)^(0+128)
  3324  0E68                     l3045:
  3325                           
  3326                           ;main.c: 397:         {;main.c: 398:             displayMatrix(light_array);
  3327  0E68  30B7               	movlw	(low (_light_array| 0))& (0+255)
  3328  0E69  3187  271A  318E   	fcall	_displayMatrix
  3329  0E6C                     l3047:
  3330                           
  3331                           ;main.c: 399:         }
  3332  0E6C  3001               	movlw	1
  3333  0E6D  0141               	movlb	1	; select bank1
  3334  0E6E  07AF               	addwf	main@j^(0+128),f
  3335  0E6F  3000               	movlw	0
  3336  0E70  3DB0               	addwfc	(main@j+1)^(0+128),f
  3337  0E71                     l3049:
  3338  0E71  0830               	movf	(main@j+1)^(0+128),w
  3339  0E72  3A80               	xorlw	128
  3340  0E73  00A9               	movwf	??_main^(0+128)
  3341  0E74  3080               	movlw	128
  3342  0E75  0229               	subwf	??_main^(0+128),w
  3343  0E76  1D03               	skipz
  3344  0E77  2E7A               	goto	u2055
  3345  0E78  300C               	movlw	12
  3346  0E79  022F               	subwf	main@j^(0+128),w
  3347  0E7A                     u2055:
  3348  0E7A  1C03               	skipc
  3349  0E7B  2E7D               	goto	u2051
  3350  0E7C  2E7E               	goto	u2050
  3351  0E7D                     u2051:
  3352  0E7D  2E68               	goto	l3045
  3353  0E7E                     u2050:
  3354  0E7E                     l3051:
  3355                           
  3356                           ;main.c: 400:         if (i < 7)
  3357  0E7E  0141               	movlb	1	; select bank1
  3358  0E7F  0832               	movf	(main@i+1)^(0+128),w
  3359  0E80  3A80               	xorlw	128
  3360  0E81  00A9               	movwf	??_main^(0+128)
  3361  0E82  3080               	movlw	128
  3362  0E83  0229               	subwf	??_main^(0+128),w
  3363  0E84  1D03               	skipz
  3364  0E85  2E88               	goto	u2065
  3365  0E86  3007               	movlw	7
  3366  0E87  0231               	subwf	main@i^(0+128),w
  3367  0E88                     u2065:
  3368  0E88  1803               	skipnc
  3369  0E89  2E8B               	goto	u2061
  3370  0E8A  2E8C               	goto	u2060
  3371  0E8B                     u2061:
  3372  0E8B  2EC4               	goto	l3065
  3373  0E8C                     u2060:
  3374  0E8C                     l3053:
  3375                           
  3376                           ;main.c: 401:         {;main.c: 402:             for (int j = 0; j < 7; j++)
  3377  0E8C  0141               	movlb	1	; select bank1
  3378  0E8D  01B3               	clrf	main@j_1173^(0+128)
  3379  0E8E  01B4               	clrf	(main@j_1173+1)^(0+128)
  3380  0E8F                     l3059:
  3381                           
  3382                           ;main.c: 403:             {;main.c: 404:                 uint8_t light = (~light_array[j
      +                          ]) << 7;
  3383  0E8F  0141               	movlb	1	; select bank1
  3384  0E90  0833               	movf	main@j_1173^(0+128),w
  3385  0E91  3EB7               	addlw	(low (_light_array| 0))& (0+255)
  3386  0E92  0086               	movwf	6
  3387  0E93  0187               	clrf	7
  3388  0E94  0901               	comf	1,w
  3389  0E95  00A9               	movwf	??_main^(0+128)
  3390  0E96  3006               	movlw	6
  3391  0E97                     u2075:
  3392  0E97  35A9               	lslf	??_main^(0+128),f
  3393  0E98  3EFF               	addlw	-1
  3394  0E99  1D03               	skipz
  3395  0E9A  2E97               	goto	u2075
  3396  0E9B  3529               	lslf	??_main^(0+128),w
  3397  0E9C  00AA               	movwf	(??_main+1)^(0+128)
  3398  0E9D  082A               	movf	(??_main+1)^(0+128),w
  3399  0E9E  00AE               	movwf	main@light^(0+128)
  3400                           
  3401                           ;main.c: 405:                 light_array[j] = (light_array[j] << 1) + (light >> 7);
  3402  0E9F  082E               	movf	main@light^(0+128),w
  3403  0EA0  00A9               	movwf	??_main^(0+128)
  3404  0EA1  3007               	movlw	7
  3405  0EA2                     u2085:
  3406  0EA2  36A9               	lsrf	??_main^(0+128),f
  3407  0EA3  0B89               	decfsz	9,f
  3408  0EA4  2EA2               	goto	u2085
  3409  0EA5  0833               	movf	main@j_1173^(0+128),w
  3410  0EA6  3EB7               	addlw	(low (_light_array| 0))& (0+255)
  3411  0EA7  0086               	movwf	6
  3412  0EA8  0187               	clrf	7
  3413  0EA9  3501               	lslf	1,w
  3414  0EAA  0729               	addwf	??_main^(0+128),w
  3415  0EAB  00AA               	movwf	(??_main+1)^(0+128)
  3416  0EAC  0833               	movf	main@j_1173^(0+128),w
  3417  0EAD  3EB7               	addlw	(low (_light_array| 0))& (0+255)
  3418  0EAE  0086               	movwf	6
  3419  0EAF  0187               	clrf	7
  3420  0EB0  082A               	movf	(??_main+1)^(0+128),w
  3421  0EB1  0081               	movwf	1
  3422  0EB2                     l3061:
  3423                           
  3424                           ;main.c: 406:             }
  3425  0EB2  3001               	movlw	1
  3426  0EB3  07B3               	addwf	main@j_1173^(0+128),f
  3427  0EB4  3000               	movlw	0
  3428  0EB5  3DB4               	addwfc	(main@j_1173+1)^(0+128),f
  3429  0EB6                     l3063:
  3430  0EB6  0834               	movf	(main@j_1173+1)^(0+128),w
  3431  0EB7  3A80               	xorlw	128
  3432  0EB8  00A9               	movwf	??_main^(0+128)
  3433  0EB9  3080               	movlw	128
  3434  0EBA  0229               	subwf	??_main^(0+128),w
  3435  0EBB  1D03               	skipz
  3436  0EBC  2EBF               	goto	u2095
  3437  0EBD  3007               	movlw	7
  3438  0EBE  0233               	subwf	main@j_1173^(0+128),w
  3439  0EBF                     u2095:
  3440  0EBF  1C03               	skipc
  3441  0EC0  2EC2               	goto	u2091
  3442  0EC1  2EC3               	goto	u2090
  3443  0EC2                     u2091:
  3444  0EC2  2E8F               	goto	l3059
  3445  0EC3                     u2090:
  3446  0EC3  2EE6               	goto	l3077
  3447  0EC4                     l3065:
  3448                           
  3449                           ;main.c: 409:         {;main.c: 410:             for (int j = 0; j < 7; j++)
  3450  0EC4  0141               	movlb	1	; select bank1
  3451  0EC5  01B5               	clrf	main@j_1175^(0+128)
  3452  0EC6  01B6               	clrf	(main@j_1175+1)^(0+128)
  3453  0EC7                     l3071:
  3454                           
  3455                           ;main.c: 413:                 light_array[j] = (light_array[j] << 1) + 1;
  3456  0EC7  0141               	movlb	1	; select bank1
  3457  0EC8  0835               	movf	main@j_1175^(0+128),w
  3458  0EC9  3EB7               	addlw	(low (_light_array| 0))& (0+255)
  3459  0ECA  0086               	movwf	6
  3460  0ECB  0187               	clrf	7
  3461  0ECC  1403               	setc
  3462  0ECD  0D01               	rlf	1,w
  3463  0ECE  00A9               	movwf	??_main^(0+128)
  3464  0ECF  0835               	movf	main@j_1175^(0+128),w
  3465  0ED0  3EB7               	addlw	(low (_light_array| 0))& (0+255)
  3466  0ED1  0086               	movwf	6
  3467  0ED2  0187               	clrf	7
  3468  0ED3  0829               	movf	??_main^(0+128),w
  3469  0ED4  0081               	movwf	1
  3470  0ED5                     l3073:
  3471                           
  3472                           ;main.c: 414:             }
  3473  0ED5  3001               	movlw	1
  3474  0ED6  07B5               	addwf	main@j_1175^(0+128),f
  3475  0ED7  3000               	movlw	0
  3476  0ED8  3DB6               	addwfc	(main@j_1175+1)^(0+128),f
  3477  0ED9                     l3075:
  3478  0ED9  0836               	movf	(main@j_1175+1)^(0+128),w
  3479  0EDA  3A80               	xorlw	128
  3480  0EDB  00A9               	movwf	??_main^(0+128)
  3481  0EDC  3080               	movlw	128
  3482  0EDD  0229               	subwf	??_main^(0+128),w
  3483  0EDE  1D03               	skipz
  3484  0EDF  2EE2               	goto	u2105
  3485  0EE0  3007               	movlw	7
  3486  0EE1  0235               	subwf	main@j_1175^(0+128),w
  3487  0EE2                     u2105:
  3488  0EE2  1C03               	skipc
  3489  0EE3  2EE5               	goto	u2101
  3490  0EE4  2EE6               	goto	u2100
  3491  0EE5                     u2101:
  3492  0EE5  2EC7               	goto	l3071
  3493  0EE6                     u2100:
  3494  0EE6                     l3077:
  3495                           
  3496                           ;main.c: 416:     }
  3497  0EE6  3001               	movlw	1
  3498  0EE7  0141               	movlb	1	; select bank1
  3499  0EE8  07B1               	addwf	main@i^(0+128),f
  3500  0EE9  3000               	movlw	0
  3501  0EEA  3DB2               	addwfc	(main@i+1)^(0+128),f
  3502  0EEB  0832               	movf	(main@i+1)^(0+128),w
  3503  0EEC  3A80               	xorlw	128
  3504  0EED  00A9               	movwf	??_main^(0+128)
  3505  0EEE  3080               	movlw	128
  3506  0EEF  0229               	subwf	??_main^(0+128),w
  3507  0EF0  1D03               	skipz
  3508  0EF1  2EF4               	goto	u2115
  3509  0EF2  300F               	movlw	15
  3510  0EF3  0231               	subwf	main@i^(0+128),w
  3511  0EF4                     u2115:
  3512  0EF4  1C03               	skipc
  3513  0EF5  2EF7               	goto	u2111
  3514  0EF6  2EF8               	goto	u2110
  3515  0EF7                     u2111:
  3516  0EF7  2E65               	goto	l3039
  3517  0EF8                     u2110:
  3518  0EF8                     l547:	
  3519                           ;main.c: 424:     while (1)
  3520                           
  3521                           
  3522                           ;main.c: 425:     {;main.c: 426:         T0CON0bits.T0EN = 1;
  3523  0EF8  014B               	movlb	11	; select bank11
  3524  0EF9  179E               	bsf	30,7	;volatile
  3525  0EFA                     l3079:
  3526                           
  3527                           ;main.c: 427:         shiftBytes(0xFE, 0x08);
  3528  0EFA  3008               	movlw	8
  3529  0EFB  0141               	movlb	1	; select bank1
  3530  0EFC  00A9               	movwf	??_main^(0+128)
  3531  0EFD  0829               	movf	??_main^(0+128),w
  3532  0EFE  00A1               	movwf	shiftBytes@lowSide^(0+128)
  3533  0EFF  30FE               	movlw	254
  3534  0F00  318D  2549  318E   	fcall	_shiftBytes
  3535  0F03                     l3081:
  3536  0F03  0140               	movlb	0	; select bank0
  3537  0F04  111A               	bcf	26,2	;volatile
  3538  0F05                     l3083:
  3539  0F05  101A               	bcf	26,0	;volatile
  3540  0F06                     l3085:
  3541                           
  3542                           ;main.c: 430:         if (presses && TMR0_complete)
  3543  0F06  0141               	movlb	1	; select bank1
  3544  0F07  0841               	movf	_presses^(0+128),w
  3545  0F08  1903               	btfsc	3,2
  3546  0F09  2F0B               	goto	u2121
  3547  0F0A  2F0C               	goto	u2120
  3548  0F0B                     u2121:
  3549  0F0B  2FE5               	goto	l3125
  3550  0F0C                     u2120:
  3551  0F0C                     l3087:
  3552  0F0C  0842               	movf	_TMR0_complete^(0+128),w
  3553  0F0D  1903               	btfsc	3,2
  3554  0F0E  2F10               	goto	u2131
  3555  0F0F  2F11               	goto	u2130
  3556  0F10                     u2131:
  3557  0F10  2FE5               	goto	l3125
  3558  0F11                     u2130:
  3559  0F11                     l3089:
  3560                           
  3561                           ;main.c: 431:         {;main.c: 432:             T0CON0bits.T0EN = 0;
  3562  0F11  014B               	movlb	11	; select bank11
  3563  0F12  139E               	bcf	30,7	;volatile
  3564                           
  3565                           ;main.c: 435:             switch (presses)
  3566  0F13  2F5C               	goto	l3105
  3567  0F14                     l3091:
  3568                           
  3569                           ;main.c: 438:                     light_array[0] = 0x88;
  3570  0F14  3088               	movlw	136
  3571  0F15  00A9               	movwf	??_main^(0+128)
  3572  0F16  0829               	movf	??_main^(0+128),w
  3573  0F17  00B7               	movwf	_light_array^(0+128)
  3574                           
  3575                           ;main.c: 439:                     light_array[1] = 0x44;
  3576  0F18  3044               	movlw	68
  3577  0F19  00A9               	movwf	??_main^(0+128)
  3578  0F1A  0829               	movf	??_main^(0+128),w
  3579  0F1B  00B8               	movwf	(_light_array^(0+128)+1)
  3580                           
  3581                           ;main.c: 440:                     light_array[2] = 0x22;
  3582  0F1C  3022               	movlw	34
  3583  0F1D  00A9               	movwf	??_main^(0+128)
  3584  0F1E  0829               	movf	??_main^(0+128),w
  3585  0F1F  00B9               	movwf	(_light_array^(0+128)+2)
  3586                           
  3587                           ;main.c: 441:                     light_array[3] = 0x11;
  3588  0F20  3011               	movlw	17
  3589  0F21  00A9               	movwf	??_main^(0+128)
  3590  0F22  0829               	movf	??_main^(0+128),w
  3591  0F23  00BA               	movwf	(_light_array^(0+128)+3)
  3592                           
  3593                           ;main.c: 442:                     light_array[4] = 0x88;
  3594  0F24  3088               	movlw	136
  3595  0F25  00A9               	movwf	??_main^(0+128)
  3596  0F26  0829               	movf	??_main^(0+128),w
  3597  0F27  00BB               	movwf	(_light_array^(0+128)+4)
  3598                           
  3599                           ;main.c: 443:                     light_array[5] = 0x44;
  3600  0F28  3044               	movlw	68
  3601  0F29  00A9               	movwf	??_main^(0+128)
  3602  0F2A  0829               	movf	??_main^(0+128),w
  3603  0F2B  00BC               	movwf	(_light_array^(0+128)+5)
  3604                           
  3605                           ;main.c: 444:                     light_array[6] = 0x22;
  3606  0F2C  3022               	movlw	34
  3607  0F2D  00A9               	movwf	??_main^(0+128)
  3608  0F2E  0829               	movf	??_main^(0+128),w
  3609  0F2F  00BD               	movwf	(_light_array^(0+128)+6)
  3610  0F30                     l3093:
  3611                           
  3612                           ;main.c: 445:                     silent_night_playing = 1;
  3613  0F30  0140               	movlb	0	; select bank0
  3614  0F31  01CF               	clrf	_silent_night_playing
  3615  0F32  0ACF               	incf	_silent_night_playing,f
  3616                           
  3617                           ;main.c: 446:                     break;
  3618  0F33  2F70               	goto	l555
  3619  0F34                     l556:	
  3620                           ;main.c: 447:                 case 2:
  3621                           
  3622                           
  3623                           ;main.c: 466:                     song2_playing = 1;
  3624  0F34  0140               	movlb	0	; select bank0
  3625  0F35  01CD               	clrf	_song2_playing
  3626  0F36  0ACD               	incf	_song2_playing,f
  3627                           
  3628                           ;main.c: 467:                     break;
  3629  0F37  2F70               	goto	l555
  3630  0F38                     l3095:
  3631                           
  3632                           ;main.c: 489:                     light_array[0] = 0xFF;
  3633  0F38  30FF               	movlw	255
  3634  0F39  00A9               	movwf	??_main^(0+128)
  3635  0F3A  0829               	movf	??_main^(0+128),w
  3636  0F3B  00B7               	movwf	_light_array^(0+128)
  3637                           
  3638                           ;main.c: 490:                     light_array[1] = 0xFF;
  3639  0F3C  30FF               	movlw	255
  3640  0F3D  00A9               	movwf	??_main^(0+128)
  3641  0F3E  0829               	movf	??_main^(0+128),w
  3642  0F3F  00B8               	movwf	(_light_array^(0+128)+1)
  3643                           
  3644                           ;main.c: 491:                     light_array[2] = 0xFF;
  3645  0F40  30FF               	movlw	255
  3646  0F41  00A9               	movwf	??_main^(0+128)
  3647  0F42  0829               	movf	??_main^(0+128),w
  3648  0F43  00B9               	movwf	(_light_array^(0+128)+2)
  3649                           
  3650                           ;main.c: 492:                     light_array[3] = 0xFF;
  3651  0F44  30FF               	movlw	255
  3652  0F45  00A9               	movwf	??_main^(0+128)
  3653  0F46  0829               	movf	??_main^(0+128),w
  3654  0F47  00BA               	movwf	(_light_array^(0+128)+3)
  3655                           
  3656                           ;main.c: 493:                     light_array[4] = 0xFF;
  3657  0F48  30FF               	movlw	255
  3658  0F49  00A9               	movwf	??_main^(0+128)
  3659  0F4A  0829               	movf	??_main^(0+128),w
  3660  0F4B  00BB               	movwf	(_light_array^(0+128)+4)
  3661                           
  3662                           ;main.c: 494:                     light_array[5] = 0xFF;
  3663  0F4C  30FF               	movlw	255
  3664  0F4D  00A9               	movwf	??_main^(0+128)
  3665  0F4E  0829               	movf	??_main^(0+128),w
  3666  0F4F  00BC               	movwf	(_light_array^(0+128)+5)
  3667                           
  3668                           ;main.c: 495:                     light_array[6] = 0xFF;
  3669  0F50  30FF               	movlw	255
  3670  0F51  00A9               	movwf	??_main^(0+128)
  3671  0F52  0829               	movf	??_main^(0+128),w
  3672  0F53  00BD               	movwf	(_light_array^(0+128)+6)
  3673  0F54                     l3097:
  3674                           
  3675                           ;main.c: 496:                     jungle_count = 0;
  3676  0F54  0140               	movlb	0	; select bank0
  3677  0F55  01CA               	clrf	_jungle_count
  3678  0F56                     l3099:
  3679                           
  3680                           ;main.c: 497:                     jungle_bool = 0;
  3681  0F56  0141               	movlb	1	; select bank1
  3682  0F57  01C0               	clrf	_jungle_bool^(0+128)
  3683  0F58                     l3101:
  3684                           
  3685                           ;main.c: 500:                     song3_playing = 1;
  3686  0F58  0140               	movlb	0	; select bank0
  3687  0F59  01CE               	clrf	_song3_playing
  3688  0F5A  0ACE               	incf	_song3_playing,f
  3689                           
  3690                           ;main.c: 501:                     break;
  3691  0F5B  2F70               	goto	l555
  3692  0F5C                     l3105:
  3693  0F5C  0141               	movlb	1	; select bank1
  3694  0F5D  0841               	movf	_presses^(0+128),w
  3695  0F5E  00A9               	movwf	??_main^(0+128)
  3696  0F5F  01AA               	clrf	(??_main^(0+128)+1)
  3697                           
  3698                           ; Switch on 2 bytes has been partitioned into a top level switch of size 1, and 1 sub-sw
      +                          itches
  3699                           ; Switch size 1, requested type "simple"
  3700                           ; Number of cases is 1, Range of values is 0 to 0
  3701                           ; switch strategies available:
  3702                           ; Name         Instructions Cycles
  3703                           ; simple_byte            4     3 (average)
  3704                           ; direct_byte            8     6 (fixed)
  3705                           ; jumptable            260     6 (fixed)
  3706                           ;	Chosen strategy is simple_byte
  3707  0F60  082A               	movf	(??_main+1)^(0+128),w
  3708  0F61  3A00               	xorlw	0	; case 0
  3709  0F62  1903               	skipnz
  3710  0F63  2F65               	goto	l3191
  3711  0F64  2F70               	goto	l555
  3712  0F65                     l3191:
  3713                           
  3714                           ; Switch size 1, requested type "simple"
  3715                           ; Number of cases is 3, Range of values is 1 to 3
  3716                           ; switch strategies available:
  3717                           ; Name         Instructions Cycles
  3718                           ; simple_byte           10     6 (average)
  3719                           ; direct_byte           15     9 (fixed)
  3720                           ; jumptable            263     9 (fixed)
  3721                           ;	Chosen strategy is simple_byte
  3722  0F65  0829               	movf	??_main^(0+128),w
  3723  0F66  3A01               	xorlw	1	; case 1
  3724  0F67  1903               	skipnz
  3725  0F68  2F14               	goto	l3091
  3726  0F69  3A03               	xorlw	3	; case 2
  3727  0F6A  1903               	skipnz
  3728  0F6B  2F34               	goto	l556
  3729  0F6C  3A01               	xorlw	1	; case 3
  3730  0F6D  1903               	skipnz
  3731  0F6E  2F38               	goto	l3095
  3732  0F6F  2F70               	goto	l555
  3733  0F70                     l555:
  3734                           
  3735                           ;main.c: 503:             T1CONbits.TMR1ON = 1;
  3736  0F70  0144               	movlb	4	; select bank4
  3737  0F71  140E               	bsf	14,0	;volatile
  3738                           
  3739                           ;main.c: 504:             T2CONbits.TMR2ON = 1;
  3740  0F72  0145               	movlb	5	; select bank5
  3741  0F73  178E               	bsf	14,7	;volatile
  3742                           
  3743                           ;main.c: 507:             while (presses == 1)
  3744  0F74  2F95               	goto	l3109
  3745  0F75                     l3107:
  3746                           
  3747                           ;main.c: 508:             {;main.c: 509:                 playNote(silent_night[count], s
      +                          ilent_night_pre[count]);
  3748  0F75  3066               	movlw	102
  3749  0F76  00A9               	movwf	??_main^(0+128)
  3750  0F77  3023               	movlw	35
  3751  0F78  00AA               	movwf	(??_main^(0+128)+1)
  3752  0F79  083E               	movf	_count^(0+128),w
  3753  0F7A  0729               	addwf	??_main^(0+128),w
  3754  0F7B  0086               	movwf	6
  3755  0F7C  083F               	movf	(_count+1)^(0+128),w
  3756  0F7D  3D2A               	addwfc	(??_main+1)^(0+128),w
  3757  0F7E  0087               	movwf	7
  3758  0F7F  0801               	movf	1,w
  3759  0F80  00AB               	movwf	(??_main+2)^(0+128)
  3760  0F81  082B               	movf	(??_main+2)^(0+128),w
  3761  0F82  00A0               	movwf	playNote@prescale^(0+128)
  3762  0F83  30DB               	movlw	219
  3763  0F84  00AC               	movwf	(??_main+3)^(0+128)
  3764  0F85  3022               	movlw	34
  3765  0F86  00AD               	movwf	((??_main+3)^(0+128)+1)
  3766  0F87  083E               	movf	_count^(0+128),w
  3767  0F88  072C               	addwf	(??_main+3)^(0+128),w
  3768  0F89  0086               	movwf	6
  3769  0F8A  083F               	movf	(_count+1)^(0+128),w
  3770  0F8B  3D2D               	addwfc	(??_main+4)^(0+128),w
  3771  0F8C  0087               	movwf	7
  3772  0F8D  0801               	movf	1,w
  3773  0F8E  3187  27BC  318E   	fcall	_playNote
  3774                           
  3775                           ;main.c: 510:                 displayMatrix(light_array);
  3776  0F91  30B7               	movlw	(low (_light_array| 0))& (0+255)
  3777  0F92  3187  271A  318E   	fcall	_displayMatrix
  3778  0F95                     l3109:
  3779                           
  3780                           ;main.c: 507:             while (presses == 1)
  3781  0F95  0141               	movlb	1	; select bank1
  3782  0F96  0341               	decf	_presses^(0+128),w
  3783  0F97  1903               	btfsc	3,2
  3784  0F98  2F9A               	goto	u2141
  3785  0F99  2F9B               	goto	u2140
  3786  0F9A                     u2141:
  3787  0F9A  2F75               	goto	l3107
  3788  0F9B                     u2140:
  3789  0F9B  2FAD               	goto	l3113
  3790  0F9C                     l3111:
  3791                           
  3792                           ;main.c: 514:             {;main.c: 537:                 playNote(song2[count], 0xD0);
  3793  0F9C  30D0               	movlw	208
  3794  0F9D  00A9               	movwf	??_main^(0+128)
  3795  0F9E  0829               	movf	??_main^(0+128),w
  3796  0F9F  00A0               	movwf	playNote@prescale^(0+128)
  3797  0FA0  083E               	movf	_count^(0+128),w
  3798  0FA1  3E20               	addlw	(low (_song2| (0+256)))& (0+255)
  3799  0FA2  0086               	movwf	6
  3800  0FA3  3001               	movlw	1	; select bank2/3
  3801  0FA4  0087               	movwf	7
  3802  0FA5  0801               	movf	1,w
  3803  0FA6  3187  27BC  318E   	fcall	_playNote
  3804                           
  3805                           ;main.c: 538:                 displayMatrix(light_array);
  3806  0FA9  30B7               	movlw	(low (_light_array| 0))& (0+255)
  3807  0FAA  3187  271A  318E   	fcall	_displayMatrix
  3808  0FAD                     l3113:
  3809                           
  3810                           ;main.c: 513:             while (presses == 2)
  3811  0FAD  3002               	movlw	2
  3812  0FAE  0141               	movlb	1	; select bank1
  3813  0FAF  0641               	xorwf	_presses^(0+128),w
  3814  0FB0  1903               	btfsc	3,2
  3815  0FB1  2FB3               	goto	u2151
  3816  0FB2  2FB4               	goto	u2150
  3817  0FB3                     u2151:
  3818  0FB3  2F9C               	goto	l3111
  3819  0FB4                     u2150:
  3820  0FB4  2FD5               	goto	l3117
  3821  0FB5                     l3115:
  3822                           
  3823                           ;main.c: 543:             {;main.c: 544:                 playNote(song3[count], song3_pr
      +                          e[count]);
  3824  0FB5  309F               	movlw	159
  3825  0FB6  00A9               	movwf	??_main^(0+128)
  3826  0FB7  3021               	movlw	33
  3827  0FB8  00AA               	movwf	(??_main^(0+128)+1)
  3828  0FB9  083E               	movf	_count^(0+128),w
  3829  0FBA  0729               	addwf	??_main^(0+128),w
  3830  0FBB  0086               	movwf	6
  3831  0FBC  083F               	movf	(_count+1)^(0+128),w
  3832  0FBD  3D2A               	addwfc	(??_main+1)^(0+128),w
  3833  0FBE  0087               	movwf	7
  3834  0FBF  0801               	movf	1,w
  3835  0FC0  00AB               	movwf	(??_main+2)^(0+128)
  3836  0FC1  082B               	movf	(??_main+2)^(0+128),w
  3837  0FC2  00A0               	movwf	playNote@prescale^(0+128)
  3838  0FC3  303D               	movlw	61
  3839  0FC4  00AC               	movwf	(??_main+3)^(0+128)
  3840  0FC5  3022               	movlw	34
  3841  0FC6  00AD               	movwf	((??_main+3)^(0+128)+1)
  3842  0FC7  083E               	movf	_count^(0+128),w
  3843  0FC8  072C               	addwf	(??_main+3)^(0+128),w
  3844  0FC9  0086               	movwf	6
  3845  0FCA  083F               	movf	(_count+1)^(0+128),w
  3846  0FCB  3D2D               	addwfc	(??_main+4)^(0+128),w
  3847  0FCC  0087               	movwf	7
  3848  0FCD  0801               	movf	1,w
  3849  0FCE  3187  27BC  318E   	fcall	_playNote
  3850                           
  3851                           ;main.c: 545:                 displayMatrix(light_array);
  3852  0FD1  30B7               	movlw	(low (_light_array| 0))& (0+255)
  3853  0FD2  3187  271A  318E   	fcall	_displayMatrix
  3854  0FD5                     l3117:
  3855                           
  3856                           ;main.c: 542:             while (presses == 3)
  3857  0FD5  3003               	movlw	3
  3858  0FD6  0141               	movlb	1	; select bank1
  3859  0FD7  0641               	xorwf	_presses^(0+128),w
  3860  0FD8  1903               	btfsc	3,2
  3861  0FD9  2FDB               	goto	u2161
  3862  0FDA  2FDC               	goto	u2160
  3863  0FDB                     u2161:
  3864  0FDB  2FB5               	goto	l3115
  3865  0FDC                     u2160:
  3866  0FDC                     l3119:
  3867                           
  3868                           ;main.c: 547:             presses = 0;
  3869  0FDC  01C1               	clrf	_presses^(0+128)
  3870                           
  3871                           ;main.c: 548:             silent_night_playing = 0;
  3872  0FDD  0140               	movlb	0	; select bank0
  3873  0FDE  01CF               	clrf	_silent_night_playing
  3874                           
  3875                           ;main.c: 549:             song2_playing = 0;
  3876  0FDF  01CD               	clrf	_song2_playing
  3877                           
  3878                           ;main.c: 550:             song3_playing = 0;
  3879  0FE0  01CE               	clrf	_song3_playing
  3880  0FE1                     l3121:
  3881                           
  3882                           ;main.c: 551:             T1CONbits.TMR1ON = 0;
  3883  0FE1  0144               	movlb	4	; select bank4
  3884  0FE2  100E               	bcf	14,0	;volatile
  3885  0FE3                     l3123:
  3886                           
  3887                           ;main.c: 552:             T2CONbits.TMR2ON = 0;
  3888  0FE3  0145               	movlb	5	; select bank5
  3889  0FE4  138E               	bcf	14,7	;volatile
  3890  0FE5                     l3125:
  3891                           
  3892                           ;main.c: 555:         if (TMR0_complete && (!presses))
  3893  0FE5  0141               	movlb	1	; select bank1
  3894  0FE6  0842               	movf	_TMR0_complete^(0+128),w
  3895  0FE7  1903               	btfsc	3,2
  3896  0FE8  2FEA               	goto	u2171
  3897  0FE9  2FEB               	goto	u2170
  3898  0FEA                     u2171:
  3899  0FEA  2EF8               	goto	l547
  3900  0FEB                     u2170:
  3901  0FEB                     l3127:
  3902  0FEB  0841               	movf	_presses^(0+128),w
  3903  0FEC  1D03               	btfss	3,2
  3904  0FED  2FEF               	goto	u2181
  3905  0FEE  2FF0               	goto	u2180
  3906  0FEF                     u2181:
  3907  0FEF  2EF8               	goto	l547
  3908  0FF0                     u2180:
  3909  0FF0                     l3129:
  3910                           
  3911                           ;main.c: 556:         {;main.c: 557:             T0CON0bits.T0EN = 0;
  3912  0FF0  014B               	movlb	11	; select bank11
  3913  0FF1  139E               	bcf	30,7	;volatile
  3914                           
  3915                           ;main.c: 558:             T1CONbits.TMR1ON = 0;
  3916  0FF2  0144               	movlb	4	; select bank4
  3917  0FF3  100E               	bcf	14,0	;volatile
  3918                           
  3919                           ;main.c: 559:             T2CONbits.TMR2ON = 0;
  3920  0FF4  0145               	movlb	5	; select bank5
  3921  0FF5  138E               	bcf	14,7	;volatile
  3922                           
  3923                           ;main.c: 560:             PIR0bits.INTF = 0;
  3924  0FF6  014E               	movlb	14	; select bank14
  3925  0FF7  100C               	bcf	12,0	;volatile
  3926                           
  3927                           ;main.c: 561:             PIE0bits.INTE = 1;
  3928  0FF8  1416               	bsf	22,0	;volatile
  3929  0FF9                     l568:	
  3930                           ;main.c: 562:             do { LATCbits.LATC2 = 1; } while(0);
  3931                           
  3932  0FF9  0140               	movlb	0	; select bank0
  3933  0FFA  151A               	bsf	26,2	;volatile
  3934  0FFB                     l570:	
  3935                           ;main.c: 563:             do { LATCbits.LATC0 = 1; } while(0);
  3936                           
  3937  0FFB  141A               	bsf	26,0	;volatile
  3938  0FFC                     l571:
  3939  0FFC  0063               	sleep	;# 
  3940  0FFD  2EF8               	goto	l547
  3941  0FFE  3180  2831         	ljmp	start
  3942  1000                     __end_of_main:
  3943                           
  3944                           	psect	text1
  3945  07BC                     __ptext1:	
  3946 ;; *************** function _playNote *****************
  3947 ;; Defined at:
  3948 ;;		line 997 in file "main.c"
  3949 ;; Parameters:    Size  Location     Type
  3950 ;;  note            1    wreg     unsigned char 
  3951 ;;  prescale        1    0[BANK1 ] unsigned char 
  3952 ;; Auto vars:     Size  Location     Type
  3953 ;;  note            1    2[BANK1 ] unsigned char 
  3954 ;; Return value:  Size  Location     Type
  3955 ;;                  1    wreg      void 
  3956 ;; Registers used:
  3957 ;;		wreg
  3958 ;; Tracked objects:
  3959 ;;		On entry : 0/0
  3960 ;;		On exit  : 0/0
  3961 ;;		Unchanged: 0/0
  3962 ;; Data sizes:     COMMON   BANK0   BANK1   BANK2   BANK3   BANK4   BANK5   BANK6   BANK7   BANK8   BANK9  BANK10  BANK1
      +1  BANK12
  3963 ;;      Params:         0       0       1       0       0       0       0       0       0       0       0       0       
      +0       0
  3964 ;;      Locals:         0       0       1       0       0       0       0       0       0       0       0       0       
      +0       0
  3965 ;;      Temps:          0       0       1       0       0       0       0       0       0       0       0       0       
      +0       0
  3966 ;;      Totals:         0       0       3       0       0       0       0       0       0       0       0       0       
      +0       0
  3967 ;;Total ram usage:        3 bytes
  3968 ;; Hardware stack levels used: 1
  3969 ;; Hardware stack levels required when called: 5
  3970 ;; This function calls:
  3971 ;;		Nothing
  3972 ;; This function is called by:
  3973 ;;		_main
  3974 ;; This function uses a non-reentrant model
  3975 ;;
  3976                           
  3977                           
  3978                           ;psect for function _playNote
  3979  07BC                     _playNote:
  3980                           
  3981                           ;incstack = 0
  3982                           ; Regs used in _playNote: [wreg]
  3983                           ;playNote@note stored from wreg
  3984  07BC  0141               	movlb	1	; select bank1
  3985  07BD  00A2               	movwf	playNote@note^(0+128)
  3986  07BE                     l2981:
  3987                           
  3988                           ;main.c: 997: void playNote(uint8_t note, uint8_t prescale);main.c: 998: {;main.c: 1000:
      +                               if (note != last_note)
  3989  07BE  0822               	movf	playNote@note^(0+128),w
  3990  07BF  0140               	movlb	0	; select bank0
  3991  07C0  064C               	xorwf	_last_note,w
  3992  07C1  1903               	skipnz
  3993  07C2  2FC4               	goto	u2011
  3994  07C3  2FC5               	goto	u2010
  3995  07C4                     u2011:
  3996  07C4  2FC9               	goto	l666
  3997  07C5                     u2010:
  3998  07C5                     l2983:
  3999                           
  4000                           ;main.c: 1001:     {;main.c: 1002:         T2PR = note;
  4001  07C5  0141               	movlb	1	; select bank1
  4002  07C6  0822               	movf	playNote@note^(0+128),w
  4003  07C7  0145               	movlb	5	; select bank5
  4004  07C8  008D               	movwf	13	;volatile
  4005  07C9                     l666:	
  4006                           ;main.c: 1003:     }
  4007                           
  4008                           
  4009                           ;main.c: 1005:     if (prescale != last_prescale)
  4010  07C9  0141               	movlb	1	; select bank1
  4011  07CA  0820               	movf	playNote@prescale^(0+128),w
  4012  07CB  0140               	movlb	0	; select bank0
  4013  07CC  064B               	xorwf	_last_prescale,w
  4014  07CD  1903               	skipnz
  4015  07CE  2FD0               	goto	u2021
  4016  07CF  2FD1               	goto	u2020
  4017  07D0                     u2021:
  4018  07D0  2FD5               	goto	l667
  4019  07D1                     u2020:
  4020  07D1                     l2985:
  4021                           
  4022                           ;main.c: 1006:     {;main.c: 1007:         T2CON = prescale;
  4023  07D1  0141               	movlb	1	; select bank1
  4024  07D2  0820               	movf	playNote@prescale^(0+128),w
  4025  07D3  0145               	movlb	5	; select bank5
  4026  07D4  008E               	movwf	14	;volatile
  4027  07D5                     l667:	
  4028                           ;main.c: 1008:     }
  4029                           
  4030                           
  4031                           ;main.c: 1009:     last_note = note;
  4032  07D5  0141               	movlb	1	; select bank1
  4033  07D6  0822               	movf	playNote@note^(0+128),w
  4034  07D7  00A1               	movwf	??_playNote^(0+128)
  4035  07D8  0821               	movf	??_playNote^(0+128),w
  4036  07D9  0140               	movlb	0	; select bank0
  4037  07DA  00CC               	movwf	_last_note
  4038                           
  4039                           ;main.c: 1010:     last_prescale = prescale;
  4040  07DB  0141               	movlb	1	; select bank1
  4041  07DC  0820               	movf	playNote@prescale^(0+128),w
  4042  07DD  00A1               	movwf	??_playNote^(0+128)
  4043  07DE  0821               	movf	??_playNote^(0+128),w
  4044  07DF  0140               	movlb	0	; select bank0
  4045  07E0  00CB               	movwf	_last_prescale
  4046  07E1                     l668:
  4047  07E1  0008               	return
  4048  07E2                     __end_of_playNote:
  4049                           
  4050                           	psect	text2
  4051  071A                     __ptext2:	
  4052 ;; *************** function _displayMatrix *****************
  4053 ;; Defined at:
  4054 ;;		line 1035 in file "main.c"
  4055 ;; Parameters:    Size  Location     Type
  4056 ;;  states          1    wreg     PTR unsigned char 
  4057 ;;		 -> light_array(7), 
  4058 ;; Auto vars:     Size  Location     Type
  4059 ;;  states          1    5[BANK1 ] PTR unsigned char 
  4060 ;;		 -> light_array(7), 
  4061 ;;  i               2    6[BANK1 ] int 
  4062 ;;  lowSide         1    8[BANK1 ] unsigned char 
  4063 ;; Return value:  Size  Location     Type
  4064 ;;                  1    wreg      void 
  4065 ;; Registers used:
  4066 ;;		wreg, fsr1l, fsr1h, status,2, status,0, pclath, cstack
  4067 ;; Tracked objects:
  4068 ;;		On entry : 0/0
  4069 ;;		On exit  : 0/0
  4070 ;;		Unchanged: 0/0
  4071 ;; Data sizes:     COMMON   BANK0   BANK1   BANK2   BANK3   BANK4   BANK5   BANK6   BANK7   BANK8   BANK9  BANK10  BANK1
      +1  BANK12
  4072 ;;      Params:         0       0       0       0       0       0       0       0       0       0       0       0       
      +0       0
  4073 ;;      Locals:         0       0       4       0       0       0       0       0       0       0       0       0       
      +0       0
  4074 ;;      Temps:          0       0       2       0       0       0       0       0       0       0       0       0       
      +0       0
  4075 ;;      Totals:         0       0       6       0       0       0       0       0       0       0       0       0       
      +0       0
  4076 ;;Total ram usage:        6 bytes
  4077 ;; Hardware stack levels used: 1
  4078 ;; Hardware stack levels required when called: 7
  4079 ;; This function calls:
  4080 ;;		_shiftBytes
  4081 ;; This function is called by:
  4082 ;;		_main
  4083 ;; This function uses a non-reentrant model
  4084 ;;
  4085                           
  4086                           
  4087                           ;psect for function _displayMatrix
  4088  071A                     _displayMatrix:
  4089                           
  4090                           ;incstack = 0
  4091                           ; Regs used in _displayMatrix: [wreg+fsr1l+fsr1h+status,2+status,0+pclath+cstack]
  4092                           ;displayMatrix@states stored from wreg
  4093  071A  0141               	movlb	1	; select bank1
  4094  071B  00A5               	movwf	displayMatrix@states^(0+128)
  4095  071C                     l2961:
  4096                           
  4097                           ;main.c: 1035: void displayMatrix(uint8_t states[8]);main.c: 1036: {;main.c: 1039:     u
      +                          int8_t lowSide = 0x00;
  4098  071C  01A8               	clrf	displayMatrix@lowSide^(0+128)
  4099                           
  4100                           ;main.c: 1040:     for (int i = 0; i < 7; i++)
  4101  071D  01A6               	clrf	displayMatrix@i^(0+128)
  4102  071E  01A7               	clrf	(displayMatrix@i+1)^(0+128)
  4103  071F                     l2967:
  4104                           
  4105                           ;main.c: 1041:     {;main.c: 1042:         if (!lowSide)
  4106  071F  0141               	movlb	1	; select bank1
  4107  0720  0828               	movf	displayMatrix@lowSide^(0+128),w
  4108  0721  1D03               	btfss	3,2
  4109  0722  2F24               	goto	u1991
  4110  0723  2F25               	goto	u1990
  4111  0724                     u1991:
  4112  0724  2F2A               	goto	l2971
  4113  0725                     u1990:
  4114  0725                     l2969:
  4115                           
  4116                           ;main.c: 1043:         {;main.c: 1044:             lowSide++;
  4117  0725  3001               	movlw	1
  4118  0726  00A3               	movwf	??_displayMatrix^(0+128)
  4119  0727  0823               	movf	??_displayMatrix^(0+128),w
  4120  0728  07A8               	addwf	displayMatrix@lowSide^(0+128),f
  4121                           
  4122                           ;main.c: 1045:         }
  4123  0729  2F2E               	goto	l2973
  4124  072A                     l2971:
  4125                           
  4126                           ;main.c: 1047:         {;main.c: 1048:             lowSide = lowSide << 1;
  4127  072A  3528               	lslf	displayMatrix@lowSide^(0+128),w
  4128  072B  00A3               	movwf	??_displayMatrix^(0+128)
  4129  072C  0823               	movf	??_displayMatrix^(0+128),w
  4130  072D  00A8               	movwf	displayMatrix@lowSide^(0+128)
  4131  072E                     l2973:
  4132                           
  4133                           ;main.c: 1051:         shiftBytes(states[i], lowSide);
  4134  072E  0828               	movf	displayMatrix@lowSide^(0+128),w
  4135  072F  00A3               	movwf	??_displayMatrix^(0+128)
  4136  0730  0823               	movf	??_displayMatrix^(0+128),w
  4137  0731  00A1               	movwf	shiftBytes@lowSide^(0+128)
  4138  0732  0826               	movf	displayMatrix@i^(0+128),w
  4139  0733  0725               	addwf	displayMatrix@states^(0+128),w
  4140  0734  00A4               	movwf	(??_displayMatrix+1)^(0+128)
  4141  0735  0824               	movf	(??_displayMatrix+1)^(0+128),w
  4142  0736  0086               	movwf	6
  4143  0737  0187               	clrf	7
  4144  0738  0801               	movf	1,w
  4145  0739  318D  2549  3187   	fcall	_shiftBytes
  4146  073C                     l2975:
  4147                           
  4148                           ;main.c: 1052:         _delay((unsigned long)((1)*(8000000/4000.0)));
  4149  073C  3003               	movlw	3
  4150  073D  0141               	movlb	1	; select bank1
  4151  073E  00A3               	movwf	??_displayMatrix^(0+128)
  4152  073F  3097               	movlw	151
  4153  0740                     u2197:
  4154  0740  0B89               	decfsz	9,f
  4155  0741  2F40               	goto	u2197
  4156  0742  0BA3               	decfsz	??_displayMatrix^(0+128),f
  4157  0743  2F40               	goto	u2197
  4158  0744  3200               	nop2
  4159  0745                     l2977:
  4160                           
  4161                           ;main.c: 1053:     }
  4162  0745  3001               	movlw	1
  4163  0746  0141               	movlb	1	; select bank1
  4164  0747  07A6               	addwf	displayMatrix@i^(0+128),f
  4165  0748  3000               	movlw	0
  4166  0749  3DA7               	addwfc	(displayMatrix@i+1)^(0+128),f
  4167  074A                     l2979:
  4168  074A  0827               	movf	(displayMatrix@i+1)^(0+128),w
  4169  074B  3A80               	xorlw	128
  4170  074C  00A3               	movwf	??_displayMatrix^(0+128)
  4171  074D  3080               	movlw	128
  4172  074E  0223               	subwf	??_displayMatrix^(0+128),w
  4173  074F  1D03               	skipz
  4174  0750  2F53               	goto	u2005
  4175  0751  3007               	movlw	7
  4176  0752  0226               	subwf	displayMatrix@i^(0+128),w
  4177  0753                     u2005:
  4178  0753  1C03               	skipc
  4179  0754  2F56               	goto	u2001
  4180  0755  2F57               	goto	u2000
  4181  0756                     u2001:
  4182  0756  2F1F               	goto	l2967
  4183  0757                     u2000:
  4184  0757                     l689:
  4185  0757  0008               	return
  4186  0758                     __end_of_displayMatrix:
  4187                           
  4188                           	psect	text3
  4189  0D49                     __ptext3:	
  4190 ;; *************** function _shiftBytes *****************
  4191 ;; Defined at:
  4192 ;;		line 1023 in file "main.c"
  4193 ;; Parameters:    Size  Location     Type
  4194 ;;  highSide        1    wreg     unsigned char 
  4195 ;;  lowSide         1    1[BANK1 ] unsigned char 
  4196 ;; Auto vars:     Size  Location     Type
  4197 ;;  highSide        1    2[BANK1 ] unsigned char 
  4198 ;; Return value:  Size  Location     Type
  4199 ;;                  1    wreg      void 
  4200 ;; Registers used:
  4201 ;;		wreg, status,2, status,0, pclath, cstack
  4202 ;; Tracked objects:
  4203 ;;		On entry : 0/0
  4204 ;;		On exit  : 0/0
  4205 ;;		Unchanged: 0/0
  4206 ;; Data sizes:     COMMON   BANK0   BANK1   BANK2   BANK3   BANK4   BANK5   BANK6   BANK7   BANK8   BANK9  BANK10  BANK1
      +1  BANK12
  4207 ;;      Params:         0       0       1       0       0       0       0       0       0       0       0       0       
      +0       0
  4208 ;;      Locals:         0       0       1       0       0       0       0       0       0       0       0       0       
      +0       0
  4209 ;;      Temps:          0       0       0       0       0       0       0       0       0       0       0       0       
      +0       0
  4210 ;;      Totals:         0       0       2       0       0       0       0       0       0       0       0       0       
      +0       0
  4211 ;;Total ram usage:        2 bytes
  4212 ;; Hardware stack levels used: 1
  4213 ;; Hardware stack levels required when called: 6
  4214 ;; This function calls:
  4215 ;;		_SPI1_ExchangeByte
  4216 ;; This function is called by:
  4217 ;;		_main
  4218 ;;		_displayMatrix
  4219 ;;		_Initialize_Matrix
  4220 ;; This function uses a non-reentrant model
  4221 ;;
  4222                           
  4223                           
  4224                           ;psect for function _shiftBytes
  4225  0D49                     _shiftBytes:
  4226                           
  4227                           ;incstack = 0
  4228                           ; Regs used in _shiftBytes: [wreg+status,2+status,0+pclath+cstack]
  4229                           ;shiftBytes@highSide stored from wreg
  4230  0D49  0141               	movlb	1	; select bank1
  4231  0D4A  00A2               	movwf	shiftBytes@highSide^(0+128)
  4232  0D4B                     l2941:
  4233                           
  4234                           ;main.c: 1023: void shiftBytes(uint8_t highSide, uint8_t lowSide);main.c: 1024: {;main.c
      +                          : 1026:     SPI1_ExchangeByte(lowSide);
  4235  0D4B  0821               	movf	shiftBytes@lowSide^(0+128),w
  4236  0D4C  318D  253B  318D   	fcall	_SPI1_ExchangeByte
  4237                           
  4238                           ;main.c: 1027:     SPI1_ExchangeByte(highSide);
  4239  0D4F  0141               	movlb	1	; select bank1
  4240  0D50  0822               	movf	shiftBytes@highSide^(0+128),w
  4241  0D51  318D  253B  318D   	fcall	_SPI1_ExchangeByte
  4242  0D54                     l2943:
  4243  0D54  0140               	movlb	0	; select bank0
  4244  0D55  161A               	bsf	26,4	;volatile
  4245  0D56                     l2945:
  4246  0D56  121A               	bcf	26,4	;volatile
  4247  0D57                     l682:
  4248  0D57  0008               	return
  4249  0D58                     __end_of_shiftBytes:
  4250                           
  4251                           	psect	text4
  4252  0D3B                     __ptext4:	
  4253 ;; *************** function _SPI1_ExchangeByte *****************
  4254 ;; Defined at:
  4255 ;;		line 97 in file "mcc_generated_files/spi1.c"
  4256 ;; Parameters:    Size  Location     Type
  4257 ;;  data            1    wreg     unsigned char 
  4258 ;; Auto vars:     Size  Location     Type
  4259 ;;  data            1    0[BANK1 ] unsigned char 
  4260 ;; Return value:  Size  Location     Type
  4261 ;;                  1    wreg      unsigned char 
  4262 ;; Registers used:
  4263 ;;		wreg
  4264 ;; Tracked objects:
  4265 ;;		On entry : 0/0
  4266 ;;		On exit  : 0/0
  4267 ;;		Unchanged: 0/0
  4268 ;; Data sizes:     COMMON   BANK0   BANK1   BANK2   BANK3   BANK4   BANK5   BANK6   BANK7   BANK8   BANK9  BANK10  BANK1
      +1  BANK12
  4269 ;;      Params:         0       0       0       0       0       0       0       0       0       0       0       0       
      +0       0
  4270 ;;      Locals:         0       0       1       0       0       0       0       0       0       0       0       0       
      +0       0
  4271 ;;      Temps:          0       0       0       0       0       0       0       0       0       0       0       0       
      +0       0
  4272 ;;      Totals:         0       0       1       0       0       0       0       0       0       0       0       0       
      +0       0
  4273 ;;Total ram usage:        1 bytes
  4274 ;; Hardware stack levels used: 1
  4275 ;; Hardware stack levels required when called: 5
  4276 ;; This function calls:
  4277 ;;		Nothing
  4278 ;; This function is called by:
  4279 ;;		_shiftBytes
  4280 ;;		_SPI1_WriteBlock
  4281 ;;		_SPI1_ReadBlock
  4282 ;; This function uses a non-reentrant model
  4283 ;;
  4284                           
  4285                           
  4286                           ;psect for function _SPI1_ExchangeByte
  4287  0D3B                     _SPI1_ExchangeByte:
  4288                           
  4289                           ;incstack = 0
  4290                           ; Regs used in _SPI1_ExchangeByte: [wreg]
  4291                           ;SPI1_ExchangeByte@data stored from wreg
  4292  0D3B  0141               	movlb	1	; select bank1
  4293  0D3C  00A0               	movwf	SPI1_ExchangeByte@data^(0+128)
  4294  0D3D                     l2833:
  4295                           
  4296                           ;mcc_generated_files/spi1.c: 97: uint8_t SPI1_ExchangeByte(uint8_t data);mcc_generated_f
      +                          iles/spi1.c: 98: {;mcc_generated_files/spi1.c: 99:     SSP1BUF = data;
  4297  0D3D  0820               	movf	SPI1_ExchangeByte@data^(0+128),w
  4298  0D3E  0143               	movlb	3	; select bank3
  4299  0D3F  008C               	movwf	12	;volatile
  4300  0D40                     l74:	
  4301                           ;mcc_generated_files/spi1.c: 100:     while(!PIR1bits.SSP1IF);
  4302                           
  4303  0D40  014E               	movlb	14	; select bank14
  4304  0D41  1C8D               	btfss	13,1	;volatile
  4305  0D42  2D44               	goto	u1981
  4306  0D43  2D45               	goto	u1980
  4307  0D44                     u1981:
  4308  0D44  2D40               	goto	l74
  4309  0D45                     u1980:
  4310  0D45                     l76:
  4311                           
  4312                           ;mcc_generated_files/spi1.c: 101:     PIR1bits.SSP1IF = 0;
  4313  0D45  108D               	bcf	13,1	;volatile
  4314  0D46                     l2835:
  4315                           
  4316                           ;mcc_generated_files/spi1.c: 102:     return SSP1BUF;
  4317  0D46  0143               	movlb	3	; select bank3
  4318  0D47  080C               	movf	12,w	;volatile
  4319  0D48                     l77:
  4320  0D48  0008               	return
  4321  0D49                     __end_of_SPI1_ExchangeByte:
  4322                           
  4323                           	psect	text5
  4324  0DC7                     __ptext5:	
  4325 ;; *************** function _SYSTEM_Initialize *****************
  4326 ;; Defined at:
  4327 ;;		line 50 in file "mcc_generated_files/mcc.c"
  4328 ;; Parameters:    Size  Location     Type
  4329 ;;		None
  4330 ;; Auto vars:     Size  Location     Type
  4331 ;;		None
  4332 ;; Return value:  Size  Location     Type
  4333 ;;                  1    wreg      void 
  4334 ;; Registers used:
  4335 ;;		wreg, status,2, status,0, pclath, cstack
  4336 ;; Tracked objects:
  4337 ;;		On entry : 0/0
  4338 ;;		On exit  : 0/0
  4339 ;;		Unchanged: 0/0
  4340 ;; Data sizes:     COMMON   BANK0   BANK1   BANK2   BANK3   BANK4   BANK5   BANK6   BANK7   BANK8   BANK9  BANK10  BANK1
      +1  BANK12
  4341 ;;      Params:         0       0       0       0       0       0       0       0       0       0       0       0       
      +0       0
  4342 ;;      Locals:         0       0       0       0       0       0       0       0       0       0       0       0       
      +0       0
  4343 ;;      Temps:          0       0       0       0       0       0       0       0       0       0       0       0       
      +0       0
  4344 ;;      Totals:         0       0       0       0       0       0       0       0       0       0       0       0       
      +0       0
  4345 ;;Total ram usage:        0 bytes
  4346 ;; Hardware stack levels used: 1
  4347 ;; Hardware stack levels required when called: 7
  4348 ;; This function calls:
  4349 ;;		_EXT_INT_Initialize
  4350 ;;		_OSCILLATOR_Initialize
  4351 ;;		_PIN_MANAGER_Initialize
  4352 ;;		_PWM3_Initialize
  4353 ;;		_SPI1_Initialize
  4354 ;;		_TMR0_Initialize
  4355 ;;		_TMR1_Initialize
  4356 ;;		_TMR2_Initialize
  4357 ;;		_WDT_Initialize
  4358 ;; This function is called by:
  4359 ;;		_main
  4360 ;; This function uses a non-reentrant model
  4361 ;;
  4362                           
  4363                           
  4364                           ;psect for function _SYSTEM_Initialize
  4365  0DC7                     _SYSTEM_Initialize:
  4366  0DC7                     l2947:	
  4367                           ;incstack = 0
  4368                           ; Regs used in _SYSTEM_Initialize: [wreg+status,2+status,0+pclath+cstack]
  4369                           
  4370                           
  4371                           ;mcc_generated_files/mcc.c: 53:     SPI1_Initialize();
  4372  0DC7  318D  2569  318D   	fcall	_SPI1_Initialize
  4373                           
  4374                           ;mcc_generated_files/mcc.c: 54:     PIN_MANAGER_Initialize();
  4375  0DCA  3187  2794  318D   	fcall	_PIN_MANAGER_Initialize
  4376                           
  4377                           ;mcc_generated_files/mcc.c: 55:     OSCILLATOR_Initialize();
  4378  0DCD  318C  24C7  318D   	fcall	_OSCILLATOR_Initialize
  4379  0DD0                     l2949:
  4380                           
  4381                           ;mcc_generated_files/mcc.c: 56:     WDT_Initialize();
  4382  0DD0  318C  24BA  318D   	fcall	_WDT_Initialize
  4383  0DD3                     l2951:
  4384                           
  4385                           ;mcc_generated_files/mcc.c: 57:     PWM3_Initialize();
  4386  0DD3  318C  24DA  318D   	fcall	_PWM3_Initialize
  4387  0DD6                     l2953:
  4388                           
  4389                           ;mcc_generated_files/mcc.c: 58:     TMR2_Initialize();
  4390  0DD6  318D  252D  318D   	fcall	_TMR2_Initialize
  4391  0DD9                     l2955:
  4392                           
  4393                           ;mcc_generated_files/mcc.c: 59:     TMR1_Initialize();
  4394  0DD9  3187  27E2  318D   	fcall	_TMR1_Initialize
  4395  0DDC                     l2957:
  4396                           
  4397                           ;mcc_generated_files/mcc.c: 60:     EXT_INT_Initialize();
  4398  0DDC  318D  251F  318D   	fcall	_EXT_INT_Initialize
  4399  0DDF                     l2959:
  4400                           
  4401                           ;mcc_generated_files/mcc.c: 61:     TMR0_Initialize();
  4402  0DDF  318D  25E3  318D   	fcall	_TMR0_Initialize
  4403  0DE2                     l29:
  4404  0DE2  0008               	return
  4405  0DE3                     __end_of_SYSTEM_Initialize:
  4406                           
  4407                           	psect	text6
  4408  0CBA                     __ptext6:	
  4409 ;; *************** function _WDT_Initialize *****************
  4410 ;; Defined at:
  4411 ;;		line 74 in file "mcc_generated_files/mcc.c"
  4412 ;; Parameters:    Size  Location     Type
  4413 ;;		None
  4414 ;; Auto vars:     Size  Location     Type
  4415 ;;		None
  4416 ;; Return value:  Size  Location     Type
  4417 ;;                  1    wreg      void 
  4418 ;; Registers used:
  4419 ;;		status,2
  4420 ;; Tracked objects:
  4421 ;;		On entry : 0/0
  4422 ;;		On exit  : 0/0
  4423 ;;		Unchanged: 0/0
  4424 ;; Data sizes:     COMMON   BANK0   BANK1   BANK2   BANK3   BANK4   BANK5   BANK6   BANK7   BANK8   BANK9  BANK10  BANK1
      +1  BANK12
  4425 ;;      Params:         0       0       0       0       0       0       0       0       0       0       0       0       
      +0       0
  4426 ;;      Locals:         0       0       0       0       0       0       0       0       0       0       0       0       
      +0       0
  4427 ;;      Temps:          0       0       0       0       0       0       0       0       0       0       0       0       
      +0       0
  4428 ;;      Totals:         0       0       0       0       0       0       0       0       0       0       0       0       
      +0       0
  4429 ;;Total ram usage:        0 bytes
  4430 ;; Hardware stack levels used: 1
  4431 ;; Hardware stack levels required when called: 5
  4432 ;; This function calls:
  4433 ;;		Nothing
  4434 ;; This function is called by:
  4435 ;;		_SYSTEM_Initialize
  4436 ;; This function uses a non-reentrant model
  4437 ;;
  4438                           
  4439                           
  4440                           ;psect for function _WDT_Initialize
  4441  0CBA                     _WDT_Initialize:
  4442  0CBA                     l2891:	
  4443                           ;incstack = 0
  4444                           ; Regs used in _WDT_Initialize: [status,2]
  4445                           
  4446                           
  4447                           ;mcc_generated_files/mcc.c: 77:     WDTCON = 0x00;
  4448  0CBA  0150               	movlb	16	; select bank16
  4449  0CBB  018C               	clrf	12	;volatile
  4450  0CBC                     l35:
  4451  0CBC  0008               	return
  4452  0CBD                     __end_of_WDT_Initialize:
  4453                           
  4454                           	psect	text7
  4455  0D2D                     __ptext7:	
  4456 ;; *************** function _TMR2_Initialize *****************
  4457 ;; Defined at:
  4458 ;;		line 62 in file "mcc_generated_files/tmr2.c"
  4459 ;; Parameters:    Size  Location     Type
  4460 ;;		None
  4461 ;; Auto vars:     Size  Location     Type
  4462 ;;		None
  4463 ;; Return value:  Size  Location     Type
  4464 ;;                  1    wreg      void 
  4465 ;; Registers used:
  4466 ;;		wreg, status,2
  4467 ;; Tracked objects:
  4468 ;;		On entry : 0/0
  4469 ;;		On exit  : 0/0
  4470 ;;		Unchanged: 0/0
  4471 ;; Data sizes:     COMMON   BANK0   BANK1   BANK2   BANK3   BANK4   BANK5   BANK6   BANK7   BANK8   BANK9  BANK10  BANK1
      +1  BANK12
  4472 ;;      Params:         0       0       0       0       0       0       0       0       0       0       0       0       
      +0       0
  4473 ;;      Locals:         0       0       0       0       0       0       0       0       0       0       0       0       
      +0       0
  4474 ;;      Temps:          0       0       0       0       0       0       0       0       0       0       0       0       
      +0       0
  4475 ;;      Totals:         0       0       0       0       0       0       0       0       0       0       0       0       
      +0       0
  4476 ;;Total ram usage:        0 bytes
  4477 ;; Hardware stack levels used: 1
  4478 ;; Hardware stack levels required when called: 5
  4479 ;; This function calls:
  4480 ;;		Nothing
  4481 ;; This function is called by:
  4482 ;;		_SYSTEM_Initialize
  4483 ;;		_main
  4484 ;; This function uses a non-reentrant model
  4485 ;;
  4486                           
  4487                           
  4488                           ;psect for function _TMR2_Initialize
  4489  0D2D                     _TMR2_Initialize:
  4490  0D2D                     l2895:	
  4491                           ;incstack = 0
  4492                           ; Regs used in _TMR2_Initialize: [wreg+status,2]
  4493                           
  4494                           
  4495                           ;mcc_generated_files/tmr2.c: 67:     T2CLKCON = 0x01;
  4496  0D2D  3001               	movlw	1
  4497  0D2E  0145               	movlb	5	; select bank5
  4498  0D2F  0090               	movwf	16	;volatile
  4499  0D30                     l2897:
  4500                           
  4501                           ;mcc_generated_files/tmr2.c: 70:     T2HLT = 0x00;
  4502  0D30  018F               	clrf	15	;volatile
  4503  0D31                     l2899:
  4504                           
  4505                           ;mcc_generated_files/tmr2.c: 73:     T2RST = 0x00;
  4506  0D31  0191               	clrf	17	;volatile
  4507                           
  4508                           ;mcc_generated_files/tmr2.c: 76:     T2PR = 0xFF;
  4509  0D32  30FF               	movlw	255
  4510  0D33  008D               	movwf	13	;volatile
  4511  0D34                     l2901:
  4512                           
  4513                           ;mcc_generated_files/tmr2.c: 79:     T2TMR = 0x00;
  4514  0D34  018C               	clrf	12	;volatile
  4515  0D35                     l2903:
  4516                           
  4517                           ;mcc_generated_files/tmr2.c: 82:     PIR1bits.TMR2IF = 0;
  4518  0D35  014E               	movlb	14	; select bank14
  4519  0D36  130D               	bcf	13,6	;volatile
  4520  0D37                     l2905:
  4521                           
  4522                           ;mcc_generated_files/tmr2.c: 85:     T2CON = 0xB0;
  4523  0D37  30B0               	movlw	176
  4524  0D38  0145               	movlb	5	; select bank5
  4525  0D39  008E               	movwf	14	;volatile
  4526  0D3A                     l177:
  4527  0D3A  0008               	return
  4528  0D3B                     __end_of_TMR2_Initialize:
  4529                           
  4530                           	psect	text8
  4531  07E2                     __ptext8:	
  4532 ;; *************** function _TMR1_Initialize *****************
  4533 ;; Defined at:
  4534 ;;		line 64 in file "mcc_generated_files/tmr1.c"
  4535 ;; Parameters:    Size  Location     Type
  4536 ;;		None
  4537 ;; Auto vars:     Size  Location     Type
  4538 ;;		None
  4539 ;; Return value:  Size  Location     Type
  4540 ;;                  1    wreg      void 
  4541 ;; Registers used:
  4542 ;;		wreg, status,2, status,0, pclath, cstack
  4543 ;; Tracked objects:
  4544 ;;		On entry : 0/0
  4545 ;;		On exit  : 0/0
  4546 ;;		Unchanged: 0/0
  4547 ;; Data sizes:     COMMON   BANK0   BANK1   BANK2   BANK3   BANK4   BANK5   BANK6   BANK7   BANK8   BANK9  BANK10  BANK1
      +1  BANK12
  4548 ;;      Params:         0       0       0       0       0       0       0       0       0       0       0       0       
      +0       0
  4549 ;;      Locals:         0       0       0       0       0       0       0       0       0       0       0       0       
      +0       0
  4550 ;;      Temps:          0       0       0       0       0       0       0       0       0       0       0       0       
      +0       0
  4551 ;;      Totals:         0       0       0       0       0       0       0       0       0       0       0       0       
      +0       0
  4552 ;;Total ram usage:        0 bytes
  4553 ;; Hardware stack levels used: 1
  4554 ;; Hardware stack levels required when called: 6
  4555 ;; This function calls:
  4556 ;;		_TMR1_SetInterruptHandler
  4557 ;; This function is called by:
  4558 ;;		_SYSTEM_Initialize
  4559 ;;		_main
  4560 ;; This function uses a non-reentrant model
  4561 ;;
  4562                           
  4563                           
  4564                           ;psect for function _TMR1_Initialize
  4565  07E2                     _TMR1_Initialize:
  4566  07E2                     l2907:	
  4567                           ;incstack = 0
  4568                           ; Regs used in _TMR1_Initialize: [wreg+status,2+status,0+pclath+cstack]
  4569                           
  4570                           
  4571                           ;mcc_generated_files/tmr1.c: 69:     T1GCON = 0x00;
  4572  07E2  0144               	movlb	4	; select bank4
  4573  07E3  018F               	clrf	15	;volatile
  4574                           
  4575                           ;mcc_generated_files/tmr1.c: 72:     T1GATE = 0x00;
  4576  07E4  0190               	clrf	16	;volatile
  4577  07E5                     l2909:
  4578                           
  4579                           ;mcc_generated_files/tmr1.c: 75:     T1CLK = 0x04;
  4580  07E5  3004               	movlw	4
  4581  07E6  0091               	movwf	17	;volatile
  4582  07E7                     l2911:
  4583                           
  4584                           ;mcc_generated_files/tmr1.c: 78:     TMR1H = 0xE1;
  4585  07E7  30E1               	movlw	225
  4586  07E8  008D               	movwf	13	;volatile
  4587  07E9                     l2913:
  4588                           
  4589                           ;mcc_generated_files/tmr1.c: 81:     TMR1L = 0xBA;
  4590  07E9  30BA               	movlw	186
  4591  07EA  008C               	movwf	12	;volatile
  4592  07EB                     l2915:
  4593                           
  4594                           ;mcc_generated_files/tmr1.c: 84:     PIR1bits.TMR1IF = 0;
  4595  07EB  014E               	movlb	14	; select bank14
  4596  07EC  128D               	bcf	13,5	;volatile
  4597  07ED                     l2917:
  4598                           
  4599                           ;mcc_generated_files/tmr1.c: 87:     timer1ReloadVal=(uint16_t)((TMR1H << 8) | TMR1L);
  4600  07ED  0144               	movlb	4	; select bank4
  4601  07EE  080D               	movf	13,w	;volatile
  4602  07EF  00FC               	movwf	_timer1ReloadVal+1	;volatile
  4603  07F0  080C               	movf	12,w	;volatile
  4604  07F1  00FB               	movwf	_timer1ReloadVal	;volatile
  4605  07F2                     l2919:
  4606                           
  4607                           ;mcc_generated_files/tmr1.c: 90:     PIE1bits.TMR1IE = 1;
  4608  07F2  014E               	movlb	14	; select bank14
  4609  07F3  1697               	bsf	23,5	;volatile
  4610  07F4                     l2921:
  4611                           
  4612                           ;mcc_generated_files/tmr1.c: 93:     TMR1_SetInterruptHandler(TMR1_DefaultInterruptHandl
      +                          er);
  4613  07F4  3002               	movlw	low _TMR1_DefaultInterruptHandler
  4614  07F5  0141               	movlb	1	; select bank1
  4615  07F6  00A0               	movwf	TMR1_SetInterruptHandler@InterruptHandler^(0+128)
  4616  07F7  3000               	movlw	high _TMR1_DefaultInterruptHandler
  4617  07F8  00A1               	movwf	(TMR1_SetInterruptHandler@InterruptHandler^(0+128)+1)
  4618  07F9  318C  24FD  3187   	fcall	_TMR1_SetInterruptHandler
  4619  07FC                     l2923:
  4620                           
  4621                           ;mcc_generated_files/tmr1.c: 96:     T1CON = 0x05;
  4622  07FC  3005               	movlw	5
  4623  07FD  0144               	movlb	4	; select bank4
  4624  07FE  008E               	movwf	14	;volatile
  4625  07FF                     l365:
  4626  07FF  0008               	return
  4627  0800                     __end_of_TMR1_Initialize:
  4628                           
  4629                           	psect	text9
  4630  0CFD                     __ptext9:	
  4631 ;; *************** function _TMR1_SetInterruptHandler *****************
  4632 ;; Defined at:
  4633 ;;		line 178 in file "mcc_generated_files/tmr1.c"
  4634 ;; Parameters:    Size  Location     Type
  4635 ;;  InterruptHan    2    0[BANK1 ] PTR FTN()void 
  4636 ;;		 -> TMR1_ISR_(1), TMR1_DefaultInterruptHandler(1), 
  4637 ;; Auto vars:     Size  Location     Type
  4638 ;;		None
  4639 ;; Return value:  Size  Location     Type
  4640 ;;                  1    wreg      void 
  4641 ;; Registers used:
  4642 ;;		wreg
  4643 ;; Tracked objects:
  4644 ;;		On entry : 0/0
  4645 ;;		On exit  : 0/0
  4646 ;;		Unchanged: 0/0
  4647 ;; Data sizes:     COMMON   BANK0   BANK1   BANK2   BANK3   BANK4   BANK5   BANK6   BANK7   BANK8   BANK9  BANK10  BANK1
      +1  BANK12
  4648 ;;      Params:         0       0       2       0       0       0       0       0       0       0       0       0       
      +0       0
  4649 ;;      Locals:         0       0       0       0       0       0       0       0       0       0       0       0       
      +0       0
  4650 ;;      Temps:          0       0       0       0       0       0       0       0       0       0       0       0       
      +0       0
  4651 ;;      Totals:         0       0       2       0       0       0       0       0       0       0       0       0       
      +0       0
  4652 ;;Total ram usage:        2 bytes
  4653 ;; Hardware stack levels used: 1
  4654 ;; Hardware stack levels required when called: 5
  4655 ;; This function calls:
  4656 ;;		Nothing
  4657 ;; This function is called by:
  4658 ;;		_TMR1_Initialize
  4659 ;;		_main
  4660 ;; This function uses a non-reentrant model
  4661 ;;
  4662                           
  4663                           
  4664                           ;psect for function _TMR1_SetInterruptHandler
  4665  0CFD                     _TMR1_SetInterruptHandler:
  4666  0CFD                     l2843:	
  4667                           ;incstack = 0
  4668                           ; Regs used in _TMR1_SetInterruptHandler: [wreg]
  4669                           
  4670                           
  4671                           ;mcc_generated_files/tmr1.c: 179:     TMR1_InterruptHandler = InterruptHandler;
  4672  0CFD  0141               	movlb	1	; select bank1
  4673  0CFE  0821               	movf	(TMR1_SetInterruptHandler@InterruptHandler+1)^(0+128),w
  4674  0CFF  0140               	movlb	0	; select bank0
  4675  0D00  00C3               	movwf	_TMR1_InterruptHandler+1
  4676  0D01  0141               	movlb	1	; select bank1
  4677  0D02  0820               	movf	TMR1_SetInterruptHandler@InterruptHandler^(0+128),w
  4678  0D03  0140               	movlb	0	; select bank0
  4679  0D04  00C2               	movwf	_TMR1_InterruptHandler
  4680  0D05                     l395:
  4681  0D05  0008               	return
  4682  0D06                     __end_of_TMR1_SetInterruptHandler:
  4683                           
  4684                           	psect	text10
  4685  0DE3                     __ptext10:	
  4686 ;; *************** function _TMR0_Initialize *****************
  4687 ;; Defined at:
  4688 ;;		line 66 in file "mcc_generated_files/tmr0.c"
  4689 ;; Parameters:    Size  Location     Type
  4690 ;;		None
  4691 ;; Auto vars:     Size  Location     Type
  4692 ;;		None
  4693 ;; Return value:  Size  Location     Type
  4694 ;;                  1    wreg      void 
  4695 ;; Registers used:
  4696 ;;		wreg, status,2, status,0, pclath, cstack
  4697 ;; Tracked objects:
  4698 ;;		On entry : 0/0
  4699 ;;		On exit  : 0/0
  4700 ;;		Unchanged: 0/0
  4701 ;; Data sizes:     COMMON   BANK0   BANK1   BANK2   BANK3   BANK4   BANK5   BANK6   BANK7   BANK8   BANK9  BANK10  BANK1
      +1  BANK12
  4702 ;;      Params:         0       0       0       0       0       0       0       0       0       0       0       0       
      +0       0
  4703 ;;      Locals:         0       0       0       0       0       0       0       0       0       0       0       0       
      +0       0
  4704 ;;      Temps:          0       0       0       0       0       0       0       0       0       0       0       0       
      +0       0
  4705 ;;      Totals:         0       0       0       0       0       0       0       0       0       0       0       0       
      +0       0
  4706 ;;Total ram usage:        0 bytes
  4707 ;; Hardware stack levels used: 1
  4708 ;; Hardware stack levels required when called: 6
  4709 ;; This function calls:
  4710 ;;		_TMR0_SetInterruptHandler
  4711 ;; This function is called by:
  4712 ;;		_SYSTEM_Initialize
  4713 ;;		_main
  4714 ;; This function uses a non-reentrant model
  4715 ;;
  4716                           
  4717                           
  4718                           ;psect for function _TMR0_Initialize
  4719  0DE3                     _TMR0_Initialize:
  4720  0DE3                     l2931:	
  4721                           ;incstack = 0
  4722                           ; Regs used in _TMR0_Initialize: [wreg+status,2+status,0+pclath+cstack]
  4723                           
  4724                           
  4725                           ;mcc_generated_files/tmr0.c: 71:     T0CON1 = 0x90;
  4726  0DE3  3090               	movlw	144
  4727  0DE4  014B               	movlb	11	; select bank11
  4728  0DE5  009F               	movwf	31	;volatile
  4729                           
  4730                           ;mcc_generated_files/tmr0.c: 74:     TMR0H = 0x86;
  4731  0DE6  3086               	movlw	134
  4732  0DE7  009D               	movwf	29	;volatile
  4733                           
  4734                           ;mcc_generated_files/tmr0.c: 77:     TMR0L = 0xE8;
  4735  0DE8  30E8               	movlw	232
  4736  0DE9  009C               	movwf	28	;volatile
  4737                           
  4738                           ;mcc_generated_files/tmr0.c: 80:     timer0ReloadVal16bit = (TMR0H << 8) | TMR0L;
  4739  0DEA  081D               	movf	29,w	;volatile
  4740  0DEB  0140               	movlb	0	; select bank0
  4741  0DEC  00C7               	movwf	_timer0ReloadVal16bit+1	;volatile
  4742  0DED  014B               	movlb	11	; select bank11
  4743  0DEE  081C               	movf	28,w	;volatile
  4744  0DEF  0140               	movlb	0	; select bank0
  4745  0DF0  00C6               	movwf	_timer0ReloadVal16bit	;volatile
  4746  0DF1                     l2933:
  4747                           
  4748                           ;mcc_generated_files/tmr0.c: 83:     PIR0bits.TMR0IF = 0;
  4749  0DF1  014E               	movlb	14	; select bank14
  4750  0DF2  128C               	bcf	12,5	;volatile
  4751  0DF3                     l2935:
  4752                           
  4753                           ;mcc_generated_files/tmr0.c: 86:     PIE0bits.TMR0IE = 1;
  4754  0DF3  1696               	bsf	22,5	;volatile
  4755  0DF4                     l2937:
  4756                           
  4757                           ;mcc_generated_files/tmr0.c: 89:     TMR0_SetInterruptHandler(TMR0_DefaultInterruptHandl
      +                          er);
  4758  0DF4  30B9               	movlw	low _TMR0_DefaultInterruptHandler
  4759  0DF5  0141               	movlb	1	; select bank1
  4760  0DF6  00A0               	movwf	TMR0_SetInterruptHandler@InterruptHandler^(0+128)
  4761  0DF7  300C               	movlw	high _TMR0_DefaultInterruptHandler
  4762  0DF8  00A1               	movwf	(TMR0_SetInterruptHandler@InterruptHandler^(0+128)+1)
  4763  0DF9  318C  24F4  318D   	fcall	_TMR0_SetInterruptHandler
  4764  0DFC                     l2939:
  4765                           
  4766                           ;mcc_generated_files/tmr0.c: 92:     T0CON0 = 0x90;
  4767  0DFC  3090               	movlw	144
  4768  0DFD  014B               	movlb	11	; select bank11
  4769  0DFE  009E               	movwf	30	;volatile
  4770  0DFF                     l309:
  4771  0DFF  0008               	return
  4772  0E00                     __end_of_TMR0_Initialize:
  4773                           
  4774                           	psect	text11
  4775  0CF4                     __ptext11:	
  4776 ;; *************** function _TMR0_SetInterruptHandler *****************
  4777 ;; Defined at:
  4778 ;;		line 151 in file "mcc_generated_files/tmr0.c"
  4779 ;; Parameters:    Size  Location     Type
  4780 ;;  InterruptHan    2    0[BANK1 ] PTR FTN()void 
  4781 ;;		 -> TMR0_ISR_(1), TMR0_DefaultInterruptHandler(1), 
  4782 ;; Auto vars:     Size  Location     Type
  4783 ;;		None
  4784 ;; Return value:  Size  Location     Type
  4785 ;;                  1    wreg      void 
  4786 ;; Registers used:
  4787 ;;		wreg
  4788 ;; Tracked objects:
  4789 ;;		On entry : 0/0
  4790 ;;		On exit  : 0/0
  4791 ;;		Unchanged: 0/0
  4792 ;; Data sizes:     COMMON   BANK0   BANK1   BANK2   BANK3   BANK4   BANK5   BANK6   BANK7   BANK8   BANK9  BANK10  BANK1
      +1  BANK12
  4793 ;;      Params:         0       0       2       0       0       0       0       0       0       0       0       0       
      +0       0
  4794 ;;      Locals:         0       0       0       0       0       0       0       0       0       0       0       0       
      +0       0
  4795 ;;      Temps:          0       0       0       0       0       0       0       0       0       0       0       0       
      +0       0
  4796 ;;      Totals:         0       0       2       0       0       0       0       0       0       0       0       0       
      +0       0
  4797 ;;Total ram usage:        2 bytes
  4798 ;; Hardware stack levels used: 1
  4799 ;; Hardware stack levels required when called: 5
  4800 ;; This function calls:
  4801 ;;		Nothing
  4802 ;; This function is called by:
  4803 ;;		_TMR0_Initialize
  4804 ;;		_main
  4805 ;; This function uses a non-reentrant model
  4806 ;;
  4807                           
  4808                           
  4809                           ;psect for function _TMR0_SetInterruptHandler
  4810  0CF4                     _TMR0_SetInterruptHandler:
  4811  0CF4                     l2841:	
  4812                           ;incstack = 0
  4813                           ; Regs used in _TMR0_SetInterruptHandler: [wreg]
  4814                           
  4815                           
  4816                           ;mcc_generated_files/tmr0.c: 152:     TMR0_InterruptHandler = InterruptHandler;
  4817  0CF4  0141               	movlb	1	; select bank1
  4818  0CF5  0821               	movf	(TMR0_SetInterruptHandler@InterruptHandler+1)^(0+128),w
  4819  0CF6  0140               	movlb	0	; select bank0
  4820  0CF7  00C5               	movwf	_TMR0_InterruptHandler+1
  4821  0CF8  0141               	movlb	1	; select bank1
  4822  0CF9  0820               	movf	TMR0_SetInterruptHandler@InterruptHandler^(0+128),w
  4823  0CFA  0140               	movlb	0	; select bank0
  4824  0CFB  00C4               	movwf	_TMR0_InterruptHandler
  4825  0CFC                     l331:
  4826  0CFC  0008               	return
  4827  0CFD                     __end_of_TMR0_SetInterruptHandler:
  4828                           
  4829                           	psect	text12
  4830  0D69                     __ptext12:	
  4831 ;; *************** function _SPI1_Initialize *****************
  4832 ;; Defined at:
  4833 ;;		line 62 in file "mcc_generated_files/spi1.c"
  4834 ;; Parameters:    Size  Location     Type
  4835 ;;		None
  4836 ;; Auto vars:     Size  Location     Type
  4837 ;;		None
  4838 ;; Return value:  Size  Location     Type
  4839 ;;                  1    wreg      void 
  4840 ;; Registers used:
  4841 ;;		wreg, status,2
  4842 ;; Tracked objects:
  4843 ;;		On entry : 0/0
  4844 ;;		On exit  : 0/0
  4845 ;;		Unchanged: 0/0
  4846 ;; Data sizes:     COMMON   BANK0   BANK1   BANK2   BANK3   BANK4   BANK5   BANK6   BANK7   BANK8   BANK9  BANK10  BANK1
      +1  BANK12
  4847 ;;      Params:         0       0       0       0       0       0       0       0       0       0       0       0       
      +0       0
  4848 ;;      Locals:         0       0       0       0       0       0       0       0       0       0       0       0       
      +0       0
  4849 ;;      Temps:          0       0       0       0       0       0       0       0       0       0       0       0       
      +0       0
  4850 ;;      Totals:         0       0       0       0       0       0       0       0       0       0       0       0       
      +0       0
  4851 ;;Total ram usage:        0 bytes
  4852 ;; Hardware stack levels used: 1
  4853 ;; Hardware stack levels required when called: 5
  4854 ;; This function calls:
  4855 ;;		Nothing
  4856 ;; This function is called by:
  4857 ;;		_SYSTEM_Initialize
  4858 ;;		_main
  4859 ;; This function uses a non-reentrant model
  4860 ;;
  4861                           
  4862                           
  4863                           ;psect for function _SPI1_Initialize
  4864  0D69                     _SPI1_Initialize:
  4865  0D69                     l2845:	
  4866                           ;incstack = 0
  4867                           ; Regs used in _SPI1_Initialize: [wreg+status,2]
  4868                           
  4869                           
  4870                           ;mcc_generated_files/spi1.c: 65:     SSP1CLKPPS = 21;
  4871  0D69  3015               	movlw	21
  4872  0D6A  017D               	movlb	61	; select bank61
  4873  0D6B  00C5               	movwf	69	;volatile
  4874                           
  4875                           ;mcc_generated_files/spi1.c: 66:     SSP1DATPPS = 4;
  4876  0D6C  3004               	movlw	4
  4877  0D6D  00C6               	movwf	70	;volatile
  4878                           
  4879                           ;mcc_generated_files/spi1.c: 67:     RC5PPS = 7;
  4880  0D6E  3007               	movlw	7
  4881  0D6F  017E               	movlb	62	; select bank62
  4882  0D70  00A5               	movwf	37	;volatile
  4883                           
  4884                           ;mcc_generated_files/spi1.c: 68:     RC3PPS = 8;
  4885  0D71  3008               	movlw	8
  4886  0D72  00A3               	movwf	35	;volatile
  4887                           
  4888                           ;mcc_generated_files/spi1.c: 70:     SSP1STAT = 0x40;
  4889  0D73  3040               	movlw	64
  4890  0D74  0143               	movlb	3	; select bank3
  4891  0D75  008F               	movwf	15	;volatile
  4892  0D76                     l2847:
  4893                           
  4894                           ;mcc_generated_files/spi1.c: 71:     SSP1CON1 = 0x00;
  4895  0D76  0190               	clrf	16	;volatile
  4896  0D77                     l2849:
  4897                           
  4898                           ;mcc_generated_files/spi1.c: 72:     SSP1ADD = 0x01;
  4899  0D77  3001               	movlw	1
  4900  0D78  008D               	movwf	13	;volatile
  4901  0D79                     l2851:
  4902                           
  4903                           ;mcc_generated_files/spi1.c: 73:     TRISCbits.TRISC5 = 0;
  4904  0D79  0140               	movlb	0	; select bank0
  4905  0D7A  1294               	bcf	20,5	;volatile
  4906  0D7B                     l2853:
  4907                           
  4908                           ;mcc_generated_files/spi1.c: 74:     SSP1CON1bits.SSPEN = 0;
  4909  0D7B  0143               	movlb	3	; select bank3
  4910  0D7C  1290               	bcf	16,5	;volatile
  4911  0D7D                     l64:
  4912  0D7D  0008               	return
  4913  0D7E                     __end_of_SPI1_Initialize:
  4914                           
  4915                           	psect	text13
  4916  0CDA                     __ptext13:	
  4917 ;; *************** function _PWM3_Initialize *****************
  4918 ;; Defined at:
  4919 ;;		line 58 in file "mcc_generated_files/pwm3.c"
  4920 ;; Parameters:    Size  Location     Type
  4921 ;;		None
  4922 ;; Auto vars:     Size  Location     Type
  4923 ;;		None
  4924 ;; Return value:  Size  Location     Type
  4925 ;;                  1    wreg      void 
  4926 ;; Registers used:
  4927 ;;		wreg
  4928 ;; Tracked objects:
  4929 ;;		On entry : 0/0
  4930 ;;		On exit  : 0/0
  4931 ;;		Unchanged: 0/0
  4932 ;; Data sizes:     COMMON   BANK0   BANK1   BANK2   BANK3   BANK4   BANK5   BANK6   BANK7   BANK8   BANK9  BANK10  BANK1
      +1  BANK12
  4933 ;;      Params:         0       0       0       0       0       0       0       0       0       0       0       0       
      +0       0
  4934 ;;      Locals:         0       0       0       0       0       0       0       0       0       0       0       0       
      +0       0
  4935 ;;      Temps:          0       0       0       0       0       0       0       0       0       0       0       0       
      +0       0
  4936 ;;      Totals:         0       0       0       0       0       0       0       0       0       0       0       0       
      +0       0
  4937 ;;Total ram usage:        0 bytes
  4938 ;; Hardware stack levels used: 1
  4939 ;; Hardware stack levels required when called: 5
  4940 ;; This function calls:
  4941 ;;		Nothing
  4942 ;; This function is called by:
  4943 ;;		_SYSTEM_Initialize
  4944 ;;		_main
  4945 ;; This function uses a non-reentrant model
  4946 ;;
  4947                           
  4948                           
  4949                           ;psect for function _PWM3_Initialize
  4950  0CDA                     _PWM3_Initialize:
  4951  0CDA                     l2893:	
  4952                           ;incstack = 0
  4953                           ; Regs used in _PWM3_Initialize: [wreg]
  4954                           
  4955                           
  4956                           ;mcc_generated_files/pwm3.c: 62:     PWM3CON = 0x80;
  4957  0CDA  3080               	movlw	128
  4958  0CDB  0146               	movlb	6	; select bank6
  4959  0CDC  0096               	movwf	22	;volatile
  4960                           
  4961                           ;mcc_generated_files/pwm3.c: 65:     PWM3DCH = 0x7F;
  4962  0CDD  307F               	movlw	127
  4963  0CDE  0095               	movwf	21	;volatile
  4964                           
  4965                           ;mcc_generated_files/pwm3.c: 68:     PWM3DCL = 0xC0;
  4966  0CDF  30C0               	movlw	192
  4967  0CE0  0094               	movwf	20	;volatile
  4968  0CE1                     l226:
  4969  0CE1  0008               	return
  4970  0CE2                     __end_of_PWM3_Initialize:
  4971                           
  4972                           	psect	text14
  4973  0794                     __ptext14:	
  4974 ;; *************** function _PIN_MANAGER_Initialize *****************
  4975 ;; Defined at:
  4976 ;;		line 55 in file "mcc_generated_files/pin_manager.c"
  4977 ;; Parameters:    Size  Location     Type
  4978 ;;		None
  4979 ;; Auto vars:     Size  Location     Type
  4980 ;;		None
  4981 ;; Return value:  Size  Location     Type
  4982 ;;                  1    wreg      void 
  4983 ;; Registers used:
  4984 ;;		wreg, status,2
  4985 ;; Tracked objects:
  4986 ;;		On entry : 0/0
  4987 ;;		On exit  : 0/0
  4988 ;;		Unchanged: 0/0
  4989 ;; Data sizes:     COMMON   BANK0   BANK1   BANK2   BANK3   BANK4   BANK5   BANK6   BANK7   BANK8   BANK9  BANK10  BANK1
      +1  BANK12
  4990 ;;      Params:         0       0       0       0       0       0       0       0       0       0       0       0       
      +0       0
  4991 ;;      Locals:         0       0       0       0       0       0       0       0       0       0       0       0       
      +0       0
  4992 ;;      Temps:          0       0       0       0       0       0       0       0       0       0       0       0       
      +0       0
  4993 ;;      Totals:         0       0       0       0       0       0       0       0       0       0       0       0       
      +0       0
  4994 ;;Total ram usage:        0 bytes
  4995 ;; Hardware stack levels used: 1
  4996 ;; Hardware stack levels required when called: 5
  4997 ;; This function calls:
  4998 ;;		Nothing
  4999 ;; This function is called by:
  5000 ;;		_SYSTEM_Initialize
  5001 ;; This function uses a non-reentrant model
  5002 ;;
  5003                           
  5004                           
  5005                           ;psect for function _PIN_MANAGER_Initialize
  5006  0794                     _PIN_MANAGER_Initialize:
  5007  0794                     l2855:	
  5008                           ;incstack = 0
  5009                           ; Regs used in _PIN_MANAGER_Initialize: [wreg+status,2]
  5010                           
  5011                           
  5012                           ;mcc_generated_files/pin_manager.c: 60:     LATA = 0x00;
  5013  0794  0140               	movlb	0	; select bank0
  5014  0795  0198               	clrf	24	;volatile
  5015                           
  5016                           ;mcc_generated_files/pin_manager.c: 61:     LATC = 0x00;
  5017  0796  019A               	clrf	26	;volatile
  5018  0797                     l2857:
  5019                           
  5020                           ;mcc_generated_files/pin_manager.c: 66:     TRISA = 0x1F;
  5021  0797  301F               	movlw	31
  5022  0798  0092               	movwf	18	;volatile
  5023  0799                     l2859:
  5024                           
  5025                           ;mcc_generated_files/pin_manager.c: 67:     TRISC = 0x02;
  5026  0799  3002               	movlw	2
  5027  079A  0094               	movwf	20	;volatile
  5028  079B                     l2861:
  5029                           
  5030                           ;mcc_generated_files/pin_manager.c: 72:     ANSELC = 0x1F;
  5031  079B  301F               	movlw	31
  5032  079C  017E               	movlb	62	; select bank62
  5033  079D  00CE               	movwf	78	;volatile
  5034  079E                     l2863:
  5035                           
  5036                           ;mcc_generated_files/pin_manager.c: 73:     ANSELA = 0x23;
  5037  079E  3023               	movlw	35
  5038  079F  00B8               	movwf	56	;volatile
  5039                           
  5040                           ;mcc_generated_files/pin_manager.c: 78:     WPUA = 0x00;
  5041  07A0  01B9               	clrf	57	;volatile
  5042                           
  5043                           ;mcc_generated_files/pin_manager.c: 79:     WPUC = 0x00;
  5044  07A1  01CF               	clrf	79	;volatile
  5045                           
  5046                           ;mcc_generated_files/pin_manager.c: 84:     ODCONA = 0x00;
  5047  07A2  01BA               	clrf	58	;volatile
  5048                           
  5049                           ;mcc_generated_files/pin_manager.c: 85:     ODCONC = 0x00;
  5050  07A3  01D0               	clrf	80	;volatile
  5051  07A4                     l2865:
  5052                           
  5053                           ;mcc_generated_files/pin_manager.c: 90:     SLRCONA = 0x37;
  5054  07A4  3037               	movlw	55
  5055  07A5  00BB               	movwf	59	;volatile
  5056  07A6                     l2867:
  5057                           
  5058                           ;mcc_generated_files/pin_manager.c: 91:     SLRCONC = 0x3F;
  5059  07A6  303F               	movlw	63
  5060  07A7  00D1               	movwf	81	;volatile
  5061  07A8                     l2869:
  5062                           
  5063                           ;mcc_generated_files/pin_manager.c: 96:     INLVLA = 0x3F;
  5064  07A8  303F               	movlw	63
  5065  07A9  00BC               	movwf	60	;volatile
  5066  07AA                     l2871:
  5067                           
  5068                           ;mcc_generated_files/pin_manager.c: 97:     INLVLC = 0x3F;
  5069  07AA  303F               	movlw	63
  5070  07AB  00D2               	movwf	82	;volatile
  5071  07AC                     l2873:
  5072                           
  5073                           ;mcc_generated_files/pin_manager.c: 106:     INTPPS = 0x02;
  5074  07AC  3002               	movlw	2
  5075  07AD  017D               	movlb	61	; select bank61
  5076  07AE  0090               	movwf	16	;volatile
  5077  07AF                     l2875:
  5078                           
  5079                           ;mcc_generated_files/pin_manager.c: 107:     SSP1CLKPPS = 0x15;
  5080  07AF  3015               	movlw	21
  5081  07B0  00C5               	movwf	69	;volatile
  5082  07B1                     l2877:
  5083                           
  5084                           ;mcc_generated_files/pin_manager.c: 108:     RC3PPS = 0x08;
  5085  07B1  3008               	movlw	8
  5086  07B2  017E               	movlb	62	; select bank62
  5087  07B3  00A3               	movwf	35	;volatile
  5088  07B4                     l2879:
  5089                           
  5090                           ;mcc_generated_files/pin_manager.c: 109:     RA5PPS = 0x03;
  5091  07B4  3003               	movlw	3
  5092  07B5  0095               	movwf	21	;volatile
  5093  07B6                     l2881:
  5094                           
  5095                           ;mcc_generated_files/pin_manager.c: 110:     RC5PPS = 0x07;
  5096  07B6  3007               	movlw	7
  5097  07B7  00A5               	movwf	37	;volatile
  5098  07B8                     l2883:
  5099                           
  5100                           ;mcc_generated_files/pin_manager.c: 111:     SSP1DATPPS = 0x04;
  5101  07B8  3004               	movlw	4
  5102  07B9  017D               	movlb	61	; select bank61
  5103  07BA  00C6               	movwf	70	;volatile
  5104  07BB                     l147:
  5105  07BB  0008               	return
  5106  07BC                     __end_of_PIN_MANAGER_Initialize:
  5107                           
  5108                           	psect	text15
  5109  0CC7                     __ptext15:	
  5110 ;; *************** function _OSCILLATOR_Initialize *****************
  5111 ;; Defined at:
  5112 ;;		line 64 in file "mcc_generated_files/mcc.c"
  5113 ;; Parameters:    Size  Location     Type
  5114 ;;		None
  5115 ;; Auto vars:     Size  Location     Type
  5116 ;;		None
  5117 ;; Return value:  Size  Location     Type
  5118 ;;                  1    wreg      void 
  5119 ;; Registers used:
  5120 ;;		wreg, status,2
  5121 ;; Tracked objects:
  5122 ;;		On entry : 0/0
  5123 ;;		On exit  : 0/0
  5124 ;;		Unchanged: 0/0
  5125 ;; Data sizes:     COMMON   BANK0   BANK1   BANK2   BANK3   BANK4   BANK5   BANK6   BANK7   BANK8   BANK9  BANK10  BANK1
      +1  BANK12
  5126 ;;      Params:         0       0       0       0       0       0       0       0       0       0       0       0       
      +0       0
  5127 ;;      Locals:         0       0       0       0       0       0       0       0       0       0       0       0       
      +0       0
  5128 ;;      Temps:          0       0       0       0       0       0       0       0       0       0       0       0       
      +0       0
  5129 ;;      Totals:         0       0       0       0       0       0       0       0       0       0       0       0       
      +0       0
  5130 ;;Total ram usage:        0 bytes
  5131 ;; Hardware stack levels used: 1
  5132 ;; Hardware stack levels required when called: 5
  5133 ;; This function calls:
  5134 ;;		Nothing
  5135 ;; This function is called by:
  5136 ;;		_SYSTEM_Initialize
  5137 ;; This function uses a non-reentrant model
  5138 ;;
  5139                           
  5140                           
  5141                           ;psect for function _OSCILLATOR_Initialize
  5142  0CC7                     _OSCILLATOR_Initialize:
  5143  0CC7                     l2885:	
  5144                           ;incstack = 0
  5145                           ; Regs used in _OSCILLATOR_Initialize: [wreg+status,2]
  5146                           
  5147                           
  5148                           ;mcc_generated_files/mcc.c: 67:     OSCEN = 0x00;
  5149  0CC7  0151               	movlb	17	; select bank17
  5150  0CC8  0191               	clrf	17	;volatile
  5151  0CC9                     l2887:
  5152                           
  5153                           ;mcc_generated_files/mcc.c: 69:     OSCFRQ = 0x03;
  5154  0CC9  3003               	movlw	3
  5155  0CCA  0093               	movwf	19	;volatile
  5156  0CCB                     l2889:
  5157                           
  5158                           ;mcc_generated_files/mcc.c: 71:     OSCTUNE = 0x00;
  5159  0CCB  0192               	clrf	18	;volatile
  5160  0CCC                     l32:
  5161  0CCC  0008               	return
  5162  0CCD                     __end_of_OSCILLATOR_Initialize:
  5163                           
  5164                           	psect	text16
  5165  0D1F                     __ptext16:	
  5166 ;; *************** function _EXT_INT_Initialize *****************
  5167 ;; Defined at:
  5168 ;;		line 72 in file "mcc_generated_files/ext_int.c"
  5169 ;; Parameters:    Size  Location     Type
  5170 ;;		None
  5171 ;; Auto vars:     Size  Location     Type
  5172 ;;		None
  5173 ;; Return value:  Size  Location     Type
  5174 ;;                  1    wreg      void 
  5175 ;; Registers used:
  5176 ;;		wreg, status,2, status,0, pclath, cstack
  5177 ;; Tracked objects:
  5178 ;;		On entry : 0/0
  5179 ;;		On exit  : 0/0
  5180 ;;		Unchanged: 0/0
  5181 ;; Data sizes:     COMMON   BANK0   BANK1   BANK2   BANK3   BANK4   BANK5   BANK6   BANK7   BANK8   BANK9  BANK10  BANK1
      +1  BANK12
  5182 ;;      Params:         0       0       0       0       0       0       0       0       0       0       0       0       
      +0       0
  5183 ;;      Locals:         0       0       0       0       0       0       0       0       0       0       0       0       
      +0       0
  5184 ;;      Temps:          0       0       0       0       0       0       0       0       0       0       0       0       
      +0       0
  5185 ;;      Totals:         0       0       0       0       0       0       0       0       0       0       0       0       
      +0       0
  5186 ;;Total ram usage:        0 bytes
  5187 ;; Hardware stack levels used: 1
  5188 ;; Hardware stack levels required when called: 6
  5189 ;; This function calls:
  5190 ;;		_INT_SetInterruptHandler
  5191 ;; This function is called by:
  5192 ;;		_SYSTEM_Initialize
  5193 ;;		_main
  5194 ;; This function uses a non-reentrant model
  5195 ;;
  5196                           
  5197                           
  5198                           ;psect for function _EXT_INT_Initialize
  5199  0D1F                     _EXT_INT_Initialize:
  5200  0D1F                     l2925:	
  5201                           ;incstack = 0
  5202                           ; Regs used in _EXT_INT_Initialize: [wreg+status,2+status,0+pclath+cstack]
  5203                           
  5204                           
  5205                           ;mcc_generated_files/ext_int.c: 77:     (PIR0bits.INTF = 0);
  5206  0D1F  014E               	movlb	14	; select bank14
  5207  0D20  100C               	bcf	12,0	;volatile
  5208                           
  5209                           ;mcc_generated_files/ext_int.c: 78:     (INTCONbits.INTEDG = 1);
  5210  0D21  140B               	bsf	11,0	;volatile
  5211  0D22                     l2927:
  5212                           
  5213                           ;mcc_generated_files/ext_int.c: 80:     INT_SetInterruptHandler(INT_DefaultInterruptHand
      +                          ler);
  5214  0D22  30B8               	movlw	low _INT_DefaultInterruptHandler
  5215  0D23  0141               	movlb	1	; select bank1
  5216  0D24  00A0               	movwf	INT_SetInterruptHandler@InterruptHandler^(0+128)
  5217  0D25  300C               	movlw	high _INT_DefaultInterruptHandler
  5218  0D26  00A1               	movwf	(INT_SetInterruptHandler@InterruptHandler^(0+128)+1)
  5219  0D27  318C  24EB  318D   	fcall	_INT_SetInterruptHandler
  5220  0D2A                     l2929:
  5221                           
  5222                           ;mcc_generated_files/ext_int.c: 81:     (PIE0bits.INTE = 1);
  5223  0D2A  014E               	movlb	14	; select bank14
  5224  0D2B  1416               	bsf	22,0	;volatile
  5225  0D2C                     l284:
  5226  0D2C  0008               	return
  5227  0D2D                     __end_of_EXT_INT_Initialize:
  5228                           
  5229                           	psect	text17
  5230  0CEB                     __ptext17:	
  5231 ;; *************** function _INT_SetInterruptHandler *****************
  5232 ;; Defined at:
  5233 ;;		line 63 in file "mcc_generated_files/ext_int.c"
  5234 ;; Parameters:    Size  Location     Type
  5235 ;;  InterruptHan    2    0[BANK1 ] PTR FTN()void 
  5236 ;;		 -> EXT_ISR(1), INT_DefaultInterruptHandler(1), 
  5237 ;; Auto vars:     Size  Location     Type
  5238 ;;		None
  5239 ;; Return value:  Size  Location     Type
  5240 ;;                  1    wreg      void 
  5241 ;; Registers used:
  5242 ;;		wreg
  5243 ;; Tracked objects:
  5244 ;;		On entry : 0/0
  5245 ;;		On exit  : 0/0
  5246 ;;		Unchanged: 0/0
  5247 ;; Data sizes:     COMMON   BANK0   BANK1   BANK2   BANK3   BANK4   BANK5   BANK6   BANK7   BANK8   BANK9  BANK10  BANK1
      +1  BANK12
  5248 ;;      Params:         0       0       2       0       0       0       0       0       0       0       0       0       
      +0       0
  5249 ;;      Locals:         0       0       0       0       0       0       0       0       0       0       0       0       
      +0       0
  5250 ;;      Temps:          0       0       0       0       0       0       0       0       0       0       0       0       
      +0       0
  5251 ;;      Totals:         0       0       2       0       0       0       0       0       0       0       0       0       
      +0       0
  5252 ;;Total ram usage:        2 bytes
  5253 ;; Hardware stack levels used: 1
  5254 ;; Hardware stack levels required when called: 5
  5255 ;; This function calls:
  5256 ;;		Nothing
  5257 ;; This function is called by:
  5258 ;;		_EXT_INT_Initialize
  5259 ;;		_main
  5260 ;; This function uses a non-reentrant model
  5261 ;;
  5262                           
  5263                           
  5264                           ;psect for function _INT_SetInterruptHandler
  5265  0CEB                     _INT_SetInterruptHandler:
  5266  0CEB                     l2839:	
  5267                           ;incstack = 0
  5268                           ; Regs used in _INT_SetInterruptHandler: [wreg]
  5269                           
  5270                           
  5271                           ;mcc_generated_files/ext_int.c: 64:     INT_InterruptHandler = InterruptHandler;
  5272  0CEB  0141               	movlb	1	; select bank1
  5273  0CEC  0821               	movf	(INT_SetInterruptHandler@InterruptHandler+1)^(0+128),w
  5274  0CED  0140               	movlb	0	; select bank0
  5275  0CEE  00C9               	movwf	_INT_InterruptHandler+1
  5276  0CEF  0141               	movlb	1	; select bank1
  5277  0CF0  0820               	movf	INT_SetInterruptHandler@InterruptHandler^(0+128),w
  5278  0CF1  0140               	movlb	0	; select bank0
  5279  0CF2  00C8               	movwf	_INT_InterruptHandler
  5280  0CF3                     l278:
  5281  0CF3  0008               	return
  5282  0CF4                     __end_of_INT_SetInterruptHandler:
  5283                           
  5284                           	psect	intentry
  5285  0004                     __pintentry:	
  5286 ;; *************** function _INTERRUPT_InterruptManager *****************
  5287 ;; Defined at:
  5288 ;;		line 52 in file "mcc_generated_files/interrupt_manager.c"
  5289 ;; Parameters:    Size  Location     Type
  5290 ;;		None
  5291 ;; Auto vars:     Size  Location     Type
  5292 ;;		None
  5293 ;; Return value:  Size  Location     Type
  5294 ;;                  1    wreg      void 
  5295 ;; Registers used:
  5296 ;;		wreg, fsr0l, fsr0h, fsr1l, fsr1h, status,2, status,0, pclath, cstack
  5297 ;; Tracked objects:
  5298 ;;		On entry : 0/0
  5299 ;;		On exit  : 0/0
  5300 ;;		Unchanged: 0/0
  5301 ;; Data sizes:     COMMON   BANK0   BANK1   BANK2   BANK3   BANK4   BANK5   BANK6   BANK7   BANK8   BANK9  BANK10  BANK1
      +1  BANK12
  5302 ;;      Params:         0       0       0       0       0       0       0       0       0       0       0       0       
      +0       0
  5303 ;;      Locals:         0       0       0       0       0       0       0       0       0       0       0       0       
      +0       0
  5304 ;;      Temps:          0       0       0       0       0       0       0       0       0       0       0       0       
      +0       0
  5305 ;;      Totals:         0       0       0       0       0       0       0       0       0       0       0       0       
      +0       0
  5306 ;;Total ram usage:        0 bytes
  5307 ;; Hardware stack levels used: 1
  5308 ;; Hardware stack levels required when called: 4
  5309 ;; This function calls:
  5310 ;;		_INT_ISR
  5311 ;;		_TMR0_ISR
  5312 ;;		_TMR1_ISR
  5313 ;; This function is called by:
  5314 ;;		Interrupt level 1
  5315 ;; This function uses a non-reentrant model
  5316 ;;
  5317                           
  5318  0004                     _INTERRUPT_InterruptManager:
  5319                           
  5320                           ;incstack = 0
  5321  0004  147E               	bsf	int$flags,0	;set compiler interrupt flag (level 1)
  5322                           
  5323                           ; Regs used in _INTERRUPT_InterruptManager: [wreg-fsr1h+status,2+status,0+pclath+cstack]
  5324  0005  3180               	pagesel	$
  5325  0006                     i1l2627:
  5326                           
  5327                           ;mcc_generated_files/interrupt_manager.c: 55:     if(PIE0bits.TMR0IE == 1 && PIR0bits.TM
      +                          R0IF == 1)
  5328  0006  014E               	movlb	14	; select bank14
  5329  0007  1E96               	btfss	22,5	;volatile
  5330  0008  280A               	goto	u177_21
  5331  0009  280B               	goto	u177_20
  5332  000A                     u177_21:
  5333  000A  2813               	goto	i1l250
  5334  000B                     u177_20:
  5335  000B                     i1l2629:
  5336  000B  1E8C               	btfss	12,5	;volatile
  5337  000C  280E               	goto	u178_21
  5338  000D  280F               	goto	u178_20
  5339  000E                     u178_21:
  5340  000E  2813               	goto	i1l250
  5341  000F                     u178_20:
  5342  000F                     i1l2631:
  5343                           
  5344                           ;mcc_generated_files/interrupt_manager.c: 56:     {;mcc_generated_files/interrupt_manage
      +                          r.c: 57:         TMR0_ISR();
  5345  000F  318D  2594  3180   	fcall	_TMR0_ISR
  5346                           
  5347                           ;mcc_generated_files/interrupt_manager.c: 58:     }
  5348  0012  282F               	goto	i1l258
  5349  0013                     i1l250:	
  5350                           ;mcc_generated_files/interrupt_manager.c: 59:     else if(PIE0bits.INTE == 1 && PIR0bits
      +                          .INTF == 1)
  5351                           
  5352  0013  1C16               	btfss	22,0	;volatile
  5353  0014  2816               	goto	u179_21
  5354  0015  2817               	goto	u179_20
  5355  0016                     u179_21:
  5356  0016  281F               	goto	i1l252
  5357  0017                     u179_20:
  5358  0017                     i1l2633:
  5359  0017  1C0C               	btfss	12,0	;volatile
  5360  0018  281A               	goto	u180_21
  5361  0019  281B               	goto	u180_20
  5362  001A                     u180_21:
  5363  001A  281F               	goto	i1l252
  5364  001B                     u180_20:
  5365  001B                     i1l2635:
  5366                           
  5367                           ;mcc_generated_files/interrupt_manager.c: 60:     {;mcc_generated_files/interrupt_manage
      +                          r.c: 61:         INT_ISR();
  5368  001B  318C  24C1  3180   	fcall	_INT_ISR
  5369                           
  5370                           ;mcc_generated_files/interrupt_manager.c: 62:     }
  5371  001E  282F               	goto	i1l258
  5372  001F                     i1l252:	
  5373                           ;mcc_generated_files/interrupt_manager.c: 63:     else if(INTCONbits.PEIE == 1)
  5374                           
  5375  001F  1F0B               	btfss	11,6	;volatile
  5376  0020  2822               	goto	u181_21
  5377  0021  2823               	goto	u181_20
  5378  0022                     u181_21:
  5379  0022  282F               	goto	i1l253
  5380  0023                     u181_20:
  5381  0023                     i1l2637:
  5382                           
  5383                           ;mcc_generated_files/interrupt_manager.c: 64:     {;mcc_generated_files/interrupt_manage
      +                          r.c: 65:         if(PIE1bits.TMR1IE == 1 && PIR1bits.TMR1IF == 1)
  5384  0023  1E97               	btfss	23,5	;volatile
  5385  0024  2826               	goto	u182_21
  5386  0025  2827               	goto	u182_20
  5387  0026                     u182_21:
  5388  0026  282F               	goto	i1l253
  5389  0027                     u182_20:
  5390  0027                     i1l2639:
  5391  0027  1E8D               	btfss	13,5	;volatile
  5392  0028  282A               	goto	u183_21
  5393  0029  282B               	goto	u183_20
  5394  002A                     u183_21:
  5395  002A  282F               	goto	i1l253
  5396  002B                     u183_20:
  5397  002B                     i1l2641:
  5398                           
  5399                           ;mcc_generated_files/interrupt_manager.c: 66:         {;mcc_generated_files/interrupt_ma
      +                          nager.c: 67:             TMR1_ISR();
  5400  002B  318D  257E  3180   	fcall	_TMR1_ISR
  5401                           
  5402                           ;mcc_generated_files/interrupt_manager.c: 68:         }
  5403  002E  282F               	goto	i1l258
  5404  002F                     i1l253:
  5405  002F                     i1l258:
  5406  002F  107E               	bcf	int$flags,0	;clear compiler interrupt flag (level 1)
  5407  0030  0009               	retfie
  5408  0031                     __end_of_INTERRUPT_InterruptManager:
  5409                           
  5410                           	psect	text19
  5411  0D7E                     __ptext19:	
  5412 ;; *************** function _TMR1_ISR *****************
  5413 ;; Defined at:
  5414 ;;		line 164 in file "mcc_generated_files/tmr1.c"
  5415 ;; Parameters:    Size  Location     Type
  5416 ;;		None
  5417 ;; Auto vars:     Size  Location     Type
  5418 ;;		None
  5419 ;; Return value:  Size  Location     Type
  5420 ;;                  1    wreg      void 
  5421 ;; Registers used:
  5422 ;;		wreg, fsr0l, fsr0h, fsr1l, fsr1h, status,2, status,0, pclath, cstack
  5423 ;; Tracked objects:
  5424 ;;		On entry : 0/0
  5425 ;;		On exit  : 0/0
  5426 ;;		Unchanged: 0/0
  5427 ;; Data sizes:     COMMON   BANK0   BANK1   BANK2   BANK3   BANK4   BANK5   BANK6   BANK7   BANK8   BANK9  BANK10  BANK1
      +1  BANK12
  5428 ;;      Params:         0       0       0       0       0       0       0       0       0       0       0       0       
      +0       0
  5429 ;;      Locals:         0       0       0       0       0       0       0       0       0       0       0       0       
      +0       0
  5430 ;;      Temps:          0       0       0       0       0       0       0       0       0       0       0       0       
      +0       0
  5431 ;;      Totals:         0       0       0       0       0       0       0       0       0       0       0       0       
      +0       0
  5432 ;;Total ram usage:        0 bytes
  5433 ;; Hardware stack levels used: 1
  5434 ;; Hardware stack levels required when called: 2
  5435 ;; This function calls:
  5436 ;;		Absolute function
  5437 ;;		_TMR1_DefaultInterruptHandler
  5438 ;;		_TMR1_ISR_
  5439 ;;		_TMR1_WriteTimer
  5440 ;; This function is called by:
  5441 ;;		_INTERRUPT_InterruptManager
  5442 ;; This function uses a non-reentrant model
  5443 ;;
  5444                           
  5445                           
  5446                           ;psect for function _TMR1_ISR
  5447  0D7E                     _TMR1_ISR:
  5448  0D7E                     i1l2577:	
  5449                           ;incstack = 0
  5450                           ; Regs used in _TMR1_ISR: [wreg-fsr1h+status,2+status,0+pclath+cstack]
  5451                           
  5452                           
  5453                           ;mcc_generated_files/tmr1.c: 168:     PIR1bits.TMR1IF = 0;
  5454  0D7E  014E               	movlb	14	; select bank14
  5455  0D7F  128D               	bcf	13,5	;volatile
  5456  0D80                     i1l2579:
  5457                           
  5458                           ;mcc_generated_files/tmr1.c: 169:     TMR1_WriteTimer(timer1ReloadVal);
  5459  0D80  087C               	movf	_timer1ReloadVal+1,w	;volatile
  5460  0D81  00F1               	movwf	TMR1_WriteTimer@timerVal+1
  5461  0D82  087B               	movf	_timer1ReloadVal,w	;volatile
  5462  0D83  00F0               	movwf	TMR1_WriteTimer@timerVal
  5463  0D84  318D  2558  318D   	fcall	_TMR1_WriteTimer
  5464  0D87                     i1l2581:
  5465                           
  5466                           ;mcc_generated_files/tmr1.c: 171:     if(TMR1_InterruptHandler)
  5467  0D87  0140               	movlb	0	; select bank0
  5468  0D88  0842               	movf	_TMR1_InterruptHandler,w
  5469  0D89  0443               	iorwf	_TMR1_InterruptHandler+1,w
  5470  0D8A  1903               	btfsc	3,2
  5471  0D8B  2D8D               	goto	u170_21
  5472  0D8C  2D8E               	goto	u170_20
  5473  0D8D                     u170_21:
  5474  0D8D  2D93               	goto	i1l392
  5475  0D8E                     u170_20:
  5476  0D8E                     i1l2583:
  5477                           
  5478                           ;mcc_generated_files/tmr1.c: 172:     {;mcc_generated_files/tmr1.c: 173:         TMR1_In
      +                          terruptHandler();
  5479  0D8E  0843               	movf	_TMR1_InterruptHandler+1,w
  5480  0D8F  008A               	movwf	10
  5481  0D90  0842               	movf	_TMR1_InterruptHandler,w
  5482  0D91  000A               	callw
  5483  0D92  318D               	pagesel	$
  5484  0D93                     i1l392:
  5485  0D93  0008               	return
  5486  0D94                     __end_of_TMR1_ISR:
  5487                           
  5488                           	psect	text20
  5489  0D58                     __ptext20:	
  5490 ;; *************** function _TMR1_WriteTimer *****************
  5491 ;; Defined at:
  5492 ;;		line 127 in file "mcc_generated_files/tmr1.c"
  5493 ;; Parameters:    Size  Location     Type
  5494 ;;  timerVal        2    0[COMMON] unsigned short 
  5495 ;; Auto vars:     Size  Location     Type
  5496 ;;		None
  5497 ;; Return value:  Size  Location     Type
  5498 ;;                  1    wreg      void 
  5499 ;; Registers used:
  5500 ;;		wreg, status,2
  5501 ;; Tracked objects:
  5502 ;;		On entry : 0/0
  5503 ;;		On exit  : 0/0
  5504 ;;		Unchanged: 0/0
  5505 ;; Data sizes:     COMMON   BANK0   BANK1   BANK2   BANK3   BANK4   BANK5   BANK6   BANK7   BANK8   BANK9  BANK10  BANK1
      +1  BANK12
  5506 ;;      Params:         2       0       0       0       0       0       0       0       0       0       0       0       
      +0       0
  5507 ;;      Locals:         0       0       0       0       0       0       0       0       0       0       0       0       
      +0       0
  5508 ;;      Temps:          0       0       0       0       0       0       0       0       0       0       0       0       
      +0       0
  5509 ;;      Totals:         2       0       0       0       0       0       0       0       0       0       0       0       
      +0       0
  5510 ;;Total ram usage:        2 bytes
  5511 ;; Hardware stack levels used: 1
  5512 ;; This function calls:
  5513 ;;		Nothing
  5514 ;; This function is called by:
  5515 ;;		_TMR1_ISR
  5516 ;;		_TMR1_Reload
  5517 ;; This function uses a non-reentrant model
  5518 ;;
  5519                           
  5520                           
  5521                           ;psect for function _TMR1_WriteTimer
  5522  0D58                     _TMR1_WriteTimer:
  5523  0D58                     i1l2253:	
  5524                           ;incstack = 0
  5525                           ; Regs used in _TMR1_WriteTimer: [wreg+status,2]
  5526                           
  5527                           
  5528                           ;mcc_generated_files/tmr1.c: 127: void TMR1_WriteTimer(uint16_t timerVal);mcc_generated_
      +                          files/tmr1.c: 128: {;mcc_generated_files/tmr1.c: 129:     if (T1CONbits.NOT_SYNC == 1)
  5529  0D58  0144               	movlb	4	; select bank4
  5530  0D59  1D0E               	btfss	14,2	;volatile
  5531  0D5A  2D5C               	goto	u118_21
  5532  0D5B  2D5D               	goto	u118_20
  5533  0D5C                     u118_21:
  5534  0D5C  2D64               	goto	i1l2263
  5535  0D5D                     u118_20:
  5536  0D5D                     i1l2255:
  5537                           
  5538                           ;mcc_generated_files/tmr1.c: 130:     {;mcc_generated_files/tmr1.c: 132:         T1CONbi
      +                          ts.TMR1ON = 0;
  5539  0D5D  100E               	bcf	14,0	;volatile
  5540  0D5E                     i1l2257:
  5541                           
  5542                           ;mcc_generated_files/tmr1.c: 135:         TMR1H = (uint8_t)(timerVal >> 8);
  5543  0D5E  0871               	movf	TMR1_WriteTimer@timerVal+1,w
  5544  0D5F  008D               	movwf	13	;volatile
  5545  0D60                     i1l2259:
  5546                           
  5547                           ;mcc_generated_files/tmr1.c: 136:         TMR1L = (uint8_t)timerVal;
  5548  0D60  0870               	movf	TMR1_WriteTimer@timerVal,w
  5549  0D61  008C               	movwf	12	;volatile
  5550  0D62                     i1l2261:
  5551                           
  5552                           ;mcc_generated_files/tmr1.c: 139:         T1CONbits.TMR1ON =1;
  5553  0D62  140E               	bsf	14,0	;volatile
  5554                           
  5555                           ;mcc_generated_files/tmr1.c: 140:     }
  5556  0D63  2D68               	goto	i1l379
  5557  0D64                     i1l2263:
  5558                           
  5559                           ;mcc_generated_files/tmr1.c: 142:     {;mcc_generated_files/tmr1.c: 144:         TMR1H =
      +                           (uint8_t)(timerVal >> 8);
  5560  0D64  0871               	movf	TMR1_WriteTimer@timerVal+1,w
  5561  0D65  008D               	movwf	13	;volatile
  5562  0D66                     i1l2265:
  5563                           
  5564                           ;mcc_generated_files/tmr1.c: 145:         TMR1L = (uint8_t)timerVal;
  5565  0D66  0870               	movf	TMR1_WriteTimer@timerVal,w
  5566  0D67  008C               	movwf	12	;volatile
  5567  0D68                     i1l379:
  5568  0D68  0008               	return
  5569  0D69                     __end_of_TMR1_WriteTimer:
  5570                           
  5571                           	psect	text21
  5572  0002                     __ptext21:	
  5573 ;; *************** function _TMR1_DefaultInterruptHandler *****************
  5574 ;; Defined at:
  5575 ;;		line 182 in file "mcc_generated_files/tmr1.c"
  5576 ;; Parameters:    Size  Location     Type
  5577 ;;		None
  5578 ;; Auto vars:     Size  Location     Type
  5579 ;;		None
  5580 ;; Return value:  Size  Location     Type
  5581 ;;                  1    wreg      void 
  5582 ;; Registers used:
  5583 ;;		None
  5584 ;; Tracked objects:
  5585 ;;		On entry : 0/0
  5586 ;;		On exit  : 0/0
  5587 ;;		Unchanged: 0/0
  5588 ;; Data sizes:     COMMON   BANK0   BANK1   BANK2   BANK3   BANK4   BANK5   BANK6   BANK7   BANK8   BANK9  BANK10  BANK1
      +1  BANK12
  5589 ;;      Params:         0       0       0       0       0       0       0       0       0       0       0       0       
      +0       0
  5590 ;;      Locals:         0       0       0       0       0       0       0       0       0       0       0       0       
      +0       0
  5591 ;;      Temps:          0       0       0       0       0       0       0       0       0       0       0       0       
      +0       0
  5592 ;;      Totals:         0       0       0       0       0       0       0       0       0       0       0       0       
      +0       0
  5593 ;;Total ram usage:        0 bytes
  5594 ;; Hardware stack levels used: 1
  5595 ;; This function calls:
  5596 ;;		Nothing
  5597 ;; This function is called by:
  5598 ;;		_TMR1_Initialize
  5599 ;;		_TMR1_ISR
  5600 ;; This function uses a non-reentrant model
  5601 ;;
  5602                           
  5603                           
  5604                           ;psect for function _TMR1_DefaultInterruptHandler
  5605  0002                     _TMR1_DefaultInterruptHandler:
  5606  0002                     i1l398:	
  5607                           ;incstack = 0
  5608                           ; Regs used in _TMR1_DefaultInterruptHandler: []
  5609                           
  5610  0002  0008               	return
  5611  0003                     __end_of_TMR1_DefaultInterruptHandler:
  5612                           
  5613                           	psect	text22
  5614  007F                     __ptext22:	
  5615 ;; *************** function _TMR1_ISR_ *****************
  5616 ;; Defined at:
  5617 ;;		line 603 in file "main.c"
  5618 ;; Parameters:    Size  Location     Type
  5619 ;;		None
  5620 ;; Auto vars:     Size  Location     Type
  5621 ;;  i               2   22[BANK0 ] int 
  5622 ;;  i               2   20[BANK0 ] int 
  5623 ;;  i               2   18[BANK0 ] int 
  5624 ;;  i               2   16[BANK0 ] int 
  5625 ;;  lights          1    2[BANK0 ] unsigned char 
  5626 ;;  i               2   32[BANK0 ] int 
  5627 ;;  lights          1    0[BANK0 ] unsigned char 
  5628 ;;  jungle_sw       1    3[BANK0 ] unsigned char 
  5629 ;;  lights          1    1[BANK0 ] unsigned char 
  5630 ;;  i               2   28[BANK0 ] int 
  5631 ;;  i               2   14[BANK0 ] int 
  5632 ;;  i               2   26[BANK0 ] int 
  5633 ;;  i               2   12[BANK0 ] int 
  5634 ;;  i               2   10[BANK0 ] int 
  5635 ;;  i               2    8[BANK0 ] int 
  5636 ;;  i               2    6[BANK0 ] int 
  5637 ;;  i               2    4[BANK0 ] int 
  5638 ;;  i               2   30[BANK0 ] int 
  5639 ;;  i               2   24[BANK0 ] int 
  5640 ;; Return value:  Size  Location     Type
  5641 ;;                  1    wreg      void 
  5642 ;; Registers used:
  5643 ;;		wreg, fsr0l, fsr0h, fsr1l, fsr1h, status,2, status,0, pclath, cstack
  5644 ;; Tracked objects:
  5645 ;;		On entry : 0/0
  5646 ;;		On exit  : 0/0
  5647 ;;		Unchanged: 0/0
  5648 ;; Data sizes:     COMMON   BANK0   BANK1   BANK2   BANK3   BANK4   BANK5   BANK6   BANK7   BANK8   BANK9  BANK10  BANK1
      +1  BANK12
  5649 ;;      Params:         0       0       0       0       0       0       0       0       0       0       0       0       
      +0       0
  5650 ;;      Locals:         0      34       0       0       0       0       0       0       0       0       0       0       
      +0       0
  5651 ;;      Temps:          2       0       0       0       0       0       0       0       0       0       0       0       
      +0       0
  5652 ;;      Totals:         2      34       0       0       0       0       0       0       0       0       0       0       
      +0       0
  5653 ;;Total ram usage:       36 bytes
  5654 ;; Hardware stack levels used: 1
  5655 ;; Hardware stack levels required when called: 1
  5656 ;; This function calls:
  5657 ;;		___awdiv
  5658 ;;		i1_playNote
  5659 ;; This function is called by:
  5660 ;;		_main
  5661 ;;		_TMR1_ISR
  5662 ;; This function uses a non-reentrant model
  5663 ;;
  5664                           
  5665                           
  5666                           ;psect for function _TMR1_ISR_
  5667  007F                     _TMR1_ISR_:
  5668  007F                     i1l2275:	
  5669                           ;incstack = 0
  5670                           ; Regs used in _TMR1_ISR_: [wreg-fsr1h+status,2+status,0+pclath+cstack]
  5671                           
  5672                           
  5673                           ;main.c: 605:     count++;
  5674  007F  3001               	movlw	1
  5675  0080  0141               	movlb	1	; select bank1
  5676  0081  07BE               	addwf	_count^(0+128),f
  5677  0082  3000               	movlw	0
  5678  0083  3DBF               	addwfc	(_count+1)^(0+128),f
  5679  0084                     i1l2277:
  5680                           
  5681                           ;main.c: 608:     if (silent_night_playing)
  5682  0084  0140               	movlb	0	; select bank0
  5683  0085  084F               	movf	_silent_night_playing,w
  5684  0086  1903               	btfsc	3,2
  5685  0087  2889               	goto	u119_21
  5686  0088  288A               	goto	u119_20
  5687  0089                     u119_21:
  5688  0089  2977               	goto	i1l2331
  5689  008A                     u119_20:
  5690  008A                     i1l2279:
  5691                           
  5692                           ;main.c: 609:     {;main.c: 610:         if (count < 24 || ((count > 48) && (count < 96)
      +                          ))
  5693  008A  0141               	movlb	1	; select bank1
  5694  008B  083F               	movf	(_count+1)^(0+128),w
  5695  008C  3A80               	xorlw	128
  5696  008D  00F9               	movwf	??_TMR1_ISR_
  5697  008E  3080               	movlw	128
  5698  008F  0279               	subwf	??_TMR1_ISR_,w
  5699  0090  1D03               	skipz
  5700  0091  2894               	goto	u120_25
  5701  0092  3018               	movlw	24
  5702  0093  023E               	subwf	_count^(0+128),w
  5703  0094                     u120_25:
  5704  0094  1C03               	skipc
  5705  0095  2897               	goto	u120_21
  5706  0096  2898               	goto	u120_20
  5707  0097                     u120_21:
  5708  0097  28B4               	goto	i1l2285
  5709  0098                     u120_20:
  5710  0098                     i1l2281:
  5711  0098  0141               	movlb	1	; select bank1
  5712  0099  083F               	movf	(_count+1)^(0+128),w
  5713  009A  3A80               	xorlw	128
  5714  009B  00F9               	movwf	??_TMR1_ISR_
  5715  009C  3080               	movlw	128
  5716  009D  0279               	subwf	??_TMR1_ISR_,w
  5717  009E  1D03               	skipz
  5718  009F  28A2               	goto	u121_25
  5719  00A0  3031               	movlw	49
  5720  00A1  023E               	subwf	_count^(0+128),w
  5721  00A2                     u121_25:
  5722  00A2  1C03               	skipc
  5723  00A3  28A5               	goto	u121_21
  5724  00A4  28A6               	goto	u121_20
  5725  00A5                     u121_21:
  5726  00A5  28F6               	goto	i1l2299
  5727  00A6                     u121_20:
  5728  00A6                     i1l2283:
  5729  00A6  0141               	movlb	1	; select bank1
  5730  00A7  083F               	movf	(_count+1)^(0+128),w
  5731  00A8  3A80               	xorlw	128
  5732  00A9  00F9               	movwf	??_TMR1_ISR_
  5733  00AA  3080               	movlw	128
  5734  00AB  0279               	subwf	??_TMR1_ISR_,w
  5735  00AC  1D03               	skipz
  5736  00AD  28B0               	goto	u122_25
  5737  00AE  3060               	movlw	96
  5738  00AF  023E               	subwf	_count^(0+128),w
  5739  00B0                     u122_25:
  5740  00B0  1803               	skipnc
  5741  00B1  28B3               	goto	u122_21
  5742  00B2  28B4               	goto	u122_20
  5743  00B3                     u122_21:
  5744  00B3  28F6               	goto	i1l2299
  5745  00B4                     u122_20:
  5746  00B4                     i1l2285:
  5747                           
  5748                           ;main.c: 611:         {;main.c: 612:             if (last_note != silent_night[count])
  5749  00B4  30DB               	movlw	219
  5750  00B5  00F9               	movwf	??_TMR1_ISR_
  5751  00B6  3022               	movlw	34
  5752  00B7  00FA               	movwf	??_TMR1_ISR_+1
  5753  00B8  0141               	movlb	1	; select bank1
  5754  00B9  083E               	movf	_count^(0+128),w
  5755  00BA  0779               	addwf	??_TMR1_ISR_,w
  5756  00BB  0086               	movwf	6
  5757  00BC  083F               	movf	(_count+1)^(0+128),w
  5758  00BD  3D7A               	addwfc	??_TMR1_ISR_+1,w
  5759  00BE  0087               	movwf	7
  5760  00BF  0801               	movf	1,w
  5761  00C0  0140               	movlb	0	; select bank0
  5762  00C1  064C               	xorwf	_last_note,w
  5763  00C2  1903               	skipnz
  5764  00C3  28C5               	goto	u123_21
  5765  00C4  28C6               	goto	u123_20
  5766  00C5                     u123_21:
  5767  00C5  2977               	goto	i1l2331
  5768  00C6                     u123_20:
  5769  00C6                     i1l2287:
  5770                           
  5771                           ;main.c: 613:             {;main.c: 614:                 for (int i = 0; i < 7; i++)
  5772  00C6  01BC               	clrf	TMR1_ISR_@i
  5773  00C7  01BD               	clrf	TMR1_ISR_@i+1
  5774  00C8                     i1l2293:
  5775                           
  5776                           ;main.c: 615:                 {;main.c: 616:                     uint8_t lights = light_
      +                          array[i] >> 7;
  5777  00C8  0140               	movlb	0	; select bank0
  5778  00C9  083C               	movf	TMR1_ISR_@i,w
  5779  00CA  3EB7               	addlw	(low (_light_array| 0))& (0+255)
  5780  00CB  0086               	movwf	6
  5781  00CC  0187               	clrf	7
  5782  00CD  0801               	movf	1,w
  5783  00CE  00F9               	movwf	??_TMR1_ISR_
  5784  00CF  3007               	movlw	7
  5785  00D0                     u124_25:
  5786  00D0  36F9               	lsrf	??_TMR1_ISR_,f
  5787  00D1  0B89               	decfsz	9,f
  5788  00D2  28D0               	goto	u124_25
  5789  00D3  0879               	movf	??_TMR1_ISR_,w
  5790  00D4  00FA               	movwf	??_TMR1_ISR_+1
  5791  00D5  087A               	movf	??_TMR1_ISR_+1,w
  5792  00D6  00A0               	movwf	TMR1_ISR_@lights
  5793                           
  5794                           ;main.c: 617:                     light_array[i] = (light_array[i] << 1) + lights;
  5795  00D7  083C               	movf	TMR1_ISR_@i,w
  5796  00D8  3EB7               	addlw	(low (_light_array| 0))& (0+255)
  5797  00D9  0086               	movwf	6
  5798  00DA  0187               	clrf	7
  5799  00DB  3501               	lslf	1,w
  5800  00DC  0720               	addwf	TMR1_ISR_@lights,w
  5801  00DD  00F9               	movwf	??_TMR1_ISR_
  5802  00DE  083C               	movf	TMR1_ISR_@i,w
  5803  00DF  3EB7               	addlw	(low (_light_array| 0))& (0+255)
  5804  00E0  0086               	movwf	6
  5805  00E1  0187               	clrf	7
  5806  00E2  0879               	movf	??_TMR1_ISR_,w
  5807  00E3  0081               	movwf	1
  5808  00E4                     i1l2295:
  5809                           
  5810                           ;main.c: 618:                 }
  5811  00E4  3001               	movlw	1
  5812  00E5  07BC               	addwf	TMR1_ISR_@i,f
  5813  00E6  3000               	movlw	0
  5814  00E7  3DBD               	addwfc	TMR1_ISR_@i+1,f
  5815  00E8                     i1l2297:
  5816  00E8  083D               	movf	TMR1_ISR_@i+1,w
  5817  00E9  3A80               	xorlw	128
  5818  00EA  00F9               	movwf	??_TMR1_ISR_
  5819  00EB  3080               	movlw	128
  5820  00EC  0279               	subwf	??_TMR1_ISR_,w
  5821  00ED  1D03               	skipz
  5822  00EE  28F1               	goto	u125_25
  5823  00EF  3007               	movlw	7
  5824  00F0  023C               	subwf	TMR1_ISR_@i,w
  5825  00F1                     u125_25:
  5826  00F1  1C03               	skipc
  5827  00F2  28F4               	goto	u125_21
  5828  00F3  28F5               	goto	u125_20
  5829  00F4                     u125_21:
  5830  00F4  28C8               	goto	i1l2293
  5831  00F5                     u125_20:
  5832  00F5  2977               	goto	i1l2331
  5833  00F6                     i1l2299:
  5834  00F6  0141               	movlb	1	; select bank1
  5835  00F7  083F               	movf	(_count+1)^(0+128),w
  5836  00F8  3A80               	xorlw	128
  5837  00F9  00F9               	movwf	??_TMR1_ISR_
  5838  00FA  3080               	movlw	128
  5839  00FB  0279               	subwf	??_TMR1_ISR_,w
  5840  00FC  1D03               	skipz
  5841  00FD  2900               	goto	u126_25
  5842  00FE  3078               	movlw	120
  5843  00FF  023E               	subwf	_count^(0+128),w
  5844  0100                     u126_25:
  5845  0100  1C03               	skipc
  5846  0101  2903               	goto	u126_21
  5847  0102  2904               	goto	u126_20
  5848  0103                     u126_21:
  5849  0103  2938               	goto	i1l2315
  5850  0104                     u126_20:
  5851  0104                     i1l2301:
  5852  0104  30DB               	movlw	219
  5853  0105  00F9               	movwf	??_TMR1_ISR_
  5854  0106  3022               	movlw	34
  5855  0107  00FA               	movwf	??_TMR1_ISR_+1
  5856  0108  0141               	movlb	1	; select bank1
  5857  0109  083E               	movf	_count^(0+128),w
  5858  010A  0779               	addwf	??_TMR1_ISR_,w
  5859  010B  0086               	movwf	6
  5860  010C  083F               	movf	(_count+1)^(0+128),w
  5861  010D  3D7A               	addwfc	??_TMR1_ISR_+1,w
  5862  010E  0087               	movwf	7
  5863  010F  0801               	movf	1,w
  5864  0110  0140               	movlb	0	; select bank0
  5865  0111  064C               	xorwf	_last_note,w
  5866  0112  1903               	skipnz
  5867  0113  2915               	goto	u127_21
  5868  0114  2916               	goto	u127_20
  5869  0115                     u127_21:
  5870  0115  2938               	goto	i1l2315
  5871  0116                     u127_20:
  5872  0116                     i1l2303:
  5873                           
  5874                           ;main.c: 622:         {;main.c: 623:             for (int i = 0; i < 7; i++)
  5875  0116  01B8               	clrf	TMR1_ISR_@i_1183
  5876  0117  01B9               	clrf	TMR1_ISR_@i_1183+1
  5877  0118                     i1l2309:
  5878                           
  5879                           ;main.c: 624:             {;main.c: 625:                 light_array[i] = (light_array[i
      +                          ] << 1) + 1;
  5880  0118  0140               	movlb	0	; select bank0
  5881  0119  0838               	movf	TMR1_ISR_@i_1183,w
  5882  011A  3EB7               	addlw	(low (_light_array| 0))& (0+255)
  5883  011B  0086               	movwf	6
  5884  011C  0187               	clrf	7
  5885  011D  1403               	setc
  5886  011E  0D01               	rlf	1,w
  5887  011F  00F9               	movwf	??_TMR1_ISR_
  5888  0120  0838               	movf	TMR1_ISR_@i_1183,w
  5889  0121  3EB7               	addlw	(low (_light_array| 0))& (0+255)
  5890  0122  0086               	movwf	6
  5891  0123  0187               	clrf	7
  5892  0124  0879               	movf	??_TMR1_ISR_,w
  5893  0125  0081               	movwf	1
  5894  0126                     i1l2311:
  5895                           
  5896                           ;main.c: 626:             }
  5897  0126  3001               	movlw	1
  5898  0127  07B8               	addwf	TMR1_ISR_@i_1183,f
  5899  0128  3000               	movlw	0
  5900  0129  3DB9               	addwfc	TMR1_ISR_@i_1183+1,f
  5901  012A                     i1l2313:
  5902  012A  0839               	movf	TMR1_ISR_@i_1183+1,w
  5903  012B  3A80               	xorlw	128
  5904  012C  00F9               	movwf	??_TMR1_ISR_
  5905  012D  3080               	movlw	128
  5906  012E  0279               	subwf	??_TMR1_ISR_,w
  5907  012F  1D03               	skipz
  5908  0130  2933               	goto	u128_25
  5909  0131  3007               	movlw	7
  5910  0132  0238               	subwf	TMR1_ISR_@i_1183,w
  5911  0133                     u128_25:
  5912  0133  1C03               	skipc
  5913  0134  2936               	goto	u128_21
  5914  0135  2937               	goto	u128_20
  5915  0136                     u128_21:
  5916  0136  2918               	goto	i1l2309
  5917  0137                     u128_20:
  5918  0137  2977               	goto	i1l2331
  5919  0138                     i1l2315:
  5920  0138  0141               	movlb	1	; select bank1
  5921  0139  083F               	movf	(_count+1)^(0+128),w
  5922  013A  3A80               	xorlw	128
  5923  013B  00F9               	movwf	??_TMR1_ISR_
  5924  013C  3080               	movlw	128
  5925  013D  0279               	subwf	??_TMR1_ISR_,w
  5926  013E  1D03               	skipz
  5927  013F  2942               	goto	u129_25
  5928  0140  3078               	movlw	120
  5929  0141  023E               	subwf	_count^(0+128),w
  5930  0142                     u129_25:
  5931  0142  1803               	skipnc
  5932  0143  2945               	goto	u129_21
  5933  0144  2946               	goto	u129_20
  5934  0145                     u129_21:
  5935  0145  2977               	goto	i1l586
  5936  0146                     u129_20:
  5937  0146                     i1l2317:
  5938                           
  5939                           ;main.c: 629:         {;main.c: 630:             for (int i = 0; i < 7; i++)
  5940  0146  0140               	movlb	0	; select bank0
  5941  0147  01BE               	clrf	TMR1_ISR_@i_1184
  5942  0148  01BF               	clrf	TMR1_ISR_@i_1184+1
  5943  0149                     i1l2323:
  5944                           
  5945                           ;main.c: 631:             {;main.c: 632:                 uint8_t lights = light_array[i]
      +                           >> 7;
  5946  0149  0140               	movlb	0	; select bank0
  5947  014A  083E               	movf	TMR1_ISR_@i_1184,w
  5948  014B  3EB7               	addlw	(low (_light_array| 0))& (0+255)
  5949  014C  0086               	movwf	6
  5950  014D  0187               	clrf	7
  5951  014E  0801               	movf	1,w
  5952  014F  00F9               	movwf	??_TMR1_ISR_
  5953  0150  3007               	movlw	7
  5954  0151                     u130_25:
  5955  0151  36F9               	lsrf	??_TMR1_ISR_,f
  5956  0152  0B89               	decfsz	9,f
  5957  0153  2951               	goto	u130_25
  5958  0154  0879               	movf	??_TMR1_ISR_,w
  5959  0155  00FA               	movwf	??_TMR1_ISR_+1
  5960  0156  087A               	movf	??_TMR1_ISR_+1,w
  5961  0157  00A1               	movwf	TMR1_ISR_@lights_1185
  5962                           
  5963                           ;main.c: 633:                 light_array[i] = (light_array[i] << 1) + lights;
  5964  0158  083E               	movf	TMR1_ISR_@i_1184,w
  5965  0159  3EB7               	addlw	(low (_light_array| 0))& (0+255)
  5966  015A  0086               	movwf	6
  5967  015B  0187               	clrf	7
  5968  015C  3501               	lslf	1,w
  5969  015D  0721               	addwf	TMR1_ISR_@lights_1185,w
  5970  015E  00F9               	movwf	??_TMR1_ISR_
  5971  015F  083E               	movf	TMR1_ISR_@i_1184,w
  5972  0160  3EB7               	addlw	(low (_light_array| 0))& (0+255)
  5973  0161  0086               	movwf	6
  5974  0162  0187               	clrf	7
  5975  0163  0879               	movf	??_TMR1_ISR_,w
  5976  0164  0081               	movwf	1
  5977  0165                     i1l2325:
  5978                           
  5979                           ;main.c: 634:             }
  5980  0165  3001               	movlw	1
  5981  0166  07BE               	addwf	TMR1_ISR_@i_1184,f
  5982  0167  3000               	movlw	0
  5983  0168  3DBF               	addwfc	TMR1_ISR_@i_1184+1,f
  5984  0169                     i1l2327:
  5985  0169  083F               	movf	TMR1_ISR_@i_1184+1,w
  5986  016A  3A80               	xorlw	128
  5987  016B  00F9               	movwf	??_TMR1_ISR_
  5988  016C  3080               	movlw	128
  5989  016D  0279               	subwf	??_TMR1_ISR_,w
  5990  016E  1D03               	skipz
  5991  016F  2972               	goto	u131_25
  5992  0170  3007               	movlw	7
  5993  0171  023E               	subwf	TMR1_ISR_@i_1184,w
  5994  0172                     u131_25:
  5995  0172  1C03               	skipc
  5996  0173  2975               	goto	u131_21
  5997  0174  2976               	goto	u131_20
  5998  0175                     u131_21:
  5999  0175  2949               	goto	i1l2323
  6000  0176                     u131_20:
  6001  0176  2977               	goto	i1l2331
  6002  0177                     i1l586:	
  6003                           ;main.c: 636:     }
  6004                           
  6005  0177                     i1l2331:
  6006                           
  6007                           ;main.c: 714:     if (song3_playing)
  6008  0177  0140               	movlb	0	; select bank0
  6009  0178  084E               	movf	_song3_playing,w
  6010  0179  1903               	btfsc	3,2
  6011  017A  297C               	goto	u132_21
  6012  017B  297D               	goto	u132_20
  6013  017C                     u132_21:
  6014  017C  2C08               	goto	i1l2517
  6015  017D                     u132_20:
  6016  017D                     i1l2333:
  6017                           
  6018                           ;main.c: 715:     {;main.c: 828:         if (count < 10)
  6019  017D  0141               	movlb	1	; select bank1
  6020  017E  083F               	movf	(_count+1)^(0+128),w
  6021  017F  3A80               	xorlw	128
  6022  0180  00F9               	movwf	??_TMR1_ISR_
  6023  0181  3080               	movlw	128
  6024  0182  0279               	subwf	??_TMR1_ISR_,w
  6025  0183  1D03               	skipz
  6026  0184  2987               	goto	u133_25
  6027  0185  300A               	movlw	10
  6028  0186  023E               	subwf	_count^(0+128),w
  6029  0187                     u133_25:
  6030  0187  1803               	skipnc
  6031  0188  298A               	goto	u133_21
  6032  0189  298B               	goto	u133_20
  6033  018A                     u133_21:
  6034  018A  29A9               	goto	i1l2347
  6035  018B                     u133_20:
  6036  018B                     i1l2335:
  6037                           
  6038                           ;main.c: 829:         {;main.c: 830:            for (int i = 0; i < 7; i++)
  6039  018B  0140               	movlb	0	; select bank0
  6040  018C  01A4               	clrf	TMR1_ISR_@i_1186
  6041  018D  01A5               	clrf	TMR1_ISR_@i_1186+1
  6042  018E                     i1l2341:
  6043                           
  6044                           ;main.c: 831:              {;main.c: 832:                  light_array[i] = 0xF3;
  6045  018E  30F3               	movlw	243
  6046  018F  00F9               	movwf	??_TMR1_ISR_
  6047  0190  0140               	movlb	0	; select bank0
  6048  0191  0824               	movf	TMR1_ISR_@i_1186,w
  6049  0192  3EB7               	addlw	(low (_light_array| 0))& (0+255)
  6050  0193  0086               	movwf	6
  6051  0194  0187               	clrf	7
  6052  0195  0879               	movf	??_TMR1_ISR_,w
  6053  0196  0081               	movwf	1
  6054  0197                     i1l2343:
  6055                           
  6056                           ;main.c: 833:              }
  6057  0197  3001               	movlw	1
  6058  0198  07A4               	addwf	TMR1_ISR_@i_1186,f
  6059  0199  3000               	movlw	0
  6060  019A  3DA5               	addwfc	TMR1_ISR_@i_1186+1,f
  6061  019B                     i1l2345:
  6062  019B  0825               	movf	TMR1_ISR_@i_1186+1,w
  6063  019C  3A80               	xorlw	128
  6064  019D  00F9               	movwf	??_TMR1_ISR_
  6065  019E  3080               	movlw	128
  6066  019F  0279               	subwf	??_TMR1_ISR_,w
  6067  01A0  1D03               	skipz
  6068  01A1  29A4               	goto	u134_25
  6069  01A2  3007               	movlw	7
  6070  01A3  0224               	subwf	TMR1_ISR_@i_1186,w
  6071  01A4                     u134_25:
  6072  01A4  1C03               	skipc
  6073  01A5  29A7               	goto	u134_21
  6074  01A6  29A8               	goto	u134_20
  6075  01A7                     u134_21:
  6076  01A7  298E               	goto	i1l2341
  6077  01A8                     u134_20:
  6078  01A8  2C08               	goto	i1l2517
  6079  01A9                     i1l2347:
  6080  01A9  0141               	movlb	1	; select bank1
  6081  01AA  083F               	movf	(_count+1)^(0+128),w
  6082  01AB  3A80               	xorlw	128
  6083  01AC  00F9               	movwf	??_TMR1_ISR_
  6084  01AD  3080               	movlw	128
  6085  01AE  0279               	subwf	??_TMR1_ISR_,w
  6086  01AF  1D03               	skipz
  6087  01B0  29B3               	goto	u135_25
  6088  01B1  3014               	movlw	20
  6089  01B2  023E               	subwf	_count^(0+128),w
  6090  01B3                     u135_25:
  6091  01B3  1803               	skipnc
  6092  01B4  29B6               	goto	u135_21
  6093  01B5  29B7               	goto	u135_20
  6094  01B6                     u135_21:
  6095  01B6  29D5               	goto	i1l2361
  6096  01B7                     u135_20:
  6097  01B7                     i1l2349:
  6098                           
  6099                           ;main.c: 836:         {;main.c: 837:            for (int i = 0; i < 7; i++)
  6100  01B7  0140               	movlb	0	; select bank0
  6101  01B8  01A6               	clrf	TMR1_ISR_@i_1187
  6102  01B9  01A7               	clrf	TMR1_ISR_@i_1187+1
  6103  01BA                     i1l2355:
  6104                           
  6105                           ;main.c: 838:              {;main.c: 839:                  light_array[i] = 0x0F;
  6106  01BA  300F               	movlw	15
  6107  01BB  00F9               	movwf	??_TMR1_ISR_
  6108  01BC  0140               	movlb	0	; select bank0
  6109  01BD  0826               	movf	TMR1_ISR_@i_1187,w
  6110  01BE  3EB7               	addlw	(low (_light_array| 0))& (0+255)
  6111  01BF  0086               	movwf	6
  6112  01C0  0187               	clrf	7
  6113  01C1  0879               	movf	??_TMR1_ISR_,w
  6114  01C2  0081               	movwf	1
  6115  01C3                     i1l2357:
  6116                           
  6117                           ;main.c: 840:              }
  6118  01C3  3001               	movlw	1
  6119  01C4  07A6               	addwf	TMR1_ISR_@i_1187,f
  6120  01C5  3000               	movlw	0
  6121  01C6  3DA7               	addwfc	TMR1_ISR_@i_1187+1,f
  6122  01C7                     i1l2359:
  6123  01C7  0827               	movf	TMR1_ISR_@i_1187+1,w
  6124  01C8  3A80               	xorlw	128
  6125  01C9  00F9               	movwf	??_TMR1_ISR_
  6126  01CA  3080               	movlw	128
  6127  01CB  0279               	subwf	??_TMR1_ISR_,w
  6128  01CC  1D03               	skipz
  6129  01CD  29D0               	goto	u136_25
  6130  01CE  3007               	movlw	7
  6131  01CF  0226               	subwf	TMR1_ISR_@i_1187,w
  6132  01D0                     u136_25:
  6133  01D0  1C03               	skipc
  6134  01D1  29D3               	goto	u136_21
  6135  01D2  29D4               	goto	u136_20
  6136  01D3                     u136_21:
  6137  01D3  29BA               	goto	i1l2355
  6138  01D4                     u136_20:
  6139  01D4  2C08               	goto	i1l2517
  6140  01D5                     i1l2361:
  6141  01D5  0141               	movlb	1	; select bank1
  6142  01D6  083F               	movf	(_count+1)^(0+128),w
  6143  01D7  3A80               	xorlw	128
  6144  01D8  00F9               	movwf	??_TMR1_ISR_
  6145  01D9  3080               	movlw	128
  6146  01DA  0279               	subwf	??_TMR1_ISR_,w
  6147  01DB  1D03               	skipz
  6148  01DC  29DF               	goto	u137_25
  6149  01DD  301D               	movlw	29
  6150  01DE  023E               	subwf	_count^(0+128),w
  6151  01DF                     u137_25:
  6152  01DF  1803               	skipnc
  6153  01E0  29E2               	goto	u137_21
  6154  01E1  29E3               	goto	u137_20
  6155  01E2                     u137_21:
  6156  01E2  2A01               	goto	i1l2375
  6157  01E3                     u137_20:
  6158  01E3                     i1l2363:
  6159                           
  6160                           ;main.c: 843:         {;main.c: 844:            for (int i = 0; i < 7; i++)
  6161  01E3  0140               	movlb	0	; select bank0
  6162  01E4  01A8               	clrf	TMR1_ISR_@i_1188
  6163  01E5  01A9               	clrf	TMR1_ISR_@i_1188+1
  6164  01E6                     i1l2369:
  6165                           
  6166                           ;main.c: 845:              {;main.c: 846:                  light_array[i] = 0xFC;
  6167  01E6  30FC               	movlw	252
  6168  01E7  00F9               	movwf	??_TMR1_ISR_
  6169  01E8  0140               	movlb	0	; select bank0
  6170  01E9  0828               	movf	TMR1_ISR_@i_1188,w
  6171  01EA  3EB7               	addlw	(low (_light_array| 0))& (0+255)
  6172  01EB  0086               	movwf	6
  6173  01EC  0187               	clrf	7
  6174  01ED  0879               	movf	??_TMR1_ISR_,w
  6175  01EE  0081               	movwf	1
  6176  01EF                     i1l2371:
  6177                           
  6178                           ;main.c: 847:              }
  6179  01EF  3001               	movlw	1
  6180  01F0  07A8               	addwf	TMR1_ISR_@i_1188,f
  6181  01F1  3000               	movlw	0
  6182  01F2  3DA9               	addwfc	TMR1_ISR_@i_1188+1,f
  6183  01F3                     i1l2373:
  6184  01F3  0829               	movf	TMR1_ISR_@i_1188+1,w
  6185  01F4  3A80               	xorlw	128
  6186  01F5  00F9               	movwf	??_TMR1_ISR_
  6187  01F6  3080               	movlw	128
  6188  01F7  0279               	subwf	??_TMR1_ISR_,w
  6189  01F8  1D03               	skipz
  6190  01F9  29FC               	goto	u138_25
  6191  01FA  3007               	movlw	7
  6192  01FB  0228               	subwf	TMR1_ISR_@i_1188,w
  6193  01FC                     u138_25:
  6194  01FC  1C03               	skipc
  6195  01FD  29FF               	goto	u138_21
  6196  01FE  2A00               	goto	u138_20
  6197  01FF                     u138_21:
  6198  01FF  29E6               	goto	i1l2369
  6199  0200                     u138_20:
  6200  0200  2C08               	goto	i1l2517
  6201  0201                     i1l2375:
  6202  0201  301D               	movlw	29
  6203  0202  0141               	movlb	1	; select bank1
  6204  0203  063E               	xorwf	_count^(0+128),w
  6205  0204  043F               	iorwf	(_count+1)^(0+128),w
  6206  0205  1D03               	btfss	3,2
  6207  0206  2A08               	goto	u139_21
  6208  0207  2A09               	goto	u139_20
  6209  0208                     u139_21:
  6210  0208  2A27               	goto	i1l2389
  6211  0209                     u139_20:
  6212  0209                     i1l2377:
  6213                           
  6214                           ;main.c: 850:         {;main.c: 851:            for (int i = 0; i < 7; i++)
  6215  0209  0140               	movlb	0	; select bank0
  6216  020A  01AA               	clrf	TMR1_ISR_@i_1189
  6217  020B  01AB               	clrf	TMR1_ISR_@i_1189+1
  6218  020C                     i1l2383:
  6219                           
  6220                           ;main.c: 852:              {;main.c: 853:                  light_array[i] = 0x7F;
  6221  020C  307F               	movlw	127
  6222  020D  00F9               	movwf	??_TMR1_ISR_
  6223  020E  0140               	movlb	0	; select bank0
  6224  020F  082A               	movf	TMR1_ISR_@i_1189,w
  6225  0210  3EB7               	addlw	(low (_light_array| 0))& (0+255)
  6226  0211  0086               	movwf	6
  6227  0212  0187               	clrf	7
  6228  0213  0879               	movf	??_TMR1_ISR_,w
  6229  0214  0081               	movwf	1
  6230  0215                     i1l2385:
  6231                           
  6232                           ;main.c: 854:              }
  6233  0215  3001               	movlw	1
  6234  0216  07AA               	addwf	TMR1_ISR_@i_1189,f
  6235  0217  3000               	movlw	0
  6236  0218  3DAB               	addwfc	TMR1_ISR_@i_1189+1,f
  6237  0219                     i1l2387:
  6238  0219  082B               	movf	TMR1_ISR_@i_1189+1,w
  6239  021A  3A80               	xorlw	128
  6240  021B  00F9               	movwf	??_TMR1_ISR_
  6241  021C  3080               	movlw	128
  6242  021D  0279               	subwf	??_TMR1_ISR_,w
  6243  021E  1D03               	skipz
  6244  021F  2A22               	goto	u140_25
  6245  0220  3007               	movlw	7
  6246  0221  022A               	subwf	TMR1_ISR_@i_1189,w
  6247  0222                     u140_25:
  6248  0222  1C03               	skipc
  6249  0223  2A25               	goto	u140_21
  6250  0224  2A26               	goto	u140_20
  6251  0225                     u140_21:
  6252  0225  2A0C               	goto	i1l2383
  6253  0226                     u140_20:
  6254  0226  2C08               	goto	i1l2517
  6255  0227                     i1l2389:
  6256  0227  303D               	movlw	61
  6257  0228  00F9               	movwf	??_TMR1_ISR_
  6258  0229  3022               	movlw	34
  6259  022A  00FA               	movwf	??_TMR1_ISR_+1
  6260  022B  083E               	movf	_count^(0+128),w
  6261  022C  0779               	addwf	??_TMR1_ISR_,w
  6262  022D  0086               	movwf	6
  6263  022E  083F               	movf	(_count+1)^(0+128),w
  6264  022F  3D7A               	addwfc	??_TMR1_ISR_+1,w
  6265  0230  0087               	movwf	7
  6266  0231  0801               	movf	1,w
  6267  0232  1D03               	btfss	3,2
  6268  0233  2A35               	goto	u141_21
  6269  0234  2A36               	goto	u141_20
  6270  0235                     u141_21:
  6271  0235  2A55               	goto	i1l2403
  6272  0236                     u141_20:
  6273  0236                     i1l2391:
  6274                           
  6275                           ;main.c: 857:         {;main.c: 858:            for (int i = 0; i < 7; i++)
  6276  0236  0140               	movlb	0	; select bank0
  6277  0237  01AC               	clrf	TMR1_ISR_@i_1190
  6278  0238  01AD               	clrf	TMR1_ISR_@i_1190+1
  6279  0239                     i1l2393:
  6280  0239  082D               	movf	TMR1_ISR_@i_1190+1,w
  6281  023A  3A80               	xorlw	128
  6282  023B  00F9               	movwf	??_TMR1_ISR_
  6283  023C  3080               	movlw	128
  6284  023D  0279               	subwf	??_TMR1_ISR_,w
  6285  023E  1D03               	skipz
  6286  023F  2A42               	goto	u142_25
  6287  0240  3007               	movlw	7
  6288  0241  022C               	subwf	TMR1_ISR_@i_1190,w
  6289  0242                     u142_25:
  6290  0242  1C03               	skipc
  6291  0243  2A45               	goto	u142_21
  6292  0244  2A46               	goto	u142_20
  6293  0245                     u142_21:
  6294  0245  2A47               	goto	i1l2397
  6295  0246                     u142_20:
  6296  0246  2C08               	goto	i1l2517
  6297  0247                     i1l2397:
  6298                           
  6299                           ;main.c: 859:            {;main.c: 860:                 light_array[i] = 0x7F;
  6300  0247  307F               	movlw	127
  6301  0248  00F9               	movwf	??_TMR1_ISR_
  6302  0249  0140               	movlb	0	; select bank0
  6303  024A  082C               	movf	TMR1_ISR_@i_1190,w
  6304  024B  3EB7               	addlw	(low (_light_array| 0))& (0+255)
  6305  024C  0086               	movwf	6
  6306  024D  0187               	clrf	7
  6307  024E  0879               	movf	??_TMR1_ISR_,w
  6308  024F  0081               	movwf	1
  6309  0250                     i1l2399:
  6310                           
  6311                           ;main.c: 861:            }
  6312  0250  3001               	movlw	1
  6313  0251  07AC               	addwf	TMR1_ISR_@i_1190,f
  6314  0252  3000               	movlw	0
  6315  0253  3DAD               	addwfc	TMR1_ISR_@i_1190+1,f
  6316  0254  2A39               	goto	i1l2393
  6317  0255                     i1l2403:
  6318  0255  083F               	movf	(_count+1)^(0+128),w
  6319  0256  3A80               	xorlw	128
  6320  0257  00F9               	movwf	??_TMR1_ISR_
  6321  0258  3080               	movlw	128
  6322  0259  0279               	subwf	??_TMR1_ISR_,w
  6323  025A  1D03               	skipz
  6324  025B  2A5E               	goto	u143_25
  6325  025C  302E               	movlw	46
  6326  025D  023E               	subwf	_count^(0+128),w
  6327  025E                     u143_25:
  6328  025E  1803               	skipnc
  6329  025F  2A61               	goto	u143_21
  6330  0260  2A62               	goto	u143_20
  6331  0261                     u143_21:
  6332  0261  2A96               	goto	i1l2419
  6333  0262                     u143_20:
  6334  0262                     i1l2405:
  6335  0262  303D               	movlw	61
  6336  0263  00F9               	movwf	??_TMR1_ISR_
  6337  0264  3022               	movlw	34
  6338  0265  00FA               	movwf	??_TMR1_ISR_+1
  6339  0266  0141               	movlb	1	; select bank1
  6340  0267  083E               	movf	_count^(0+128),w
  6341  0268  0779               	addwf	??_TMR1_ISR_,w
  6342  0269  0086               	movwf	6
  6343  026A  083F               	movf	(_count+1)^(0+128),w
  6344  026B  3D7A               	addwfc	??_TMR1_ISR_+1,w
  6345  026C  0087               	movwf	7
  6346  026D  0801               	movf	1,w
  6347  026E  0140               	movlb	0	; select bank0
  6348  026F  064C               	xorwf	_last_note,w
  6349  0270  1903               	skipnz
  6350  0271  2A73               	goto	u144_21
  6351  0272  2A74               	goto	u144_20
  6352  0273                     u144_21:
  6353  0273  2A96               	goto	i1l2419
  6354  0274                     u144_20:
  6355  0274                     i1l2407:
  6356                           
  6357                           ;main.c: 864:        {;main.c: 865:            for (int i = 0; i < 7; i++)
  6358  0274  01BA               	clrf	TMR1_ISR_@i_1191
  6359  0275  01BB               	clrf	TMR1_ISR_@i_1191+1
  6360  0276                     i1l2409:
  6361  0276  083B               	movf	TMR1_ISR_@i_1191+1,w
  6362  0277  3A80               	xorlw	128
  6363  0278  00F9               	movwf	??_TMR1_ISR_
  6364  0279  3080               	movlw	128
  6365  027A  0279               	subwf	??_TMR1_ISR_,w
  6366  027B  1D03               	skipz
  6367  027C  2A7F               	goto	u145_25
  6368  027D  3007               	movlw	7
  6369  027E  023A               	subwf	TMR1_ISR_@i_1191,w
  6370  027F                     u145_25:
  6371  027F  1C03               	skipc
  6372  0280  2A82               	goto	u145_21
  6373  0281  2A83               	goto	u145_20
  6374  0282                     u145_21:
  6375  0282  2A84               	goto	i1l2413
  6376  0283                     u145_20:
  6377  0283  2C08               	goto	i1l2517
  6378  0284                     i1l2413:
  6379                           
  6380                           ;main.c: 866:            {;main.c: 867:                 light_array[i] = light_array[i] 
      +                          >> 1;
  6381  0284  0140               	movlb	0	; select bank0
  6382  0285  083A               	movf	TMR1_ISR_@i_1191,w
  6383  0286  3EB7               	addlw	(low (_light_array| 0))& (0+255)
  6384  0287  0086               	movwf	6
  6385  0288  0187               	clrf	7
  6386  0289  3601               	lsrf	1,w
  6387  028A  00F9               	movwf	??_TMR1_ISR_
  6388  028B  083A               	movf	TMR1_ISR_@i_1191,w
  6389  028C  3EB7               	addlw	(low (_light_array| 0))& (0+255)
  6390  028D  0086               	movwf	6
  6391  028E  0187               	clrf	7
  6392  028F  0879               	movf	??_TMR1_ISR_,w
  6393  0290  0081               	movwf	1
  6394  0291                     i1l2415:
  6395                           
  6396                           ;main.c: 868:            }
  6397  0291  3001               	movlw	1
  6398  0292  07BA               	addwf	TMR1_ISR_@i_1191,f
  6399  0293  3000               	movlw	0
  6400  0294  3DBB               	addwfc	TMR1_ISR_@i_1191+1,f
  6401  0295  2A76               	goto	i1l2409
  6402  0296                     i1l2419:
  6403  0296  0141               	movlb	1	; select bank1
  6404  0297  083F               	movf	(_count+1)^(0+128),w
  6405  0298  3A80               	xorlw	128
  6406  0299  00F9               	movwf	??_TMR1_ISR_
  6407  029A  3080               	movlw	128
  6408  029B  0279               	subwf	??_TMR1_ISR_,w
  6409  029C  1D03               	skipz
  6410  029D  2AA0               	goto	u146_25
  6411  029E  303E               	movlw	62
  6412  029F  023E               	subwf	_count^(0+128),w
  6413  02A0                     u146_25:
  6414  02A0  1803               	skipnc
  6415  02A1  2AA3               	goto	u146_21
  6416  02A2  2AA4               	goto	u146_20
  6417  02A3                     u146_21:
  6418  02A3  2ACE               	goto	i1l2435
  6419  02A4                     u146_20:
  6420  02A4                     i1l2421:
  6421  02A4  0141               	movlb	1	; select bank1
  6422  02A5  083F               	movf	(_count+1)^(0+128),w
  6423  02A6  3A80               	xorlw	128
  6424  02A7  00F9               	movwf	??_TMR1_ISR_
  6425  02A8  3080               	movlw	128
  6426  02A9  0279               	subwf	??_TMR1_ISR_,w
  6427  02AA  1D03               	skipz
  6428  02AB  2AAE               	goto	u147_25
  6429  02AC  302E               	movlw	46
  6430  02AD  023E               	subwf	_count^(0+128),w
  6431  02AE                     u147_25:
  6432  02AE  1C03               	skipc
  6433  02AF  2AB1               	goto	u147_21
  6434  02B0  2AB2               	goto	u147_20
  6435  02B1                     u147_21:
  6436  02B1  2ACE               	goto	i1l2435
  6437  02B2                     u147_20:
  6438  02B2                     i1l2423:
  6439                           
  6440                           ;main.c: 871:         {;main.c: 872:            for (int i = 0; i < 7; i++)
  6441  02B2  0140               	movlb	0	; select bank0
  6442  02B3  01AE               	clrf	TMR1_ISR_@i_1192
  6443  02B4  01AF               	clrf	TMR1_ISR_@i_1192+1
  6444  02B5                     i1l2425:
  6445  02B5  082F               	movf	TMR1_ISR_@i_1192+1,w
  6446  02B6  3A80               	xorlw	128
  6447  02B7  00F9               	movwf	??_TMR1_ISR_
  6448  02B8  3080               	movlw	128
  6449  02B9  0279               	subwf	??_TMR1_ISR_,w
  6450  02BA  1D03               	skipz
  6451  02BB  2ABE               	goto	u148_25
  6452  02BC  3007               	movlw	7
  6453  02BD  022E               	subwf	TMR1_ISR_@i_1192,w
  6454  02BE                     u148_25:
  6455  02BE  1C03               	skipc
  6456  02BF  2AC1               	goto	u148_21
  6457  02C0  2AC2               	goto	u148_20
  6458  02C1                     u148_21:
  6459  02C1  2AC3               	goto	i1l2429
  6460  02C2                     u148_20:
  6461  02C2  2C08               	goto	i1l2517
  6462  02C3                     i1l2429:
  6463                           
  6464                           ;main.c: 873:            {;main.c: 874:                 light_array[i] = 0x00;
  6465  02C3  0140               	movlb	0	; select bank0
  6466  02C4  082E               	movf	TMR1_ISR_@i_1192,w
  6467  02C5  3EB7               	addlw	(low (_light_array| 0))& (0+255)
  6468  02C6  0086               	movwf	6
  6469  02C7  0187               	clrf	7
  6470  02C8  0181               	clrf	1
  6471  02C9                     i1l2431:
  6472                           
  6473                           ;main.c: 875:            }
  6474  02C9  3001               	movlw	1
  6475  02CA  07AE               	addwf	TMR1_ISR_@i_1192,f
  6476  02CB  3000               	movlw	0
  6477  02CC  3DAF               	addwfc	TMR1_ISR_@i_1192+1,f
  6478  02CD  2AB5               	goto	i1l2425
  6479  02CE                     i1l2435:
  6480  02CE  0141               	movlb	1	; select bank1
  6481  02CF  083F               	movf	(_count+1)^(0+128),w
  6482  02D0  3A80               	xorlw	128
  6483  02D1  00F9               	movwf	??_TMR1_ISR_
  6484  02D2  3080               	movlw	128
  6485  02D3  0279               	subwf	??_TMR1_ISR_,w
  6486  02D4  1D03               	skipz
  6487  02D5  2AD8               	goto	u149_25
  6488  02D6  303E               	movlw	62
  6489  02D7  023E               	subwf	_count^(0+128),w
  6490  02D8                     u149_25:
  6491  02D8  1C03               	skipc
  6492  02D9  2ADB               	goto	u149_21
  6493  02DA  2ADC               	goto	u149_20
  6494  02DB                     u149_21:
  6495  02DB  2C08               	goto	i1l2517
  6496  02DC                     u149_20:
  6497  02DC                     i1l2437:
  6498                           
  6499                           ;main.c: 878:        {;main.c: 879:            jungle_count++;
  6500  02DC  3001               	movlw	1
  6501  02DD  00F9               	movwf	??_TMR1_ISR_
  6502  02DE  0879               	movf	??_TMR1_ISR_,w
  6503  02DF  0140               	movlb	0	; select bank0
  6504  02E0  07CA               	addwf	_jungle_count,f
  6505                           
  6506                           ;main.c: 880:            if (jungle_count == 1)
  6507  02E1  034A               	decf	_jungle_count,w
  6508  02E2  1D03               	btfss	3,2
  6509  02E3  2AE5               	goto	u150_21
  6510  02E4  2AE6               	goto	u150_20
  6511  02E5                     u150_21:
  6512  02E5  2B04               	goto	i1l2441
  6513  02E6                     u150_20:
  6514  02E6                     i1l2439:
  6515                           
  6516                           ;main.c: 881:            {;main.c: 882:                 light_array[0] = 0x88;
  6517  02E6  3088               	movlw	136
  6518  02E7  00F9               	movwf	??_TMR1_ISR_
  6519  02E8  0879               	movf	??_TMR1_ISR_,w
  6520  02E9  0141               	movlb	1	; select bank1
  6521  02EA  00B7               	movwf	_light_array^(0+128)
  6522                           
  6523                           ;main.c: 883:                 light_array[1] = 0x44;
  6524  02EB  3044               	movlw	68
  6525  02EC  00F9               	movwf	??_TMR1_ISR_
  6526  02ED  0879               	movf	??_TMR1_ISR_,w
  6527  02EE  00B8               	movwf	(_light_array^(0+128)+1)
  6528                           
  6529                           ;main.c: 884:                 light_array[2] = 0x22;
  6530  02EF  3022               	movlw	34
  6531  02F0  00F9               	movwf	??_TMR1_ISR_
  6532  02F1  0879               	movf	??_TMR1_ISR_,w
  6533  02F2  00B9               	movwf	(_light_array^(0+128)+2)
  6534                           
  6535                           ;main.c: 885:                 light_array[3] = 0x11;
  6536  02F3  3011               	movlw	17
  6537  02F4  00F9               	movwf	??_TMR1_ISR_
  6538  02F5  0879               	movf	??_TMR1_ISR_,w
  6539  02F6  00BA               	movwf	(_light_array^(0+128)+3)
  6540                           
  6541                           ;main.c: 886:                 light_array[4] = 0x88;
  6542  02F7  3088               	movlw	136
  6543  02F8  00F9               	movwf	??_TMR1_ISR_
  6544  02F9  0879               	movf	??_TMR1_ISR_,w
  6545  02FA  00BB               	movwf	(_light_array^(0+128)+4)
  6546                           
  6547                           ;main.c: 887:                 light_array[5] = 0x44;
  6548  02FB  3044               	movlw	68
  6549  02FC  00F9               	movwf	??_TMR1_ISR_
  6550  02FD  0879               	movf	??_TMR1_ISR_,w
  6551  02FE  00BC               	movwf	(_light_array^(0+128)+5)
  6552                           
  6553                           ;main.c: 888:                 light_array[6] = 0x22;
  6554  02FF  3022               	movlw	34
  6555  0300  00F9               	movwf	??_TMR1_ISR_
  6556  0301  0879               	movf	??_TMR1_ISR_,w
  6557  0302  00BD               	movwf	(_light_array^(0+128)+6)
  6558                           
  6559                           ;main.c: 889:            }
  6560  0303  2C08               	goto	i1l2517
  6561  0304                     i1l2441:
  6562  0304  3009               	movlw	9
  6563  0305  024A               	subwf	_jungle_count,w
  6564  0306  1803               	skipnc
  6565  0307  2B09               	goto	u151_21
  6566  0308  2B0A               	goto	u151_20
  6567  0309                     u151_21:
  6568  0309  2B4D               	goto	i1l2457
  6569  030A                     u151_20:
  6570  030A                     i1l2443:
  6571                           
  6572                           ;main.c: 891:            {;main.c: 892:                if (last_note != song3[count])
  6573  030A  303D               	movlw	61
  6574  030B  00F9               	movwf	??_TMR1_ISR_
  6575  030C  3022               	movlw	34
  6576  030D  00FA               	movwf	??_TMR1_ISR_+1
  6577  030E  0141               	movlb	1	; select bank1
  6578  030F  083E               	movf	_count^(0+128),w
  6579  0310  0779               	addwf	??_TMR1_ISR_,w
  6580  0311  0086               	movwf	6
  6581  0312  083F               	movf	(_count+1)^(0+128),w
  6582  0313  3D7A               	addwfc	??_TMR1_ISR_+1,w
  6583  0314  0087               	movwf	7
  6584  0315  0801               	movf	1,w
  6585  0316  0140               	movlb	0	; select bank0
  6586  0317  064C               	xorwf	_last_note,w
  6587  0318  1903               	skipnz
  6588  0319  2B1B               	goto	u152_21
  6589  031A  2B1C               	goto	u152_20
  6590  031B                     u152_21:
  6591  031B  2C08               	goto	i1l2517
  6592  031C                     u152_20:
  6593  031C                     i1l2445:
  6594                           
  6595                           ;main.c: 893:                {;main.c: 894:                     for (int i = 0; i < 7; i
      +                          ++)
  6596  031C  01C0               	clrf	TMR1_ISR_@i_1193
  6597  031D  01C1               	clrf	TMR1_ISR_@i_1193+1
  6598  031E                     i1l2447:
  6599  031E  0841               	movf	TMR1_ISR_@i_1193+1,w
  6600  031F  3A80               	xorlw	128
  6601  0320  00F9               	movwf	??_TMR1_ISR_
  6602  0321  3080               	movlw	128
  6603  0322  0279               	subwf	??_TMR1_ISR_,w
  6604  0323  1D03               	skipz
  6605  0324  2B27               	goto	u153_25
  6606  0325  3007               	movlw	7
  6607  0326  0240               	subwf	TMR1_ISR_@i_1193,w
  6608  0327                     u153_25:
  6609  0327  1C03               	skipc
  6610  0328  2B2A               	goto	u153_21
  6611  0329  2B2B               	goto	u153_20
  6612  032A                     u153_21:
  6613  032A  2B2C               	goto	i1l2451
  6614  032B                     u153_20:
  6615  032B  2C08               	goto	i1l2517
  6616  032C                     i1l2451:
  6617                           
  6618                           ;main.c: 895:                     {;main.c: 896:                         uint8_t lights 
      +                          = light_array[i] >> 7;
  6619  032C  0140               	movlb	0	; select bank0
  6620  032D  0840               	movf	TMR1_ISR_@i_1193,w
  6621  032E  3EB7               	addlw	(low (_light_array| 0))& (0+255)
  6622  032F  0086               	movwf	6
  6623  0330  0187               	clrf	7
  6624  0331  0801               	movf	1,w
  6625  0332  00F9               	movwf	??_TMR1_ISR_
  6626  0333  3007               	movlw	7
  6627  0334                     u154_25:
  6628  0334  36F9               	lsrf	??_TMR1_ISR_,f
  6629  0335  0B89               	decfsz	9,f
  6630  0336  2B34               	goto	u154_25
  6631  0337  0879               	movf	??_TMR1_ISR_,w
  6632  0338  00FA               	movwf	??_TMR1_ISR_+1
  6633  0339  087A               	movf	??_TMR1_ISR_+1,w
  6634  033A  00A2               	movwf	TMR1_ISR_@lights_1194
  6635                           
  6636                           ;main.c: 897:                         light_array[i] = (light_array[i] << 1) + lights;
  6637  033B  0840               	movf	TMR1_ISR_@i_1193,w
  6638  033C  3EB7               	addlw	(low (_light_array| 0))& (0+255)
  6639  033D  0086               	movwf	6
  6640  033E  0187               	clrf	7
  6641  033F  3501               	lslf	1,w
  6642  0340  0722               	addwf	TMR1_ISR_@lights_1194,w
  6643  0341  00F9               	movwf	??_TMR1_ISR_
  6644  0342  0840               	movf	TMR1_ISR_@i_1193,w
  6645  0343  3EB7               	addlw	(low (_light_array| 0))& (0+255)
  6646  0344  0086               	movwf	6
  6647  0345  0187               	clrf	7
  6648  0346  0879               	movf	??_TMR1_ISR_,w
  6649  0347  0081               	movwf	1
  6650  0348                     i1l2453:
  6651                           
  6652                           ;main.c: 898:                     }
  6653  0348  3001               	movlw	1
  6654  0349  07C0               	addwf	TMR1_ISR_@i_1193,f
  6655  034A  3000               	movlw	0
  6656  034B  3DC1               	addwfc	TMR1_ISR_@i_1193+1,f
  6657  034C  2B1E               	goto	i1l2447
  6658  034D                     i1l2457:
  6659  034D  3010               	movlw	16
  6660  034E  024A               	subwf	_jungle_count,w
  6661  034F  1803               	skipnc
  6662  0350  2B52               	goto	u155_21
  6663  0351  2B53               	goto	u155_20
  6664  0352                     u155_21:
  6665  0352  2C07               	goto	i1l2515
  6666  0353                     u155_20:
  6667  0353                     i1l2459:
  6668                           
  6669                           ;main.c: 902:            {;main.c: 903:                if (last_note != song3[count])
  6670  0353  303D               	movlw	61
  6671  0354  00F9               	movwf	??_TMR1_ISR_
  6672  0355  3022               	movlw	34
  6673  0356  00FA               	movwf	??_TMR1_ISR_+1
  6674  0357  0141               	movlb	1	; select bank1
  6675  0358  083E               	movf	_count^(0+128),w
  6676  0359  0779               	addwf	??_TMR1_ISR_,w
  6677  035A  0086               	movwf	6
  6678  035B  083F               	movf	(_count+1)^(0+128),w
  6679  035C  3D7A               	addwfc	??_TMR1_ISR_+1,w
  6680  035D  0087               	movwf	7
  6681  035E  0801               	movf	1,w
  6682  035F  0140               	movlb	0	; select bank0
  6683  0360  064C               	xorwf	_last_note,w
  6684  0361  1903               	skipnz
  6685  0362  2B64               	goto	u156_21
  6686  0363  2B65               	goto	u156_20
  6687  0364                     u156_21:
  6688  0364  2C08               	goto	i1l2517
  6689  0365                     u156_20:
  6690  0365                     i1l2461:
  6691                           
  6692                           ;main.c: 904:                {;main.c: 905:                    uint8_t jungle_sw = (jung
      +                          le_count - 8)/2;
  6693  0365  3002               	movlw	2
  6694  0366  00F0               	movwf	___awdiv@divisor
  6695  0367  3000               	movlw	0
  6696  0368  00F1               	movwf	___awdiv@divisor+1
  6697  0369  084A               	movf	_jungle_count,w
  6698  036A  3EF8               	addlw	248
  6699  036B  00F2               	movwf	___awdiv@dividend
  6700  036C  30FF               	movlw	255
  6701  036D  1803               	skipnc
  6702  036E  3000               	movlw	0
  6703  036F  00F3               	movwf	___awdiv@dividend+1
  6704  0370  3186  26BB  3180   	fcall	___awdiv
  6705  0373  0870               	movf	?___awdiv,w
  6706  0374  00F9               	movwf	??_TMR1_ISR_
  6707  0375  0879               	movf	??_TMR1_ISR_,w
  6708  0376  0140               	movlb	0	; select bank0
  6709  0377  00A3               	movwf	TMR1_ISR_@jungle_sw
  6710                           
  6711                           ;main.c: 906:                    switch (jungle_sw)
  6712  0378  2BF1               	goto	i1l2513
  6713  0379                     i1l2463:
  6714                           
  6715                           ;main.c: 909:                             for (int i = 0; i < 7; i++)
  6716  0379  01B0               	clrf	TMR1_ISR_@i_1196
  6717  037A  01B1               	clrf	TMR1_ISR_@i_1196+1
  6718  037B                     i1l2465:
  6719  037B  0831               	movf	TMR1_ISR_@i_1196+1,w
  6720  037C  3A80               	xorlw	128
  6721  037D  00F9               	movwf	??_TMR1_ISR_
  6722  037E  3080               	movlw	128
  6723  037F  0279               	subwf	??_TMR1_ISR_,w
  6724  0380  1D03               	skipz
  6725  0381  2B84               	goto	u157_25
  6726  0382  3007               	movlw	7
  6727  0383  0230               	subwf	TMR1_ISR_@i_1196,w
  6728  0384                     u157_25:
  6729  0384  1C03               	skipc
  6730  0385  2B87               	goto	u157_21
  6731  0386  2B88               	goto	u157_20
  6732  0387                     u157_21:
  6733  0387  2B89               	goto	i1l2469
  6734  0388                     u157_20:
  6735  0388  2C08               	goto	i1l2517
  6736  0389                     i1l2469:
  6737                           
  6738                           ;main.c: 910:                             {;main.c: 911:                                
      +                           light_array[i] = 0x81;
  6739  0389  3081               	movlw	129
  6740  038A  00F9               	movwf	??_TMR1_ISR_
  6741  038B  0140               	movlb	0	; select bank0
  6742  038C  0830               	movf	TMR1_ISR_@i_1196,w
  6743  038D  3EB7               	addlw	(low (_light_array| 0))& (0+255)
  6744  038E  0086               	movwf	6
  6745  038F  0187               	clrf	7
  6746  0390  0879               	movf	??_TMR1_ISR_,w
  6747  0391  0081               	movwf	1
  6748  0392                     i1l2471:
  6749                           
  6750                           ;main.c: 912:                             }
  6751  0392  3001               	movlw	1
  6752  0393  07B0               	addwf	TMR1_ISR_@i_1196,f
  6753  0394  3000               	movlw	0
  6754  0395  3DB1               	addwfc	TMR1_ISR_@i_1196+1,f
  6755  0396  2B7B               	goto	i1l2465
  6756  0397                     i1l2475:
  6757                           
  6758                           ;main.c: 915:                             for (int i = 0; i < 7; i++)
  6759  0397  01B2               	clrf	TMR1_ISR_@i_1197
  6760  0398  01B3               	clrf	TMR1_ISR_@i_1197+1
  6761  0399                     i1l2477:
  6762  0399  0833               	movf	TMR1_ISR_@i_1197+1,w
  6763  039A  3A80               	xorlw	128
  6764  039B  00F9               	movwf	??_TMR1_ISR_
  6765  039C  3080               	movlw	128
  6766  039D  0279               	subwf	??_TMR1_ISR_,w
  6767  039E  1D03               	skipz
  6768  039F  2BA2               	goto	u158_25
  6769  03A0  3007               	movlw	7
  6770  03A1  0232               	subwf	TMR1_ISR_@i_1197,w
  6771  03A2                     u158_25:
  6772  03A2  1C03               	skipc
  6773  03A3  2BA5               	goto	u158_21
  6774  03A4  2BA6               	goto	u158_20
  6775  03A5                     u158_21:
  6776  03A5  2BA7               	goto	i1l2481
  6777  03A6                     u158_20:
  6778  03A6  2C08               	goto	i1l2517
  6779  03A7                     i1l2481:
  6780                           
  6781                           ;main.c: 916:                             {;main.c: 917:                                
      +                           light_array[i] = 0xC3;
  6782  03A7  30C3               	movlw	195
  6783  03A8  00F9               	movwf	??_TMR1_ISR_
  6784  03A9  0140               	movlb	0	; select bank0
  6785  03AA  0832               	movf	TMR1_ISR_@i_1197,w
  6786  03AB  3EB7               	addlw	(low (_light_array| 0))& (0+255)
  6787  03AC  0086               	movwf	6
  6788  03AD  0187               	clrf	7
  6789  03AE  0879               	movf	??_TMR1_ISR_,w
  6790  03AF  0081               	movwf	1
  6791  03B0                     i1l2483:
  6792                           
  6793                           ;main.c: 918:                             }
  6794  03B0  3001               	movlw	1
  6795  03B1  07B2               	addwf	TMR1_ISR_@i_1197,f
  6796  03B2  3000               	movlw	0
  6797  03B3  3DB3               	addwfc	TMR1_ISR_@i_1197+1,f
  6798  03B4  2B99               	goto	i1l2477
  6799  03B5                     i1l2487:
  6800                           
  6801                           ;main.c: 921:                             for (int i = 0; i < 7; i++)
  6802  03B5  01B4               	clrf	TMR1_ISR_@i_1198
  6803  03B6  01B5               	clrf	TMR1_ISR_@i_1198+1
  6804  03B7                     i1l2489:
  6805  03B7  0835               	movf	TMR1_ISR_@i_1198+1,w
  6806  03B8  3A80               	xorlw	128
  6807  03B9  00F9               	movwf	??_TMR1_ISR_
  6808  03BA  3080               	movlw	128
  6809  03BB  0279               	subwf	??_TMR1_ISR_,w
  6810  03BC  1D03               	skipz
  6811  03BD  2BC0               	goto	u159_25
  6812  03BE  3007               	movlw	7
  6813  03BF  0234               	subwf	TMR1_ISR_@i_1198,w
  6814  03C0                     u159_25:
  6815  03C0  1C03               	skipc
  6816  03C1  2BC3               	goto	u159_21
  6817  03C2  2BC4               	goto	u159_20
  6818  03C3                     u159_21:
  6819  03C3  2BC5               	goto	i1l2493
  6820  03C4                     u159_20:
  6821  03C4  2C08               	goto	i1l2517
  6822  03C5                     i1l2493:
  6823                           
  6824                           ;main.c: 922:                             {;main.c: 923:                                
      +                           light_array[i] = 0xE7;
  6825  03C5  30E7               	movlw	231
  6826  03C6  00F9               	movwf	??_TMR1_ISR_
  6827  03C7  0140               	movlb	0	; select bank0
  6828  03C8  0834               	movf	TMR1_ISR_@i_1198,w
  6829  03C9  3EB7               	addlw	(low (_light_array| 0))& (0+255)
  6830  03CA  0086               	movwf	6
  6831  03CB  0187               	clrf	7
  6832  03CC  0879               	movf	??_TMR1_ISR_,w
  6833  03CD  0081               	movwf	1
  6834  03CE                     i1l2495:
  6835                           
  6836                           ;main.c: 924:                             }
  6837  03CE  3001               	movlw	1
  6838  03CF  07B4               	addwf	TMR1_ISR_@i_1198,f
  6839  03D0  3000               	movlw	0
  6840  03D1  3DB5               	addwfc	TMR1_ISR_@i_1198+1,f
  6841  03D2  2BB7               	goto	i1l2489
  6842  03D3                     i1l2499:
  6843                           
  6844                           ;main.c: 927:                             for (int i = 0; i < 7; i++)
  6845  03D3  01B6               	clrf	TMR1_ISR_@i_1199
  6846  03D4  01B7               	clrf	TMR1_ISR_@i_1199+1
  6847  03D5                     i1l2501:
  6848  03D5  0837               	movf	TMR1_ISR_@i_1199+1,w
  6849  03D6  3A80               	xorlw	128
  6850  03D7  00F9               	movwf	??_TMR1_ISR_
  6851  03D8  3080               	movlw	128
  6852  03D9  0279               	subwf	??_TMR1_ISR_,w
  6853  03DA  1D03               	skipz
  6854  03DB  2BDE               	goto	u160_25
  6855  03DC  3007               	movlw	7
  6856  03DD  0236               	subwf	TMR1_ISR_@i_1199,w
  6857  03DE                     u160_25:
  6858  03DE  1C03               	skipc
  6859  03DF  2BE1               	goto	u160_21
  6860  03E0  2BE2               	goto	u160_20
  6861  03E1                     u160_21:
  6862  03E1  2BE3               	goto	i1l2505
  6863  03E2                     u160_20:
  6864  03E2  2C08               	goto	i1l2517
  6865  03E3                     i1l2505:
  6866                           
  6867                           ;main.c: 928:                             {;main.c: 929:                                
      +                           light_array[i] = 0xFF;
  6868  03E3  30FF               	movlw	255
  6869  03E4  00F9               	movwf	??_TMR1_ISR_
  6870  03E5  0140               	movlb	0	; select bank0
  6871  03E6  0836               	movf	TMR1_ISR_@i_1199,w
  6872  03E7  3EB7               	addlw	(low (_light_array| 0))& (0+255)
  6873  03E8  0086               	movwf	6
  6874  03E9  0187               	clrf	7
  6875  03EA  0879               	movf	??_TMR1_ISR_,w
  6876  03EB  0081               	movwf	1
  6877  03EC                     i1l2507:
  6878                           
  6879                           ;main.c: 930:                             }
  6880  03EC  3001               	movlw	1
  6881  03ED  07B6               	addwf	TMR1_ISR_@i_1199,f
  6882  03EE  3000               	movlw	0
  6883  03EF  3DB7               	addwfc	TMR1_ISR_@i_1199+1,f
  6884  03F0  2BD5               	goto	i1l2501
  6885  03F1                     i1l2513:
  6886  03F1  0823               	movf	TMR1_ISR_@jungle_sw,w
  6887  03F2  00F9               	movwf	??_TMR1_ISR_
  6888  03F3  01FA               	clrf	??_TMR1_ISR_+1
  6889                           
  6890                           ; Switch on 2 bytes has been partitioned into a top level switch of size 1, and 1 sub-sw
      +                          itches
  6891                           ; Switch size 1, requested type "simple"
  6892                           ; Number of cases is 1, Range of values is 0 to 0
  6893                           ; switch strategies available:
  6894                           ; Name         Instructions Cycles
  6895                           ; simple_byte            4     3 (average)
  6896                           ; direct_byte            8     6 (fixed)
  6897                           ; jumptable            260     6 (fixed)
  6898                           ;	Chosen strategy is simple_byte
  6899  03F4  087A               	movf	??_TMR1_ISR_+1,w
  6900  03F5  3A00               	xorlw	0	; case 0
  6901  03F6  1903               	skipnz
  6902  03F7  2BF9               	goto	i1l3193
  6903  03F8  2C08               	goto	i1l2517
  6904  03F9                     i1l3193:
  6905                           
  6906                           ; Switch size 1, requested type "simple"
  6907                           ; Number of cases is 4, Range of values is 0 to 3
  6908                           ; switch strategies available:
  6909                           ; Name         Instructions Cycles
  6910                           ; simple_byte           13     7 (average)
  6911                           ; direct_byte           14     6 (fixed)
  6912                           ; jumptable            260     6 (fixed)
  6913                           ;	Chosen strategy is simple_byte
  6914  03F9  0879               	movf	??_TMR1_ISR_,w
  6915  03FA  3A00               	xorlw	0	; case 0
  6916  03FB  1903               	skipnz
  6917  03FC  2B79               	goto	i1l2463
  6918  03FD  3A01               	xorlw	1	; case 1
  6919  03FE  1903               	skipnz
  6920  03FF  2B97               	goto	i1l2475
  6921  0400  3A03               	xorlw	3	; case 2
  6922  0401  1903               	skipnz
  6923  0402  2BB5               	goto	i1l2487
  6924  0403  3A01               	xorlw	1	; case 3
  6925  0404  1903               	skipnz
  6926  0405  2BD3               	goto	i1l2499
  6927  0406  2C08               	goto	i1l2517
  6928  0407                     i1l2515:
  6929                           
  6930                           ;main.c: 936:            {;main.c: 937:                jungle_count = 0;
  6931  0407  01CA               	clrf	_jungle_count
  6932  0408                     i1l2517:
  6933                           
  6934                           ;main.c: 948:     if (song2_playing)
  6935  0408  0140               	movlb	0	; select bank0
  6936  0409  084D               	movf	_song2_playing,w
  6937  040A  1903               	btfsc	3,2
  6938  040B  2C0D               	goto	u161_21
  6939  040C  2C0E               	goto	u161_20
  6940  040D                     u161_21:
  6941  040D  2C1B               	goto	i1l2525
  6942  040E                     u161_20:
  6943  040E                     i1l2519:
  6944                           
  6945                           ;main.c: 949:     {;main.c: 951:         playNote(0, 0);
  6946  040E  01F0               	clrf	i1playNote@prescale
  6947  040F  3000               	movlw	0
  6948  0410  318E  2600  3180   	fcall	i1_playNote
  6949  0413                     i1l2521:
  6950                           
  6951                           ;main.c: 953:         TMR1H = timer_high_2;
  6952  0413  0140               	movlb	0	; select bank0
  6953  0414  0855               	movf	_timer_high_2,w
  6954  0415  0144               	movlb	4	; select bank4
  6955  0416  008D               	movwf	13	;volatile
  6956  0417                     i1l2523:
  6957                           
  6958                           ;main.c: 954:         TMR1L = timer_low_2;
  6959  0417  0140               	movlb	0	; select bank0
  6960  0418  0854               	movf	_timer_low_2,w
  6961  0419  0144               	movlb	4	; select bank4
  6962  041A  008C               	movwf	12	;volatile
  6963  041B                     i1l2525:
  6964                           
  6965                           ;main.c: 958:     if (song3_playing)
  6966  041B  0140               	movlb	0	; select bank0
  6967  041C  084E               	movf	_song3_playing,w
  6968  041D  1903               	btfsc	3,2
  6969  041E  2C20               	goto	u162_21
  6970  041F  2C21               	goto	u162_20
  6971  0420                     u162_21:
  6972  0420  2C28               	goto	i1l657
  6973  0421                     u162_20:
  6974  0421                     i1l2527:
  6975                           
  6976                           ;main.c: 959:     {;main.c: 960:         TMR1H = timer_high_3;
  6977  0421  0852               	movf	_timer_high_3,w
  6978  0422  0144               	movlb	4	; select bank4
  6979  0423  008D               	movwf	13	;volatile
  6980                           
  6981                           ;main.c: 961:         TMR1L = timer_low_3;
  6982  0424  0140               	movlb	0	; select bank0
  6983  0425  0851               	movf	_timer_low_3,w
  6984  0426  0144               	movlb	4	; select bank4
  6985  0427  008C               	movwf	12	;volatile
  6986  0428                     i1l657:	
  6987                           ;main.c: 962:     }
  6988                           
  6989                           
  6990                           ;main.c: 965:     if ((count > 138) && silent_night_playing)
  6991  0428  0141               	movlb	1	; select bank1
  6992  0429  083F               	movf	(_count+1)^(0+128),w
  6993  042A  3A80               	xorlw	128
  6994  042B  00F9               	movwf	??_TMR1_ISR_
  6995  042C  3080               	movlw	128
  6996  042D  0279               	subwf	??_TMR1_ISR_,w
  6997  042E  1D03               	skipz
  6998  042F  2C32               	goto	u163_25
  6999  0430  308B               	movlw	139
  7000  0431  023E               	subwf	_count^(0+128),w
  7001  0432                     u163_25:
  7002  0432  1C03               	skipc
  7003  0433  2C35               	goto	u163_21
  7004  0434  2C36               	goto	u163_20
  7005  0435                     u163_21:
  7006  0435  2C41               	goto	i1l2533
  7007  0436                     u163_20:
  7008  0436                     i1l2529:
  7009  0436  0140               	movlb	0	; select bank0
  7010  0437  084F               	movf	_silent_night_playing,w
  7011  0438  1903               	btfsc	3,2
  7012  0439  2C3B               	goto	u164_21
  7013  043A  2C3C               	goto	u164_20
  7014  043B                     u164_21:
  7015  043B  2C41               	goto	i1l2533
  7016  043C                     u164_20:
  7017  043C                     i1l2531:
  7018                           
  7019                           ;main.c: 966:     {;main.c: 967:         presses = 0;
  7020  043C  0141               	movlb	1	; select bank1
  7021  043D  01C1               	clrf	_presses^(0+128)
  7022                           
  7023                           ;main.c: 968:         count = 0;
  7024  043E  01BE               	clrf	_count^(0+128)
  7025  043F  01BF               	clrf	(_count+1)^(0+128)
  7026                           
  7027                           ;main.c: 969:     }
  7028  0440  2C69               	goto	i1l663
  7029  0441                     i1l2533:
  7030  0441  0141               	movlb	1	; select bank1
  7031  0442  083F               	movf	(_count+1)^(0+128),w
  7032  0443  3A80               	xorlw	128
  7033  0444  3C80               	sublw	128
  7034  0445  1D03               	skipz
  7035  0446  2C4A               	goto	u165_25
  7036  0447  083E               	movf	_count^(0+128),w
  7037  0448  0140               	movlb	0	; select bank0
  7038  0449  0253               	subwf	_song2_length,w
  7039  044A                     u165_25:
  7040  044A  1803               	skipnc
  7041  044B  2C4D               	goto	u165_21
  7042  044C  2C4E               	goto	u165_20
  7043  044D                     u165_21:
  7044  044D  2C55               	goto	i1l2539
  7045  044E                     u165_20:
  7046  044E                     i1l2535:
  7047  044E  0140               	movlb	0	; select bank0
  7048  044F  084D               	movf	_song2_playing,w
  7049  0450  1903               	btfsc	3,2
  7050  0451  2C53               	goto	u166_21
  7051  0452  2C54               	goto	u166_20
  7052  0453                     u166_21:
  7053  0453  2C55               	goto	i1l2539
  7054  0454                     u166_20:
  7055  0454  2C3C               	goto	i1l2531
  7056  0455                     i1l2539:
  7057  0455  0141               	movlb	1	; select bank1
  7058  0456  083F               	movf	(_count+1)^(0+128),w
  7059  0457  3A80               	xorlw	128
  7060  0458  3C80               	sublw	128
  7061  0459  1D03               	skipz
  7062  045A  2C5E               	goto	u167_25
  7063  045B  083E               	movf	_count^(0+128),w
  7064  045C  0140               	movlb	0	; select bank0
  7065  045D  0250               	subwf	_song3_length,w
  7066  045E                     u167_25:
  7067  045E  1803               	skipnc
  7068  045F  2C61               	goto	u167_21
  7069  0460  2C62               	goto	u167_20
  7070  0461                     u167_21:
  7071  0461  2C69               	goto	i1l663
  7072  0462                     u167_20:
  7073  0462                     i1l2541:
  7074  0462  0140               	movlb	0	; select bank0
  7075  0463  084E               	movf	_song3_playing,w
  7076  0464  1903               	btfsc	3,2
  7077  0465  2C67               	goto	u168_21
  7078  0466  2C68               	goto	u168_20
  7079  0467                     u168_21:
  7080  0467  2C69               	goto	i1l663
  7081  0468                     u168_20:
  7082  0468  2C3C               	goto	i1l2531
  7083  0469                     i1l663:
  7084  0469  0008               	return
  7085  046A                     __end_of_TMR1_ISR_:
  7086                           
  7087                           	psect	text23
  7088  0E00                     __ptext23:	
  7089 ;; *************** function i1_playNote *****************
  7090 ;; Defined at:
  7091 ;;		line 997 in file "main.c"
  7092 ;; Parameters:    Size  Location     Type
  7093 ;;  note            1    wreg     unsigned char 
  7094 ;;  prescale        1    0[COMMON] unsigned char 
  7095 ;; Auto vars:     Size  Location     Type
  7096 ;;  note            1    2[COMMON] unsigned char 
  7097 ;; Return value:  Size  Location     Type
  7098 ;;                  1    wreg      void 
  7099 ;; Registers used:
  7100 ;;		wreg
  7101 ;; Tracked objects:
  7102 ;;		On entry : 0/0
  7103 ;;		On exit  : 0/0
  7104 ;;		Unchanged: 0/0
  7105 ;; Data sizes:     COMMON   BANK0   BANK1   BANK2   BANK3   BANK4   BANK5   BANK6   BANK7   BANK8   BANK9  BANK10  BANK1
      +1  BANK12
  7106 ;;      Params:         1       0       0       0       0       0       0       0       0       0       0       0       
      +0       0
  7107 ;;      Locals:         1       0       0       0       0       0       0       0       0       0       0       0       
      +0       0
  7108 ;;      Temps:          1       0       0       0       0       0       0       0       0       0       0       0       
      +0       0
  7109 ;;      Totals:         3       0       0       0       0       0       0       0       0       0       0       0       
      +0       0
  7110 ;;Total ram usage:        3 bytes
  7111 ;; Hardware stack levels used: 1
  7112 ;; This function calls:
  7113 ;;		Nothing
  7114 ;; This function is called by:
  7115 ;;		_TMR1_ISR_
  7116 ;; This function uses a non-reentrant model
  7117 ;;
  7118                           
  7119                           
  7120                           ;psect for function i1_playNote
  7121  0E00                     i1_playNote:
  7122                           
  7123                           ;incstack = 0
  7124                           ; Regs used in i1_playNote: [wreg]
  7125                           ;i1playNote@note stored from wreg
  7126  0E00  00F2               	movwf	i1playNote@note
  7127  0E01                     i1l2147:
  7128                           
  7129                           ;main.c: 997: void playNote(uint8_t note, uint8_t prescale);main.c: 998: {;main.c: 1000:
      +                               if (note != last_note)
  7130  0E01  0872               	movf	i1playNote@note,w
  7131  0E02  0140               	movlb	0	; select bank0
  7132  0E03  064C               	xorwf	_last_note,w
  7133  0E04  1903               	skipnz
  7134  0E05  2E07               	goto	u115_21
  7135  0E06  2E08               	goto	u115_20
  7136  0E07                     u115_21:
  7137  0E07  2E0B               	goto	i1l666
  7138  0E08                     u115_20:
  7139  0E08                     i1l2149:
  7140                           
  7141                           ;main.c: 1001:     {;main.c: 1002:         T2PR = note;
  7142  0E08  0872               	movf	i1playNote@note,w
  7143  0E09  0145               	movlb	5	; select bank5
  7144  0E0A  008D               	movwf	13	;volatile
  7145  0E0B                     i1l666:	
  7146                           ;main.c: 1003:     }
  7147                           
  7148                           
  7149                           ;main.c: 1005:     if (prescale != last_prescale)
  7150  0E0B  0870               	movf	i1playNote@prescale,w
  7151  0E0C  0140               	movlb	0	; select bank0
  7152  0E0D  064B               	xorwf	_last_prescale,w
  7153  0E0E  1903               	skipnz
  7154  0E0F  2E11               	goto	u116_21
  7155  0E10  2E12               	goto	u116_20
  7156  0E11                     u116_21:
  7157  0E11  2E15               	goto	i1l667
  7158  0E12                     u116_20:
  7159  0E12                     i1l2151:
  7160                           
  7161                           ;main.c: 1006:     {;main.c: 1007:         T2CON = prescale;
  7162  0E12  0870               	movf	i1playNote@prescale,w
  7163  0E13  0145               	movlb	5	; select bank5
  7164  0E14  008E               	movwf	14	;volatile
  7165  0E15                     i1l667:	
  7166                           ;main.c: 1008:     }
  7167                           
  7168                           
  7169                           ;main.c: 1009:     last_note = note;
  7170  0E15  0872               	movf	i1playNote@note,w
  7171  0E16  00F1               	movwf	??i1_playNote
  7172  0E17  0871               	movf	??i1_playNote,w
  7173  0E18  0140               	movlb	0	; select bank0
  7174  0E19  00CC               	movwf	_last_note
  7175                           
  7176                           ;main.c: 1010:     last_prescale = prescale;
  7177  0E1A  0870               	movf	i1playNote@prescale,w
  7178  0E1B  00F1               	movwf	??i1_playNote
  7179  0E1C  0871               	movf	??i1_playNote,w
  7180  0E1D  00CB               	movwf	_last_prescale
  7181  0E1E                     i1l668:
  7182  0E1E  0008               	return
  7183  0E1F                     __end_ofi1_playNote:
  7184                           
  7185                           	psect	text24
  7186  06BB                     __ptext24:	
  7187 ;; *************** function ___awdiv *****************
  7188 ;; Defined at:
  7189 ;;		line 5 in file "C:\Program Files\Microchip\xc8\v2.32\pic\sources\c99\common\awdiv.c"
  7190 ;; Parameters:    Size  Location     Type
  7191 ;;  divisor         2    0[COMMON] int 
  7192 ;;  dividend        2    2[COMMON] int 
  7193 ;; Auto vars:     Size  Location     Type
  7194 ;;  quotient        2    7[COMMON] int 
  7195 ;;  sign            1    6[COMMON] unsigned char 
  7196 ;;  counter         1    5[COMMON] unsigned char 
  7197 ;; Return value:  Size  Location     Type
  7198 ;;                  2    0[COMMON] int 
  7199 ;; Registers used:
  7200 ;;		wreg, status,2, status,0
  7201 ;; Tracked objects:
  7202 ;;		On entry : 0/0
  7203 ;;		On exit  : 0/0
  7204 ;;		Unchanged: 0/0
  7205 ;; Data sizes:     COMMON   BANK0   BANK1   BANK2   BANK3   BANK4   BANK5   BANK6   BANK7   BANK8   BANK9  BANK10  BANK1
      +1  BANK12
  7206 ;;      Params:         4       0       0       0       0       0       0       0       0       0       0       0       
      +0       0
  7207 ;;      Locals:         4       0       0       0       0       0       0       0       0       0       0       0       
      +0       0
  7208 ;;      Temps:          1       0       0       0       0       0       0       0       0       0       0       0       
      +0       0
  7209 ;;      Totals:         9       0       0       0       0       0       0       0       0       0       0       0       
      +0       0
  7210 ;;Total ram usage:        9 bytes
  7211 ;; Hardware stack levels used: 1
  7212 ;; This function calls:
  7213 ;;		Nothing
  7214 ;; This function is called by:
  7215 ;;		_TMR1_ISR_
  7216 ;; This function uses a non-reentrant model
  7217 ;;
  7218                           
  7219                           
  7220                           ;psect for function ___awdiv
  7221  06BB                     ___awdiv:
  7222  06BB                     i1l2103:	
  7223                           ;incstack = 0
  7224                           ; Regs used in ___awdiv: [wreg+status,2+status,0]
  7225                           
  7226  06BB  01F6               	clrf	___awdiv@sign
  7227  06BC                     i1l2105:
  7228  06BC  1FF1               	btfss	___awdiv@divisor+1,7
  7229  06BD  2EBF               	goto	u105_21
  7230  06BE  2EC0               	goto	u105_20
  7231  06BF                     u105_21:
  7232  06BF  2EC7               	goto	i1l2111
  7233  06C0                     u105_20:
  7234  06C0                     i1l2107:
  7235  06C0  09F0               	comf	___awdiv@divisor,f
  7236  06C1  09F1               	comf	___awdiv@divisor+1,f
  7237  06C2  0AF0               	incf	___awdiv@divisor,f
  7238  06C3  1903               	skipnz
  7239  06C4  0AF1               	incf	___awdiv@divisor+1,f
  7240  06C5                     i1l2109:
  7241  06C5  01F6               	clrf	___awdiv@sign
  7242  06C6  0AF6               	incf	___awdiv@sign,f
  7243  06C7                     i1l2111:
  7244  06C7  1FF3               	btfss	___awdiv@dividend+1,7
  7245  06C8  2ECA               	goto	u106_21
  7246  06C9  2ECB               	goto	u106_20
  7247  06CA                     u106_21:
  7248  06CA  2ED4               	goto	i1l2117
  7249  06CB                     u106_20:
  7250  06CB                     i1l2113:
  7251  06CB  09F2               	comf	___awdiv@dividend,f
  7252  06CC  09F3               	comf	___awdiv@dividend+1,f
  7253  06CD  0AF2               	incf	___awdiv@dividend,f
  7254  06CE  1903               	skipnz
  7255  06CF  0AF3               	incf	___awdiv@dividend+1,f
  7256  06D0                     i1l2115:
  7257  06D0  3001               	movlw	1
  7258  06D1  00F4               	movwf	??___awdiv
  7259  06D2  0874               	movf	??___awdiv,w
  7260  06D3  06F6               	xorwf	___awdiv@sign,f
  7261  06D4                     i1l2117:
  7262  06D4  01F7               	clrf	___awdiv@quotient
  7263  06D5  01F8               	clrf	___awdiv@quotient+1
  7264  06D6                     i1l2119:
  7265  06D6  0870               	movf	___awdiv@divisor,w
  7266  06D7  0471               	iorwf	___awdiv@divisor+1,w
  7267  06D8  1903               	btfsc	3,2
  7268  06D9  2EDB               	goto	u107_21
  7269  06DA  2EDC               	goto	u107_20
  7270  06DB                     u107_21:
  7271  06DB  2F0B               	goto	i1l2139
  7272  06DC                     u107_20:
  7273  06DC                     i1l2121:
  7274  06DC  01F5               	clrf	___awdiv@counter
  7275  06DD  0AF5               	incf	___awdiv@counter,f
  7276  06DE  2EE8               	goto	i1l2127
  7277  06DF                     i1l2123:
  7278  06DF  3001               	movlw	1
  7279  06E0                     u108_25:
  7280  06E0  35F0               	lslf	___awdiv@divisor,f
  7281  06E1  0DF1               	rlf	___awdiv@divisor+1,f
  7282  06E2  0B89               	decfsz	9,f
  7283  06E3  2EE0               	goto	u108_25
  7284  06E4                     i1l2125:
  7285  06E4  3001               	movlw	1
  7286  06E5  00F4               	movwf	??___awdiv
  7287  06E6  0874               	movf	??___awdiv,w
  7288  06E7  07F5               	addwf	___awdiv@counter,f
  7289  06E8                     i1l2127:
  7290  06E8  1FF1               	btfss	___awdiv@divisor+1,7
  7291  06E9  2EEB               	goto	u109_21
  7292  06EA  2EEC               	goto	u109_20
  7293  06EB                     u109_21:
  7294  06EB  2EDF               	goto	i1l2123
  7295  06EC                     u109_20:
  7296  06EC                     i1l2129:
  7297  06EC  3001               	movlw	1
  7298  06ED                     u110_25:
  7299  06ED  35F7               	lslf	___awdiv@quotient,f
  7300  06EE  0DF8               	rlf	___awdiv@quotient+1,f
  7301  06EF  0B89               	decfsz	9,f
  7302  06F0  2EED               	goto	u110_25
  7303  06F1  0871               	movf	___awdiv@divisor+1,w
  7304  06F2  0273               	subwf	___awdiv@dividend+1,w
  7305  06F3  1D03               	skipz
  7306  06F4  2EF7               	goto	u111_25
  7307  06F5  0870               	movf	___awdiv@divisor,w
  7308  06F6  0272               	subwf	___awdiv@dividend,w
  7309  06F7                     u111_25:
  7310  06F7  1C03               	skipc
  7311  06F8  2EFA               	goto	u111_21
  7312  06F9  2EFB               	goto	u111_20
  7313  06FA                     u111_21:
  7314  06FA  2F00               	goto	i1l2135
  7315  06FB                     u111_20:
  7316  06FB                     i1l2131:
  7317  06FB  0870               	movf	___awdiv@divisor,w
  7318  06FC  02F2               	subwf	___awdiv@dividend,f
  7319  06FD  0871               	movf	___awdiv@divisor+1,w
  7320  06FE  3BF3               	subwfb	___awdiv@dividend+1,f
  7321  06FF                     i1l2133:
  7322  06FF  1477               	bsf	___awdiv@quotient,0
  7323  0700                     i1l2135:
  7324  0700  3001               	movlw	1
  7325  0701                     u112_25:
  7326  0701  36F1               	lsrf	___awdiv@divisor+1,f
  7327  0702  0CF0               	rrf	___awdiv@divisor,f
  7328  0703  0B89               	decfsz	9,f
  7329  0704  2F01               	goto	u112_25
  7330  0705                     i1l2137:
  7331  0705  3001               	movlw	1
  7332  0706  02F5               	subwf	___awdiv@counter,f
  7333  0707  1D03               	btfss	3,2
  7334  0708  2F0A               	goto	u113_21
  7335  0709  2F0B               	goto	u113_20
  7336  070A                     u113_21:
  7337  070A  2EEC               	goto	i1l2129
  7338  070B                     u113_20:
  7339  070B                     i1l2139:
  7340  070B  0876               	movf	___awdiv@sign,w
  7341  070C  1903               	btfsc	3,2
  7342  070D  2F0F               	goto	u114_21
  7343  070E  2F10               	goto	u114_20
  7344  070F                     u114_21:
  7345  070F  2F15               	goto	i1l2143
  7346  0710                     u114_20:
  7347  0710                     i1l2141:
  7348  0710  09F7               	comf	___awdiv@quotient,f
  7349  0711  09F8               	comf	___awdiv@quotient+1,f
  7350  0712  0AF7               	incf	___awdiv@quotient,f
  7351  0713  1903               	skipnz
  7352  0714  0AF8               	incf	___awdiv@quotient+1,f
  7353  0715                     i1l2143:
  7354  0715  0878               	movf	___awdiv@quotient+1,w
  7355  0716  00F1               	movwf	?___awdiv+1
  7356  0717  0877               	movf	___awdiv@quotient,w
  7357  0718  00F0               	movwf	?___awdiv
  7358  0719                     i1l910:
  7359  0719  0008               	return
  7360  071A                     __end_of___awdiv:
  7361                           
  7362                           	psect	text25
  7363  0D94                     __ptext25:	
  7364 ;; *************** function _TMR0_ISR *****************
  7365 ;; Defined at:
  7366 ;;		line 134 in file "mcc_generated_files/tmr0.c"
  7367 ;; Parameters:    Size  Location     Type
  7368 ;;		None
  7369 ;; Auto vars:     Size  Location     Type
  7370 ;;		None
  7371 ;; Return value:  Size  Location     Type
  7372 ;;                  1    wreg      void 
  7373 ;; Registers used:
  7374 ;;		wreg, status,2, status,0, pclath, cstack
  7375 ;; Tracked objects:
  7376 ;;		On entry : 0/0
  7377 ;;		On exit  : 0/0
  7378 ;;		Unchanged: 0/0
  7379 ;; Data sizes:     COMMON   BANK0   BANK1   BANK2   BANK3   BANK4   BANK5   BANK6   BANK7   BANK8   BANK9  BANK10  BANK1
      +1  BANK12
  7380 ;;      Params:         0       0       0       0       0       0       0       0       0       0       0       0       
      +0       0
  7381 ;;      Locals:         0       0       0       0       0       0       0       0       0       0       0       0       
      +0       0
  7382 ;;      Temps:          0       0       0       0       0       0       0       0       0       0       0       0       
      +0       0
  7383 ;;      Totals:         0       0       0       0       0       0       0       0       0       0       0       0       
      +0       0
  7384 ;;Total ram usage:        0 bytes
  7385 ;; Hardware stack levels used: 1
  7386 ;; Hardware stack levels required when called: 1
  7387 ;; This function calls:
  7388 ;;		Absolute function
  7389 ;;		_TMR0_DefaultInterruptHandler
  7390 ;;		_TMR0_ISR_
  7391 ;; This function is called by:
  7392 ;;		_INTERRUPT_InterruptManager
  7393 ;; This function uses a non-reentrant model
  7394 ;;
  7395                           
  7396                           
  7397                           ;psect for function _TMR0_ISR
  7398  0D94                     _TMR0_ISR:
  7399  0D94                     i1l2563:	
  7400                           ;incstack = 0
  7401                           ; Regs used in _TMR0_ISR: [wreg+status,2+status,0+pclath+cstack]
  7402                           
  7403                           
  7404                           ;mcc_generated_files/tmr0.c: 137:     PIR0bits.TMR0IF = 0;
  7405  0D94  014E               	movlb	14	; select bank14
  7406  0D95  128C               	bcf	12,5	;volatile
  7407  0D96                     i1l2565:
  7408                           
  7409                           ;mcc_generated_files/tmr0.c: 139:     TMR0H = timer0ReloadVal16bit >> 8;
  7410  0D96  0140               	movlb	0	; select bank0
  7411  0D97  0847               	movf	_timer0ReloadVal16bit+1,w	;volatile
  7412  0D98  014B               	movlb	11	; select bank11
  7413  0D99  009D               	movwf	29	;volatile
  7414  0D9A                     i1l2567:
  7415                           
  7416                           ;mcc_generated_files/tmr0.c: 140:     TMR0L = (uint8_t) timer0ReloadVal16bit;
  7417  0D9A  0140               	movlb	0	; select bank0
  7418  0D9B  0846               	movf	_timer0ReloadVal16bit,w	;volatile
  7419  0D9C  014B               	movlb	11	; select bank11
  7420  0D9D  009C               	movwf	28	;volatile
  7421  0D9E                     i1l2569:
  7422                           
  7423                           ;mcc_generated_files/tmr0.c: 142:     if(TMR0_InterruptHandler)
  7424  0D9E  0140               	movlb	0	; select bank0
  7425  0D9F  0844               	movf	_TMR0_InterruptHandler,w
  7426  0DA0  0445               	iorwf	_TMR0_InterruptHandler+1,w
  7427  0DA1  1903               	btfsc	3,2
  7428  0DA2  2DA4               	goto	u169_21
  7429  0DA3  2DA5               	goto	u169_20
  7430  0DA4                     u169_21:
  7431  0DA4  2DAA               	goto	i1l328
  7432  0DA5                     u169_20:
  7433  0DA5                     i1l2571:
  7434                           
  7435                           ;mcc_generated_files/tmr0.c: 143:     {;mcc_generated_files/tmr0.c: 144:         TMR0_In
      +                          terruptHandler();
  7436  0DA5  0845               	movf	_TMR0_InterruptHandler+1,w
  7437  0DA6  008A               	movwf	10
  7438  0DA7  0844               	movf	_TMR0_InterruptHandler,w
  7439  0DA8  000A               	callw
  7440  0DA9  318D               	pagesel	$
  7441  0DAA                     i1l328:
  7442  0DAA  0008               	return
  7443  0DAB                     __end_of_TMR0_ISR:
  7444                           
  7445                           	psect	text26
  7446  0CB9                     __ptext26:	
  7447 ;; *************** function _TMR0_DefaultInterruptHandler *****************
  7448 ;; Defined at:
  7449 ;;		line 155 in file "mcc_generated_files/tmr0.c"
  7450 ;; Parameters:    Size  Location     Type
  7451 ;;		None
  7452 ;; Auto vars:     Size  Location     Type
  7453 ;;		None
  7454 ;; Return value:  Size  Location     Type
  7455 ;;                  1    wreg      void 
  7456 ;; Registers used:
  7457 ;;		None
  7458 ;; Tracked objects:
  7459 ;;		On entry : 0/0
  7460 ;;		On exit  : 0/0
  7461 ;;		Unchanged: 0/0
  7462 ;; Data sizes:     COMMON   BANK0   BANK1   BANK2   BANK3   BANK4   BANK5   BANK6   BANK7   BANK8   BANK9  BANK10  BANK1
      +1  BANK12
  7463 ;;      Params:         0       0       0       0       0       0       0       0       0       0       0       0       
      +0       0
  7464 ;;      Locals:         0       0       0       0       0       0       0       0       0       0       0       0       
      +0       0
  7465 ;;      Temps:          0       0       0       0       0       0       0       0       0       0       0       0       
      +0       0
  7466 ;;      Totals:         0       0       0       0       0       0       0       0       0       0       0       0       
      +0       0
  7467 ;;Total ram usage:        0 bytes
  7468 ;; Hardware stack levels used: 1
  7469 ;; This function calls:
  7470 ;;		Nothing
  7471 ;; This function is called by:
  7472 ;;		_TMR0_Initialize
  7473 ;;		_TMR0_ISR
  7474 ;; This function uses a non-reentrant model
  7475 ;;
  7476                           
  7477                           
  7478                           ;psect for function _TMR0_DefaultInterruptHandler
  7479  0CB9                     _TMR0_DefaultInterruptHandler:
  7480  0CB9                     i1l334:	
  7481                           ;incstack = 0
  7482                           ; Regs used in _TMR0_DefaultInterruptHandler: []
  7483                           
  7484  0CB9  0008               	return
  7485  0CBA                     __end_of_TMR0_DefaultInterruptHandler:
  7486                           
  7487                           	psect	text27
  7488  0CBD                     __ptext27:	
  7489 ;; *************** function _TMR0_ISR_ *****************
  7490 ;; Defined at:
  7491 ;;		line 597 in file "main.c"
  7492 ;; Parameters:    Size  Location     Type
  7493 ;;		None
  7494 ;; Auto vars:     Size  Location     Type
  7495 ;;		None
  7496 ;; Return value:  Size  Location     Type
  7497 ;;                  1    wreg      void 
  7498 ;; Registers used:
  7499 ;;		None
  7500 ;; Tracked objects:
  7501 ;;		On entry : 0/0
  7502 ;;		On exit  : 0/0
  7503 ;;		Unchanged: 0/0
  7504 ;; Data sizes:     COMMON   BANK0   BANK1   BANK2   BANK3   BANK4   BANK5   BANK6   BANK7   BANK8   BANK9  BANK10  BANK1
      +1  BANK12
  7505 ;;      Params:         0       0       0       0       0       0       0       0       0       0       0       0       
      +0       0
  7506 ;;      Locals:         0       0       0       0       0       0       0       0       0       0       0       0       
      +0       0
  7507 ;;      Temps:          0       0       0       0       0       0       0       0       0       0       0       0       
      +0       0
  7508 ;;      Totals:         0       0       0       0       0       0       0       0       0       0       0       0       
      +0       0
  7509 ;;Total ram usage:        0 bytes
  7510 ;; Hardware stack levels used: 1
  7511 ;; This function calls:
  7512 ;;		Nothing
  7513 ;; This function is called by:
  7514 ;;		_main
  7515 ;;		_TMR0_ISR
  7516 ;; This function uses a non-reentrant model
  7517 ;;
  7518                           
  7519                           
  7520                           ;psect for function _TMR0_ISR_
  7521  0CBD                     _TMR0_ISR_:
  7522  0CBD                     i1l2273:	
  7523                           ;incstack = 0
  7524                           ; Regs used in _TMR0_ISR_: []
  7525                           
  7526                           
  7527                           ;main.c: 599:     TMR0_complete = 1;
  7528  0CBD  0141               	movlb	1	; select bank1
  7529  0CBE  01C2               	clrf	_TMR0_complete^(0+128)
  7530  0CBF  0AC2               	incf	_TMR0_complete^(0+128),f
  7531  0CC0                     i1l583:
  7532  0CC0  0008               	return
  7533  0CC1                     __end_of_TMR0_ISR_:
  7534                           
  7535                           	psect	text28
  7536  0CC1                     __ptext28:	
  7537 ;; *************** function _INT_ISR *****************
  7538 ;; Defined at:
  7539 ;;		line 33 in file "mcc_generated_files/ext_int.c"
  7540 ;; Parameters:    Size  Location     Type
  7541 ;;		None
  7542 ;; Auto vars:     Size  Location     Type
  7543 ;;		None
  7544 ;; Return value:  Size  Location     Type
  7545 ;;                  1    wreg      void 
  7546 ;; Registers used:
  7547 ;;		wreg, status,2, status,0, pclath, cstack
  7548 ;; Tracked objects:
  7549 ;;		On entry : 0/0
  7550 ;;		On exit  : 0/0
  7551 ;;		Unchanged: 0/0
  7552 ;; Data sizes:     COMMON   BANK0   BANK1   BANK2   BANK3   BANK4   BANK5   BANK6   BANK7   BANK8   BANK9  BANK10  BANK1
      +1  BANK12
  7553 ;;      Params:         0       0       0       0       0       0       0       0       0       0       0       0       
      +0       0
  7554 ;;      Locals:         0       0       0       0       0       0       0       0       0       0       0       0       
      +0       0
  7555 ;;      Temps:          0       0       0       0       0       0       0       0       0       0       0       0       
      +0       0
  7556 ;;      Totals:         0       0       0       0       0       0       0       0       0       0       0       0       
      +0       0
  7557 ;;Total ram usage:        0 bytes
  7558 ;; Hardware stack levels used: 1
  7559 ;; Hardware stack levels required when called: 3
  7560 ;; This function calls:
  7561 ;;		_INT_CallBack
  7562 ;; This function is called by:
  7563 ;;		_INTERRUPT_InterruptManager
  7564 ;; This function uses a non-reentrant model
  7565 ;;
  7566                           
  7567                           
  7568                           ;psect for function _INT_ISR
  7569  0CC1                     _INT_ISR:
  7570  0CC1                     i1l2573:	
  7571                           ;incstack = 0
  7572                           ; Regs used in _INT_ISR: [wreg+status,2+status,0+pclath+cstack]
  7573                           
  7574                           
  7575                           ;mcc_generated_files/ext_int.c: 47:     (PIR0bits.INTF = 0);
  7576  0CC1  014E               	movlb	14	; select bank14
  7577  0CC2  100C               	bcf	12,0	;volatile
  7578  0CC3                     i1l2575:
  7579                           
  7580                           ;mcc_generated_files/ext_int.c: 50:     INT_CallBack();
  7581  0CC3  318D  2512  318C   	fcall	_INT_CallBack
  7582  0CC6                     i1l271:
  7583  0CC6  0008               	return
  7584  0CC7                     __end_of_INT_ISR:
  7585                           
  7586                           	psect	text29
  7587  0D12                     __ptext29:	
  7588 ;; *************** function _INT_CallBack *****************
  7589 ;; Defined at:
  7590 ;;		line 54 in file "mcc_generated_files/ext_int.c"
  7591 ;; Parameters:    Size  Location     Type
  7592 ;;		None
  7593 ;; Auto vars:     Size  Location     Type
  7594 ;;		None
  7595 ;; Return value:  Size  Location     Type
  7596 ;;                  1    wreg      void 
  7597 ;; Registers used:
  7598 ;;		wreg, status,2, status,0, pclath, cstack
  7599 ;; Tracked objects:
  7600 ;;		On entry : 0/0
  7601 ;;		On exit  : 0/0
  7602 ;;		Unchanged: 0/0
  7603 ;; Data sizes:     COMMON   BANK0   BANK1   BANK2   BANK3   BANK4   BANK5   BANK6   BANK7   BANK8   BANK9  BANK10  BANK1
      +1  BANK12
  7604 ;;      Params:         0       0       0       0       0       0       0       0       0       0       0       0       
      +0       0
  7605 ;;      Locals:         0       0       0       0       0       0       0       0       0       0       0       0       
      +0       0
  7606 ;;      Temps:          0       0       0       0       0       0       0       0       0       0       0       0       
      +0       0
  7607 ;;      Totals:         0       0       0       0       0       0       0       0       0       0       0       0       
      +0       0
  7608 ;;Total ram usage:        0 bytes
  7609 ;; Hardware stack levels used: 1
  7610 ;; Hardware stack levels required when called: 2
  7611 ;; This function calls:
  7612 ;;		Absolute function
  7613 ;;		_EXT_ISR
  7614 ;;		_INT_DefaultInterruptHandler
  7615 ;; This function is called by:
  7616 ;;		_INT_ISR
  7617 ;; This function uses a non-reentrant model
  7618 ;;
  7619                           
  7620                           
  7621                           ;psect for function _INT_CallBack
  7622  0D12                     _INT_CallBack:
  7623  0D12                     i1l2249:	
  7624                           ;incstack = 0
  7625                           ; Regs used in _INT_CallBack: [wreg+status,2+status,0+pclath+cstack]
  7626                           
  7627                           
  7628                           ;mcc_generated_files/ext_int.c: 57:     if(INT_InterruptHandler)
  7629  0D12  0140               	movlb	0	; select bank0
  7630  0D13  0848               	movf	_INT_InterruptHandler,w
  7631  0D14  0449               	iorwf	_INT_InterruptHandler+1,w
  7632  0D15  1903               	btfsc	3,2
  7633  0D16  2D18               	goto	u117_21
  7634  0D17  2D19               	goto	u117_20
  7635  0D18                     u117_21:
  7636  0D18  2D1E               	goto	i1l275
  7637  0D19                     u117_20:
  7638  0D19                     i1l2251:
  7639                           
  7640                           ;mcc_generated_files/ext_int.c: 58:     {;mcc_generated_files/ext_int.c: 59:         INT
      +                          _InterruptHandler();
  7641  0D19  0849               	movf	_INT_InterruptHandler+1,w
  7642  0D1A  008A               	movwf	10
  7643  0D1B  0848               	movf	_INT_InterruptHandler,w
  7644  0D1C  000A               	callw
  7645  0D1D  318D               	pagesel	$
  7646  0D1E                     i1l275:
  7647  0D1E  0008               	return
  7648  0D1F                     __end_of_INT_CallBack:
  7649                           
  7650                           	psect	text30
  7651  0DAB                     __ptext30:	
  7652 ;; *************** function _EXT_ISR *****************
  7653 ;; Defined at:
  7654 ;;		line 573 in file "main.c"
  7655 ;; Parameters:    Size  Location     Type
  7656 ;;		None
  7657 ;; Auto vars:     Size  Location     Type
  7658 ;;		None
  7659 ;; Return value:  Size  Location     Type
  7660 ;;                  1    wreg      void 
  7661 ;; Registers used:
  7662 ;;		wreg, status,2, status,0, pclath, cstack
  7663 ;; Tracked objects:
  7664 ;;		On entry : 0/0
  7665 ;;		On exit  : 0/0
  7666 ;;		Unchanged: 0/0
  7667 ;; Data sizes:     COMMON   BANK0   BANK1   BANK2   BANK3   BANK4   BANK5   BANK6   BANK7   BANK8   BANK9  BANK10  BANK1
      +1  BANK12
  7668 ;;      Params:         0       0       0       0       0       0       0       0       0       0       0       0       
      +0       0
  7669 ;;      Locals:         0       0       0       0       0       0       0       0       0       0       0       0       
      +0       0
  7670 ;;      Temps:          1       0       0       0       0       0       0       0       0       0       0       0       
      +0       0
  7671 ;;      Totals:         1       0       0       0       0       0       0       0       0       0       0       0       
      +0       0
  7672 ;;Total ram usage:        1 bytes
  7673 ;; Hardware stack levels used: 1
  7674 ;; Hardware stack levels required when called: 1
  7675 ;; This function calls:
  7676 ;;		_TMR0_Reload
  7677 ;; This function is called by:
  7678 ;;		_main
  7679 ;;		_INT_CallBack
  7680 ;; This function uses a non-reentrant model
  7681 ;;
  7682                           
  7683                           
  7684                           ;psect for function _EXT_ISR
  7685  0DAB                     _EXT_ISR:
  7686  0DAB                     i1l2089:	
  7687                           ;incstack = 0
  7688                           ; Regs used in _EXT_ISR: [wreg+status,2+status,0+pclath+cstack]
  7689                           
  7690                           
  7691                           ;main.c: 575:     presses++;
  7692  0DAB  3001               	movlw	1
  7693  0DAC  00F0               	movwf	??_EXT_ISR
  7694  0DAD  0870               	movf	??_EXT_ISR,w
  7695  0DAE  0141               	movlb	1	; select bank1
  7696  0DAF  07C1               	addwf	_presses^(0+128),f
  7697  0DB0                     i1l2091:
  7698                           
  7699                           ;main.c: 576:     TMR0_Reload();
  7700  0DB0  318C  24E2  318D   	fcall	_TMR0_Reload
  7701  0DB3                     i1l2093:
  7702                           
  7703                           ;main.c: 579:     if (T1CONbits.TMR1ON)
  7704  0DB3  0144               	movlb	4	; select bank4
  7705  0DB4  1C0E               	btfss	14,0	;volatile
  7706  0DB5  2DB7               	goto	u103_21
  7707  0DB6  2DB8               	goto	u103_20
  7708  0DB7                     u103_21:
  7709  0DB7  2DBD               	goto	i1l2097
  7710  0DB8                     u103_20:
  7711  0DB8                     i1l2095:
  7712                           
  7713                           ;main.c: 580:     {;main.c: 581:         presses = 0;
  7714  0DB8  0141               	movlb	1	; select bank1
  7715  0DB9  01C1               	clrf	_presses^(0+128)
  7716                           
  7717                           ;main.c: 582:         count = 0;
  7718  0DBA  01BE               	clrf	_count^(0+128)
  7719  0DBB  01BF               	clrf	(_count+1)^(0+128)
  7720                           
  7721                           ;main.c: 583:     }
  7722  0DBC  2DBF               	goto	i1l2099
  7723  0DBD                     i1l2097:
  7724                           
  7725                           ;main.c: 586:     {;main.c: 587:         TMR0_complete = 0;
  7726  0DBD  0141               	movlb	1	; select bank1
  7727  0DBE  01C2               	clrf	_TMR0_complete^(0+128)
  7728  0DBF                     i1l2099:
  7729                           
  7730                           ;main.c: 590:     if (presses > num_songs)
  7731  0DBF  0841               	movf	_presses^(0+128),w
  7732  0DC0  027D               	subwf	_num_songs,w
  7733  0DC1  1803               	skipnc
  7734  0DC2  2DC4               	goto	u104_21
  7735  0DC3  2DC5               	goto	u104_20
  7736  0DC4                     u104_21:
  7737  0DC4  2DC6               	goto	i1l580
  7738  0DC5                     u104_20:
  7739  0DC5                     i1l2101:
  7740                           
  7741                           ;main.c: 591:     {;main.c: 592:         presses = 0;
  7742  0DC5  01C1               	clrf	_presses^(0+128)
  7743  0DC6                     i1l580:
  7744  0DC6  0008               	return
  7745  0DC7                     __end_of_EXT_ISR:
  7746                           
  7747                           	psect	text31
  7748  0CB8                     __ptext31:	
  7749 ;; *************** function _INT_DefaultInterruptHandler *****************
  7750 ;; Defined at:
  7751 ;;		line 67 in file "mcc_generated_files/ext_int.c"
  7752 ;; Parameters:    Size  Location     Type
  7753 ;;		None
  7754 ;; Auto vars:     Size  Location     Type
  7755 ;;		None
  7756 ;; Return value:  Size  Location     Type
  7757 ;;                  1    wreg      void 
  7758 ;; Registers used:
  7759 ;;		None
  7760 ;; Tracked objects:
  7761 ;;		On entry : 0/0
  7762 ;;		On exit  : 0/0
  7763 ;;		Unchanged: 0/0
  7764 ;; Data sizes:     COMMON   BANK0   BANK1   BANK2   BANK3   BANK4   BANK5   BANK6   BANK7   BANK8   BANK9  BANK10  BANK1
      +1  BANK12
  7765 ;;      Params:         0       0       0       0       0       0       0       0       0       0       0       0       
      +0       0
  7766 ;;      Locals:         0       0       0       0       0       0       0       0       0       0       0       0       
      +0       0
  7767 ;;      Temps:          0       0       0       0       0       0       0       0       0       0       0       0       
      +0       0
  7768 ;;      Totals:         0       0       0       0       0       0       0       0       0       0       0       0       
      +0       0
  7769 ;;Total ram usage:        0 bytes
  7770 ;; Hardware stack levels used: 1
  7771 ;; This function calls:
  7772 ;;		Nothing
  7773 ;; This function is called by:
  7774 ;;		_EXT_INT_Initialize
  7775 ;;		_INT_CallBack
  7776 ;; This function uses a non-reentrant model
  7777 ;;
  7778                           
  7779                           
  7780                           ;psect for function _INT_DefaultInterruptHandler
  7781  0CB8                     _INT_DefaultInterruptHandler:
  7782  0CB8                     i1l281:	
  7783                           ;incstack = 0
  7784                           ; Regs used in _INT_DefaultInterruptHandler: []
  7785                           
  7786  0CB8  0008               	return
  7787  0CB9                     __end_of_INT_DefaultInterruptHandler:
  7788                           
  7789                           	psect	text32
  7790  0CE2                     __ptext32:	
  7791 ;; *************** function _TMR0_Reload *****************
  7792 ;; Defined at:
  7793 ;;		line 127 in file "mcc_generated_files/tmr0.c"
  7794 ;; Parameters:    Size  Location     Type
  7795 ;;		None
  7796 ;; Auto vars:     Size  Location     Type
  7797 ;;		None
  7798 ;; Return value:  Size  Location     Type
  7799 ;;                  1    wreg      void 
  7800 ;; Registers used:
  7801 ;;		wreg, status,2
  7802 ;; Tracked objects:
  7803 ;;		On entry : 0/0
  7804 ;;		On exit  : 0/0
  7805 ;;		Unchanged: 0/0
  7806 ;; Data sizes:     COMMON   BANK0   BANK1   BANK2   BANK3   BANK4   BANK5   BANK6   BANK7   BANK8   BANK9  BANK10  BANK1
      +1  BANK12
  7807 ;;      Params:         0       0       0       0       0       0       0       0       0       0       0       0       
      +0       0
  7808 ;;      Locals:         0       0       0       0       0       0       0       0       0       0       0       0       
      +0       0
  7809 ;;      Temps:          0       0       0       0       0       0       0       0       0       0       0       0       
      +0       0
  7810 ;;      Totals:         0       0       0       0       0       0       0       0       0       0       0       0       
      +0       0
  7811 ;;Total ram usage:        0 bytes
  7812 ;; Hardware stack levels used: 1
  7813 ;; This function calls:
  7814 ;;		Nothing
  7815 ;; This function is called by:
  7816 ;;		_EXT_ISR
  7817 ;; This function uses a non-reentrant model
  7818 ;;
  7819                           
  7820                           
  7821                           ;psect for function _TMR0_Reload
  7822  0CE2                     _TMR0_Reload:
  7823  0CE2                     i1l2073:	
  7824                           ;incstack = 0
  7825                           ; Regs used in _TMR0_Reload: [wreg+status,2]
  7826                           
  7827                           
  7828                           ;mcc_generated_files/tmr0.c: 130:     TMR0H = timer0ReloadVal16bit >> 8;
  7829  0CE2  0140               	movlb	0	; select bank0
  7830  0CE3  0847               	movf	_timer0ReloadVal16bit+1,w	;volatile
  7831  0CE4  014B               	movlb	11	; select bank11
  7832  0CE5  009D               	movwf	29	;volatile
  7833  0CE6                     i1l2075:
  7834                           
  7835                           ;mcc_generated_files/tmr0.c: 131:     TMR0L = (uint8_t) timer0ReloadVal16bit;
  7836  0CE6  0140               	movlb	0	; select bank0
  7837  0CE7  0846               	movf	_timer0ReloadVal16bit,w	;volatile
  7838  0CE8  014B               	movlb	11	; select bank11
  7839  0CE9  009C               	movwf	28	;volatile
  7840  0CEA                     i1l324:
  7841  0CEA  0008               	return
  7842  0CEB                     __end_of_TMR0_Reload:
  7843  007E                     btemp	set	126	;btemp
  7844  007E                     int$flags	set	126
  7845  007E                     wtemp0	set	126
  7846  219F                     
  7847                           	psect	config
  7848                           
  7849                           ;Config register CONFIG1 @ 0x8007
  7850                           ;	External Oscillator Mode Selection bits
  7851                           ;	FEXTOSC = OFF, Oscillator not enabled
  7852                           ;	Power-up Default Value for COSC bits
  7853                           ;	RSTOSC = HFINTOSC_1MHZ, HFINTOSC (1 MHz)
  7854                           ;	Clock Out Enable bit
  7855                           ;	CLKOUTEN = OFF, CLKOUT function is disabled; I/O function on RA4
  7856                           ;	VDD Range Analog Calibration Selection bit
  7857                           ;	VDDAR = HI, Internal analog systems are calibrated for operation between VDD = 2.3V - 
      +                          5.5V
  7858  8007                     	org	32775
  7859  8007  3FED               	dw	16365
  7860                           
  7861                           ;Config register CONFIG2 @ 0x8008
  7862                           ;	Master Clear Enable bit
  7863                           ;	MCLRE = EXTMCLR, If LVP = 0, MCLR pin is MCLR; If LVP = 1, RA3 pin function is MCLR
  7864                           ;	Power-up Timer Selection bits
  7865                           ;	PWRTS = PWRT_OFF, PWRT is disabled
  7866                           ;	WDT Operating Mode bits
  7867                           ;	WDTE = OFF, WDT disabled; SEN is ignored
  7868                           ;	Brown-out Reset Enable bits
  7869                           ;	BOREN = ON, Brown-out Reset Enabled, SBOREN bit is ignored
  7870                           ;	Brown-out Reset Voltage Selection bit
  7871                           ;	BORV = LO, Brown-out Reset Voltage (VBOR) set to 1.9V
  7872                           ;	PPSLOCKED One-Way Set Enable bit
  7873                           ;	PPS1WAY = ON, The PPSLOCKED bit can be set once after an unlocking sequence is execute
      +                          d; once PPSLOCKED is set, all future changes to PPS registers are prevented
  7874                           ;	Stack Overflow/Underflow Reset Enable bit
  7875                           ;	STVREN = ON, Stack Overflow or Underflow will cause a reset
  7876  8008                     	org	32776
  7877  8008  3FE7               	dw	16359
  7878                           
  7879                           ;Config register CONFIG4 @ 0x800A
  7880                           ;	Boot Block Size Selection bits
  7881                           ;	BBSIZE = BB512, 512 words boot block size
  7882                           ;	Boot Block Enable bit
  7883                           ;	BBEN = OFF, Boot Block is disabled
  7884                           ;	SAF Enable bit
  7885                           ;	SAFEN = OFF, SAF is disabled
  7886                           ;	Application Block Write Protection bit
  7887                           ;	WRTAPP = OFF, Application Block is not write-protected
  7888                           ;	Boot Block Write Protection bit
  7889                           ;	WRTB = OFF, Boot Block is not write-protected
  7890                           ;	Configuration Registers Write Protection bit
  7891                           ;	WRTC = OFF, Configuration Registers are not write-protected
  7892                           ;	Storage Area Flash (SAF) Write Protection bit
  7893                           ;	WRTSAF = OFF, SAF is not write-protected
  7894                           ;	Low Voltage Programming Enable bit
  7895                           ;	LVP = ON, Low Voltage programming enabled. MCLR/Vpp pin function is MCLR. MCLRE Config
      +                          uration bit is ignored.
  7896  800A                     	org	32778
  7897  800A  3FFF               	dw	16383
  7898                           
  7899                           ;Config register CONFIG5 @ 0x800B
  7900                           ;	User Program Flash Memory Code Protection bit
  7901                           ;	CP = OFF, User Program Flash Memory code protection is disabled
  7902  800B                     	org	32779
  7903  800B  3FFF               	dw	16383

Data Sizes:
    Strings     0
    Constant    11
    Data        667
    BSS         11
    Persistent  42
    Stack       0

Auto Spaces:
    Space          Size  Autos    Used
    COMMON           14     11      14
    BANK0            80     34      54
    BANK1            80     23      35
    BANK2            80      0      60
    BANK3            80      0       0
    BANK4            80      0       0
    BANK5            15      0       0
    BANK6             0      0       0
    BANK7             0      0       0
    BANK8             0      0       0
    BANK9             0      0       0
    BANK10            0      0       0
    BANK11            0      0       0
    BANK12            0      0       0

Pointer List with Targets:

    displayMatrix@states	PTR unsigned char  size(1) Largest target is 7
		 -> light_array(BANK1[7]), 

    TMR1_SetInterruptHandler@InterruptHandler	PTR FTN()void  size(2) Largest target is 1
		 -> TMR1_ISR_(), TMR1_DefaultInterruptHandler(), 

    TMR1_InterruptHandler	PTR FTN()void  size(2) Largest target is 1
		 -> TMR1_ISR_(), TMR1_DefaultInterruptHandler(), Absolute function(), 

    TMR0_SetInterruptHandler@InterruptHandler	PTR FTN()void  size(2) Largest target is 1
		 -> TMR0_ISR_(), TMR0_DefaultInterruptHandler(), 

    TMR0_InterruptHandler	PTR FTN()void  size(2) Largest target is 1
		 -> TMR0_ISR_(), TMR0_DefaultInterruptHandler(), Absolute function(), 

    INT_SetInterruptHandler@InterruptHandler	PTR FTN()void  size(2) Largest target is 1
		 -> EXT_ISR(), INT_DefaultInterruptHandler(), 

    INT_InterruptHandler	PTR FTN()void  size(2) Largest target is 1
		 -> EXT_ISR(), INT_DefaultInterruptHandler(), Absolute function(), 


Critical Paths under _main in COMMON

    None.

Critical Paths under _INTERRUPT_InterruptManager in COMMON

    _TMR1_ISR->_TMR1_ISR_
    _TMR1_ISR_->___awdiv
    _INT_CallBack->_EXT_ISR

Critical Paths under _main in BANK0

    None.

Critical Paths under _INTERRUPT_InterruptManager in BANK0

    _TMR1_ISR->_TMR1_ISR_

Critical Paths under _main in BANK1

    _main->_displayMatrix
    _displayMatrix->_shiftBytes
    _shiftBytes->_SPI1_ExchangeByte
    _TMR1_Initialize->_TMR1_SetInterruptHandler
    _TMR0_Initialize->_TMR0_SetInterruptHandler
    _EXT_INT_Initialize->_INT_SetInterruptHandler

Critical Paths under _INTERRUPT_InterruptManager in BANK1

    None.

Critical Paths under _main in BANK2

    None.

Critical Paths under _INTERRUPT_InterruptManager in BANK2

    None.

Critical Paths under _main in BANK3

    None.

Critical Paths under _INTERRUPT_InterruptManager in BANK3

    None.

Critical Paths under _main in BANK4

    None.

Critical Paths under _INTERRUPT_InterruptManager in BANK4

    None.

Critical Paths under _main in BANK5

    None.

Critical Paths under _INTERRUPT_InterruptManager in BANK5

    None.

Critical Paths under _main in BANK6

    None.

Critical Paths under _INTERRUPT_InterruptManager in BANK6

    None.

Critical Paths under _main in BANK7

    None.

Critical Paths under _INTERRUPT_InterruptManager in BANK7

    None.

Critical Paths under _main in BANK8

    None.

Critical Paths under _INTERRUPT_InterruptManager in BANK8

    None.

Critical Paths under _main in BANK9

    None.

Critical Paths under _INTERRUPT_InterruptManager in BANK9

    None.

Critical Paths under _main in BANK10

    None.

Critical Paths under _INTERRUPT_InterruptManager in BANK10

    None.

Critical Paths under _main in BANK11

    None.

Critical Paths under _INTERRUPT_InterruptManager in BANK11

    None.

Critical Paths under _main in BANK12

    None.

Critical Paths under _INTERRUPT_InterruptManager in BANK12

    None.

Call Graph Tables:

 ---------------------------------------------------------------------------------
 (Depth) Function   	        Calls       Base Space   Used Autos Params    Refs
 ---------------------------------------------------------------------------------
 (0) _main                                                15    15      0    4038
                                              9 BANK1     14    14      0
                 _EXT_INT_Initialize
            _INT_SetInterruptHandler
                    _PWM3_Initialize
                    _SPI1_Initialize
                  _SYSTEM_Initialize
                    _TMR0_Initialize
           _TMR0_SetInterruptHandler
                    _TMR1_Initialize
           _TMR1_SetInterruptHandler
                    _TMR2_Initialize
                      _displayMatrix
                           _playNote
                         _shiftBytes
 ---------------------------------------------------------------------------------
 (1) _playNote                                             3     2      1     511
                                              0 BANK1      3     2      1
 ---------------------------------------------------------------------------------
 (1) _displayMatrix                                        6     6      0     739
                                              3 BANK1      6     6      0
                         _shiftBytes
 ---------------------------------------------------------------------------------
 (1) _shiftBytes                                           2     1      1     363
                                              1 BANK1      2     1      1
                  _SPI1_ExchangeByte
 ---------------------------------------------------------------------------------
 (2) _SPI1_ExchangeByte                                    1     1      0      31
                                              0 BANK1      1     1      0
 ---------------------------------------------------------------------------------
 (1) _SYSTEM_Initialize                                    0     0      0     633
                 _EXT_INT_Initialize
              _OSCILLATOR_Initialize
             _PIN_MANAGER_Initialize
                    _PWM3_Initialize
                    _SPI1_Initialize
                    _TMR0_Initialize
                    _TMR1_Initialize
                    _TMR2_Initialize
                     _WDT_Initialize
 ---------------------------------------------------------------------------------
 (2) _WDT_Initialize                                       0     0      0       0
 ---------------------------------------------------------------------------------
 (1) _TMR2_Initialize                                      0     0      0       0
 ---------------------------------------------------------------------------------
 (1) _TMR1_Initialize                                      0     0      0     211
           _TMR1_SetInterruptHandler
 ---------------------------------------------------------------------------------
 (1) _TMR1_SetInterruptHandler                             2     0      2     211
                                              0 BANK1      2     0      2
 ---------------------------------------------------------------------------------
 (1) _TMR0_Initialize                                      0     0      0     211
           _TMR0_SetInterruptHandler
 ---------------------------------------------------------------------------------
 (1) _TMR0_SetInterruptHandler                             2     0      2     211
                                              0 BANK1      2     0      2
 ---------------------------------------------------------------------------------
 (2) _SPI1_Initialize                                      0     0      0       0
 ---------------------------------------------------------------------------------
 (2) _PWM3_Initialize                                      0     0      0       0
 ---------------------------------------------------------------------------------
 (2) _PIN_MANAGER_Initialize                               0     0      0       0
 ---------------------------------------------------------------------------------
 (2) _OSCILLATOR_Initialize                                0     0      0       0
 ---------------------------------------------------------------------------------
 (2) _EXT_INT_Initialize                                   0     0      0     211
            _INT_SetInterruptHandler
 ---------------------------------------------------------------------------------
 (3) _INT_SetInterruptHandler                              2     0      2     211
                                              0 BANK1      2     0      2
 ---------------------------------------------------------------------------------
 Estimated maximum stack depth 3
 ---------------------------------------------------------------------------------
 (Depth) Function   	        Calls       Base Space   Used Autos Params    Refs
 ---------------------------------------------------------------------------------
 (4) _INTERRUPT_InterruptManager                           0     0      0    2138
                            _INT_ISR
                           _TMR0_ISR
                           _TMR1_ISR
 ---------------------------------------------------------------------------------
 (5) _TMR1_ISR                                             0     0      0    2138
                   Absolute function *
       _TMR1_DefaultInterruptHandler *
                          _TMR1_ISR_ *
                    _TMR1_WriteTimer
 ---------------------------------------------------------------------------------
 (6) _TMR1_WriteTimer                                      2     0      2     240
                                              0 COMMON     2     0      2
 ---------------------------------------------------------------------------------
 (6) _TMR1_ISR_                                           36    36      0    1898
                                              9 COMMON     2     2      0
                                              0 BANK0     34    34      0
                            ___awdiv
                         i1_playNote
 ---------------------------------------------------------------------------------
 (7) i1_playNote                                           3     2      1     158
                                              0 COMMON     3     2      1
 ---------------------------------------------------------------------------------
 (7) ___awdiv                                              9     5      4     452
                                              0 COMMON     9     5      4
 ---------------------------------------------------------------------------------
 (6) _TMR1_DefaultInterruptHandler                         0     0      0       0
 ---------------------------------------------------------------------------------
 (5) _TMR0_ISR                                             0     0      0       0
                   Absolute function *
       _TMR0_DefaultInterruptHandler *
                          _TMR0_ISR_ *
 ---------------------------------------------------------------------------------
 (6) _TMR0_ISR_                                            0     0      0       0
 ---------------------------------------------------------------------------------
 (6) _TMR0_DefaultInterruptHandler                         0     0      0       0
 ---------------------------------------------------------------------------------
 (5) _INT_ISR                                              0     0      0       0
                       _INT_CallBack
 ---------------------------------------------------------------------------------
 (6) _INT_CallBack                                         0     0      0       0
                   Absolute function *
                            _EXT_ISR *
        _INT_DefaultInterruptHandler *
 ---------------------------------------------------------------------------------
 (7) _INT_DefaultInterruptHandler                          0     0      0       0
 ---------------------------------------------------------------------------------
 (7) _EXT_ISR                                              1     1      0       0
                                              0 COMMON     1     1      0
                        _TMR0_Reload
 ---------------------------------------------------------------------------------
 (8) _TMR0_Reload                                          0     0      0       0
 ---------------------------------------------------------------------------------
 (6) Absolute function(Fake)                               0     0      0       0
 ---------------------------------------------------------------------------------
 Estimated maximum stack depth 8
 ---------------------------------------------------------------------------------

 Call Graph Graphs:

 _main (ROOT)
   _EXT_INT_Initialize
     _INT_SetInterruptHandler
   _INT_SetInterruptHandler
   _PWM3_Initialize
   _SPI1_Initialize
   _SYSTEM_Initialize
     _EXT_INT_Initialize
     _OSCILLATOR_Initialize
     _PIN_MANAGER_Initialize
     _PWM3_Initialize
     _SPI1_Initialize
     _TMR0_Initialize
       _TMR0_SetInterruptHandler
     _TMR1_Initialize
       _TMR1_SetInterruptHandler
     _TMR2_Initialize
     _WDT_Initialize
   _TMR0_Initialize
   _TMR0_SetInterruptHandler
   _TMR1_Initialize
   _TMR1_SetInterruptHandler
   _TMR2_Initialize
   _displayMatrix
     _shiftBytes
       _SPI1_ExchangeByte
   _playNote
   _shiftBytes

 _INTERRUPT_InterruptManager (ROOT)
   _INT_ISR
     _INT_CallBack
       Absolute function(Fake) *
       _EXT_ISR *
         _TMR0_Reload
       _INT_DefaultInterruptHandler *
   _TMR0_ISR
     Absolute function(Fake) *
     _TMR0_DefaultInterruptHandler *
     _TMR0_ISR_ *
   _TMR1_ISR
     Absolute function(Fake) *
     _TMR1_DefaultInterruptHandler *
     _TMR1_ISR_ *
       ___awdiv
       i1_playNote
     _TMR1_WriteTimer *

 Address spaces:
Name               Size   Autos  Total    Cost      Usage
BIGRAM             3F0      0       0       0        0.0%
NULL                 0      0       0       0        0.0%
CODE                 0      0       0       0        0.0%
BITCOMMON            E      0       0       1        0.0%
BITSFR0              0      0       0       1        0.0%
SFR0                 0      0       0       1        0.0%
COMMON               E      B       E       2      100.0%
BITSFR1              0      0       0       2        0.0%
SFR1                 0      0       0       2        0.0%
BITSFR2              0      0       0       3        0.0%
SFR2                 0      0       0       3        0.0%
STACK                0      0       0       3        0.0%
BITSFR3              0      0       0       4        0.0%
SFR3                 0      0       0       4        0.0%
ABS                  0      0      A3       4        0.0%
BITBANK0            50      0       0       5        0.0%
BITSFR4              0      0       0       5        0.0%
SFR4                 0      0       0       5        0.0%
BANK0               50     22      36       6       67.5%
BITSFR5              0      0       0       6        0.0%
SFR5                 0      0       0       6        0.0%
BITBANK1            50      0       0       7        0.0%
BITSFR6              0      0       0       7        0.0%
SFR6                 0      0       0       7        0.0%
BANK1               50     17      23       8       43.8%
BITSFR7              0      0       0       8        0.0%
SFR7                 0      0       0       8        0.0%
BITBANK2            50      0       0       9        0.0%
BITSFR8              0      0       0       9        0.0%
SFR8                 0      0       0       9        0.0%
BANK2               50      0      3C      10       75.0%
BITSFR9              0      0       0      10        0.0%
SFR9                 0      0       0      10        0.0%
BITBANK3            50      0       0      11        0.0%
BITSFR10             0      0       0      11        0.0%
SFR10                0      0       0      11        0.0%
BANK3               50      0       0      12        0.0%
BITSFR11             0      0       0      12        0.0%
SFR11                0      0       0      12        0.0%
BITBANK4            50      0       0      13        0.0%
BITSFR12             0      0       0      13        0.0%
SFR12                0      0       0      13        0.0%
BANK4               50      0       0      14        0.0%
BITSFR13             0      0       0      14        0.0%
SFR13                0      0       0      14        0.0%
BITBANK5            50      0       0      15        0.0%
BITSFR14             0      0       0      15        0.0%
SFR14                0      0       0      15        0.0%
BANK5                F      0       0      16        0.0%
BITSFR15             0      0       0      16        0.0%
SFR15                0      0       0      16        0.0%
BITBANK6            50      0       0      17        0.0%
BITSFR16             0      0       0      17        0.0%
SFR16                0      0       0      17        0.0%
BITSFR17             0      0       0      18        0.0%
SFR17                0      0       0      18        0.0%
BANK6                0      0       0      18        0.0%
BITBANK7            50      0       0      19        0.0%
BITSFR18             0      0       0      19        0.0%
SFR18                0      0       0      19        0.0%
BITSFR19             0      0       0      20        0.0%
SFR19                0      0       0      20        0.0%
BANK7                0      0       0      20        0.0%
BITBANK8            50      0       0      21        0.0%
BITSFR20             0      0       0      21        0.0%
SFR20                0      0       0      21        0.0%
BITSFR21             0      0       0      22        0.0%
SFR21                0      0       0      22        0.0%
BANK8                0      0       0      22        0.0%
BITBANK9            50      0       0      23        0.0%
BITSFR22             0      0       0      23        0.0%
SFR22                0      0       0      23        0.0%
BITSFR23             0      0       0      24        0.0%
SFR23                0      0       0      24        0.0%
BANK9                0      0       0      24        0.0%
BITBANK10           50      0       0      25        0.0%
BITSFR24             0      0       0      25        0.0%
SFR24                0      0       0      25        0.0%
BITSFR25             0      0       0      26        0.0%
SFR25                0      0       0      26        0.0%
BANK10               0      0       0      26        0.0%
BITBANK11           50      0       0      27        0.0%
BITSFR26             0      0       0      27        0.0%
SFR26                0      0       0      27        0.0%
BITSFR27             0      0       0      28        0.0%
SFR27                0      0       0      28        0.0%
BANK11               0      0       0      28        0.0%
BITBANK12           30      0       0      29        0.0%
BITSFR28             0      0       0      29        0.0%
SFR28                0      0       0      29        0.0%
BITSFR29             0      0       0      30        0.0%
SFR29                0      0       0      30        0.0%
BANK12               0      0       0      30        0.0%
BITSFR30             0      0       0      31        0.0%
SFR30                0      0       0      31        0.0%
DATA                 0      0      A3      31        0.0%
BITSFR31             0      0       0      32        0.0%
SFR31                0      0       0      32        0.0%
BITSFR32             0      0       0      33        0.0%
SFR32                0      0       0      33        0.0%
BITSFR33             0      0       0      34        0.0%
SFR33                0      0       0      34        0.0%
BITSFR34             0      0       0      35        0.0%
SFR34                0      0       0      35        0.0%
BITSFR35             0      0       0      36        0.0%
SFR35                0      0       0      36        0.0%
BITSFR36             0      0       0      37        0.0%
SFR36                0      0       0      37        0.0%
BITSFR37             0      0       0      38        0.0%
SFR37                0      0       0      38        0.0%
BITSFR38             0      0       0      39        0.0%
SFR38                0      0       0      39        0.0%
BITSFR39             0      0       0      40        0.0%
SFR39                0      0       0      40        0.0%
BITSFR40             0      0       0      41        0.0%
SFR40                0      0       0      41        0.0%
BITSFR41             0      0       0      42        0.0%
SFR41                0      0       0      42        0.0%
BITSFR42             0      0       0      43        0.0%
SFR42                0      0       0      43        0.0%
BITSFR43             0      0       0      44        0.0%
SFR43                0      0       0      44        0.0%
BITSFR44             0      0       0      45        0.0%
SFR44                0      0       0      45        0.0%
BITSFR45             0      0       0      46        0.0%
SFR45                0      0       0      46        0.0%
BITSFR46             0      0       0      47        0.0%
SFR46                0      0       0      47        0.0%
BITSFR47             0      0       0      48        0.0%
SFR47                0      0       0      48        0.0%
BITSFR48             0      0       0      49        0.0%
SFR48                0      0       0      49        0.0%
BITSFR49             0      0       0      50        0.0%
SFR49                0      0       0      50        0.0%
BITSFR50             0      0       0      51        0.0%
SFR50                0      0       0      51        0.0%
BITSFR51             0      0       0      52        0.0%
SFR51                0      0       0      52        0.0%
BITSFR52             0      0       0      53        0.0%
SFR52                0      0       0      53        0.0%
BITSFR53             0      0       0      54        0.0%
SFR53                0      0       0      54        0.0%
BITSFR54             0      0       0      55        0.0%
SFR54                0      0       0      55        0.0%
BITSFR55             0      0       0      56        0.0%
SFR55                0      0       0      56        0.0%
BITSFR56             0      0       0      57        0.0%
SFR56                0      0       0      57        0.0%
BITSFR57             0      0       0      58        0.0%
SFR57                0      0       0      58        0.0%
BITSFR58             0      0       0      59        0.0%
SFR58                0      0       0      59        0.0%
BITSFR59             0      0       0      60        0.0%
SFR59                0      0       0      60        0.0%
BITSFR60             0      0       0      61        0.0%
SFR60                0      0       0      61        0.0%
BITSFR61             0      0       0      62        0.0%
SFR61                0      0       0      62        0.0%
BITSFR62             0      0       0      63        0.0%
SFR62                0      0       0      63        0.0%
BITSFR63             0      0       0      64        0.0%
SFR63                0      0       0      64        0.0%


Microchip Technology PIC Macro Assembler V2.32 build 20210201212658 
Symbol Table                                                                                   Thu Dec 23 11:01:29 2021

                       _SPI1_ExchangeByte 0D3B                                         _a 1004  
                                       _b 100A                                         _c 1009  
                                       _d 1008                                         _e 1007  
                                       _f 1006                                         _g 1005  
                                      l32 0CCC                                        l35 0CBC  
                                      l29 0DE2                                        l64 0D7D  
                                      l74 0D40                                        l76 0D45  
                                      l77 0D48                              ___awdiv@sign 0076  
                      ?_SPI1_ExchangeByte 0070                                       l226 0CE1  
                                     l147 07BB                                       l331 0CFC  
                                     l309 0DFF                                       l177 0D3A  
                                     l284 0D2C                                       l365 07FF  
                                     l278 0CF3                                       l570 0FFB  
                                     l395 0D05                                       l571 0FFC  
                                     l555 0F70                                       l547 0EF8  
                                     l556 0F34                                       l568 0FF9  
                                     l682 0D57                                       l666 07C9  
                                     l667 07D5                                       l668 07E1  
                                     l689 0757                                       _PR2 028D  
                         _timer1ReloadVal 007B                       ??_SPI1_ExchangeByte 00A0  
                         _TMR2_Initialize 0D2D                                       wreg 0009  
                          ?_displayMatrix 0070                                      l3011 0E29  
                                    l3003 0E1F                                      l3101 0F58  
                                    l3021 0E47                                      l3013 0E2B  
                                    l3005 0E22                                      l3111 0F9C  
                                    l3031 0E61                                      l3023 0E54  
                                    l3015 0E2C                                      l3007 0E23  
                                    l3121 0FE1                                      l3113 0FAD  
                                    l3105 0F5C                                      l3033 0E62  
                                    l3025 0E59                                      l3017 0E2D  
                                    l3009 0E27                                      l3123 0FE3  
                                    l3115 0FB5                                      l3107 0F75  
                                    l3051 0E7E                                      l3027 0E5E  
                                    l3019 0E3A                                      l3117 0FD5  
                                    l3109 0F95                                      l3125 0FE5  
                                    l3061 0EB2                                      l3053 0E8C  
                                    l3045 0E68                                      l3029 0E60  
                                    l3127 0FEB                                      l3119 0FDC  
                                    l3071 0EC7                                      l3063 0EB6  
                                    l3047 0E6C                                      l3039 0E65  
                                    l3129 0FF0                                      l3081 0F03  
                                    l3073 0ED5                                      l3065 0EC4  
                                    l3049 0E71                                      l3091 0F14  
                                    l3083 0F05                                      l3075 0ED9  
                                    l3059 0E8F                                      l3093 0F30  
                                    l3085 0F06                                      l3077 0EE6  
                                    l3191 0F65                                      l3095 0F38  
                                    l3087 0F0C                                      l3079 0EFA  
                                    l3097 0F54                                      l3089 0F11  
                                    l3099 0F56                                      l2901 0D34  
                                    l2911 07E7                                      l2903 0D35  
                                    l2841 0CF4                                      l2921 07F4  
                                    l2913 07E9                                      l2905 0D37  
                                    l2833 0D3D                                      l2851 0D79  
                                    l2931 0DE3                                      l2843 0CFD  
                                    l2923 07FC                                      l2915 07EB  
                                    l2907 07E2                                      l2835 0D46  
                                    l2925 0D1F                                      l2861 079B  
                                    l2853 0D7B                                      l2845 0D69  
                                    l2933 0DF1                                      l2917 07ED  
                                    l2909 07E5                                      l2941 0D4B  
                                    l2839 0CEB                                      l2927 0D22  
                                    l2871 07AA                                      l2863 079E  
                                    l2855 0794                                      l2847 0D76  
                                    l2935 0DF3                                      l2919 07F2  
                                    l2951 0DD3                                      l2943 0D54  
                                    l2929 0D2A                                      l2881 07B6  
                                    l2873 07AC                                      l2865 07A4  
                                    l2857 0797                                      l2849 0D77  
                                    l2937 0DF4                                      l2953 0DD6  
                                    l2945 0D56                                      l2961 071C  
                                    l2883 07B8                                      l2875 07AF  
                                    l2867 07A6                                      l2859 0799  
                                    l2939 0DFC                                      l2891 0CBA  
                                    l2955 0DD9                                      l2947 0DC7  
                                    l2971 072A                                      l2885 0CC7  
                                    l2877 07B1                                      l2869 07A8  
                                    l2893 0CDA                                      l2957 0DDC  
                                    l2949 0DD0                                      l2973 072E  
                                    l2981 07BE                                      l2887 0CC9  
                                    l2879 07B4                                      l2895 0D2D  
                                    l2959 0DDF                                      l2975 073C  
                                    l2967 071F                                      l2983 07C5  
                                    l2889 0CCB                                      l2897 0D30  
                                    l2977 0745                                      l2969 0725  
                                    l2985 07D1                                      l2899 0D31  
                                    l2979 074A                                      u2000 0757  
                                    u2001 0756                                      u2010 07C5  
                                    u2011 07C4                                      u2020 07D1  
                                    u2100 0EE6                                      u2005 0753  
                                    u2021 07D0                                      u2101 0EE5  
                                    u2110 0EF8                                      u2111 0EF7  
                                    u2120 0F0C                                      u2121 0F0B  
                                    u2105 0EE2                                      u2130 0F11  
                                    u2050 0E7E                                      u2131 0F10  
                                    u2115 0EF4                                      u2051 0E7D  
                                    u2140 0F9B                                      u2060 0E8C  
                                    u2141 0F9A                                      u2061 0E8B  
                                    _LATA 0018                                      u2150 0FB4  
                         __end_of_INT_ISR 0CC7                                      u2151 0FB3  
                                    u2055 0E7A                                      _LATC 001A  
                                    u2160 0FDC                                      u2161 0FDB  
                                    u2065 0E88                                      u2170 0FEB  
                                    u2090 0EC3                                      u2171 0FEA  
                                    u2091 0EC2                                      u2075 0E97  
                                    u2180 0FF0                                      u2181 0FEF  
                                    u2085 0EA2                                      u2095 0EBF  
                                    _T2PR 028D                                      u2197 0740  
                                    u1980 0D45                                      u1981 0D44  
                                    u1990 0725                                      u1991 0724  
                         __end_of_EXT_ISR 0DC7                                      _TMR2 028C  
                                    _WPUA 1F39                                      _WPUC 1F4F  
                                    _main 0E1F                                i1_playNote 0E00  
                                    fsr0h 0005                                      fsr1h 0007  
                                    fsr0l 0004                                      indf1 0001  
                                    fsr1l 0006                                      btemp 007E  
     __end_of_INT_DefaultInterruptHandler 0CB9               _INT_DefaultInterruptHandler 0CB8  
                                    start 0031           __end_of_INT_SetInterruptHandler 0CF4  
               __end_of_SPI1_ExchangeByte 0D49                ??_TMR1_SetInterruptHandler 00A2  
                 __end_of_TMR0_Initialize 0E00            ??_TMR0_DefaultInterruptHandler 0070  
          __size_of_OSCILLATOR_Initialize 0006             __end_of_OSCILLATOR_Initialize 0CCD  
                                   ?_main 0070                           __end_of___awdiv 071A  
                                   _T1CLK 0211                           ___awdiv@divisor 0070  
                                   _T1CON 020E                                     _T2CON 028E  
                                   _T2HLT 028F                                     _T2TMR 028C  
                                   i1l250 0013                                     _T2RST 0291  
                                   i1l324 0CEA                                     i1l252 001F  
                                   i1l253 002F                                     i1l334 0CB9  
                                   i1l271 0CC6                                     i1l328 0DAA  
                                   i1l281 0CB8                                     i1l258 002F  
                                   i1l275 0D1E                                     i1l392 0D93  
                                   i1l379 0D68                                     i1l580 0DC6  
                                   i1l910 0719                                     i1l398 0002  
                                   i1l583 0CC0                                     i1l663 0469  
                                   i1l657 0428                                     i1l666 0E0B  
                                   i1l586 0177                                     i1l667 0E15  
                                   i1l668 0E1E                           ___awdiv@counter 0075  
                                   _OSCEN 0891                                     _TMR0H 059D  
                        playNote@prescale 00A0                                     _TMR1H 020D  
                                   _TMR0L 059C                                     _TMR1L 020C  
                                   _TRISA 0012                                     _TRISC 0014  
       __size_of_TMR0_SetInterruptHandler 0009                 ?_TMR0_SetInterruptHandler 00A0  
                      __size_of_TMR0_ISR_ 0004                        __size_of_TMR1_ISR_ 03EB  
                        __end_of_TMR0_ISR 0DAB                          __end_of_TMR1_ISR 0D94  
                          _WDT_Initialize 0CBA                                     _count 00BE  
                                   _song2 0120                                     _song3 223D  
                                   main@i 00B1                                     main@j 00AF  
                 __end_of_PWM3_Initialize 0CE2                   __end_of_TMR1_Initialize 0800  
                                   pclath 000A                                     status 0003  
                                   wtemp0 007E                           _TMR1_WriteTimer 0D58  
                __size_of_SPI1_Initialize 0015                           __initialization 0033  
                            __end_of_main 1000                   __end_of_TMR2_Initialize 0D3B  
             ?_INTERRUPT_InterruptManager 0070                      TMR1_ISR_@lights_1185 0021  
                    TMR1_ISR_@lights_1194 0022                                    ??_main 00A9  
                         ??_displayMatrix 00A3                    __end_of_WDT_Initialize 0CBD  
                               ??_INT_ISR 0071                                 ??_EXT_ISR 0070  
                        ___awdiv@dividend 0072                                    _ANSELA 1F38  
                                  _ANSELC 1F4E                                    _T0CON0 059E  
                                  _T0CON1 059F                                    _T1GATE 0210  
                                  _T1GCON 020F                                    _RA5PPS 1F15  
                                  _RC3PPS 1F23                   TMR1_WriteTimer@timerVal 0070  
                                  i1l2101 0DC5                                    u110_25 06ED  
                                  i1l2111 06C7                                    i1l2103 06BB  
                                  u103_20 0DB8                                    u111_20 06FB  
                                  u103_21 0DB7                                    u111_21 06FA  
                                  i1l2121 06DC                                    i1l2113 06CB  
                                  i1l2105 06BC                                    i1l2131 06FB  
                                  i1l2123 06DF                                    i1l2115 06D0  
                                  i1l2107 06C0                                    _RC5PPS 1F25  
                                  i1l2141 0710                                    i1l2133 06FF  
                                  u111_25 06F7                                    i1l2125 06E4  
                                  i1l2117 06D4                                    i1l2109 06C5  
                                  i1l2301 0104                                    i1l2143 0715  
                                  i1l2135 0700                                    i1l2127 06E8  
                                  i1l2119 06D6                                    i1l2151 0E12  
                                  i1l2311 0126                                    i1l2303 0116  
                                  u104_20 0DC5                                    u120_20 0098  
                                  i1l2073 0CE2                                    u104_21 0DC4  
                                  i1l2137 0705                                    i1l2129 06EC  
                                  i1l2313 012A                                    u120_21 0097  
                                  _ODCONA 1F3A                                    i1l2075 0CE6  
                                  i1l2091 0DB0                                    i1l2251 0D19  
                                  i1l2139 070B                                    i1l2147 0E01  
                                  i1l2403 0255                                    i1l2323 0149  
                                  i1l2315 0138                                    i1l2331 0177  
                                  _ODCONC 1F50                                    i1l2093 0DB3  
                                  u112_25 0701                                    i1l2149 0E08  
                                  i1l2501 03D5                                    i1l2421 02A4  
                                  i1l2413 0284                                    i1l2405 0262  
                                  i1l2341 018E                                    i1l2333 017D  
                                  i1l2325 0165                                    i1l2317 0146  
                                  i1l2309 0118                                    u120_25 0094  
                                  i1l2261 0D62                                    i1l2253 0D58  
                                  i1l2095 0DB8                                    i1l2431 02C9  
                                  i1l2423 02B2                                    i1l2415 0291  
                                  i1l2407 0274                                    i1l2343 0197  
                                  i1l2335 018B                                    i1l2327 0169  
                                  i1l2255 0D5D                                    i1l2263 0D64  
                                  u113_20 070B                                    u105_20 06C0  
                                  u121_20 00A6                                    i1l2097 0DBD  
                                  i1l2089 0DAB                                    i1l2249 0D12  
                                  i1l2273 0CBD                                    u113_21 070A  
                                  u105_21 06BF                                    i1l2521 0413  
                                  i1l2505 03E3                                    i1l2513 03F1  
                                  i1l2441 0304                                    i1l2425 02B5  
                                  i1l2409 0276                                    i1l2361 01D5  
                                  i1l2345 019B                                    u121_21 00A5  
                                  i1l2281 0098                                    i1l2265 0D66  
                                  i1l2257 0D5E                                    i1l2099 0DBF  
                                  i1l2531 043C                                    i1l2523 0417  
                                  i1l2507 03EC                                    i1l2515 0407  
                                  i1l2451 032C                                    i1l2443 030A  
                                  i1l2435 02CE                                    i1l2419 0296  
                                  i1l2371 01EF                                    i1l2363 01E3  
                                  i1l2355 01BA                                    i1l2347 01A9  
                                  i1l2283 00A6                                    i1l2275 007F  
                                  i1l2259 0D60                                    i1l2541 0462  
                                  i1l2533 0441                                    i1l2525 041B  
                                  i1l2461 0365                                    i1l2453 0348  
                                  i1l2445 031C                                    i1l2437 02DC  
                                  i1l2429 02C3                                    i1l2373 01F3  
                                  i1l2357 01C3                                    i1l2349 01B7  
                                  i1l2517 0408                                    i1l2293 00C8  
                                  u121_25 00A2                                    i1l2285 00B4  
                                  i1l2277 0084                                    i1l2535 044E  
                                  i1l2527 0421                                    i1l2519 040E  
                                  i1l2471 0392                                    i1l2463 0379  
                                  i1l2447 031E                                    i1l2439 02E6  
                                  i1l2391 0236                                    i1l2383 020C  
                                  i1l2375 0201                                    i1l2359 01C7  
                                  i1l2295 00E4                                    i1l2287 00C6  
                                  i1l2279 008A                                    i1l2631 000F  
                                  u114_20 0710                                    u106_20 06CB  
                                  u122_20 00B4                                    u114_21 070F  
                                  u106_21 06CA                                    i1l2529 0436  
                                  i1l3193 03F9                                    i1l2481 03A7  
                                  i1l2465 037B                                    i1l2457 034D  
                                  i1l2393 0239                                    i1l2385 0215  
                                  i1l2377 0209                                    i1l2369 01E6  
                                  i1l2297 00E8                                    u122_21 00B3  
                                  i1l2641 002B                                    i1l2633 0017  
                                  i1l2571 0DA5                                    i1l2563 0D94  
                                  i1l2539 0455                                    i1l2483 03B0  
                                  i1l2475 0397                                    i1l2459 0353  
                                  i1l2387 0219                                    i1l2299 00F6  
                                  i1l2635 001B                                    i1l2627 0006  
                                  i1l2573 0CC1                                    i1l2565 0D96  
                                  i1l2493 03C5                                    i1l2477 0399  
                                  i1l2469 0389                                    i1l2397 0247  
                                  i1l2389 0227                                    u130_25 0151  
                                  u122_25 00B0                                    i1l2581 0D87  
                                  i1l2637 0023                                    i1l2629 000B  
                                  i1l2575 0CC3                                    i1l2567 0D9A  
                                  i1l2495 03CE                                    i1l2487 03B5  
                                  i1l2399 0250                                    i1l2583 0D8E  
                                  i1l2639 0027                                    u107_20 06DC  
                                  u115_20 0E08                                    u131_20 0176  
                                  u123_20 00C6                                    i1l2569 0D9E  
                                  u107_21 06DB                                    u115_21 0E07  
                                  i1l2489 03B7                                    u131_21 0175  
                                  u123_21 00C5                                    i1l2577 0D7E  
                                  i1l2499 03D3                                    i1l2579 0D80  
                                  u131_25 0172                                    u116_20 0E12  
                                  u140_20 0226                                    u132_20 017D  
                                  u116_21 0E11                                    u140_21 0225  
                                  u132_21 017C                                    u108_25 06E0  
                                  u140_25 0222                                    u124_25 00D0  
                                  u117_20 0D19                                    u109_20 06EC  
                                  u141_20 0236                                    u133_20 018B  
                                  u125_20 00F5                                    u117_21 0D18  
                                  u109_21 06EB                                    u141_21 0235  
                                  u133_21 018A                                    u125_21 00F4  
                                  u133_25 0187                                    u125_25 00F1  
                                  u150_20 02E6                                    u142_20 0246  
                                  u134_20 01A8                                    u126_20 0104  
                                  u118_20 0D5D                                    u150_21 02E5  
                                  u142_21 0245                                    u134_21 01A7  
                                  u126_21 0103                                    u118_21 0D5C  
                                  u142_25 0242                                    u134_25 01A4  
                                  u126_25 0100                                    u151_20 030A  
                                  u143_20 0262                                    u135_20 01B7  
                                  u127_20 0116                                    u119_20 008A  
                                  u151_21 0309                                    u143_21 0261  
                                  u135_21 01B6                                    u127_21 0115  
                                  u119_21 0089                                    u143_25 025E  
                                  u135_25 01B3                                    u160_20 03E2  
                                  u152_20 031C                                    u144_20 0274  
                                  u136_20 01D4                                    u128_20 0137  
                                  u160_21 03E1                                    u152_21 031B  
                                  u144_21 0273                                    u136_21 01D3  
                                  u128_21 0136                                    _INLVLA 1F3C  
                                  _INLVLC 1F52                                    u160_25 03DE  
                                  u136_25 01D0                                    u128_25 0133  
                                  u161_20 040E                                    u153_20 032B  
                                  u145_20 0283                                    u137_20 01E3  
                                  u129_20 0146                                    u161_21 040D  
                                  u153_21 032A                                    u145_21 0282  
                                  u137_21 01E2                                    u129_21 0145  
                                  u153_25 0327                                    u145_25 027F  
                                  u137_25 01DF                                    u129_25 0142  
                                  u162_20 0421                                    u146_20 02A4  
                                  u138_20 0200                                    u170_20 0D8E  
                                  u162_21 0420                                    u146_21 02A3  
                                  u138_21 01FF                                    u170_21 0D8D  
                                  u154_25 0334                                    u146_25 02A0  
                                  u138_25 01FC                                    u163_20 0436  
                                  u155_20 0353                                    u147_20 02B2  
                                  u139_20 0209                                    u163_21 0435  
                                  u155_21 0352                                    u147_21 02B1  
                                  u139_21 0208                                    u163_25 0432  
                                  u147_25 02AE                                    u164_20 043C  
                                  u156_20 0365                                    u148_20 02C2  
                                  u180_20 001B                                    u164_21 043B  
                                  u156_21 0364                                    u148_21 02C1  
                                  u180_21 001A                                    u148_25 02BE  
                                  u165_20 044E                                    u157_20 0388  
                                  u149_20 02DC                                    u181_20 0023  
                                  u165_21 044D                                    u157_21 0387  
                                  u149_21 02DB                                    u181_21 0022  
                                  u165_25 044A                                    u157_25 0384  
                                  u149_25 02D8                                    u166_20 0454  
                                  u158_20 03A6                                    u182_20 0027  
                                  u166_21 0453                                    u158_21 03A5  
                                  u182_21 0026                                    u158_25 03A2  
                                  u167_20 0462                                    u159_20 03C4  
                                  u183_20 002B                                    u167_21 0461  
                                  u159_21 03C3                                    u183_21 002A  
                                  u167_25 045E                                    u159_25 03C0  
                                  u168_20 0468                                    u168_21 0467  
                                  _INTPPS 1E90                                    u169_20 0DA5  
                                  u177_20 000B                                    u169_21 0DA4  
                                  u177_21 000A                                    u178_20 000F  
                                  u178_21 000E                                    u179_20 0017  
                                  u179_21 0016                                    _OSCFRQ 0893  
                                  _WDTCON 080C                               ?i1_playNote 0070  
              __size_of_SPI1_ExchangeByte 000E      __end_of_TMR1_DefaultInterruptHandler 0003  
   __size_of_TMR1_DefaultInterruptHandler 0001              _TMR1_DefaultInterruptHandler 0002  
                       __end_of_TMR0_ISR_ 0CC1                         __end_of_TMR1_ISR_ 046A  
                            ?_TMR0_Reload 0070                                 ??___awdiv 0074  
                        ?_TMR0_Initialize 0070                          ___awdiv@quotient 0077  
                           ?_INT_CallBack 0070                          __end_of_playNote 07E2  
                            __pdataBIGRAM 219F                              __pdataCOMMON 007D  
                         ?_WDT_Initialize 0070          __size_of_INT_SetInterruptHandler 0009  
TMR1_SetInterruptHandler@InterruptHandler 00A0  TMR0_SetInterruptHandler@InterruptHandler 00A0  
 INT_SetInterruptHandler@InterruptHandler 00A0                   __end_of_TMR1_WriteTimer 0D69  
                        ?_TMR1_Initialize 0070                          ?_PWM3_Initialize 0070  
                       _SYSTEM_Initialize 0DC7                   __end_of__initialization 007B  
                      ?_SYSTEM_Initialize 0070                             _last_prescale 004B  
                    _silent_night_playing 004F                            __pcstackCOMMON 0070  
                            __pidataBANK0 0CCD                              __pidataBANK1 0CD3  
                            __pidataBANK2 0758                       ??_SYSTEM_Initialize 00A2  
                               ?_TMR0_ISR 0070                                 ?_TMR1_ISR 0070  
           ?_TMR1_DefaultInterruptHandler 0070                        i1playNote@prescale 0070  
                       ??_SPI1_Initialize 00A0                          ?_TMR2_Initialize 0070  
                          ??_INT_CallBack 0071                     SPI1_ExchangeByte@data 00A0  
                       shiftBytes@lowSide 00A1                        _spi1_configuration 1000  
             __size_of_EXT_INT_Initialize 000E                       __size_ofi1_playNote 001F  
               __end_of_SYSTEM_Initialize 0DE3                        TMR1_ISR_@jungle_sw 0023  
                              __pbssBANK0 004A                                __pbssBANK1 00BE  
                              __pnvCOMMON 007B                                __pmaintext 0E1F  
        __end_of_TMR0_SetInterruptHandler 0CFD                                ??_TMR0_ISR 0070  
                              ??_TMR1_ISR 007B                                __pintentry 0004  
                    displayMatrix@lowSide 00A8                                   _INT_ISR 0CC1  
                                 _EXT_ISR 0DAB                                   _OSCTUNE 0892  
                                 _PWM3DCH 0315                                   _PWM3DCL 0314  
                                 _PWM3CON 0316                                   _SSP1ADD 018D  
                                 _SLRCONA 1F3B                                   _SLRCONC 1F51  
                                 _SSP1BUF 018C                          ?_TMR1_WriteTimer 0070  
                               ?_playNote 00A0                                   ___awdiv 06BB  
                    __size_of_TMR0_Reload 0009                                   __ptext1 07BC  
                                 __ptext2 071A                                   __ptext3 0D49  
                                 __ptext4 0D3B                                   __ptext5 0DC7  
                                 __ptext6 0CBA                                   __ptext7 0D2D  
                                 __ptext8 07E2                                   __ptext9 0CFD  
          ??_TMR1_DefaultInterruptHandler 0070                                 _T1CONbits 020E  
                   _OSCILLATOR_Initialize 0CC7                                 _T2CONbits 028E  
                          displayMatrix@i 00A6         __size_of_TMR1_SetInterruptHandler 0009  
                ??_PIN_MANAGER_Initialize 00A0                 ?_TMR1_SetInterruptHandler 00A0  
                               _T2HLTbits 028F                   _INT_SetInterruptHandler 0CEB  
                                 _presses 00C1                __size_of_SYSTEM_Initialize 001C  
                    end_of_initialization 007B                                 _T2RSTbits 0291  
                                 init_ram 0D06                              ??i1_playNote 0071  
                                 initloop 0D07                      __end_of_INT_CallBack 0D1F  
                              _shiftBytes 0D49                                ??_playNote 00A1  
                               _TMR0_ISR_ 0CBD                                 _TMR1_ISR_ 007F  
                        ??_WDT_Initialize 00A0                  _TMR0_SetInterruptHandler 0CF4  
                      __end_ofi1_playNote 0E1F                                 _TRISAbits 0012  
                               _TRISCbits 0014                     __end_of_displayMatrix 0758  
                              main@j_1173 00B3                                main@j_1175 00B5  
                        _silent_night_pre 2366                           _SPI1_Initialize 0D69  
                    _timer0ReloadVal16bit 0046                             __pidataBIGRAM 046A  
                              ?_TMR0_ISR_ 0070                                ?_TMR1_ISR_ 0070  
                           __pidataCOMMON 0003                         __size_of_TMR0_ISR 0017  
                       __size_of_TMR1_ISR 0016                    ?_OSCILLATOR_Initialize 0070  
               ??_INT_SetInterruptHandler 00A2                        shiftBytes@highSide 00A2  
                     start_initialization 0033                  __size_of_TMR0_Initialize 001D  
         __size_of_PIN_MANAGER_Initialize 0028              ?_INT_DefaultInterruptHandler 0070  
                             ?_shiftBytes 00A1                  __size_of_PWM3_Initialize 0008  
                __size_of_TMR1_Initialize 001E                               __pdataBANK0 0050  
                             __pdataBANK1 00B7                               __pdataBANK2 0120  
              __end_of_EXT_INT_Initialize 0D2D                               __pbssCOMMON 0000  
                               ___latbits 0002                                  ?_INT_ISR 0070  
                           __pcstackBANK0 0020                             __pcstackBANK1 00A0  
                                ?_EXT_ISR 0070                  __size_of_TMR2_Initialize 000E  
                 __end_of_SPI1_Initialize 0D7E                     __size_of_INT_CallBack 000D  
                               __end_of_a 1005                                 __end_of_b 100B  
                               __end_of_c 100A                                 __end_of_d 1009  
                               __end_of_e 1008                                 __end_of_f 1007  
                               __end_of_g 1006                           TMR1_ISR_@i_1190 002C  
                         TMR1_ISR_@i_1191 003A                           TMR1_ISR_@i_1183 0038  
                         TMR1_ISR_@i_1184 003E                           TMR1_ISR_@i_1192 002E  
                         TMR1_ISR_@i_1193 0040                           TMR1_ISR_@i_1186 0024  
                         TMR1_ISR_@i_1187 0026                           TMR1_ISR_@i_1196 0030  
                         TMR1_ISR_@i_1188 0028                           TMR1_ISR_@i_1197 0032  
                         TMR1_ISR_@i_1189 002A                           TMR1_ISR_@i_1198 0034  
                         TMR1_ISR_@i_1199 0036                     _TMR0_InterruptHandler 0044  
                               __pnvBANK0 0042                           TMR1_ISR_@lights 0020  
                  _PIN_MANAGER_Initialize 0794             ??_INT_DefaultInterruptHandler 0070  
                       __size_of_playNote 0026          __end_of_TMR1_SetInterruptHandler 0D06  
                                ?___awdiv 0070                               ??_TMR0_ISR_ 0070  
                             ??_TMR1_ISR_ 0079              ??_INTERRUPT_InterruptManager 007B  
                     displayMatrix@states 00A5                              _INT_CallBack 0D12  
                            playNote@note 00A2                       __size_of_shiftBytes 000F  
                               _last_note 004C                                TMR1_ISR_@i 003C  
                                _T2CLKCON 0290                         ??_TMR0_Initialize 00A2  
                                _LATCbits 001A                                  _PIE0bits 0716  
                                _PIE1bits 0717                  __size_of_TMR1_WriteTimer 0011  
     __size_of_INTERRUPT_InterruptManager 002D                ??_TMR0_SetInterruptHandler 00A2  
                                _PIR0bits 070C                                  _PIR1bits 070D  
                           ??_TMR0_Reload 0070                                 _song2_pre 0000  
                               _song3_pre 219F                                  _SSP1CON1 0190  
                                _SSP1CON2 0191                                  _TMR0_ISR 0D94  
                                _TMR1_ISR 0D7E                                 _num_songs 007D  
                                _SSP1STAT 018F                         ??_TMR1_Initialize 00A2  
                       ??_PWM3_Initialize 00A0                                 main@light 00AE  
    __size_of_INT_DefaultInterruptHandler 0001                            i1playNote@note 0072  
                        __size_of_INT_ISR 0006                          __size_of_EXT_ISR 001C  
                        ?_SPI1_Initialize 0070                         ??_TMR2_Initialize 00A0  
                           _song2_playing 004D                             _song3_playing 004E  
                           _TMR0_complete 00C2                   ??_OSCILLATOR_Initialize 00A0  
                            _jungle_count 004A                          __size_of___awdiv 005F  
                             _light_array 00B7                  _TMR1_SetInterruptHandler 0CFD  
                     __end_of_TMR0_Reload 0CEB                     _TMR1_InterruptHandler 0042  
                              _T0CON0bits 059E                                  __ptext10 0DE3  
                                __ptext11 0CF4                                  __ptext20 0D58  
                                __ptext12 0D69                                  __ptext21 0002  
                                __ptext13 0CDA                                _T1GCONbits 020F  
                                __ptext30 0DAB                                  __ptext22 007F  
                                __ptext14 0794                                  __ptext31 0CB8  
                                __ptext23 0E00                                  __ptext15 0CC7  
                                __ptext32 0CE2                                  __ptext24 06BB  
                                __ptext16 0D1F                                  __ptext25 0D94  
                                __ptext17 0CEB                                  __ptext26 0CB9  
                                __ptext27 0CBD                                  __ptext19 0D7E  
                                __ptext28 0CC1                                  __ptext29 0D12  
                            _SSP1CON1bits 0190                             __size_of_main 01E1  
    __end_of_TMR0_DefaultInterruptHandler 0CBA     __size_of_TMR0_DefaultInterruptHandler 0001  
            _TMR0_DefaultInterruptHandler 0CB9                              ??_shiftBytes 00A2  
                                _playNote 07BC                    __size_of_displayMatrix 003E  
                                int$flags 007E        __end_of_INTERRUPT_InterruptManager 0031  
              _INTERRUPT_InterruptManager 0004                         ??_TMR1_WriteTimer 0072  
                            _song2_length 0053                              _song3_length 0050  
                              _INTCONbits 000B                      _INT_InterruptHandler 0048  
                      __end_of_shiftBytes 0D58                               _jungle_bool 00C0  
                            _silent_night 22DB                        _EXT_INT_Initialize 0D1F  
                 __size_of_WDT_Initialize 0003                                  intlevel1 0000  
                 ?_PIN_MANAGER_Initialize 0070                       ?_EXT_INT_Initialize 0070  
           ?_TMR0_DefaultInterruptHandler 0070                               _TMR0_Reload 0CE2  
                            _timer_high_2 0055                              _timer_high_3 0052  
                ?_INT_SetInterruptHandler 00A0                             __pstringtext1 1000  
                           __pstringtext2 1004                             __pstringtext3 1005  
                           __pstringtext4 1006                             __pstringtext5 1007  
                           __pstringtext6 1008                             __pstringtext7 1009  
                           __pstringtext8 100A                      ??_EXT_INT_Initialize 00A2  
                              _SSP1DATPPS 1EC6                                _SSP1CLKPPS 1EC5  
                         _TMR0_Initialize 0DE3                               _timer_low_2 0054  
                             _timer_low_3 0051                             _displayMatrix 071A  
          __end_of_PIN_MANAGER_Initialize 07BC                           _TMR1_Initialize 07E2  
                         _PWM3_Initialize 0CDA                __end_of_spi1_configuration 1004  
