

Microchip MPLAB XC8 Assembler V2.32 build 20210201212658 
                                                                                               Sat Dec 25 07:38:33 2021

Microchip MPLAB XC8 C Compiler v2.32 (Free license) build 20210201212658 Og1 
     1                           	processor	16F15225
     2                           	pagewidth 120
     3                           	opt	flic
     4                           	psect	idataBIGRAM,global,class=CODE,delta=2,noexec
     5                           	psect	idataBANK0,global,class=CODE,delta=2,noexec
     6                           	psect	idataBANK1,global,class=CODE,delta=2,noexec
     7                           	psect	stringtext1,global,class=STRCODE,delta=2,noexec
     8                           	psect	stringtext2,global,class=STRCODE,delta=2,noexec
     9                           	psect	stringtext3,global,class=STRCODE,delta=2,noexec
    10                           	psect	stringtext4,global,class=STRCODE,delta=2,noexec
    11                           	psect	stringtext5,global,class=STRCODE,delta=2,noexec
    12                           	psect	stringtext6,global,class=STRCODE,delta=2,noexec
    13                           	psect	stringtext7,global,class=STRCODE,delta=2,noexec
    14                           	psect	stringtext8,global,class=STRCODE,delta=2,noexec
    15                           	psect	nvCOMMON,global,class=COMMON,space=1,delta=1,noexec
    16                           	psect	nvBANK0,global,class=BANK0,space=1,delta=1,noexec
    17                           	psect	cinit,global,class=CODE,merge=1,delta=2
    18                           	psect	dataBIGRAM,global,delta=1
    19                           	psect	bssCOMMON,global,class=COMMON,space=1,delta=1,noexec
    20                           	psect	bssBANK0,global,class=BANK0,space=1,delta=1,noexec
    21                           	psect	dataBANK0,global,class=BANK0,space=1,delta=1,noexec
    22                           	psect	dataBANK1,global,class=BANK1,space=1,delta=1,noexec
    23                           	psect	inittext,global,class=CODE,delta=2
    24                           	psect	cstackBANK2,global,class=BANK2,space=1,delta=1,noexec
    25                           	psect	cstackBANK1,global,class=BANK1,space=1,delta=1,noexec
    26                           	psect	cstackCOMMON,global,class=COMMON,space=1,delta=1,noexec
    27                           	psect	cstackBANK0,global,class=BANK0,space=1,delta=1,noexec
    28                           	psect	maintext,global,class=CODE,merge=1,split=1,delta=2
    29                           	psect	text1,local,class=CODE,merge=1,delta=2
    30                           	psect	text2,local,class=CODE,merge=1,delta=2
    31                           	psect	text3,local,class=CODE,merge=1,delta=2
    32                           	psect	text4,local,class=CODE,merge=1,delta=2
    33                           	psect	text5,local,class=CODE,merge=1,delta=2
    34                           	psect	text6,local,class=CODE,merge=1,delta=2
    35                           	psect	text7,local,class=CODE,merge=1,delta=2
    36                           	psect	text8,local,class=CODE,merge=1,delta=2
    37                           	psect	text9,local,class=CODE,merge=1,delta=2
    38                           	psect	text10,local,class=CODE,merge=1,delta=2
    39                           	psect	text11,local,class=CODE,merge=1,delta=2
    40                           	psect	text12,local,class=CODE,merge=1,delta=2
    41                           	psect	text13,local,class=CODE,merge=1,delta=2
    42                           	psect	text14,local,class=CODE,merge=1,delta=2
    43                           	psect	text15,local,class=CODE,merge=1,delta=2
    44                           	psect	text16,local,class=CODE,merge=1,delta=2
    45                           	psect	text17,local,class=CODE,merge=1,delta=2
    46                           	psect	intentry,global,class=CODE,delta=2
    47                           	psect	text19,local,class=CODE,merge=1,delta=2
    48                           	psect	text20,local,class=CODE,merge=1,delta=2
    49                           	psect	text21,local,class=CODE,merge=1,delta=2
    50                           	psect	text22,local,class=CODE,merge=1,delta=2
    51                           	psect	text23,local,class=CODE,merge=1,delta=2
    52                           	psect	text24,local,class=CODE,merge=1,delta=2
    53                           	psect	text25,local,class=CODE,merge=1,delta=2
    54                           	psect	text26,local,class=CODE,merge=1,delta=2
    55                           	psect	text27,local,class=CODE,merge=1,delta=2
    56                           	psect	text28,local,class=CODE,merge=1,delta=2
    57                           	psect	text29,local,class=CODE,merge=1,delta=2
    58                           	psect	text30,local,class=CODE,merge=1,delta=2
    59                           	psect	config,global,abs,ovrld,class=CONFIG,space=4,delta=2,noexec
    60                           	dabs	1,0x620,48
    61                           	dabs	1,0x5A0,80
    62                           	dabs	1,0x566,10
    63                           	dabs	1,0x520,70
    64                           	dabs	1,0x4AB,69
    65                           	dabs	1,0x4A0,11
    66                           	dabs	1,0x420,80
    67                           	dabs	1,0x3A0,80
    68                           	dabs	1,0x36B,5
    69                           	dabs	1,0x320,75
    70                           	dabs	1,0x2A0,80
    71                           	dabs	1,0x25B,21
    72                           	dabs	1,0x217B,0,_song2_pre
    73                           	dabs	1,0x222B,0,_song2
    74                           	dabs	1,0x22DB,0,_silent_night
    75                           	dabs	1,0x2366,0,_silent_night_pre
    76                           	dabs	1,0x7E,2
    77  0000                     
    78                           ; Version 2.35
    79                           ; Generated 13/04/2021 GMT
    80                           ; 
    81                           ; Copyright © 2021, Microchip Technology Inc. and its subsidiaries ("Microchip")
    82                           ; All rights reserved.
    83                           ; 
    84                           ; This software is developed by Microchip Technology Inc. and its subsidiaries ("Microch
      +                          ip").
    85                           ; 
    86                           ; Redistribution and use in source and binary forms, with or without modification, are
    87                           ; permitted provided that the following conditions are met:
    88                           ; 
    89                           ;     1. Redistributions of source code must retain the above copyright notice, this lis
      +                          t of
    90                           ;        conditions and the following disclaimer.
    91                           ; 
    92                           ;     2. Redistributions in binary form must reproduce the above copyright notice, this 
      +                          list
    93                           ;        of conditions and the following disclaimer in the documentation and/or other
    94                           ;        materials provided with the distribution. Publication is not required when
    95                           ;        this file is used in an embedded application.
    96                           ; 
    97                           ;     3. Microchip's name may not be used to endorse or promote products derived from th
      +                          is
    98                           ;        software without specific prior written permission.
    99                           ; 
   100                           ; THIS SOFTWARE IS PROVIDED BY MICROCHIP "AS IS" AND ANY EXPRESS OR IMPLIED WARRANTIES,
   101                           ; INCLUDING, BUT NOT LIMITED TO, THE IMPLIED WARRANTIES OF MERCHANTABILITY AND FITNESS F
      +                          OR
   102                           ; PURPOSE ARE DISCLAIMED.  IN NO EVENT SHALL MICROCHIP BE LIABLE FOR ANY DIRECT, INDIREC
      +                          T,
   103                           ; INCIDENTAL, SPECIAL, EXEMPLARY, OR CONSEQUENTIAL DAMAGES (INCLUDING BUT NOT LIMITED TO
   104                           ; PROCUREMENT OF SUBSTITUTE GOODS OR SERVICES; LOSS OF USE, DATA OR PROFITS; OR BUSINESS
   105                           ; INTERRUPTION) HOWSOEVER CAUSED AND ON ANY THEORY OF LIABILITY, WHETHER IN CONTRACT, ST
      +                          RICT
   106                           ; LIABILITY, OR TORT (INCLUDING NEGLIGENCE OR OTHERWISE) ARISING IN ANY WAY OUT OF THE U
      +                          SE OF
   107                           ; THIS SOFTWARE, EVEN IF ADVISED OF THE POSSIBILITY OF SUCH DAMAGE.
   108                           ; 
   109                           ; 
   110                           ; Code-generator required, PIC16F15225 Definitions
   111                           ; 
   112                           ; SFR Addresses
   113  0000                     	;# 
   114  0001                     	;# 
   115  0002                     	;# 
   116  0003                     	;# 
   117  0004                     	;# 
   118  0005                     	;# 
   119  0006                     	;# 
   120  0007                     	;# 
   121  0008                     	;# 
   122  0009                     	;# 
   123  000A                     	;# 
   124  000B                     	;# 
   125  000C                     	;# 
   126  000E                     	;# 
   127  0012                     	;# 
   128  0014                     	;# 
   129  0018                     	;# 
   130  001A                     	;# 
   131  009A                     	;# 
   132  009B                     	;# 
   133  009B                     	;# 
   134  009C                     	;# 
   135  009D                     	;# 
   136  009E                     	;# 
   137  009F                     	;# 
   138  010E                     	;# 
   139  010F                     	;# 
   140  0119                     	;# 
   141  011A                     	;# 
   142  011B                     	;# 
   143  011B                     	;# 
   144  011C                     	;# 
   145  011D                     	;# 
   146  011E                     	;# 
   147  011F                     	;# 
   148  018C                     	;# 
   149  018D                     	;# 
   150  018E                     	;# 
   151  018F                     	;# 
   152  0190                     	;# 
   153  0191                     	;# 
   154  0192                     	;# 
   155  020C                     	;# 
   156  020D                     	;# 
   157  020E                     	;# 
   158  020E                     	;# 
   159  020F                     	;# 
   160  020F                     	;# 
   161  0210                     	;# 
   162  0210                     	;# 
   163  0211                     	;# 
   164  0211                     	;# 
   165  028C                     	;# 
   166  028C                     	;# 
   167  028D                     	;# 
   168  028D                     	;# 
   169  028E                     	;# 
   170  028F                     	;# 
   171  0290                     	;# 
   172  0291                     	;# 
   173  030C                     	;# 
   174  030C                     	;# 
   175  030D                     	;# 
   176  030E                     	;# 
   177  030F                     	;# 
   178  0310                     	;# 
   179  0310                     	;# 
   180  0311                     	;# 
   181  0312                     	;# 
   182  0313                     	;# 
   183  0314                     	;# 
   184  0314                     	;# 
   185  0315                     	;# 
   186  0316                     	;# 
   187  0318                     	;# 
   188  0318                     	;# 
   189  0319                     	;# 
   190  031A                     	;# 
   191  059C                     	;# 
   192  059C                     	;# 
   193  059D                     	;# 
   194  059D                     	;# 
   195  059E                     	;# 
   196  059F                     	;# 
   197  070C                     	;# 
   198  070D                     	;# 
   199  070E                     	;# 
   200  0716                     	;# 
   201  0717                     	;# 
   202  0718                     	;# 
   203  080C                     	;# 
   204  0811                     	;# 
   205  0813                     	;# 
   206  0814                     	;# 
   207  081A                     	;# 
   208  081A                     	;# 
   209  081B                     	;# 
   210  081C                     	;# 
   211  081C                     	;# 
   212  081D                     	;# 
   213  081E                     	;# 
   214  081F                     	;# 
   215  088E                     	;# 
   216  0890                     	;# 
   217  0891                     	;# 
   218  0892                     	;# 
   219  0893                     	;# 
   220  090C                     	;# 
   221  1E8F                     	;# 
   222  1E90                     	;# 
   223  1E91                     	;# 
   224  1E92                     	;# 
   225  1E93                     	;# 
   226  1E9C                     	;# 
   227  1EA1                     	;# 
   228  1EA2                     	;# 
   229  1EC3                     	;# 
   230  1EC5                     	;# 
   231  1EC6                     	;# 
   232  1EC7                     	;# 
   233  1ECB                     	;# 
   234  1ECB                     	;# 
   235  1ECB                     	;# 
   236  1ECC                     	;# 
   237  1ECC                     	;# 
   238  1ECC                     	;# 
   239  1F10                     	;# 
   240  1F11                     	;# 
   241  1F12                     	;# 
   242  1F14                     	;# 
   243  1F15                     	;# 
   244  1F20                     	;# 
   245  1F21                     	;# 
   246  1F22                     	;# 
   247  1F23                     	;# 
   248  1F24                     	;# 
   249  1F25                     	;# 
   250  1F38                     	;# 
   251  1F39                     	;# 
   252  1F3A                     	;# 
   253  1F3B                     	;# 
   254  1F3C                     	;# 
   255  1F3D                     	;# 
   256  1F3E                     	;# 
   257  1F3F                     	;# 
   258  1F4E                     	;# 
   259  1F4F                     	;# 
   260  1F50                     	;# 
   261  1F51                     	;# 
   262  1F52                     	;# 
   263  1F53                     	;# 
   264  1F54                     	;# 
   265  1F55                     	;# 
   266  1FE4                     	;# 
   267  1FE5                     	;# 
   268  1FE6                     	;# 
   269  1FE7                     	;# 
   270  1FE8                     	;# 
   271  1FE8                     	;# 
   272  1FE9                     	;# 
   273  1FEA                     	;# 
   274  1FEB                     	;# 
   275  1FED                     	;# 
   276  1FEE                     	;# 
   277  1FEF                     	;# 
   278  0000                     	;# 
   279  0001                     	;# 
   280  0002                     	;# 
   281  0003                     	;# 
   282  0004                     	;# 
   283  0005                     	;# 
   284  0006                     	;# 
   285  0007                     	;# 
   286  0008                     	;# 
   287  0009                     	;# 
   288  000A                     	;# 
   289  000B                     	;# 
   290  000C                     	;# 
   291  000E                     	;# 
   292  0012                     	;# 
   293  0014                     	;# 
   294  0018                     	;# 
   295  001A                     	;# 
   296  009A                     	;# 
   297  009B                     	;# 
   298  009B                     	;# 
   299  009C                     	;# 
   300  009D                     	;# 
   301  009E                     	;# 
   302  009F                     	;# 
   303  010E                     	;# 
   304  010F                     	;# 
   305  0119                     	;# 
   306  011A                     	;# 
   307  011B                     	;# 
   308  011B                     	;# 
   309  011C                     	;# 
   310  011D                     	;# 
   311  011E                     	;# 
   312  011F                     	;# 
   313  018C                     	;# 
   314  018D                     	;# 
   315  018E                     	;# 
   316  018F                     	;# 
   317  0190                     	;# 
   318  0191                     	;# 
   319  0192                     	;# 
   320  020C                     	;# 
   321  020D                     	;# 
   322  020E                     	;# 
   323  020E                     	;# 
   324  020F                     	;# 
   325  020F                     	;# 
   326  0210                     	;# 
   327  0210                     	;# 
   328  0211                     	;# 
   329  0211                     	;# 
   330  028C                     	;# 
   331  028C                     	;# 
   332  028D                     	;# 
   333  028D                     	;# 
   334  028E                     	;# 
   335  028F                     	;# 
   336  0290                     	;# 
   337  0291                     	;# 
   338  030C                     	;# 
   339  030C                     	;# 
   340  030D                     	;# 
   341  030E                     	;# 
   342  030F                     	;# 
   343  0310                     	;# 
   344  0310                     	;# 
   345  0311                     	;# 
   346  0312                     	;# 
   347  0313                     	;# 
   348  0314                     	;# 
   349  0314                     	;# 
   350  0315                     	;# 
   351  0316                     	;# 
   352  0318                     	;# 
   353  0318                     	;# 
   354  0319                     	;# 
   355  031A                     	;# 
   356  059C                     	;# 
   357  059C                     	;# 
   358  059D                     	;# 
   359  059D                     	;# 
   360  059E                     	;# 
   361  059F                     	;# 
   362  070C                     	;# 
   363  070D                     	;# 
   364  070E                     	;# 
   365  0716                     	;# 
   366  0717                     	;# 
   367  0718                     	;# 
   368  080C                     	;# 
   369  0811                     	;# 
   370  0813                     	;# 
   371  0814                     	;# 
   372  081A                     	;# 
   373  081A                     	;# 
   374  081B                     	;# 
   375  081C                     	;# 
   376  081C                     	;# 
   377  081D                     	;# 
   378  081E                     	;# 
   379  081F                     	;# 
   380  088E                     	;# 
   381  0890                     	;# 
   382  0891                     	;# 
   383  0892                     	;# 
   384  0893                     	;# 
   385  090C                     	;# 
   386  1E8F                     	;# 
   387  1E90                     	;# 
   388  1E91                     	;# 
   389  1E92                     	;# 
   390  1E93                     	;# 
   391  1E9C                     	;# 
   392  1EA1                     	;# 
   393  1EA2                     	;# 
   394  1EC3                     	;# 
   395  1EC5                     	;# 
   396  1EC6                     	;# 
   397  1EC7                     	;# 
   398  1ECB                     	;# 
   399  1ECB                     	;# 
   400  1ECB                     	;# 
   401  1ECC                     	;# 
   402  1ECC                     	;# 
   403  1ECC                     	;# 
   404  1F10                     	;# 
   405  1F11                     	;# 
   406  1F12                     	;# 
   407  1F14                     	;# 
   408  1F15                     	;# 
   409  1F20                     	;# 
   410  1F21                     	;# 
   411  1F22                     	;# 
   412  1F23                     	;# 
   413  1F24                     	;# 
   414  1F25                     	;# 
   415  1F38                     	;# 
   416  1F39                     	;# 
   417  1F3A                     	;# 
   418  1F3B                     	;# 
   419  1F3C                     	;# 
   420  1F3D                     	;# 
   421  1F3E                     	;# 
   422  1F3F                     	;# 
   423  1F4E                     	;# 
   424  1F4F                     	;# 
   425  1F50                     	;# 
   426  1F51                     	;# 
   427  1F52                     	;# 
   428  1F53                     	;# 
   429  1F54                     	;# 
   430  1F55                     	;# 
   431  1FE4                     	;# 
   432  1FE5                     	;# 
   433  1FE6                     	;# 
   434  1FE7                     	;# 
   435  1FE8                     	;# 
   436  1FE8                     	;# 
   437  1FE9                     	;# 
   438  1FEA                     	;# 
   439  1FEB                     	;# 
   440  1FED                     	;# 
   441  1FEE                     	;# 
   442  1FEF                     	;# 
   443  0000                     	;# 
   444  0001                     	;# 
   445  0002                     	;# 
   446  0003                     	;# 
   447  0004                     	;# 
   448  0005                     	;# 
   449  0006                     	;# 
   450  0007                     	;# 
   451  0008                     	;# 
   452  0009                     	;# 
   453  000A                     	;# 
   454  000B                     	;# 
   455  000C                     	;# 
   456  000E                     	;# 
   457  0012                     	;# 
   458  0014                     	;# 
   459  0018                     	;# 
   460  001A                     	;# 
   461  009A                     	;# 
   462  009B                     	;# 
   463  009B                     	;# 
   464  009C                     	;# 
   465  009D                     	;# 
   466  009E                     	;# 
   467  009F                     	;# 
   468  010E                     	;# 
   469  010F                     	;# 
   470  0119                     	;# 
   471  011A                     	;# 
   472  011B                     	;# 
   473  011B                     	;# 
   474  011C                     	;# 
   475  011D                     	;# 
   476  011E                     	;# 
   477  011F                     	;# 
   478  018C                     	;# 
   479  018D                     	;# 
   480  018E                     	;# 
   481  018F                     	;# 
   482  0190                     	;# 
   483  0191                     	;# 
   484  0192                     	;# 
   485  020C                     	;# 
   486  020D                     	;# 
   487  020E                     	;# 
   488  020E                     	;# 
   489  020F                     	;# 
   490  020F                     	;# 
   491  0210                     	;# 
   492  0210                     	;# 
   493  0211                     	;# 
   494  0211                     	;# 
   495  028C                     	;# 
   496  028C                     	;# 
   497  028D                     	;# 
   498  028D                     	;# 
   499  028E                     	;# 
   500  028F                     	;# 
   501  0290                     	;# 
   502  0291                     	;# 
   503  030C                     	;# 
   504  030C                     	;# 
   505  030D                     	;# 
   506  030E                     	;# 
   507  030F                     	;# 
   508  0310                     	;# 
   509  0310                     	;# 
   510  0311                     	;# 
   511  0312                     	;# 
   512  0313                     	;# 
   513  0314                     	;# 
   514  0314                     	;# 
   515  0315                     	;# 
   516  0316                     	;# 
   517  0318                     	;# 
   518  0318                     	;# 
   519  0319                     	;# 
   520  031A                     	;# 
   521  059C                     	;# 
   522  059C                     	;# 
   523  059D                     	;# 
   524  059D                     	;# 
   525  059E                     	;# 
   526  059F                     	;# 
   527  070C                     	;# 
   528  070D                     	;# 
   529  070E                     	;# 
   530  0716                     	;# 
   531  0717                     	;# 
   532  0718                     	;# 
   533  080C                     	;# 
   534  0811                     	;# 
   535  0813                     	;# 
   536  0814                     	;# 
   537  081A                     	;# 
   538  081A                     	;# 
   539  081B                     	;# 
   540  081C                     	;# 
   541  081C                     	;# 
   542  081D                     	;# 
   543  081E                     	;# 
   544  081F                     	;# 
   545  088E                     	;# 
   546  0890                     	;# 
   547  0891                     	;# 
   548  0892                     	;# 
   549  0893                     	;# 
   550  090C                     	;# 
   551  1E8F                     	;# 
   552  1E90                     	;# 
   553  1E91                     	;# 
   554  1E92                     	;# 
   555  1E93                     	;# 
   556  1E9C                     	;# 
   557  1EA1                     	;# 
   558  1EA2                     	;# 
   559  1EC3                     	;# 
   560  1EC5                     	;# 
   561  1EC6                     	;# 
   562  1EC7                     	;# 
   563  1ECB                     	;# 
   564  1ECB                     	;# 
   565  1ECB                     	;# 
   566  1ECC                     	;# 
   567  1ECC                     	;# 
   568  1ECC                     	;# 
   569  1F10                     	;# 
   570  1F11                     	;# 
   571  1F12                     	;# 
   572  1F14                     	;# 
   573  1F15                     	;# 
   574  1F20                     	;# 
   575  1F21                     	;# 
   576  1F22                     	;# 
   577  1F23                     	;# 
   578  1F24                     	;# 
   579  1F25                     	;# 
   580  1F38                     	;# 
   581  1F39                     	;# 
   582  1F3A                     	;# 
   583  1F3B                     	;# 
   584  1F3C                     	;# 
   585  1F3D                     	;# 
   586  1F3E                     	;# 
   587  1F3F                     	;# 
   588  1F4E                     	;# 
   589  1F4F                     	;# 
   590  1F50                     	;# 
   591  1F51                     	;# 
   592  1F52                     	;# 
   593  1F53                     	;# 
   594  1F54                     	;# 
   595  1F55                     	;# 
   596  1FE4                     	;# 
   597  1FE5                     	;# 
   598  1FE6                     	;# 
   599  1FE7                     	;# 
   600  1FE8                     	;# 
   601  1FE8                     	;# 
   602  1FE9                     	;# 
   603  1FEA                     	;# 
   604  1FEB                     	;# 
   605  1FED                     	;# 
   606  1FEE                     	;# 
   607  1FEF                     	;# 
   608  0000                     	;# 
   609  0001                     	;# 
   610  0002                     	;# 
   611  0003                     	;# 
   612  0004                     	;# 
   613  0005                     	;# 
   614  0006                     	;# 
   615  0007                     	;# 
   616  0008                     	;# 
   617  0009                     	;# 
   618  000A                     	;# 
   619  000B                     	;# 
   620  000C                     	;# 
   621  000E                     	;# 
   622  0012                     	;# 
   623  0014                     	;# 
   624  0018                     	;# 
   625  001A                     	;# 
   626  009A                     	;# 
   627  009B                     	;# 
   628  009B                     	;# 
   629  009C                     	;# 
   630  009D                     	;# 
   631  009E                     	;# 
   632  009F                     	;# 
   633  010E                     	;# 
   634  010F                     	;# 
   635  0119                     	;# 
   636  011A                     	;# 
   637  011B                     	;# 
   638  011B                     	;# 
   639  011C                     	;# 
   640  011D                     	;# 
   641  011E                     	;# 
   642  011F                     	;# 
   643  018C                     	;# 
   644  018D                     	;# 
   645  018E                     	;# 
   646  018F                     	;# 
   647  0190                     	;# 
   648  0191                     	;# 
   649  0192                     	;# 
   650  020C                     	;# 
   651  020D                     	;# 
   652  020E                     	;# 
   653  020E                     	;# 
   654  020F                     	;# 
   655  020F                     	;# 
   656  0210                     	;# 
   657  0210                     	;# 
   658  0211                     	;# 
   659  0211                     	;# 
   660  028C                     	;# 
   661  028C                     	;# 
   662  028D                     	;# 
   663  028D                     	;# 
   664  028E                     	;# 
   665  028F                     	;# 
   666  0290                     	;# 
   667  0291                     	;# 
   668  030C                     	;# 
   669  030C                     	;# 
   670  030D                     	;# 
   671  030E                     	;# 
   672  030F                     	;# 
   673  0310                     	;# 
   674  0310                     	;# 
   675  0311                     	;# 
   676  0312                     	;# 
   677  0313                     	;# 
   678  0314                     	;# 
   679  0314                     	;# 
   680  0315                     	;# 
   681  0316                     	;# 
   682  0318                     	;# 
   683  0318                     	;# 
   684  0319                     	;# 
   685  031A                     	;# 
   686  059C                     	;# 
   687  059C                     	;# 
   688  059D                     	;# 
   689  059D                     	;# 
   690  059E                     	;# 
   691  059F                     	;# 
   692  070C                     	;# 
   693  070D                     	;# 
   694  070E                     	;# 
   695  0716                     	;# 
   696  0717                     	;# 
   697  0718                     	;# 
   698  080C                     	;# 
   699  0811                     	;# 
   700  0813                     	;# 
   701  0814                     	;# 
   702  081A                     	;# 
   703  081A                     	;# 
   704  081B                     	;# 
   705  081C                     	;# 
   706  081C                     	;# 
   707  081D                     	;# 
   708  081E                     	;# 
   709  081F                     	;# 
   710  088E                     	;# 
   711  0890                     	;# 
   712  0891                     	;# 
   713  0892                     	;# 
   714  0893                     	;# 
   715  090C                     	;# 
   716  1E8F                     	;# 
   717  1E90                     	;# 
   718  1E91                     	;# 
   719  1E92                     	;# 
   720  1E93                     	;# 
   721  1E9C                     	;# 
   722  1EA1                     	;# 
   723  1EA2                     	;# 
   724  1EC3                     	;# 
   725  1EC5                     	;# 
   726  1EC6                     	;# 
   727  1EC7                     	;# 
   728  1ECB                     	;# 
   729  1ECB                     	;# 
   730  1ECB                     	;# 
   731  1ECC                     	;# 
   732  1ECC                     	;# 
   733  1ECC                     	;# 
   734  1F10                     	;# 
   735  1F11                     	;# 
   736  1F12                     	;# 
   737  1F14                     	;# 
   738  1F15                     	;# 
   739  1F20                     	;# 
   740  1F21                     	;# 
   741  1F22                     	;# 
   742  1F23                     	;# 
   743  1F24                     	;# 
   744  1F25                     	;# 
   745  1F38                     	;# 
   746  1F39                     	;# 
   747  1F3A                     	;# 
   748  1F3B                     	;# 
   749  1F3C                     	;# 
   750  1F3D                     	;# 
   751  1F3E                     	;# 
   752  1F3F                     	;# 
   753  1F4E                     	;# 
   754  1F4F                     	;# 
   755  1F50                     	;# 
   756  1F51                     	;# 
   757  1F52                     	;# 
   758  1F53                     	;# 
   759  1F54                     	;# 
   760  1F55                     	;# 
   761  1FE4                     	;# 
   762  1FE5                     	;# 
   763  1FE6                     	;# 
   764  1FE7                     	;# 
   765  1FE8                     	;# 
   766  1FE8                     	;# 
   767  1FE9                     	;# 
   768  1FEA                     	;# 
   769  1FEB                     	;# 
   770  1FED                     	;# 
   771  1FEE                     	;# 
   772  1FEF                     	;# 
   773  0000                     	;# 
   774  0001                     	;# 
   775  0002                     	;# 
   776  0003                     	;# 
   777  0004                     	;# 
   778  0005                     	;# 
   779  0006                     	;# 
   780  0007                     	;# 
   781  0008                     	;# 
   782  0009                     	;# 
   783  000A                     	;# 
   784  000B                     	;# 
   785  000C                     	;# 
   786  000E                     	;# 
   787  0012                     	;# 
   788  0014                     	;# 
   789  0018                     	;# 
   790  001A                     	;# 
   791  009A                     	;# 
   792  009B                     	;# 
   793  009B                     	;# 
   794  009C                     	;# 
   795  009D                     	;# 
   796  009E                     	;# 
   797  009F                     	;# 
   798  010E                     	;# 
   799  010F                     	;# 
   800  0119                     	;# 
   801  011A                     	;# 
   802  011B                     	;# 
   803  011B                     	;# 
   804  011C                     	;# 
   805  011D                     	;# 
   806  011E                     	;# 
   807  011F                     	;# 
   808  018C                     	;# 
   809  018D                     	;# 
   810  018E                     	;# 
   811  018F                     	;# 
   812  0190                     	;# 
   813  0191                     	;# 
   814  0192                     	;# 
   815  020C                     	;# 
   816  020D                     	;# 
   817  020E                     	;# 
   818  020E                     	;# 
   819  020F                     	;# 
   820  020F                     	;# 
   821  0210                     	;# 
   822  0210                     	;# 
   823  0211                     	;# 
   824  0211                     	;# 
   825  028C                     	;# 
   826  028C                     	;# 
   827  028D                     	;# 
   828  028D                     	;# 
   829  028E                     	;# 
   830  028F                     	;# 
   831  0290                     	;# 
   832  0291                     	;# 
   833  030C                     	;# 
   834  030C                     	;# 
   835  030D                     	;# 
   836  030E                     	;# 
   837  030F                     	;# 
   838  0310                     	;# 
   839  0310                     	;# 
   840  0311                     	;# 
   841  0312                     	;# 
   842  0313                     	;# 
   843  0314                     	;# 
   844  0314                     	;# 
   845  0315                     	;# 
   846  0316                     	;# 
   847  0318                     	;# 
   848  0318                     	;# 
   849  0319                     	;# 
   850  031A                     	;# 
   851  059C                     	;# 
   852  059C                     	;# 
   853  059D                     	;# 
   854  059D                     	;# 
   855  059E                     	;# 
   856  059F                     	;# 
   857  070C                     	;# 
   858  070D                     	;# 
   859  070E                     	;# 
   860  0716                     	;# 
   861  0717                     	;# 
   862  0718                     	;# 
   863  080C                     	;# 
   864  0811                     	;# 
   865  0813                     	;# 
   866  0814                     	;# 
   867  081A                     	;# 
   868  081A                     	;# 
   869  081B                     	;# 
   870  081C                     	;# 
   871  081C                     	;# 
   872  081D                     	;# 
   873  081E                     	;# 
   874  081F                     	;# 
   875  088E                     	;# 
   876  0890                     	;# 
   877  0891                     	;# 
   878  0892                     	;# 
   879  0893                     	;# 
   880  090C                     	;# 
   881  1E8F                     	;# 
   882  1E90                     	;# 
   883  1E91                     	;# 
   884  1E92                     	;# 
   885  1E93                     	;# 
   886  1E9C                     	;# 
   887  1EA1                     	;# 
   888  1EA2                     	;# 
   889  1EC3                     	;# 
   890  1EC5                     	;# 
   891  1EC6                     	;# 
   892  1EC7                     	;# 
   893  1ECB                     	;# 
   894  1ECB                     	;# 
   895  1ECB                     	;# 
   896  1ECC                     	;# 
   897  1ECC                     	;# 
   898  1ECC                     	;# 
   899  1F10                     	;# 
   900  1F11                     	;# 
   901  1F12                     	;# 
   902  1F14                     	;# 
   903  1F15                     	;# 
   904  1F20                     	;# 
   905  1F21                     	;# 
   906  1F22                     	;# 
   907  1F23                     	;# 
   908  1F24                     	;# 
   909  1F25                     	;# 
   910  1F38                     	;# 
   911  1F39                     	;# 
   912  1F3A                     	;# 
   913  1F3B                     	;# 
   914  1F3C                     	;# 
   915  1F3D                     	;# 
   916  1F3E                     	;# 
   917  1F3F                     	;# 
   918  1F4E                     	;# 
   919  1F4F                     	;# 
   920  1F50                     	;# 
   921  1F51                     	;# 
   922  1F52                     	;# 
   923  1F53                     	;# 
   924  1F54                     	;# 
   925  1F55                     	;# 
   926  1FE4                     	;# 
   927  1FE5                     	;# 
   928  1FE6                     	;# 
   929  1FE7                     	;# 
   930  1FE8                     	;# 
   931  1FE8                     	;# 
   932  1FE9                     	;# 
   933  1FEA                     	;# 
   934  1FEB                     	;# 
   935  1FED                     	;# 
   936  1FEE                     	;# 
   937  1FEF                     	;# 
   938  0000                     	;# 
   939  0001                     	;# 
   940  0002                     	;# 
   941  0003                     	;# 
   942  0004                     	;# 
   943  0005                     	;# 
   944  0006                     	;# 
   945  0007                     	;# 
   946  0008                     	;# 
   947  0009                     	;# 
   948  000A                     	;# 
   949  000B                     	;# 
   950  000C                     	;# 
   951  000E                     	;# 
   952  0012                     	;# 
   953  0014                     	;# 
   954  0018                     	;# 
   955  001A                     	;# 
   956  009A                     	;# 
   957  009B                     	;# 
   958  009B                     	;# 
   959  009C                     	;# 
   960  009D                     	;# 
   961  009E                     	;# 
   962  009F                     	;# 
   963  010E                     	;# 
   964  010F                     	;# 
   965  0119                     	;# 
   966  011A                     	;# 
   967  011B                     	;# 
   968  011B                     	;# 
   969  011C                     	;# 
   970  011D                     	;# 
   971  011E                     	;# 
   972  011F                     	;# 
   973  018C                     	;# 
   974  018D                     	;# 
   975  018E                     	;# 
   976  018F                     	;# 
   977  0190                     	;# 
   978  0191                     	;# 
   979  0192                     	;# 
   980  020C                     	;# 
   981  020D                     	;# 
   982  020E                     	;# 
   983  020E                     	;# 
   984  020F                     	;# 
   985  020F                     	;# 
   986  0210                     	;# 
   987  0210                     	;# 
   988  0211                     	;# 
   989  0211                     	;# 
   990  028C                     	;# 
   991  028C                     	;# 
   992  028D                     	;# 
   993  028D                     	;# 
   994  028E                     	;# 
   995  028F                     	;# 
   996  0290                     	;# 
   997  0291                     	;# 
   998  030C                     	;# 
   999  030C                     	;# 
  1000  030D                     	;# 
  1001  030E                     	;# 
  1002  030F                     	;# 
  1003  0310                     	;# 
  1004  0310                     	;# 
  1005  0311                     	;# 
  1006  0312                     	;# 
  1007  0313                     	;# 
  1008  0314                     	;# 
  1009  0314                     	;# 
  1010  0315                     	;# 
  1011  0316                     	;# 
  1012  0318                     	;# 
  1013  0318                     	;# 
  1014  0319                     	;# 
  1015  031A                     	;# 
  1016  059C                     	;# 
  1017  059C                     	;# 
  1018  059D                     	;# 
  1019  059D                     	;# 
  1020  059E                     	;# 
  1021  059F                     	;# 
  1022  070C                     	;# 
  1023  070D                     	;# 
  1024  070E                     	;# 
  1025  0716                     	;# 
  1026  0717                     	;# 
  1027  0718                     	;# 
  1028  080C                     	;# 
  1029  0811                     	;# 
  1030  0813                     	;# 
  1031  0814                     	;# 
  1032  081A                     	;# 
  1033  081A                     	;# 
  1034  081B                     	;# 
  1035  081C                     	;# 
  1036  081C                     	;# 
  1037  081D                     	;# 
  1038  081E                     	;# 
  1039  081F                     	;# 
  1040  088E                     	;# 
  1041  0890                     	;# 
  1042  0891                     	;# 
  1043  0892                     	;# 
  1044  0893                     	;# 
  1045  090C                     	;# 
  1046  1E8F                     	;# 
  1047  1E90                     	;# 
  1048  1E91                     	;# 
  1049  1E92                     	;# 
  1050  1E93                     	;# 
  1051  1E9C                     	;# 
  1052  1EA1                     	;# 
  1053  1EA2                     	;# 
  1054  1EC3                     	;# 
  1055  1EC5                     	;# 
  1056  1EC6                     	;# 
  1057  1EC7                     	;# 
  1058  1ECB                     	;# 
  1059  1ECB                     	;# 
  1060  1ECB                     	;# 
  1061  1ECC                     	;# 
  1062  1ECC                     	;# 
  1063  1ECC                     	;# 
  1064  1F10                     	;# 
  1065  1F11                     	;# 
  1066  1F12                     	;# 
  1067  1F14                     	;# 
  1068  1F15                     	;# 
  1069  1F20                     	;# 
  1070  1F21                     	;# 
  1071  1F22                     	;# 
  1072  1F23                     	;# 
  1073  1F24                     	;# 
  1074  1F25                     	;# 
  1075  1F38                     	;# 
  1076  1F39                     	;# 
  1077  1F3A                     	;# 
  1078  1F3B                     	;# 
  1079  1F3C                     	;# 
  1080  1F3D                     	;# 
  1081  1F3E                     	;# 
  1082  1F3F                     	;# 
  1083  1F4E                     	;# 
  1084  1F4F                     	;# 
  1085  1F50                     	;# 
  1086  1F51                     	;# 
  1087  1F52                     	;# 
  1088  1F53                     	;# 
  1089  1F54                     	;# 
  1090  1F55                     	;# 
  1091  1FE4                     	;# 
  1092  1FE5                     	;# 
  1093  1FE6                     	;# 
  1094  1FE7                     	;# 
  1095  1FE8                     	;# 
  1096  1FE8                     	;# 
  1097  1FE9                     	;# 
  1098  1FEA                     	;# 
  1099  1FEB                     	;# 
  1100  1FED                     	;# 
  1101  1FEE                     	;# 
  1102  1FEF                     	;# 
  1103  0000                     	;# 
  1104  0001                     	;# 
  1105  0002                     	;# 
  1106  0003                     	;# 
  1107  0004                     	;# 
  1108  0005                     	;# 
  1109  0006                     	;# 
  1110  0007                     	;# 
  1111  0008                     	;# 
  1112  0009                     	;# 
  1113  000A                     	;# 
  1114  000B                     	;# 
  1115  000C                     	;# 
  1116  000E                     	;# 
  1117  0012                     	;# 
  1118  0014                     	;# 
  1119  0018                     	;# 
  1120  001A                     	;# 
  1121  009A                     	;# 
  1122  009B                     	;# 
  1123  009B                     	;# 
  1124  009C                     	;# 
  1125  009D                     	;# 
  1126  009E                     	;# 
  1127  009F                     	;# 
  1128  010E                     	;# 
  1129  010F                     	;# 
  1130  0119                     	;# 
  1131  011A                     	;# 
  1132  011B                     	;# 
  1133  011B                     	;# 
  1134  011C                     	;# 
  1135  011D                     	;# 
  1136  011E                     	;# 
  1137  011F                     	;# 
  1138  018C                     	;# 
  1139  018D                     	;# 
  1140  018E                     	;# 
  1141  018F                     	;# 
  1142  0190                     	;# 
  1143  0191                     	;# 
  1144  0192                     	;# 
  1145  020C                     	;# 
  1146  020D                     	;# 
  1147  020E                     	;# 
  1148  020E                     	;# 
  1149  020F                     	;# 
  1150  020F                     	;# 
  1151  0210                     	;# 
  1152  0210                     	;# 
  1153  0211                     	;# 
  1154  0211                     	;# 
  1155  028C                     	;# 
  1156  028C                     	;# 
  1157  028D                     	;# 
  1158  028D                     	;# 
  1159  028E                     	;# 
  1160  028F                     	;# 
  1161  0290                     	;# 
  1162  0291                     	;# 
  1163  030C                     	;# 
  1164  030C                     	;# 
  1165  030D                     	;# 
  1166  030E                     	;# 
  1167  030F                     	;# 
  1168  0310                     	;# 
  1169  0310                     	;# 
  1170  0311                     	;# 
  1171  0312                     	;# 
  1172  0313                     	;# 
  1173  0314                     	;# 
  1174  0314                     	;# 
  1175  0315                     	;# 
  1176  0316                     	;# 
  1177  0318                     	;# 
  1178  0318                     	;# 
  1179  0319                     	;# 
  1180  031A                     	;# 
  1181  059C                     	;# 
  1182  059C                     	;# 
  1183  059D                     	;# 
  1184  059D                     	;# 
  1185  059E                     	;# 
  1186  059F                     	;# 
  1187  070C                     	;# 
  1188  070D                     	;# 
  1189  070E                     	;# 
  1190  0716                     	;# 
  1191  0717                     	;# 
  1192  0718                     	;# 
  1193  080C                     	;# 
  1194  0811                     	;# 
  1195  0813                     	;# 
  1196  0814                     	;# 
  1197  081A                     	;# 
  1198  081A                     	;# 
  1199  081B                     	;# 
  1200  081C                     	;# 
  1201  081C                     	;# 
  1202  081D                     	;# 
  1203  081E                     	;# 
  1204  081F                     	;# 
  1205  088E                     	;# 
  1206  0890                     	;# 
  1207  0891                     	;# 
  1208  0892                     	;# 
  1209  0893                     	;# 
  1210  090C                     	;# 
  1211  1E8F                     	;# 
  1212  1E90                     	;# 
  1213  1E91                     	;# 
  1214  1E92                     	;# 
  1215  1E93                     	;# 
  1216  1E9C                     	;# 
  1217  1EA1                     	;# 
  1218  1EA2                     	;# 
  1219  1EC3                     	;# 
  1220  1EC5                     	;# 
  1221  1EC6                     	;# 
  1222  1EC7                     	;# 
  1223  1ECB                     	;# 
  1224  1ECB                     	;# 
  1225  1ECB                     	;# 
  1226  1ECC                     	;# 
  1227  1ECC                     	;# 
  1228  1ECC                     	;# 
  1229  1F10                     	;# 
  1230  1F11                     	;# 
  1231  1F12                     	;# 
  1232  1F14                     	;# 
  1233  1F15                     	;# 
  1234  1F20                     	;# 
  1235  1F21                     	;# 
  1236  1F22                     	;# 
  1237  1F23                     	;# 
  1238  1F24                     	;# 
  1239  1F25                     	;# 
  1240  1F38                     	;# 
  1241  1F39                     	;# 
  1242  1F3A                     	;# 
  1243  1F3B                     	;# 
  1244  1F3C                     	;# 
  1245  1F3D                     	;# 
  1246  1F3E                     	;# 
  1247  1F3F                     	;# 
  1248  1F4E                     	;# 
  1249  1F4F                     	;# 
  1250  1F50                     	;# 
  1251  1F51                     	;# 
  1252  1F52                     	;# 
  1253  1F53                     	;# 
  1254  1F54                     	;# 
  1255  1F55                     	;# 
  1256  1FE4                     	;# 
  1257  1FE5                     	;# 
  1258  1FE6                     	;# 
  1259  1FE7                     	;# 
  1260  1FE8                     	;# 
  1261  1FE8                     	;# 
  1262  1FE9                     	;# 
  1263  1FEA                     	;# 
  1264  1FEB                     	;# 
  1265  1FED                     	;# 
  1266  1FEE                     	;# 
  1267  1FEF                     	;# 
  1268  0000                     	;# 
  1269  0001                     	;# 
  1270  0002                     	;# 
  1271  0003                     	;# 
  1272  0004                     	;# 
  1273  0005                     	;# 
  1274  0006                     	;# 
  1275  0007                     	;# 
  1276  0008                     	;# 
  1277  0009                     	;# 
  1278  000A                     	;# 
  1279  000B                     	;# 
  1280  000C                     	;# 
  1281  000E                     	;# 
  1282  0012                     	;# 
  1283  0014                     	;# 
  1284  0018                     	;# 
  1285  001A                     	;# 
  1286  009A                     	;# 
  1287  009B                     	;# 
  1288  009B                     	;# 
  1289  009C                     	;# 
  1290  009D                     	;# 
  1291  009E                     	;# 
  1292  009F                     	;# 
  1293  010E                     	;# 
  1294  010F                     	;# 
  1295  0119                     	;# 
  1296  011A                     	;# 
  1297  011B                     	;# 
  1298  011B                     	;# 
  1299  011C                     	;# 
  1300  011D                     	;# 
  1301  011E                     	;# 
  1302  011F                     	;# 
  1303  018C                     	;# 
  1304  018D                     	;# 
  1305  018E                     	;# 
  1306  018F                     	;# 
  1307  0190                     	;# 
  1308  0191                     	;# 
  1309  0192                     	;# 
  1310  020C                     	;# 
  1311  020D                     	;# 
  1312  020E                     	;# 
  1313  020E                     	;# 
  1314  020F                     	;# 
  1315  020F                     	;# 
  1316  0210                     	;# 
  1317  0210                     	;# 
  1318  0211                     	;# 
  1319  0211                     	;# 
  1320  028C                     	;# 
  1321  028C                     	;# 
  1322  028D                     	;# 
  1323  028D                     	;# 
  1324  028E                     	;# 
  1325  028F                     	;# 
  1326  0290                     	;# 
  1327  0291                     	;# 
  1328  030C                     	;# 
  1329  030C                     	;# 
  1330  030D                     	;# 
  1331  030E                     	;# 
  1332  030F                     	;# 
  1333  0310                     	;# 
  1334  0310                     	;# 
  1335  0311                     	;# 
  1336  0312                     	;# 
  1337  0313                     	;# 
  1338  0314                     	;# 
  1339  0314                     	;# 
  1340  0315                     	;# 
  1341  0316                     	;# 
  1342  0318                     	;# 
  1343  0318                     	;# 
  1344  0319                     	;# 
  1345  031A                     	;# 
  1346  059C                     	;# 
  1347  059C                     	;# 
  1348  059D                     	;# 
  1349  059D                     	;# 
  1350  059E                     	;# 
  1351  059F                     	;# 
  1352  070C                     	;# 
  1353  070D                     	;# 
  1354  070E                     	;# 
  1355  0716                     	;# 
  1356  0717                     	;# 
  1357  0718                     	;# 
  1358  080C                     	;# 
  1359  0811                     	;# 
  1360  0813                     	;# 
  1361  0814                     	;# 
  1362  081A                     	;# 
  1363  081A                     	;# 
  1364  081B                     	;# 
  1365  081C                     	;# 
  1366  081C                     	;# 
  1367  081D                     	;# 
  1368  081E                     	;# 
  1369  081F                     	;# 
  1370  088E                     	;# 
  1371  0890                     	;# 
  1372  0891                     	;# 
  1373  0892                     	;# 
  1374  0893                     	;# 
  1375  090C                     	;# 
  1376  1E8F                     	;# 
  1377  1E90                     	;# 
  1378  1E91                     	;# 
  1379  1E92                     	;# 
  1380  1E93                     	;# 
  1381  1E9C                     	;# 
  1382  1EA1                     	;# 
  1383  1EA2                     	;# 
  1384  1EC3                     	;# 
  1385  1EC5                     	;# 
  1386  1EC6                     	;# 
  1387  1EC7                     	;# 
  1388  1ECB                     	;# 
  1389  1ECB                     	;# 
  1390  1ECB                     	;# 
  1391  1ECC                     	;# 
  1392  1ECC                     	;# 
  1393  1ECC                     	;# 
  1394  1F10                     	;# 
  1395  1F11                     	;# 
  1396  1F12                     	;# 
  1397  1F14                     	;# 
  1398  1F15                     	;# 
  1399  1F20                     	;# 
  1400  1F21                     	;# 
  1401  1F22                     	;# 
  1402  1F23                     	;# 
  1403  1F24                     	;# 
  1404  1F25                     	;# 
  1405  1F38                     	;# 
  1406  1F39                     	;# 
  1407  1F3A                     	;# 
  1408  1F3B                     	;# 
  1409  1F3C                     	;# 
  1410  1F3D                     	;# 
  1411  1F3E                     	;# 
  1412  1F3F                     	;# 
  1413  1F4E                     	;# 
  1414  1F4F                     	;# 
  1415  1F50                     	;# 
  1416  1F51                     	;# 
  1417  1F52                     	;# 
  1418  1F53                     	;# 
  1419  1F54                     	;# 
  1420  1F55                     	;# 
  1421  1FE4                     	;# 
  1422  1FE5                     	;# 
  1423  1FE6                     	;# 
  1424  1FE7                     	;# 
  1425  1FE8                     	;# 
  1426  1FE8                     	;# 
  1427  1FE9                     	;# 
  1428  1FEA                     	;# 
  1429  1FEB                     	;# 
  1430  1FED                     	;# 
  1431  1FEE                     	;# 
  1432  1FEF                     	;# 
  1433  0000                     	;# 
  1434  0001                     	;# 
  1435  0002                     	;# 
  1436  0003                     	;# 
  1437  0004                     	;# 
  1438  0005                     	;# 
  1439  0006                     	;# 
  1440  0007                     	;# 
  1441  0008                     	;# 
  1442  0009                     	;# 
  1443  000A                     	;# 
  1444  000B                     	;# 
  1445  000C                     	;# 
  1446  000E                     	;# 
  1447  0012                     	;# 
  1448  0014                     	;# 
  1449  0018                     	;# 
  1450  001A                     	;# 
  1451  009A                     	;# 
  1452  009B                     	;# 
  1453  009B                     	;# 
  1454  009C                     	;# 
  1455  009D                     	;# 
  1456  009E                     	;# 
  1457  009F                     	;# 
  1458  010E                     	;# 
  1459  010F                     	;# 
  1460  0119                     	;# 
  1461  011A                     	;# 
  1462  011B                     	;# 
  1463  011B                     	;# 
  1464  011C                     	;# 
  1465  011D                     	;# 
  1466  011E                     	;# 
  1467  011F                     	;# 
  1468  018C                     	;# 
  1469  018D                     	;# 
  1470  018E                     	;# 
  1471  018F                     	;# 
  1472  0190                     	;# 
  1473  0191                     	;# 
  1474  0192                     	;# 
  1475  020C                     	;# 
  1476  020D                     	;# 
  1477  020E                     	;# 
  1478  020E                     	;# 
  1479  020F                     	;# 
  1480  020F                     	;# 
  1481  0210                     	;# 
  1482  0210                     	;# 
  1483  0211                     	;# 
  1484  0211                     	;# 
  1485  028C                     	;# 
  1486  028C                     	;# 
  1487  028D                     	;# 
  1488  028D                     	;# 
  1489  028E                     	;# 
  1490  028F                     	;# 
  1491  0290                     	;# 
  1492  0291                     	;# 
  1493  030C                     	;# 
  1494  030C                     	;# 
  1495  030D                     	;# 
  1496  030E                     	;# 
  1497  030F                     	;# 
  1498  0310                     	;# 
  1499  0310                     	;# 
  1500  0311                     	;# 
  1501  0312                     	;# 
  1502  0313                     	;# 
  1503  0314                     	;# 
  1504  0314                     	;# 
  1505  0315                     	;# 
  1506  0316                     	;# 
  1507  0318                     	;# 
  1508  0318                     	;# 
  1509  0319                     	;# 
  1510  031A                     	;# 
  1511  059C                     	;# 
  1512  059C                     	;# 
  1513  059D                     	;# 
  1514  059D                     	;# 
  1515  059E                     	;# 
  1516  059F                     	;# 
  1517  070C                     	;# 
  1518  070D                     	;# 
  1519  070E                     	;# 
  1520  0716                     	;# 
  1521  0717                     	;# 
  1522  0718                     	;# 
  1523  080C                     	;# 
  1524  0811                     	;# 
  1525  0813                     	;# 
  1526  0814                     	;# 
  1527  081A                     	;# 
  1528  081A                     	;# 
  1529  081B                     	;# 
  1530  081C                     	;# 
  1531  081C                     	;# 
  1532  081D                     	;# 
  1533  081E                     	;# 
  1534  081F                     	;# 
  1535  088E                     	;# 
  1536  0890                     	;# 
  1537  0891                     	;# 
  1538  0892                     	;# 
  1539  0893                     	;# 
  1540  090C                     	;# 
  1541  1E8F                     	;# 
  1542  1E90                     	;# 
  1543  1E91                     	;# 
  1544  1E92                     	;# 
  1545  1E93                     	;# 
  1546  1E9C                     	;# 
  1547  1EA1                     	;# 
  1548  1EA2                     	;# 
  1549  1EC3                     	;# 
  1550  1EC5                     	;# 
  1551  1EC6                     	;# 
  1552  1EC7                     	;# 
  1553  1ECB                     	;# 
  1554  1ECB                     	;# 
  1555  1ECB                     	;# 
  1556  1ECC                     	;# 
  1557  1ECC                     	;# 
  1558  1ECC                     	;# 
  1559  1F10                     	;# 
  1560  1F11                     	;# 
  1561  1F12                     	;# 
  1562  1F14                     	;# 
  1563  1F15                     	;# 
  1564  1F20                     	;# 
  1565  1F21                     	;# 
  1566  1F22                     	;# 
  1567  1F23                     	;# 
  1568  1F24                     	;# 
  1569  1F25                     	;# 
  1570  1F38                     	;# 
  1571  1F39                     	;# 
  1572  1F3A                     	;# 
  1573  1F3B                     	;# 
  1574  1F3C                     	;# 
  1575  1F3D                     	;# 
  1576  1F3E                     	;# 
  1577  1F3F                     	;# 
  1578  1F4E                     	;# 
  1579  1F4F                     	;# 
  1580  1F50                     	;# 
  1581  1F51                     	;# 
  1582  1F52                     	;# 
  1583  1F53                     	;# 
  1584  1F54                     	;# 
  1585  1F55                     	;# 
  1586  1FE4                     	;# 
  1587  1FE5                     	;# 
  1588  1FE6                     	;# 
  1589  1FE7                     	;# 
  1590  1FE8                     	;# 
  1591  1FE8                     	;# 
  1592  1FE9                     	;# 
  1593  1FEA                     	;# 
  1594  1FEB                     	;# 
  1595  1FED                     	;# 
  1596  1FEE                     	;# 
  1597  1FEF                     	;# 
  1598  0000                     	;# 
  1599  0001                     	;# 
  1600  0002                     	;# 
  1601  0003                     	;# 
  1602  0004                     	;# 
  1603  0005                     	;# 
  1604  0006                     	;# 
  1605  0007                     	;# 
  1606  0008                     	;# 
  1607  0009                     	;# 
  1608  000A                     	;# 
  1609  000B                     	;# 
  1610  000C                     	;# 
  1611  000E                     	;# 
  1612  0012                     	;# 
  1613  0014                     	;# 
  1614  0018                     	;# 
  1615  001A                     	;# 
  1616  009A                     	;# 
  1617  009B                     	;# 
  1618  009B                     	;# 
  1619  009C                     	;# 
  1620  009D                     	;# 
  1621  009E                     	;# 
  1622  009F                     	;# 
  1623  010E                     	;# 
  1624  010F                     	;# 
  1625  0119                     	;# 
  1626  011A                     	;# 
  1627  011B                     	;# 
  1628  011B                     	;# 
  1629  011C                     	;# 
  1630  011D                     	;# 
  1631  011E                     	;# 
  1632  011F                     	;# 
  1633  018C                     	;# 
  1634  018D                     	;# 
  1635  018E                     	;# 
  1636  018F                     	;# 
  1637  0190                     	;# 
  1638  0191                     	;# 
  1639  0192                     	;# 
  1640  020C                     	;# 
  1641  020D                     	;# 
  1642  020E                     	;# 
  1643  020E                     	;# 
  1644  020F                     	;# 
  1645  020F                     	;# 
  1646  0210                     	;# 
  1647  0210                     	;# 
  1648  0211                     	;# 
  1649  0211                     	;# 
  1650  028C                     	;# 
  1651  028C                     	;# 
  1652  028D                     	;# 
  1653  028D                     	;# 
  1654  028E                     	;# 
  1655  028F                     	;# 
  1656  0290                     	;# 
  1657  0291                     	;# 
  1658  030C                     	;# 
  1659  030C                     	;# 
  1660  030D                     	;# 
  1661  030E                     	;# 
  1662  030F                     	;# 
  1663  0310                     	;# 
  1664  0310                     	;# 
  1665  0311                     	;# 
  1666  0312                     	;# 
  1667  0313                     	;# 
  1668  0314                     	;# 
  1669  0314                     	;# 
  1670  0315                     	;# 
  1671  0316                     	;# 
  1672  0318                     	;# 
  1673  0318                     	;# 
  1674  0319                     	;# 
  1675  031A                     	;# 
  1676  059C                     	;# 
  1677  059C                     	;# 
  1678  059D                     	;# 
  1679  059D                     	;# 
  1680  059E                     	;# 
  1681  059F                     	;# 
  1682  070C                     	;# 
  1683  070D                     	;# 
  1684  070E                     	;# 
  1685  0716                     	;# 
  1686  0717                     	;# 
  1687  0718                     	;# 
  1688  080C                     	;# 
  1689  0811                     	;# 
  1690  0813                     	;# 
  1691  0814                     	;# 
  1692  081A                     	;# 
  1693  081A                     	;# 
  1694  081B                     	;# 
  1695  081C                     	;# 
  1696  081C                     	;# 
  1697  081D                     	;# 
  1698  081E                     	;# 
  1699  081F                     	;# 
  1700  088E                     	;# 
  1701  0890                     	;# 
  1702  0891                     	;# 
  1703  0892                     	;# 
  1704  0893                     	;# 
  1705  090C                     	;# 
  1706  1E8F                     	;# 
  1707  1E90                     	;# 
  1708  1E91                     	;# 
  1709  1E92                     	;# 
  1710  1E93                     	;# 
  1711  1E9C                     	;# 
  1712  1EA1                     	;# 
  1713  1EA2                     	;# 
  1714  1EC3                     	;# 
  1715  1EC5                     	;# 
  1716  1EC6                     	;# 
  1717  1EC7                     	;# 
  1718  1ECB                     	;# 
  1719  1ECB                     	;# 
  1720  1ECB                     	;# 
  1721  1ECC                     	;# 
  1722  1ECC                     	;# 
  1723  1ECC                     	;# 
  1724  1F10                     	;# 
  1725  1F11                     	;# 
  1726  1F12                     	;# 
  1727  1F14                     	;# 
  1728  1F15                     	;# 
  1729  1F20                     	;# 
  1730  1F21                     	;# 
  1731  1F22                     	;# 
  1732  1F23                     	;# 
  1733  1F24                     	;# 
  1734  1F25                     	;# 
  1735  1F38                     	;# 
  1736  1F39                     	;# 
  1737  1F3A                     	;# 
  1738  1F3B                     	;# 
  1739  1F3C                     	;# 
  1740  1F3D                     	;# 
  1741  1F3E                     	;# 
  1742  1F3F                     	;# 
  1743  1F4E                     	;# 
  1744  1F4F                     	;# 
  1745  1F50                     	;# 
  1746  1F51                     	;# 
  1747  1F52                     	;# 
  1748  1F53                     	;# 
  1749  1F54                     	;# 
  1750  1F55                     	;# 
  1751  1FE4                     	;# 
  1752  1FE5                     	;# 
  1753  1FE6                     	;# 
  1754  1FE7                     	;# 
  1755  1FE8                     	;# 
  1756  1FE8                     	;# 
  1757  1FE9                     	;# 
  1758  1FEA                     	;# 
  1759  1FEB                     	;# 
  1760  1FED                     	;# 
  1761  1FEE                     	;# 
  1762  1FEF                     	;_song2_pre
  1763                           
  1764                           	psect	idataBIGRAM
  1765  03F2                     __pidataBIGRAM:
  1766                           
  1767                           ;initializer for _song2_pre
  1768  03F2  34D0               	retlw	208
  1769  03F3  34D0               	retlw	208
  1770  03F4  34D0               	retlw	208
  1771  03F5  34D0               	retlw	208
  1772  03F6  34D0               	retlw	208
  1773  03F7  34D0               	retlw	208
  1774  03F8  34D0               	retlw	208
  1775  03F9  34D0               	retlw	208
  1776  03FA  34D0               	retlw	208
  1777  03FB  34D0               	retlw	208
  1778  03FC  34D0               	retlw	208
  1779  03FD  34D0               	retlw	208
  1780  03FE  34D0               	retlw	208
  1781  03FF  34D0               	retlw	208
  1782  0400  34D0               	retlw	208
  1783  0401  34D0               	retlw	208
  1784  0402  34E0               	retlw	224
  1785  0403  34E0               	retlw	224
  1786  0404  34E0               	retlw	224
  1787  0405  34E0               	retlw	224
  1788  0406  34E0               	retlw	224
  1789  0407  34E0               	retlw	224
  1790  0408  34E0               	retlw	224
  1791  0409  34E0               	retlw	224
  1792  040A  34E0               	retlw	224
  1793  040B  34E0               	retlw	224
  1794  040C  34E0               	retlw	224
  1795  040D  34E0               	retlw	224
  1796  040E  34D0               	retlw	208
  1797  040F  34D0               	retlw	208
  1798  0410  34D0               	retlw	208
  1799  0411  34D0               	retlw	208
  1800  0412  34D0               	retlw	208
  1801  0413  34D0               	retlw	208
  1802  0414  34D0               	retlw	208
  1803  0415  34D0               	retlw	208
  1804  0416  34D0               	retlw	208
  1805  0417  34D0               	retlw	208
  1806  0418  34D0               	retlw	208
  1807  0419  34D0               	retlw	208
  1808  041A  34D0               	retlw	208
  1809  041B  34D0               	retlw	208
  1810  041C  34D0               	retlw	208
  1811  041D  34D0               	retlw	208
  1812  041E  34D0               	retlw	208
  1813  041F  34D0               	retlw	208
  1814  0420  34D0               	retlw	208
  1815  0421  34D0               	retlw	208
  1816  0422  34E0               	retlw	224
  1817  0423  34E0               	retlw	224
  1818  0424  34E0               	retlw	224
  1819  0425  34E0               	retlw	224
  1820  0426  34E0               	retlw	224
  1821  0427  34E0               	retlw	224
  1822  0428  34E0               	retlw	224
  1823  0429  34E0               	retlw	224
  1824  042A  34D0               	retlw	208
  1825  042B  34D0               	retlw	208
  1826  042C  34D0               	retlw	208
  1827  042D  34D0               	retlw	208
  1828  042E  34D0               	retlw	208
  1829  042F  34D0               	retlw	208
  1830  0430  34D0               	retlw	208
  1831  0431  34D0               	retlw	208
  1832  0432  34D0               	retlw	208
  1833  0433  34D0               	retlw	208
  1834  0434  34D0               	retlw	208
  1835  0435  34D0               	retlw	208
  1836  0436  34D0               	retlw	208
  1837  0437  34D0               	retlw	208
  1838  0438  34D0               	retlw	208
  1839  0439  34D0               	retlw	208
  1840  043A  34D0               	retlw	208
  1841  043B  34D0               	retlw	208
  1842  043C  34D0               	retlw	208
  1843  043D  34D0               	retlw	208
  1844  043E  34D0               	retlw	208
  1845  043F  34D0               	retlw	208
  1846  0440  34D0               	retlw	208
  1847  0441  34D0               	retlw	208
  1848  0442  34E0               	retlw	224
  1849  0443  34E0               	retlw	224
  1850  0444  34E0               	retlw	224
  1851  0445  34E0               	retlw	224
  1852  0446  34D0               	retlw	208
  1853  0447  34D0               	retlw	208
  1854  0448  34D0               	retlw	208
  1855  0449  34D0               	retlw	208
  1856  044A  34D0               	retlw	208
  1857  044B  34D0               	retlw	208
  1858  044C  34D0               	retlw	208
  1859  044D  34D0               	retlw	208
  1860  044E  34D0               	retlw	208
  1861  044F  34D0               	retlw	208
  1862  0450  34D0               	retlw	208
  1863  0451  34D0               	retlw	208
  1864  0452  34D0               	retlw	208
  1865  0453  34D0               	retlw	208
  1866  0454  34D0               	retlw	208
  1867  0455  34D0               	retlw	208
  1868  0456  34D0               	retlw	208
  1869  0457  34D0               	retlw	208
  1870  0458  34D0               	retlw	208
  1871  0459  34D0               	retlw	208
  1872  045A  34D0               	retlw	208
  1873  045B  34D0               	retlw	208
  1874  045C  34D0               	retlw	208
  1875  045D  34D0               	retlw	208
  1876  045E  34D0               	retlw	208
  1877  045F  34D0               	retlw	208
  1878  0460  34D0               	retlw	208
  1879  0461  34D0               	retlw	208
  1880  0462  34E0               	retlw	224
  1881  0463  34E0               	retlw	224
  1882  0464  34E0               	retlw	224
  1883  0465  34E0               	retlw	224
  1884  0466  34D0               	retlw	208
  1885  0467  34D0               	retlw	208
  1886  0468  34D0               	retlw	208
  1887  0469  34D0               	retlw	208
  1888  046A  34D0               	retlw	208
  1889  046B  34D0               	retlw	208
  1890  046C  34D0               	retlw	208
  1891  046D  34D0               	retlw	208
  1892  046E  34D0               	retlw	208
  1893  046F  34D0               	retlw	208
  1894  0470  34D0               	retlw	208
  1895  0471  34D0               	retlw	208
  1896  0472  34D0               	retlw	208
  1897  0473  34D0               	retlw	208
  1898  0474  34D0               	retlw	208
  1899  0475  34D0               	retlw	208
  1900  0476  34D0               	retlw	208
  1901  0477  34D0               	retlw	208
  1902  0478  34D0               	retlw	208
  1903  0479  34D0               	retlw	208
  1904  047A  34D0               	retlw	208
  1905  047B  34D0               	retlw	208
  1906  047C  34D0               	retlw	208
  1907  047D  34D0               	retlw	208
  1908  047E  34D0               	retlw	208
  1909  047F  34D0               	retlw	208
  1910  0480  34D0               	retlw	208
  1911  0481  34D0               	retlw	208
  1912  0482  34D0               	retlw	208
  1913  0483  34D0               	retlw	208
  1914  0484  34D0               	retlw	208
  1915  0485  34D0               	retlw	208
  1916  0486  34D0               	retlw	208
  1917  0487  34D0               	retlw	208
  1918  0488  34D0               	retlw	208
  1919  0489  34D0               	retlw	208
  1920  048A  34D0               	retlw	208
  1921  048B  34D0               	retlw	208
  1922  048C  34D0               	retlw	208
  1923  048D  34D0               	retlw	208
  1924  048E  34D0               	retlw	208
  1925  048F  34D0               	retlw	208
  1926  0490  34D0               	retlw	208
  1927  0491  34D0               	retlw	208
  1928  0492  34D0               	retlw	208
  1929  0493  34D0               	retlw	208
  1930  0494  34D0               	retlw	208
  1931  0495  34D0               	retlw	208
  1932  0496  34D0               	retlw	208
  1933  0497  34D0               	retlw	208
  1934  0498  34D0               	retlw	208
  1935  0499  34D0               	retlw	208
  1936  049A  34D0               	retlw	208
  1937  049B  34D0               	retlw	208
  1938  049C  34D0               	retlw	208
  1939  049D  34D0               	retlw	208
  1940  049E  34D0               	retlw	208
  1941  049F  34D0               	retlw	208
  1942  04A0  34D0               	retlw	208
  1943  04A1  34D0               	retlw	208
  1944                           
  1945                           ;initializer for _song2
  1946  04A2  3432               	retlw	50
  1947  04A3  3432               	retlw	50
  1948  04A4  3432               	retlw	50
  1949  04A5  3432               	retlw	50
  1950  04A6  34B2               	retlw	178
  1951  04A7  34B2               	retlw	178
  1952  04A8  34B2               	retlw	178
  1953  04A9  34B2               	retlw	178
  1954  04AA  34BD               	retlw	189
  1955  04AB  34BD               	retlw	189
  1956  04AC  3400               	retlw	0
  1957  04AD  34BD               	retlw	189
  1958  04AE  34D4               	retlw	212
  1959  04AF  34D4               	retlw	212
  1960  04B0  34D4               	retlw	212
  1961  04B1  34D4               	retlw	212
  1962  04B2  34B2               	retlw	178
  1963  04B3  34B2               	retlw	178
  1964  04B4  34B2               	retlw	178
  1965  04B5  34B2               	retlw	178
  1966  04B6  349E               	retlw	158
  1967  04B7  349E               	retlw	158
  1968  04B8  349E               	retlw	158
  1969  04B9  349E               	retlw	158
  1970  04BA  3485               	retlw	133
  1971  04BB  3485               	retlw	133
  1972  04BC  3485               	retlw	133
  1973  04BD  3485               	retlw	133
  1974  04BE  34EE               	retlw	238
  1975  04BF  34EE               	retlw	238
  1976  04C0  34EE               	retlw	238
  1977  04C1  34EE               	retlw	238
  1978  04C2  3400               	retlw	0
  1979  04C3  3400               	retlw	0
  1980  04C4  3400               	retlw	0
  1981  04C5  3400               	retlw	0
  1982  04C6  349E               	retlw	158
  1983  04C7  349E               	retlw	158
  1984  04C8  349E               	retlw	158
  1985  04C9  349E               	retlw	158
  1986  04CA  34B2               	retlw	178
  1987  04CB  34B2               	retlw	178
  1988  04CC  3400               	retlw	0
  1989  04CD  34B2               	retlw	178
  1990  04CE  34BD               	retlw	189
  1991  04CF  34BD               	retlw	189
  1992  04D0  34BD               	retlw	189
  1993  04D1  34BD               	retlw	189
  1994  04D2  349E               	retlw	158
  1995  04D3  349E               	retlw	158
  1996  04D4  349E               	retlw	158
  1997  04D5  349E               	retlw	158
  1998  04D6  348D               	retlw	141
  1999  04D7  348D               	retlw	141
  2000  04D8  348D               	retlw	141
  2001  04D9  348D               	retlw	141
  2002  04DA  34EE               	retlw	238
  2003  04DB  34EE               	retlw	238
  2004  04DC  34EE               	retlw	238
  2005  04DD  34EE               	retlw	238
  2006  04DE  34D4               	retlw	212
  2007  04DF  34D4               	retlw	212
  2008  04E0  34D4               	retlw	212
  2009  04E1  34D4               	retlw	212
  2010  04E2  3400               	retlw	0
  2011  04E3  3400               	retlw	0
  2012  04E4  3400               	retlw	0
  2013  04E5  3400               	retlw	0
  2014  04E6  348D               	retlw	141
  2015  04E7  348D               	retlw	141
  2016  04E8  348D               	retlw	141
  2017  04E9  348D               	retlw	141
  2018  04EA  349E               	retlw	158
  2019  04EB  349E               	retlw	158
  2020  04EC  3400               	retlw	0
  2021  04ED  349E               	retlw	158
  2022  04EE  34A8               	retlw	168
  2023  04EF  34A8               	retlw	168
  2024  04F0  34A8               	retlw	168
  2025  04F1  34A8               	retlw	168
  2026  04F2  348D               	retlw	141
  2027  04F3  348D               	retlw	141
  2028  04F4  348D               	retlw	141
  2029  04F5  348D               	retlw	141
  2030  04F6  34FC               	retlw	252
  2031  04F7  34FC               	retlw	252
  2032  04F8  34FC               	retlw	252
  2033  04F9  34FC               	retlw	252
  2034  04FA  34D4               	retlw	212
  2035  04FB  34D4               	retlw	212
  2036  04FC  34D4               	retlw	212
  2037  04FD  34D4               	retlw	212
  2038  04FE  34BD               	retlw	189
  2039  04FF  34BD               	retlw	189
  2040  0500  34BD               	retlw	189
  2041  0501  34BD               	retlw	189
  2042  0502  3400               	retlw	0
  2043  0503  3400               	retlw	0
  2044  0504  3400               	retlw	0
  2045  0505  3400               	retlw	0
  2046  0506  348D               	retlw	141
  2047  0507  348D               	retlw	141
  2048  0508  348D               	retlw	141
  2049  0509  348D               	retlw	141
  2050  050A  349E               	retlw	158
  2051  050B  349E               	retlw	158
  2052  050C  3400               	retlw	0
  2053  050D  349E               	retlw	158
  2054  050E  34A8               	retlw	168
  2055  050F  34A8               	retlw	168
  2056  0510  34A8               	retlw	168
  2057  0511  34A8               	retlw	168
  2058  0512  348D               	retlw	141
  2059  0513  348D               	retlw	141
  2060  0514  348D               	retlw	141
  2061  0515  348D               	retlw	141
  2062  0516  34FC               	retlw	252
  2063  0517  34FC               	retlw	252
  2064  0518  34FC               	retlw	252
  2065  0519  34FC               	retlw	252
  2066  051A  34BD               	retlw	189
  2067  051B  34BD               	retlw	189
  2068  051C  34BD               	retlw	189
  2069  051D  34BD               	retlw	189
  2070  051E  34D4               	retlw	212
  2071  051F  34D4               	retlw	212
  2072  0520  34D4               	retlw	212
  2073  0521  34D4               	retlw	212
  2074  0522  3400               	retlw	0
  2075  0523  3400               	retlw	0
  2076  0524  3400               	retlw	0
  2077  0525  3400               	retlw	0
  2078  0526  3400               	retlw	0
  2079  0527  3400               	retlw	0
  2080  0528  3400               	retlw	0
  2081  0529  3400               	retlw	0
  2082  052A  34FC               	retlw	252
  2083  052B  34FC               	retlw	252
  2084  052C  34FC               	retlw	252
  2085  052D  34FC               	retlw	252
  2086  052E  34EE               	retlw	238
  2087  052F  34EE               	retlw	238
  2088  0530  34EE               	retlw	238
  2089  0531  34EE               	retlw	238
  2090  0532  34EE               	retlw	238
  2091  0533  34EE               	retlw	238
  2092  0534  34EE               	retlw	238
  2093  0535  34EE               	retlw	238
  2094  0536  34EE               	retlw	238
  2095  0537  34EE               	retlw	238
  2096  0538  34EE               	retlw	238
  2097  0539  34EE               	retlw	238
  2098  053A  34EE               	retlw	238
  2099  053B  34EE               	retlw	238
  2100  053C  34EE               	retlw	238
  2101  053D  34EE               	retlw	238
  2102  053E  34EE               	retlw	238
  2103  053F  34EE               	retlw	238
  2104  0540  34EE               	retlw	238
  2105  0541  34EE               	retlw	238
  2106  0542  34EE               	retlw	238
  2107  0543  34EE               	retlw	238
  2108  0544  34EE               	retlw	238
  2109  0545  34EE               	retlw	238
  2110  0546  34EE               	retlw	238
  2111  0547  34EE               	retlw	238
  2112  0548  34EE               	retlw	238
  2113  0549  34EE               	retlw	238
  2114  054A  34EE               	retlw	238
  2115  054B  34EE               	retlw	238
  2116  054C  34EE               	retlw	238
  2117  054D  34EE               	retlw	238
  2118  054E  34EE               	retlw	238
  2119  054F  34EE               	retlw	238
  2120  0550  34EE               	retlw	238
  2121  0551  34EE               	retlw	238
  2122                           
  2123                           ;initializer for _silent_night
  2124  0552  349E               	retlw	158
  2125  0553  349E               	retlw	158
  2126  0554  349E               	retlw	158
  2127  0555  348D               	retlw	141
  2128  0556  349E               	retlw	158
  2129  0557  349E               	retlw	158
  2130  0558  34BC               	retlw	188
  2131  0559  34BC               	retlw	188
  2132  055A  34BC               	retlw	188
  2133  055B  34BC               	retlw	188
  2134  055C  34BC               	retlw	188
  2135  055D  34BC               	retlw	188
  2136  055E  349E               	retlw	158
  2137  055F  349E               	retlw	158
  2138  0560  349E               	retlw	158
  2139  0561  348D               	retlw	141
  2140  0562  349E               	retlw	158
  2141  0563  349E               	retlw	158
  2142  0564  34BC               	retlw	188
  2143  0565  34BC               	retlw	188
  2144  0566  34BC               	retlw	188
  2145  0567  34BC               	retlw	188
  2146  0568  34BC               	retlw	188
  2147  0569  34BC               	retlw	188
  2148  056A  34D3               	retlw	211
  2149  056B  34D3               	retlw	211
  2150  056C  34D3               	retlw	211
  2151  056D  34D3               	retlw	211
  2152  056E  34D3               	retlw	211
  2153  056F  34D3               	retlw	211
  2154  0570  34FC               	retlw	252
  2155  0571  34FC               	retlw	252
  2156  0572  34FC               	retlw	252
  2157  0573  34FC               	retlw	252
  2158  0574  34FC               	retlw	252
  2159  0575  34FC               	retlw	252
  2160  0576  34EE               	retlw	238
  2161  0577  34EE               	retlw	238
  2162  0578  34EE               	retlw	238
  2163  0579  34EE               	retlw	238
  2164  057A  34EE               	retlw	238
  2165  057B  34EE               	retlw	238
  2166  057C  349E               	retlw	158
  2167  057D  349E               	retlw	158
  2168  057E  349E               	retlw	158
  2169  057F  349E               	retlw	158
  2170  0580  349E               	retlw	158
  2171  0581  349E               	retlw	158
  2172  0582  348D               	retlw	141
  2173  0583  348D               	retlw	141
  2174  0584  348D               	retlw	141
  2175  0585  348D               	retlw	141
  2176  0586  348D               	retlw	141
  2177  0587  348D               	retlw	141
  2178  0588  34ED               	retlw	237
  2179  0589  34ED               	retlw	237
  2180  058A  34ED               	retlw	237
  2181  058B  34FC               	retlw	252
  2182  058C  348D               	retlw	141
  2183  058D  348D               	retlw	141
  2184  058E  349E               	retlw	158
  2185  058F  349E               	retlw	158
  2186  0590  349E               	retlw	158
  2187  0591  348D               	retlw	141
  2188  0592  349E               	retlw	158
  2189  0593  349E               	retlw	158
  2190  0594  34BC               	retlw	188
  2191  0595  34BC               	retlw	188
  2192  0596  34BC               	retlw	188
  2193  0597  34BC               	retlw	188
  2194  0598  34BC               	retlw	188
  2195  0599  34BC               	retlw	188
  2196  059A  348D               	retlw	141
  2197  059B  348D               	retlw	141
  2198  059C  348D               	retlw	141
  2199  059D  348D               	retlw	141
  2200  059E  348D               	retlw	141
  2201  059F  348D               	retlw	141
  2202  05A0  34ED               	retlw	237
  2203  05A1  34ED               	retlw	237
  2204  05A2  34ED               	retlw	237
  2205  05A3  34FC               	retlw	252
  2206  05A4  348D               	retlw	141
  2207  05A5  348D               	retlw	141
  2208  05A6  349E               	retlw	158
  2209  05A7  349E               	retlw	158
  2210  05A8  349E               	retlw	158
  2211  05A9  348D               	retlw	141
  2212  05AA  349E               	retlw	158
  2213  05AB  349E               	retlw	158
  2214  05AC  34BC               	retlw	188
  2215  05AD  34BC               	retlw	188
  2216  05AE  34BC               	retlw	188
  2217  05AF  34BC               	retlw	188
  2218  05B0  34BC               	retlw	188
  2219  05B1  34BC               	retlw	188
  2220  05B2  34D3               	retlw	211
  2221  05B3  34D3               	retlw	211
  2222  05B4  34D3               	retlw	211
  2223  05B5  34D3               	retlw	211
  2224  05B6  34D3               	retlw	211
  2225  05B7  34D3               	retlw	211
  2226  05B8  34B1               	retlw	177
  2227  05B9  34B1               	retlw	177
  2228  05BA  34B1               	retlw	177
  2229  05BB  34D3               	retlw	211
  2230  05BC  34FC               	retlw	252
  2231  05BD  34FC               	retlw	252
  2232  05BE  34ED               	retlw	237
  2233  05BF  34ED               	retlw	237
  2234  05C0  34ED               	retlw	237
  2235  05C1  34ED               	retlw	237
  2236  05C2  34ED               	retlw	237
  2237  05C3  34ED               	retlw	237
  2238  05C4  34BC               	retlw	188
  2239  05C5  34BC               	retlw	188
  2240  05C6  34BC               	retlw	188
  2241  05C7  34BC               	retlw	188
  2242  05C8  34BC               	retlw	188
  2243  05C9  34BC               	retlw	188
  2244  05CA  34ED               	retlw	237
  2245  05CB  34ED               	retlw	237
  2246  05CC  349E               	retlw	158
  2247  05CD  349E               	retlw	158
  2248  05CE  34BC               	retlw	188
  2249  05CF  34BC               	retlw	188
  2250  05D0  349E               	retlw	158
  2251  05D1  349E               	retlw	158
  2252  05D2  349E               	retlw	158
  2253  05D3  34B1               	retlw	177
  2254  05D4  34D3               	retlw	211
  2255  05D5  34D3               	retlw	211
  2256  05D6  34EE               	retlw	238
  2257  05D7  34EE               	retlw	238
  2258  05D8  34EE               	retlw	238
  2259  05D9  34EE               	retlw	238
  2260  05DA  34EE               	retlw	238
  2261  05DB  34EE               	retlw	238
  2262  05DC  3400               	retlw	0
  2263                           
  2264                           ;initializer for _silent_night_pre
  2265  05DD  34D0               	retlw	208
  2266  05DE  34D0               	retlw	208
  2267  05DF  34D0               	retlw	208
  2268  05E0  34D0               	retlw	208
  2269  05E1  34D0               	retlw	208
  2270  05E2  34D0               	retlw	208
  2271  05E3  34D0               	retlw	208
  2272  05E4  34D0               	retlw	208
  2273  05E5  34D0               	retlw	208
  2274  05E6  34D0               	retlw	208
  2275  05E7  34D0               	retlw	208
  2276  05E8  34D0               	retlw	208
  2277  05E9  34D0               	retlw	208
  2278  05EA  34D0               	retlw	208
  2279  05EB  34D0               	retlw	208
  2280  05EC  34D0               	retlw	208
  2281  05ED  34D0               	retlw	208
  2282  05EE  34D0               	retlw	208
  2283  05EF  34D0               	retlw	208
  2284  05F0  34D0               	retlw	208
  2285  05F1  34D0               	retlw	208
  2286  05F2  34D0               	retlw	208
  2287  05F3  34D0               	retlw	208
  2288  05F4  34D0               	retlw	208
  2289  05F5  34C0               	retlw	192
  2290  05F6  34C0               	retlw	192
  2291  05F7  34C0               	retlw	192
  2292  05F8  34C0               	retlw	192
  2293  05F9  34C0               	retlw	192
  2294  05FA  34C0               	retlw	192
  2295  05FB  34C0               	retlw	192
  2296  05FC  34C0               	retlw	192
  2297  05FD  34C0               	retlw	192
  2298  05FE  34C0               	retlw	192
  2299  05FF  34C0               	retlw	192
  2300  0600  34C0               	retlw	192
  2301  0601  34C0               	retlw	192
  2302  0602  34C0               	retlw	192
  2303  0603  34C0               	retlw	192
  2304  0604  34C0               	retlw	192
  2305  0605  34C0               	retlw	192
  2306  0606  34C0               	retlw	192
  2307  0607  34D0               	retlw	208
  2308  0608  34D0               	retlw	208
  2309  0609  34D0               	retlw	208
  2310  060A  34D0               	retlw	208
  2311  060B  34D0               	retlw	208
  2312  060C  34D0               	retlw	208
  2313  060D  34D0               	retlw	208
  2314  060E  34D0               	retlw	208
  2315  060F  34D0               	retlw	208
  2316  0610  34D0               	retlw	208
  2317  0611  34D0               	retlw	208
  2318  0612  34D0               	retlw	208
  2319  0613  34C0               	retlw	192
  2320  0614  34C0               	retlw	192
  2321  0615  34C0               	retlw	192
  2322  0616  34C0               	retlw	192
  2323  0617  34D0               	retlw	208
  2324  0618  34D0               	retlw	208
  2325  0619  34D0               	retlw	208
  2326  061A  34D0               	retlw	208
  2327  061B  34D0               	retlw	208
  2328  061C  34D0               	retlw	208
  2329  061D  34D0               	retlw	208
  2330  061E  34D0               	retlw	208
  2331  061F  34D0               	retlw	208
  2332  0620  34D0               	retlw	208
  2333  0621  34D0               	retlw	208
  2334  0622  34D0               	retlw	208
  2335  0623  34D0               	retlw	208
  2336  0624  34D0               	retlw	208
  2337  0625  34D0               	retlw	208
  2338  0626  34D0               	retlw	208
  2339  0627  34D0               	retlw	208
  2340  0628  34D0               	retlw	208
  2341  0629  34D0               	retlw	208
  2342  062A  34D0               	retlw	208
  2343  062B  34C0               	retlw	192
  2344  062C  34C0               	retlw	192
  2345  062D  34C0               	retlw	192
  2346  062E  34C0               	retlw	192
  2347  062F  34D0               	retlw	208
  2348  0630  34D0               	retlw	208
  2349  0631  34D0               	retlw	208
  2350  0632  34D0               	retlw	208
  2351  0633  34D0               	retlw	208
  2352  0634  34D0               	retlw	208
  2353  0635  34D0               	retlw	208
  2354  0636  34D0               	retlw	208
  2355  0637  34D0               	retlw	208
  2356  0638  34D0               	retlw	208
  2357  0639  34D0               	retlw	208
  2358  063A  34D0               	retlw	208
  2359  063B  34D0               	retlw	208
  2360  063C  34D0               	retlw	208
  2361  063D  34C0               	retlw	192
  2362  063E  34C0               	retlw	192
  2363  063F  34C0               	retlw	192
  2364  0640  34C0               	retlw	192
  2365  0641  34C0               	retlw	192
  2366  0642  34C0               	retlw	192
  2367  0643  34C0               	retlw	192
  2368  0644  34C0               	retlw	192
  2369  0645  34C0               	retlw	192
  2370  0646  34C0               	retlw	192
  2371  0647  34C0               	retlw	192
  2372  0648  34C0               	retlw	192
  2373  0649  34C0               	retlw	192
  2374  064A  34C0               	retlw	192
  2375  064B  34C0               	retlw	192
  2376  064C  34C0               	retlw	192
  2377  064D  34C0               	retlw	192
  2378  064E  34C0               	retlw	192
  2379  064F  34C0               	retlw	192
  2380  0650  34C0               	retlw	192
  2381  0651  34C0               	retlw	192
  2382  0652  34C0               	retlw	192
  2383  0653  34C0               	retlw	192
  2384  0654  34C0               	retlw	192
  2385  0655  34C0               	retlw	192
  2386  0656  34C0               	retlw	192
  2387  0657  34D0               	retlw	208
  2388  0658  34D0               	retlw	208
  2389  0659  34D0               	retlw	208
  2390  065A  34D0               	retlw	208
  2391  065B  34D0               	retlw	208
  2392  065C  34D0               	retlw	208
  2393  065D  34D0               	retlw	208
  2394  065E  34D0               	retlw	208
  2395  065F  34D0               	retlw	208
  2396  0660  34D0               	retlw	208
  2397  0661  34D0               	retlw	208
  2398  0662  34D0               	retlw	208
  2399  0663  34D0               	retlw	208
  2400  0664  34D0               	retlw	208
  2401  0665  34D0               	retlw	208
  2402  0666  34D0               	retlw	208
  2403                           
  2404                           	psect	idataBANK0
  2405  07F2                     __pidataBANK0:
  2406                           
  2407                           ;initializer for _song3_length
  2408  07F2  341F               	retlw	31
  2409                           
  2410                           ;initializer for _timer_low_3
  2411  07F3  34D6               	retlw	214
  2412                           
  2413                           ;initializer for _timer_high_3
  2414  07F4  34ED               	retlw	237
  2415                           
  2416                           ;initializer for _song2_length
  2417  07F5  34B0               	retlw	176
  2418                           
  2419                           ;initializer for _timer_low_2
  2420  07F6  3468               	retlw	104
  2421                           
  2422                           ;initializer for _timer_high_2
  2423  07F7  34F3               	retlw	243
  2424                           
  2425                           ;initializer for _num_songs
  2426  07F8  3403               	retlw	3
  2427                           
  2428                           ;initializer for _light_array
  2429  07F9  34FE               	retlw	254
  2430  07FA  34FF               	retlw	255
  2431  07FB  34FE               	retlw	254
  2432  07FC  34FF               	retlw	255
  2433  07FD  34FE               	retlw	254
  2434  07FE  34FF               	retlw	255
  2435  07FF  34FE               	retlw	254
  2436                           
  2437                           	psect	idataBANK1
  2438  0667                     __pidataBANK1:
  2439                           
  2440                           ;initializer for _song3_pre
  2441  0667  34D0               	retlw	208
  2442  0668  34D0               	retlw	208
  2443  0669  34D0               	retlw	208
  2444  066A  34D0               	retlw	208
  2445  066B  34D0               	retlw	208
  2446  066C  34D0               	retlw	208
  2447  066D  34D0               	retlw	208
  2448  066E  34E0               	retlw	224
  2449  066F  34E0               	retlw	224
  2450  0670  34E0               	retlw	224
  2451  0671  34E0               	retlw	224
  2452  0672  34E0               	retlw	224
  2453  0673  34E0               	retlw	224
  2454  0674  34E0               	retlw	224
  2455  0675  34D0               	retlw	208
  2456  0676  34D0               	retlw	208
  2457  0677  34D0               	retlw	208
  2458  0678  34D0               	retlw	208
  2459  0679  34D0               	retlw	208
  2460  067A  34D0               	retlw	208
  2461  067B  34D0               	retlw	208
  2462  067C  34D0               	retlw	208
  2463  067D  34D0               	retlw	208
  2464  067E  34E0               	retlw	224
  2465  067F  34E0               	retlw	224
  2466  0680  34E0               	retlw	224
  2467  0681  34E0               	retlw	224
  2468  0682  34E0               	retlw	224
  2469  0683  34E0               	retlw	224
  2470  0684  34E0               	retlw	224
  2471  0685  34D0               	retlw	208
  2472  0686  34D0               	retlw	208
  2473                           
  2474                           ;initializer for _song3
  2475  0687  34D4               	retlw	212
  2476  0688  3400               	retlw	0
  2477  0689  34D4               	retlw	212
  2478  068A  34EE               	retlw	238
  2479  068B  34FC               	retlw	252
  2480  068C  34EE               	retlw	238
  2481  068D  34FC               	retlw	252
  2482  068E  348D               	retlw	141
  2483  068F  349E               	retlw	158
  2484  0690  349E               	retlw	158
  2485  0691  34D4               	retlw	212
  2486  0692  3400               	retlw	0
  2487  0693  34D4               	retlw	212
  2488  0694  34D4               	retlw	212
  2489  0695  3400               	retlw	0
  2490  0696  3400               	retlw	0
  2491  0697  3400               	retlw	0
  2492  0698  3400               	retlw	0
  2493  0699  34D4               	retlw	212
  2494  069A  34EE               	retlw	238
  2495  069B  34FC               	retlw	252
  2496  069C  34EE               	retlw	238
  2497  069D  34FC               	retlw	252
  2498  069E  348D               	retlw	141
  2499  069F  349E               	retlw	158
  2500  06A0  349E               	retlw	158
  2501  06A1  34D4               	retlw	212
  2502  06A2  3400               	retlw	0
  2503  06A3  34D4               	retlw	212
  2504  06A4  34D4               	retlw	212
  2505  06A5  3400               	retlw	0
  2506  06A6  3400               	retlw	0
  2507                           
  2508                           	psect	stringtext1
  2509  1000                     __pstringtext1:
  2510  1000                     _spi1_configuration:
  2511  1000  3400               	retlw	0
  2512  1001  3440               	retlw	64
  2513  1002  3401               	retlw	1
  2514  1003  3400               	retlw	0
  2515  1004                     __end_of_spi1_configuration:
  2516                           
  2517                           	psect	stringtext2
  2518  1004                     __pstringtext2:
  2519  1004                     _a:
  2520  1004  348D               	retlw	141
  2521  1005                     __end_of_a:
  2522                           
  2523                           	psect	stringtext3
  2524  1005                     __pstringtext3:
  2525  1005                     _g:
  2526  1005  349E               	retlw	158
  2527  1006                     __end_of_g:
  2528                           
  2529                           	psect	stringtext4
  2530  1006                     __pstringtext4:
  2531  1006                     _f:
  2532  1006  34B2               	retlw	178
  2533  1007                     __end_of_f:
  2534                           
  2535                           	psect	stringtext5
  2536  1007                     __pstringtext5:
  2537  1007                     _e:
  2538  1007  34BD               	retlw	189
  2539  1008                     __end_of_e:
  2540                           
  2541                           	psect	stringtext6
  2542  1008                     __pstringtext6:
  2543  1008                     _d:
  2544  1008  34D4               	retlw	212
  2545  1009                     __end_of_d:
  2546                           
  2547                           	psect	stringtext7
  2548  1009                     __pstringtext7:
  2549  1009                     _c:
  2550  1009  34EE               	retlw	238
  2551  100A                     __end_of_c:
  2552                           
  2553                           	psect	stringtext8
  2554  100A                     __pstringtext8:
  2555  100A                     _b:
  2556  100A  34FC               	retlw	252
  2557  100B                     __end_of_b:
  2558                           
  2559                           	psect	nvCOMMON
  2560  0077                     __pnvCOMMON:
  2561  0077                     _timer0ReloadVal16bit:
  2562  0077                     	ds	2
  2563                           
  2564                           	psect	nvBANK0
  2565  0054                     __pnvBANK0:
  2566  0054                     _TMR1_InterruptHandler:
  2567  0054                     	ds	2
  2568  0056                     _timer1ReloadVal:
  2569  0056                     	ds	2
  2570  0058                     _TMR0_InterruptHandler:
  2571  0058                     	ds	2
  2572  005A                     _INT_InterruptHandler:
  2573  005A                     	ds	2
  2574  000C                     _PORTAbits	set	12
  2575  001A                     _LATCbits	set	26
  2576  0012                     _TRISAbits	set	18
  2577  000B                     _INTCONbits	set	11
  2578  0014                     _TRISC	set	20
  2579  0012                     _TRISA	set	18
  2580  001A                     _LATC	set	26
  2581  0018                     _LATA	set	24
  2582  0014                     _TRISCbits	set	20
  2583  018C                     _SSP1BUF	set	396
  2584  0191                     _SSP1CON2	set	401
  2585  0190                     _SSP1CON1bits	set	400
  2586  018D                     _SSP1ADD	set	397
  2587  0190                     _SSP1CON1	set	400
  2588  018F                     _SSP1STAT	set	399
  2589  020F                     _T1GCONbits	set	527
  2590  020E                     _T1CONbits	set	526
  2591  020E                     _T1CON	set	526
  2592  020C                     _TMR1L	set	524
  2593  020D                     _TMR1H	set	525
  2594  0211                     _T1CLK	set	529
  2595  0210                     _T1GATE	set	528
  2596  020F                     _T1GCON	set	527
  2597  028D                     _PR2	set	653
  2598  028C                     _TMR2	set	652
  2599  028E                     _T2CONbits	set	654
  2600  0291                     _T2RSTbits	set	657
  2601  028F                     _T2HLTbits	set	655
  2602  028E                     _T2CON	set	654
  2603  028C                     _T2TMR	set	652
  2604  028D                     _T2PR	set	653
  2605  0291                     _T2RST	set	657
  2606  028F                     _T2HLT	set	655
  2607  0290                     _T2CLKCON	set	656
  2608  0314                     _PWM3DCL	set	788
  2609  0315                     _PWM3DCH	set	789
  2610  0316                     _PWM3CON	set	790
  2611  059E                     _T0CON0bits	set	1438
  2612  059E                     _T0CON0	set	1438
  2613  059C                     _TMR0L	set	1436
  2614  059D                     _TMR0H	set	1437
  2615  059F                     _T0CON1	set	1439
  2616  0717                     _PIE1bits	set	1815
  2617  070C                     _PIR0bits	set	1804
  2618  0716                     _PIE0bits	set	1814
  2619  070D                     _PIR1bits	set	1805
  2620  080C                     _WDTCON	set	2060
  2621  0892                     _OSCTUNE	set	2194
  2622  0893                     _OSCFRQ	set	2195
  2623  0891                     _OSCEN	set	2193
  2624  1E90                     _INTPPS	set	7824
  2625  1EC6                     _SSP1DATPPS	set	7878
  2626  1EC5                     _SSP1CLKPPS	set	7877
  2627  1F15                     _RA5PPS	set	7957
  2628  1F52                     _INLVLC	set	8018
  2629  1F3C                     _INLVLA	set	7996
  2630  1F51                     _SLRCONC	set	8017
  2631  1F3B                     _SLRCONA	set	7995
  2632  1F50                     _ODCONC	set	8016
  2633  1F3A                     _ODCONA	set	7994
  2634  1F4F                     _WPUC	set	8015
  2635  1F39                     _WPUA	set	7993
  2636  1F38                     _ANSELA	set	7992
  2637  1F4E                     _ANSELC	set	8014
  2638  1F23                     _RC3PPS	set	7971
  2639  1F25                     _RC5PPS	set	7973
  2640                           
  2641                           	psect	cinit
  2642  0033                     start_initialization:	
  2643                           ; #config settings
  2644                           
  2645  0033                     __initialization:	;BIGRAM
  2646                           
  2647                           ; Initialize objects allocated to BIGRAM
  2648  0033  30F2               	movlw	low __pidataBIGRAM
  2649  0034  0084               	movwf	4
  2650  0035  3083               	movlw	(high __pidataBIGRAM)| (0+128)
  2651  0036  0085               	movwf	5
  2652  0037  307B               	movlw	low (0+8571)
  2653  0038  0086               	movwf	6
  2654  0039  3021               	movlw	high (0+8571)
  2655  003A  0087               	movwf	7
  2656  003B  3002               	movlw	2
  2657  003C  00FF               	movwf	btemp+1
  2658  003D  3075               	movlw	117
  2659  003E  318D  2557  3180   	fcall	init_ram
  2660                           
  2661                           ; Initialize objects allocated to BANK0
  2662  0041  30F2               	movlw	low __pidataBANK0
  2663  0042  0084               	movwf	4
  2664  0043  3087               	movlw	(high __pidataBANK0)| (0+128)
  2665  0044  0085               	movwf	5
  2666  0045  303A               	movlw	low __pdataBANK0
  2667  0046  0086               	movwf	6
  2668  0047  3000               	movlw	high __pdataBANK0
  2669  0048  0087               	movwf	7
  2670  0049  3000               	movlw	0
  2671  004A  00FF               	movwf	btemp+1
  2672  004B  300E               	movlw	14
  2673  004C  318D  2557  3180   	fcall	init_ram
  2674                           
  2675                           ; Initialize objects allocated to BANK1
  2676  004F  3067               	movlw	low __pidataBANK1
  2677  0050  0084               	movwf	4
  2678  0051  3086               	movlw	(high __pidataBANK1)| (0+128)
  2679  0052  0085               	movwf	5
  2680  0053  30A0               	movlw	low __pdataBANK1
  2681  0054  0086               	movwf	6
  2682  0055  3000               	movlw	high __pdataBANK1
  2683  0056  0087               	movwf	7
  2684  0057  3000               	movlw	0
  2685  0058  00FF               	movwf	btemp+1
  2686  0059  3040               	movlw	64
  2687  005A  318D  2557  3180   	fcall	init_ram
  2688                           
  2689                           ; Clear objects allocated to COMMON
  2690  005D  01F9               	clrf	__pbssCOMMON& (0+127)
  2691                           
  2692                           ; Clear objects allocated to BANK0
  2693  005E  01C8               	clrf	__pbssBANK0& (0+127)
  2694  005F  01C9               	clrf	(__pbssBANK0+1)& (0+127)
  2695  0060  01CA               	clrf	(__pbssBANK0+2)& (0+127)
  2696  0061  01CB               	clrf	(__pbssBANK0+3)& (0+127)
  2697  0062  01CC               	clrf	(__pbssBANK0+4)& (0+127)
  2698  0063  01CD               	clrf	(__pbssBANK0+5)& (0+127)
  2699  0064  01CE               	clrf	(__pbssBANK0+6)& (0+127)
  2700  0065  01CF               	clrf	(__pbssBANK0+7)& (0+127)
  2701  0066  01D0               	clrf	(__pbssBANK0+8)& (0+127)
  2702  0067  01D1               	clrf	(__pbssBANK0+9)& (0+127)
  2703  0068  01D2               	clrf	(__pbssBANK0+10)& (0+127)
  2704  0069  01D3               	clrf	(__pbssBANK0+11)& (0+127)
  2705  006A                     end_of_initialization:	
  2706                           ;End of C runtime variable initialization code
  2707                           
  2708  006A                     __end_of__initialization:
  2709  006A  107E               	bcf	int$flags,0	;clear compiler interrupt flag (level 1)
  2710  006B  0140               	movlb	0
  2711  006C  318D  2DB6         	ljmp	_main	;jump to C main() function
  2712                           
  2713                           	psect	bssCOMMON
  2714  0079                     __pbssCOMMON:
  2715  0079                     _last_prescale:
  2716  0079                     	ds	1
  2717                           
  2718                           	psect	bssBANK0
  2719  0048                     __pbssBANK0:
  2720  0048                     _count:
  2721  0048                     	ds	2
  2722  004A                     _cole_counter:
  2723  004A                     	ds	1
  2724  004B                     _vibes_count3:
  2725  004B                     	ds	1
  2726  004C                     _vibes_count2:
  2727  004C                     	ds	1
  2728  004D                     _vibes_count:
  2729  004D                     	ds	1
  2730  004E                     _presses:
  2731  004E                     	ds	1
  2732  004F                     _last_note:
  2733  004F                     	ds	1
  2734  0050                     _TMR0_complete:
  2735  0050                     	ds	1
  2736  0051                     _song2_playing:
  2737  0051                     	ds	1
  2738  0052                     _song3_playing:
  2739  0052                     	ds	1
  2740  0053                     _silent_night_playing:
  2741  0053                     	ds	1
  2742                           
  2743                           	psect	dataBANK0
  2744  003A                     __pdataBANK0:
  2745  003A                     _song3_length:
  2746  003A                     	ds	1
  2747  003B                     _timer_low_3:
  2748  003B                     	ds	1
  2749  003C                     _timer_high_3:
  2750  003C                     	ds	1
  2751  003D                     _song2_length:
  2752  003D                     	ds	1
  2753  003E                     _timer_low_2:
  2754  003E                     	ds	1
  2755  003F                     _timer_high_2:
  2756  003F                     	ds	1
  2757  0040                     _num_songs:
  2758  0040                     	ds	1
  2759  0041                     _light_array:
  2760  0041                     	ds	7
  2761                           
  2762                           	psect	dataBANK1
  2763  00A0                     __pdataBANK1:
  2764  00A0                     _song3_pre:
  2765  00A0                     	ds	32
  2766  00C0                     _song3:
  2767  00C0                     	ds	32
  2768                           
  2769                           	psect	inittext
  2770  0D57                     init_ram:
  2771  0D57  00FE               	movwf	btemp
  2772  0D58                     initloop:
  2773  0D58  0012               	moviw fsr0++
  2774  0D59  001E               	movwi fsr1++
  2775  0D5A  3001               	movlw	1
  2776  0D5B  02FE               	subwf	btemp,f
  2777  0D5C  3000               	movlw	0
  2778  0D5D  3BFF               	subwfb	btemp+1,f
  2779  0D5E  087F               	movf	btemp+1,w
  2780  0D5F  047E               	iorwf	btemp,w
  2781  0D60  1D03               	skipz
  2782  0D61  2D58               	goto	initloop
  2783  0D62  3400               	retlw	0
  2784                           
  2785                           	psect	cstackBANK2
  2786  0120                     __pcstackBANK2:
  2787  0120                     main@light:
  2788                           
  2789                           ; 1 bytes @ 0x0
  2790  0120                     	ds	1
  2791  0121                     main@j:
  2792                           
  2793                           ; 2 bytes @ 0x1
  2794  0121                     	ds	2
  2795  0123                     main@i:
  2796                           
  2797                           ; 2 bytes @ 0x3
  2798  0123                     	ds	2
  2799  0125                     main@j_1192:
  2800                           
  2801                           ; 2 bytes @ 0x5
  2802  0125                     	ds	2
  2803  0127                     main@j_1194:
  2804                           
  2805                           ; 2 bytes @ 0x7
  2806  0127                     	ds	2
  2807                           
  2808                           	psect	cstackBANK1
  2809  00E0                     __pcstackBANK1:
  2810  00E0                     displayMatrix@states:
  2811                           
  2812                           ; 1 bytes @ 0x0
  2813  00E0                     	ds	1
  2814  00E1                     displayMatrix@i:
  2815                           
  2816                           ; 2 bytes @ 0x1
  2817  00E1                     	ds	2
  2818  00E3                     displayMatrix@lowSide:
  2819                           
  2820                           ; 1 bytes @ 0x3
  2821  00E3                     	ds	1
  2822  00E4                     ??_main:
  2823                           
  2824                           ; 1 bytes @ 0x4
  2825  00E4                     	ds	5
  2826                           
  2827                           	psect	cstackCOMMON
  2828  0070                     __pcstackCOMMON:
  2829  0070                     ?_SPI1_Initialize:
  2830  0070                     ?_PIN_MANAGER_Initialize:	
  2831                           ; 1 bytes @ 0x0
  2832                           
  2833  0070                     ?_OSCILLATOR_Initialize:	
  2834                           ; 1 bytes @ 0x0
  2835                           
  2836  0070                     ?_WDT_Initialize:	
  2837                           ; 1 bytes @ 0x0
  2838                           
  2839  0070                     ?_PWM3_Initialize:	
  2840                           ; 1 bytes @ 0x0
  2841                           
  2842  0070                     ?_TMR2_Initialize:	
  2843                           ; 1 bytes @ 0x0
  2844                           
  2845  0070                     ?_TMR1_Initialize:	
  2846                           ; 1 bytes @ 0x0
  2847                           
  2848  0070                     ?_EXT_INT_Initialize:	
  2849                           ; 1 bytes @ 0x0
  2850                           
  2851  0070                     ?_TMR0_Initialize:	
  2852                           ; 1 bytes @ 0x0
  2853                           
  2854  0070                     ?_TMR0_ISR:	
  2855                           ; 1 bytes @ 0x0
  2856                           
  2857  0070                     ??_TMR0_ISR:	
  2858                           ; 1 bytes @ 0x0
  2859                           
  2860  0070                     ?_INT_ISR:	
  2861                           ; 1 bytes @ 0x0
  2862                           
  2863  0070                     ?_TMR1_ISR:	
  2864                           ; 1 bytes @ 0x0
  2865                           
  2866  0070                     ?_INT_CallBack:	
  2867                           ; 1 bytes @ 0x0
  2868                           
  2869  0070                     ?_TMR0_DefaultInterruptHandler:	
  2870                           ; 1 bytes @ 0x0
  2871                           
  2872  0070                     ??_TMR0_DefaultInterruptHandler:	
  2873                           ; 1 bytes @ 0x0
  2874                           
  2875  0070                     ?_TMR1_DefaultInterruptHandler:	
  2876                           ; 1 bytes @ 0x0
  2877                           
  2878  0070                     ??_TMR1_DefaultInterruptHandler:	
  2879                           ; 1 bytes @ 0x0
  2880                           
  2881  0070                     ?_EXT_ISR:	
  2882                           ; 1 bytes @ 0x0
  2883                           
  2884  0070                     ??_EXT_ISR:	
  2885                           ; 1 bytes @ 0x0
  2886                           
  2887  0070                     ?_TMR0_ISR_:	
  2888                           ; 1 bytes @ 0x0
  2889                           
  2890  0070                     ??_TMR0_ISR_:	
  2891                           ; 1 bytes @ 0x0
  2892                           
  2893  0070                     ?_TMR1_ISR_:	
  2894                           ; 1 bytes @ 0x0
  2895                           
  2896  0070                     ??_TMR1_ISR_:	
  2897                           ; 1 bytes @ 0x0
  2898                           
  2899  0070                     ?_displayMatrix:	
  2900                           ; 1 bytes @ 0x0
  2901                           
  2902  0070                     ?_SYSTEM_Initialize:	
  2903                           ; 1 bytes @ 0x0
  2904                           
  2905  0070                     ?_SPI1_ExchangeByte:	
  2906                           ; 1 bytes @ 0x0
  2907                           
  2908  0070                     ?_INTERRUPT_InterruptManager:	
  2909                           ; 1 bytes @ 0x0
  2910                           
  2911  0070                     ?_INT_DefaultInterruptHandler:	
  2912                           ; 1 bytes @ 0x0
  2913                           
  2914  0070                     ??_INT_DefaultInterruptHandler:	
  2915                           ; 1 bytes @ 0x0
  2916                           
  2917  0070                     ?_TMR0_Reload:	
  2918                           ; 1 bytes @ 0x0
  2919                           
  2920  0070                     ??_TMR0_Reload:	
  2921                           ; 1 bytes @ 0x0
  2922                           
  2923  0070                     ?_TMR1_WriteTimer:	
  2924                           ; 1 bytes @ 0x0
  2925                           
  2926  0070                     ?_main:	
  2927                           ; 1 bytes @ 0x0
  2928                           
  2929  0070                     TMR1_WriteTimer@timerVal:	
  2930                           ; 1 bytes @ 0x0
  2931                           
  2932                           
  2933                           ; 2 bytes @ 0x0
  2934  0070                     	ds	1
  2935  0071                     EXT_ISR@debounce:
  2936                           
  2937                           ; 1 bytes @ 0x1
  2938  0071                     	ds	1
  2939  0072                     ??_SPI1_Initialize:
  2940  0072                     ??_PIN_MANAGER_Initialize:	
  2941                           ; 1 bytes @ 0x2
  2942                           
  2943  0072                     ??_OSCILLATOR_Initialize:	
  2944                           ; 1 bytes @ 0x2
  2945                           
  2946  0072                     ??_WDT_Initialize:	
  2947                           ; 1 bytes @ 0x2
  2948                           
  2949  0072                     ??_PWM3_Initialize:	
  2950                           ; 1 bytes @ 0x2
  2951                           
  2952  0072                     ??_TMR2_Initialize:	
  2953                           ; 1 bytes @ 0x2
  2954                           
  2955  0072                     ??_INT_ISR:	
  2956                           ; 1 bytes @ 0x2
  2957                           
  2958  0072                     ??_TMR1_ISR:	
  2959                           ; 1 bytes @ 0x2
  2960                           
  2961  0072                     ??_INT_CallBack:	
  2962                           ; 1 bytes @ 0x2
  2963                           
  2964  0072                     ?_TMR0_SetInterruptHandler:	
  2965                           ; 1 bytes @ 0x2
  2966                           
  2967  0072                     ?_TMR1_SetInterruptHandler:	
  2968                           ; 1 bytes @ 0x2
  2969                           
  2970  0072                     ?_playNote:	
  2971                           ; 1 bytes @ 0x2
  2972                           
  2973  0072                     ??_SPI1_ExchangeByte:	
  2974                           ; 1 bytes @ 0x2
  2975                           
  2976  0072                     ??_INTERRUPT_InterruptManager:	
  2977                           ; 1 bytes @ 0x2
  2978                           
  2979  0072                     ?_INT_SetInterruptHandler:	
  2980                           ; 1 bytes @ 0x2
  2981                           
  2982  0072                     ??_TMR1_WriteTimer:	
  2983                           ; 1 bytes @ 0x2
  2984                           
  2985  0072                     SPI1_ExchangeByte@data:	
  2986                           ; 1 bytes @ 0x2
  2987                           
  2988  0072                     playNote@prescale:	
  2989                           ; 1 bytes @ 0x2
  2990                           
  2991  0072                     INT_SetInterruptHandler@InterruptHandler:	
  2992                           ; 1 bytes @ 0x2
  2993                           
  2994  0072                     TMR0_SetInterruptHandler@InterruptHandler:	
  2995                           ; 2 bytes @ 0x2
  2996                           
  2997  0072                     TMR1_SetInterruptHandler@InterruptHandler:	
  2998                           ; 2 bytes @ 0x2
  2999                           
  3000                           
  3001                           ; 2 bytes @ 0x2
  3002  0072                     	ds	1
  3003  0073                     ?_shiftBytes:
  3004  0073                     ??_playNote:	
  3005                           ; 1 bytes @ 0x3
  3006                           
  3007  0073                     shiftBytes@lowSide:	
  3008                           ; 1 bytes @ 0x3
  3009                           
  3010                           
  3011                           ; 1 bytes @ 0x3
  3012  0073                     	ds	1
  3013  0074                     ??_TMR1_Initialize:
  3014  0074                     ??_EXT_INT_Initialize:	
  3015                           ; 1 bytes @ 0x4
  3016                           
  3017  0074                     ??_TMR0_Initialize:	
  3018                           ; 1 bytes @ 0x4
  3019                           
  3020  0074                     ??_TMR0_SetInterruptHandler:	
  3021                           ; 1 bytes @ 0x4
  3022                           
  3023  0074                     ??_TMR1_SetInterruptHandler:	
  3024                           ; 1 bytes @ 0x4
  3025                           
  3026  0074                     ??_shiftBytes:	
  3027                           ; 1 bytes @ 0x4
  3028                           
  3029  0074                     ??_SYSTEM_Initialize:	
  3030                           ; 1 bytes @ 0x4
  3031                           
  3032  0074                     ??_INT_SetInterruptHandler:	
  3033                           ; 1 bytes @ 0x4
  3034                           
  3035  0074                     playNote@note:	
  3036                           ; 1 bytes @ 0x4
  3037                           
  3038  0074                     shiftBytes@highSide:	
  3039                           ; 1 bytes @ 0x4
  3040                           
  3041                           
  3042                           ; 1 bytes @ 0x4
  3043  0074                     	ds	1
  3044  0075                     ??_displayMatrix:
  3045                           
  3046                           ; 1 bytes @ 0x5
  3047  0075                     	ds	2
  3048                           
  3049                           	psect	cstackBANK0
  3050  0020                     __pcstackBANK0:
  3051  0020                     TMR1_ISR_@lights:
  3052                           
  3053                           ; 1 bytes @ 0x0
  3054  0020                     	ds	1
  3055  0021                     TMR1_ISR_@lights_1211:
  3056                           
  3057                           ; 1 bytes @ 0x1
  3058  0021                     	ds	1
  3059  0022                     TMR1_ISR_@lights_1214:
  3060                           
  3061                           ; 1 bytes @ 0x2
  3062  0022                     	ds	1
  3063  0023                     TMR1_ISR_@i_1212:
  3064                           
  3065                           ; 2 bytes @ 0x3
  3066  0023                     	ds	2
  3067  0025                     TMR1_ISR_@i_1215:
  3068                           
  3069                           ; 2 bytes @ 0x5
  3070  0025                     	ds	2
  3071  0027                     TMR1_ISR_@i_1217:
  3072                           
  3073                           ; 2 bytes @ 0x7
  3074  0027                     	ds	2
  3075  0029                     TMR1_ISR_@i_1218:
  3076                           
  3077                           ; 2 bytes @ 0x9
  3078  0029                     	ds	2
  3079  002B                     TMR1_ISR_@i_1219:
  3080                           
  3081                           ; 2 bytes @ 0xB
  3082  002B                     	ds	2
  3083  002D                     TMR1_ISR_@i_1209:
  3084                           
  3085                           ; 2 bytes @ 0xD
  3086  002D                     	ds	2
  3087  002F                     TMR1_ISR_@i_1216:
  3088                           
  3089                           ; 2 bytes @ 0xF
  3090  002F                     	ds	2
  3091  0031                     TMR1_ISR_@lights_1221:
  3092                           
  3093                           ; 1 bytes @ 0x11
  3094  0031                     	ds	1
  3095  0032                     TMR1_ISR_@i:
  3096                           
  3097                           ; 2 bytes @ 0x12
  3098  0032                     	ds	2
  3099  0034                     TMR1_ISR_@i_1210:
  3100                           
  3101                           ; 2 bytes @ 0x14
  3102  0034                     	ds	2
  3103  0036                     TMR1_ISR_@i_1213:
  3104                           
  3105                           ; 2 bytes @ 0x16
  3106  0036                     	ds	2
  3107  0038                     TMR1_ISR_@i_1220:
  3108                           
  3109                           ; 2 bytes @ 0x18
  3110  0038                     	ds	2
  3111                           
  3112                           	psect	maintext
  3113  0DB6                     __pmaintext:	
  3114 ;;
  3115 ;;Main: autosize = 0, tempsize = 5, incstack = 0, save=0
  3116 ;;
  3117 ;; *************** function _main *****************
  3118 ;; Defined at:
  3119 ;;		line 401 in file "main.c"
  3120 ;; Parameters:    Size  Location     Type
  3121 ;;		None
  3122 ;; Auto vars:     Size  Location     Type
  3123 ;;  light           1    0        unsigned char 
  3124 ;;  light           1    0[BANK2 ] unsigned char 
  3125 ;;  j               2    7[BANK2 ] int 
  3126 ;;  j               2    5[BANK2 ] int 
  3127 ;;  j               2    1[BANK2 ] int 
  3128 ;;  i               2    3[BANK2 ] int 
  3129 ;; Return value:  Size  Location     Type
  3130 ;;                  1    wreg      void 
  3131 ;; Registers used:
  3132 ;;		wreg, fsr0l, fsr0h, fsr1l, fsr1h, status,2, status,0, pclath, cstack
  3133 ;; Tracked objects:
  3134 ;;		On entry : B3F/0
  3135 ;;		On exit  : 0/0
  3136 ;;		Unchanged: 0/0
  3137 ;; Data sizes:     COMMON   BANK0   BANK1   BANK2   BANK3   BANK4   BANK5   BANK6   BANK7   BANK8   BANK9  BANK10  BANK1
      +1  BANK12
  3138 ;;      Params:         0       0       0       0       0       0       0       0       0       0       0       0       
      +0       0
  3139 ;;      Locals:         0       0       0       9       0       0       0       0       0       0       0       0       
      +0       0
  3140 ;;      Temps:          0       0       5       0       0       0       0       0       0       0       0       0       
      +0       0
  3141 ;;      Totals:         0       0       5       9       0       0       0       0       0       0       0       0       
      +0       0
  3142 ;;Total ram usage:       14 bytes
  3143 ;; Hardware stack levels required when called: 8
  3144 ;; This function calls:
  3145 ;;		_EXT_INT_Initialize
  3146 ;;		_INT_SetInterruptHandler
  3147 ;;		_PWM3_Initialize
  3148 ;;		_SPI1_Initialize
  3149 ;;		_SYSTEM_Initialize
  3150 ;;		_TMR0_Initialize
  3151 ;;		_TMR0_SetInterruptHandler
  3152 ;;		_TMR1_Initialize
  3153 ;;		_TMR1_SetInterruptHandler
  3154 ;;		_TMR2_Initialize
  3155 ;;		_displayMatrix
  3156 ;;		_playNote
  3157 ;;		_shiftBytes
  3158 ;; This function is called by:
  3159 ;;		Startup code after reset
  3160 ;; This function uses a non-reentrant model
  3161 ;;
  3162                           
  3163                           
  3164                           ;psect for function _main
  3165  0DB6                     _main:
  3166  0DB6                     l2835:	
  3167                           ;incstack = 0
  3168                           ; Regs used in _main: [wreg-fsr1h+status,2+status,0+pclath+cstack]
  3169                           
  3170                           
  3171                           ;main.c: 404:     SYSTEM_Initialize();
  3172  0DB6  3187  277D  318D   	fcall	_SYSTEM_Initialize
  3173  0DB9                     l2837:
  3174                           
  3175                           ;main.c: 410:     (INTCONbits.GIE = 1);
  3176  0DB9  178B               	bsf	11,7	;volatile
  3177  0DBA                     l2839:
  3178                           
  3179                           ;main.c: 413:     (INTCONbits.PEIE = 1);
  3180  0DBA  170B               	bsf	11,6	;volatile
  3181                           
  3182                           ;main.c: 422:     SPI1_Initialize();
  3183  0DBB  3187  27C9  318D   	fcall	_SPI1_Initialize
  3184  0DBE                     l2841:
  3185                           
  3186                           ;main.c: 423:     SSP1CON1bits.SSPEN = 0;
  3187  0DBE  0143               	movlb	3	; select bank3
  3188  0DBF  1290               	bcf	16,5	;volatile
  3189  0DC0                     l2843:
  3190                           
  3191                           ;main.c: 424:     TRISCbits.TRISC3 = 0;
  3192  0DC0  0140               	movlb	0	; select bank0
  3193  0DC1  1194               	bcf	20,3	;volatile
  3194  0DC2                     l2845:
  3195                           
  3196                           ;main.c: 425:     TRISAbits.TRISA4 = 1;
  3197  0DC2  1612               	bsf	18,4	;volatile
  3198  0DC3                     l2847:
  3199                           
  3200                           ;main.c: 426:     TRISCbits.TRISC5 = 0;
  3201  0DC3  1294               	bcf	20,5	;volatile
  3202  0DC4                     l2849:
  3203                           
  3204                           ;main.c: 429:     SSP1CON1bits.SSPEN = 1;
  3205  0DC4  0143               	movlb	3	; select bank3
  3206  0DC5  1690               	bsf	16,5	;volatile
  3207                           
  3208                           ;main.c: 432:     EXT_INT_Initialize();
  3209  0DC6  318D  2570  318D   	fcall	_EXT_INT_Initialize
  3210                           
  3211                           ;main.c: 433:     INT_SetInterruptHandler(EXT_ISR);
  3212  0DC9  30E3               	movlw	low _EXT_ISR
  3213  0DCA  00F2               	movwf	INT_SetInterruptHandler@InterruptHandler
  3214  0DCB  3006               	movlw	high _EXT_ISR
  3215  0DCC  00F3               	movwf	INT_SetInterruptHandler@InterruptHandler+1
  3216  0DCD  318D  2537  318D   	fcall	_INT_SetInterruptHandler
  3217  0DD0                     l2851:
  3218                           
  3219                           ;main.c: 434:     PIE0bits.INTE = 1;
  3220  0DD0  014E               	movlb	14	; select bank14
  3221  0DD1  1416               	bsf	22,0	;volatile
  3222                           
  3223                           ;main.c: 437:     TMR0_Initialize();
  3224  0DD2  3187  2799  318D   	fcall	_TMR0_Initialize
  3225                           
  3226                           ;main.c: 438:     TMR0_SetInterruptHandler(TMR0_ISR_);
  3227  0DD5  3027               	movlw	low _TMR0_ISR_
  3228  0DD6  00F2               	movwf	TMR0_SetInterruptHandler@InterruptHandler
  3229  0DD7  300D               	movlw	high _TMR0_ISR_
  3230  0DD8  00F3               	movwf	TMR0_SetInterruptHandler@InterruptHandler+1
  3231  0DD9  318D  2543  318D   	fcall	_TMR0_SetInterruptHandler
  3232  0DDC                     l2853:
  3233                           
  3234                           ;main.c: 439:     T0CON0bits.T0EN = 0;
  3235  0DDC  014B               	movlb	11	; select bank11
  3236  0DDD  139E               	bcf	30,7	;volatile
  3237                           
  3238                           ;main.c: 442:     TMR1_Initialize();
  3239  0DDE  3187  273F  318D   	fcall	_TMR1_Initialize
  3240                           
  3241                           ;main.c: 443:     TMR1_SetInterruptHandler(TMR1_ISR_);
  3242  0DE1  306E               	movlw	low _TMR1_ISR_
  3243  0DE2  00F2               	movwf	TMR1_SetInterruptHandler@InterruptHandler
  3244  0DE3  3000               	movlw	high _TMR1_ISR_
  3245  0DE4  00F3               	movwf	TMR1_SetInterruptHandler@InterruptHandler+1
  3246  0DE5  318D  2549  318D   	fcall	_TMR1_SetInterruptHandler
  3247  0DE8                     l2855:
  3248                           
  3249                           ;main.c: 444:     T1CONbits.TMR1ON = 0;
  3250  0DE8  0144               	movlb	4	; select bank4
  3251  0DE9  100E               	bcf	14,0	;volatile
  3252                           
  3253                           ;main.c: 447:     TMR2_Initialize();
  3254  0DEA  318D  2597  318D   	fcall	_TMR2_Initialize
  3255  0DED                     l2857:
  3256                           
  3257                           ;main.c: 448:     T2CONbits.TMR2ON = 0;
  3258  0DED  0145               	movlb	5	; select bank5
  3259  0DEE  138E               	bcf	14,7	;volatile
  3260                           
  3261                           ;main.c: 451:     PWM3_Initialize();
  3262  0DEF  318D  254F  318D   	fcall	_PWM3_Initialize
  3263  0DF2                     l2859:
  3264  0DF2  0140               	movlb	0	; select bank0
  3265  0DF3  111A               	bcf	26,2	;volatile
  3266  0DF4                     l2861:
  3267  0DF4  121A               	bcf	26,4	;volatile
  3268  0DF5                     l2863:
  3269  0DF5  101A               	bcf	26,0	;volatile
  3270  0DF6                     l2865:
  3271                           
  3272                           ;main.c: 461:     for (int i = 0; i < 15; i++)
  3273  0DF6  0142               	movlb	2	; select bank2
  3274  0DF7  01A3               	clrf	main@i^(0+256)
  3275  0DF8  01A4               	clrf	(main@i+1)^(0+256)
  3276  0DF9                     l2871:
  3277                           
  3278                           ;main.c: 462:     {;main.c: 463:         for (int j = 0; j < 12; j++)
  3279  0DF9  0142               	movlb	2	; select bank2
  3280  0DFA  01A1               	clrf	main@j^(0+256)
  3281  0DFB  01A2               	clrf	(main@j+1)^(0+256)
  3282  0DFC                     l2877:
  3283                           
  3284                           ;main.c: 464:         {;main.c: 465:             displayMatrix(light_array);
  3285  0DFC  3041               	movlw	(low (_light_array| 0))& (0+255)
  3286  0DFD  3186  26A7  318D   	fcall	_displayMatrix
  3287  0E00                     l2879:
  3288                           
  3289                           ;main.c: 466:         }
  3290  0E00  3001               	movlw	1
  3291  0E01  0142               	movlb	2	; select bank2
  3292  0E02  07A1               	addwf	main@j^(0+256),f
  3293  0E03  3000               	movlw	0
  3294  0E04  3DA2               	addwfc	(main@j+1)^(0+256),f
  3295  0E05                     l2881:
  3296  0E05  0822               	movf	(main@j+1)^(0+256),w
  3297  0E06  3A80               	xorlw	128
  3298  0E07  0141               	movlb	1	; select bank1
  3299  0E08  00E4               	movwf	??_main^(0+128)
  3300  0E09  3080               	movlw	128
  3301  0E0A  0264               	subwf	??_main^(0+128),w
  3302  0E0B  1D03               	skipz
  3303  0E0C  2E10               	goto	u1955
  3304  0E0D  300C               	movlw	12
  3305  0E0E  0142               	movlb	2	; select bank2
  3306  0E0F  0221               	subwf	main@j^(0+256),w
  3307  0E10                     u1955:
  3308  0E10  1C03               	skipc
  3309  0E11  2E13               	goto	u1951
  3310  0E12  2E14               	goto	u1950
  3311  0E13                     u1951:
  3312  0E13  2DFC               	goto	l2877
  3313  0E14                     u1950:
  3314  0E14                     l2883:
  3315                           
  3316                           ;main.c: 467:         if (i < 7)
  3317  0E14  0142               	movlb	2	; select bank2
  3318  0E15  0824               	movf	(main@i+1)^(0+256),w
  3319  0E16  3A80               	xorlw	128
  3320  0E17  0141               	movlb	1	; select bank1
  3321  0E18  00E4               	movwf	??_main^(0+128)
  3322  0E19  3080               	movlw	128
  3323  0E1A  0264               	subwf	??_main^(0+128),w
  3324  0E1B  1D03               	skipz
  3325  0E1C  2E20               	goto	u1965
  3326  0E1D  3007               	movlw	7
  3327  0E1E  0142               	movlb	2	; select bank2
  3328  0E1F  0223               	subwf	main@i^(0+256),w
  3329  0E20                     u1965:
  3330  0E20  1803               	skipnc
  3331  0E21  2E23               	goto	u1961
  3332  0E22  2E24               	goto	u1960
  3333  0E23                     u1961:
  3334  0E23  2E66               	goto	l2897
  3335  0E24                     u1960:
  3336  0E24                     l2885:
  3337                           
  3338                           ;main.c: 468:         {;main.c: 469:             for (int j = 0; j < 7; j++)
  3339  0E24  0142               	movlb	2	; select bank2
  3340  0E25  01A5               	clrf	main@j_1192^(0+256)
  3341  0E26  01A6               	clrf	(main@j_1192+1)^(0+256)
  3342  0E27                     l2891:
  3343                           
  3344                           ;main.c: 470:             {;main.c: 471:                 uint8_t light = (~light_array[j
      +                          ]) << 7;
  3345  0E27  0142               	movlb	2	; select bank2
  3346  0E28  0825               	movf	main@j_1192^(0+256),w
  3347  0E29  3E41               	addlw	(low (_light_array| 0))& (0+255)
  3348  0E2A  0086               	movwf	6
  3349  0E2B  0187               	clrf	7
  3350  0E2C  0901               	comf	1,w
  3351  0E2D  0141               	movlb	1	; select bank1
  3352  0E2E  00E4               	movwf	??_main^(0+128)
  3353  0E2F  3006               	movlw	6
  3354  0E30                     u1975:
  3355  0E30  35E4               	lslf	??_main^(0+128),f
  3356  0E31  3EFF               	addlw	-1
  3357  0E32  1D03               	skipz
  3358  0E33  2E30               	goto	u1975
  3359  0E34  3564               	lslf	??_main^(0+128),w
  3360  0E35  00E5               	movwf	(??_main+1)^(0+128)
  3361  0E36  0865               	movf	(??_main+1)^(0+128),w
  3362  0E37  0142               	movlb	2	; select bank2
  3363  0E38  00A0               	movwf	main@light^(0+256)
  3364                           
  3365                           ;main.c: 472:                 light_array[j] = (light_array[j] << 1) + (light >> 7);
  3366  0E39  0820               	movf	main@light^(0+256),w
  3367  0E3A  0141               	movlb	1	; select bank1
  3368  0E3B  00E4               	movwf	??_main^(0+128)
  3369  0E3C  3007               	movlw	7
  3370  0E3D                     u1985:
  3371  0E3D  36E4               	lsrf	??_main^(0+128),f
  3372  0E3E  0B89               	decfsz	9,f
  3373  0E3F  2E3D               	goto	u1985
  3374  0E40  0142               	movlb	2	; select bank2
  3375  0E41  0825               	movf	main@j_1192^(0+256),w
  3376  0E42  3E41               	addlw	(low (_light_array| 0))& (0+255)
  3377  0E43  0086               	movwf	6
  3378  0E44  0187               	clrf	7
  3379  0E45  3501               	lslf	1,w
  3380  0E46  0141               	movlb	1	; select bank1
  3381  0E47  0764               	addwf	??_main^(0+128),w
  3382  0E48  00E5               	movwf	(??_main+1)^(0+128)
  3383  0E49  0142               	movlb	2	; select bank2
  3384  0E4A  0825               	movf	main@j_1192^(0+256),w
  3385  0E4B  3E41               	addlw	(low (_light_array| 0))& (0+255)
  3386  0E4C  0086               	movwf	6
  3387  0E4D  0187               	clrf	7
  3388  0E4E  0141               	movlb	1	; select bank1
  3389  0E4F  0865               	movf	(??_main+1)^(0+128),w
  3390  0E50  0081               	movwf	1
  3391  0E51                     l2893:
  3392                           
  3393                           ;main.c: 473:             }
  3394  0E51  3001               	movlw	1
  3395  0E52  0142               	movlb	2	; select bank2
  3396  0E53  07A5               	addwf	main@j_1192^(0+256),f
  3397  0E54  3000               	movlw	0
  3398  0E55  3DA6               	addwfc	(main@j_1192+1)^(0+256),f
  3399  0E56                     l2895:
  3400  0E56  0826               	movf	(main@j_1192+1)^(0+256),w
  3401  0E57  3A80               	xorlw	128
  3402  0E58  0141               	movlb	1	; select bank1
  3403  0E59  00E4               	movwf	??_main^(0+128)
  3404  0E5A  3080               	movlw	128
  3405  0E5B  0264               	subwf	??_main^(0+128),w
  3406  0E5C  1D03               	skipz
  3407  0E5D  2E61               	goto	u1995
  3408  0E5E  3007               	movlw	7
  3409  0E5F  0142               	movlb	2	; select bank2
  3410  0E60  0225               	subwf	main@j_1192^(0+256),w
  3411  0E61                     u1995:
  3412  0E61  1C03               	skipc
  3413  0E62  2E64               	goto	u1991
  3414  0E63  2E65               	goto	u1990
  3415  0E64                     u1991:
  3416  0E64  2E27               	goto	l2891
  3417  0E65                     u1990:
  3418  0E65  2E8E               	goto	l2909
  3419  0E66                     l2897:
  3420                           
  3421                           ;main.c: 476:         {;main.c: 477:             for (int j = 0; j < 7; j++)
  3422  0E66  0142               	movlb	2	; select bank2
  3423  0E67  01A7               	clrf	main@j_1194^(0+256)
  3424  0E68  01A8               	clrf	(main@j_1194+1)^(0+256)
  3425  0E69                     l2903:
  3426                           
  3427                           ;main.c: 480:                 light_array[j] = (light_array[j] << 1) + 1;
  3428  0E69  0142               	movlb	2	; select bank2
  3429  0E6A  0827               	movf	main@j_1194^(0+256),w
  3430  0E6B  3E41               	addlw	(low (_light_array| 0))& (0+255)
  3431  0E6C  0086               	movwf	6
  3432  0E6D  0187               	clrf	7
  3433  0E6E  1403               	setc
  3434  0E6F  0D01               	rlf	1,w
  3435  0E70  0141               	movlb	1	; select bank1
  3436  0E71  00E4               	movwf	??_main^(0+128)
  3437  0E72  0142               	movlb	2	; select bank2
  3438  0E73  0827               	movf	main@j_1194^(0+256),w
  3439  0E74  3E41               	addlw	(low (_light_array| 0))& (0+255)
  3440  0E75  0086               	movwf	6
  3441  0E76  0187               	clrf	7
  3442  0E77  0141               	movlb	1	; select bank1
  3443  0E78  0864               	movf	??_main^(0+128),w
  3444  0E79  0081               	movwf	1
  3445  0E7A                     l2905:
  3446                           
  3447                           ;main.c: 481:             }
  3448  0E7A  3001               	movlw	1
  3449  0E7B  0142               	movlb	2	; select bank2
  3450  0E7C  07A7               	addwf	main@j_1194^(0+256),f
  3451  0E7D  3000               	movlw	0
  3452  0E7E  3DA8               	addwfc	(main@j_1194+1)^(0+256),f
  3453  0E7F                     l2907:
  3454  0E7F  0828               	movf	(main@j_1194+1)^(0+256),w
  3455  0E80  3A80               	xorlw	128
  3456  0E81  0141               	movlb	1	; select bank1
  3457  0E82  00E4               	movwf	??_main^(0+128)
  3458  0E83  3080               	movlw	128
  3459  0E84  0264               	subwf	??_main^(0+128),w
  3460  0E85  1D03               	skipz
  3461  0E86  2E8A               	goto	u2005
  3462  0E87  3007               	movlw	7
  3463  0E88  0142               	movlb	2	; select bank2
  3464  0E89  0227               	subwf	main@j_1194^(0+256),w
  3465  0E8A                     u2005:
  3466  0E8A  1C03               	skipc
  3467  0E8B  2E8D               	goto	u2001
  3468  0E8C  2E8E               	goto	u2000
  3469  0E8D                     u2001:
  3470  0E8D  2E69               	goto	l2903
  3471  0E8E                     u2000:
  3472  0E8E                     l2909:
  3473                           
  3474                           ;main.c: 483:     }
  3475  0E8E  3001               	movlw	1
  3476  0E8F  0142               	movlb	2	; select bank2
  3477  0E90  07A3               	addwf	main@i^(0+256),f
  3478  0E91  3000               	movlw	0
  3479  0E92  3DA4               	addwfc	(main@i+1)^(0+256),f
  3480  0E93  0824               	movf	(main@i+1)^(0+256),w
  3481  0E94  3A80               	xorlw	128
  3482  0E95  0141               	movlb	1	; select bank1
  3483  0E96  00E4               	movwf	??_main^(0+128)
  3484  0E97  3080               	movlw	128
  3485  0E98  0264               	subwf	??_main^(0+128),w
  3486  0E99  1D03               	skipz
  3487  0E9A  2E9E               	goto	u2015
  3488  0E9B  300F               	movlw	15
  3489  0E9C  0142               	movlb	2	; select bank2
  3490  0E9D  0223               	subwf	main@i^(0+256),w
  3491  0E9E                     u2015:
  3492  0E9E  1C03               	skipc
  3493  0E9F  2EA1               	goto	u2011
  3494  0EA0  2EA2               	goto	u2010
  3495  0EA1                     u2011:
  3496  0EA1  2DF9               	goto	l2871
  3497  0EA2                     u2010:
  3498  0EA2                     l553:	
  3499                           ;main.c: 491:     while (1)
  3500                           
  3501                           
  3502                           ;main.c: 492:     {;main.c: 493:         T0CON0bits.T0EN = 1;
  3503  0EA2  014B               	movlb	11	; select bank11
  3504  0EA3  179E               	bsf	30,7	;volatile
  3505  0EA4                     l2911:
  3506                           
  3507                           ;main.c: 494:         shiftBytes(0xFE, 0x07);
  3508  0EA4  3007               	movlw	7
  3509  0EA5  0141               	movlb	1	; select bank1
  3510  0EA6  00E4               	movwf	??_main^(0+128)
  3511  0EA7  0864               	movf	??_main^(0+128),w
  3512  0EA8  00F3               	movwf	shiftBytes@lowSide
  3513  0EA9  30FE               	movlw	254
  3514  0EAA  318D  258A  318D   	fcall	_shiftBytes
  3515  0EAD                     l2913:
  3516  0EAD  0140               	movlb	0	; select bank0
  3517  0EAE  111A               	bcf	26,2	;volatile
  3518  0EAF                     l2915:
  3519  0EAF  101A               	bcf	26,0	;volatile
  3520  0EB0                     l2917:
  3521                           
  3522                           ;main.c: 497:         if (presses && TMR0_complete)
  3523  0EB0  084E               	movf	_presses,w
  3524  0EB1  1903               	btfsc	3,2
  3525  0EB2  2EB4               	goto	u2021
  3526  0EB3  2EB5               	goto	u2020
  3527  0EB4                     u2021:
  3528  0EB4  2FE5               	goto	l2965
  3529  0EB5                     u2020:
  3530  0EB5                     l2919:
  3531  0EB5  0850               	movf	_TMR0_complete,w
  3532  0EB6  1903               	btfsc	3,2
  3533  0EB7  2EB9               	goto	u2031
  3534  0EB8  2EBA               	goto	u2030
  3535  0EB9                     u2031:
  3536  0EB9  2FE5               	goto	l2965
  3537  0EBA                     u2030:
  3538  0EBA                     l2921:
  3539                           
  3540                           ;main.c: 498:         {;main.c: 499:             T0CON0bits.T0EN = 0;
  3541  0EBA  014B               	movlb	11	; select bank11
  3542  0EBB  139E               	bcf	30,7	;volatile
  3543                           
  3544                           ;main.c: 502:             switch (presses)
  3545  0EBC  2F45               	goto	l2945
  3546  0EBD                     l2923:
  3547                           
  3548                           ;main.c: 505:                     light_array[0] = 0x88;
  3549  0EBD  3088               	movlw	136
  3550  0EBE  00E4               	movwf	??_main^(0+128)
  3551  0EBF  0864               	movf	??_main^(0+128),w
  3552  0EC0  0140               	movlb	0	; select bank0
  3553  0EC1  00C1               	movwf	_light_array
  3554                           
  3555                           ;main.c: 506:                     light_array[1] = 0x44;
  3556  0EC2  3044               	movlw	68
  3557  0EC3  0141               	movlb	1	; select bank1
  3558  0EC4  00E4               	movwf	??_main^(0+128)
  3559  0EC5  0864               	movf	??_main^(0+128),w
  3560  0EC6  0140               	movlb	0	; select bank0
  3561  0EC7  00C2               	movwf	_light_array+1
  3562                           
  3563                           ;main.c: 507:                     light_array[2] = 0x22;
  3564  0EC8  3022               	movlw	34
  3565  0EC9  0141               	movlb	1	; select bank1
  3566  0ECA  00E4               	movwf	??_main^(0+128)
  3567  0ECB  0864               	movf	??_main^(0+128),w
  3568  0ECC  0140               	movlb	0	; select bank0
  3569  0ECD  00C3               	movwf	_light_array+2
  3570                           
  3571                           ;main.c: 508:                     light_array[3] = 0x11;
  3572  0ECE  3011               	movlw	17
  3573  0ECF  0141               	movlb	1	; select bank1
  3574  0ED0  00E4               	movwf	??_main^(0+128)
  3575  0ED1  0864               	movf	??_main^(0+128),w
  3576  0ED2  0140               	movlb	0	; select bank0
  3577  0ED3  00C4               	movwf	_light_array+3
  3578                           
  3579                           ;main.c: 509:                     light_array[4] = 0x88;
  3580  0ED4  3088               	movlw	136
  3581  0ED5  0141               	movlb	1	; select bank1
  3582  0ED6  00E4               	movwf	??_main^(0+128)
  3583  0ED7  0864               	movf	??_main^(0+128),w
  3584  0ED8  0140               	movlb	0	; select bank0
  3585  0ED9  00C5               	movwf	_light_array+4
  3586                           
  3587                           ;main.c: 510:                     light_array[5] = 0x44;
  3588  0EDA  3044               	movlw	68
  3589  0EDB  0141               	movlb	1	; select bank1
  3590  0EDC  00E4               	movwf	??_main^(0+128)
  3591  0EDD  0864               	movf	??_main^(0+128),w
  3592  0EDE  0140               	movlb	0	; select bank0
  3593  0EDF  00C6               	movwf	_light_array+5
  3594                           
  3595                           ;main.c: 511:                     light_array[6] = 0x22;
  3596  0EE0  3022               	movlw	34
  3597  0EE1  0141               	movlb	1	; select bank1
  3598  0EE2  00E4               	movwf	??_main^(0+128)
  3599  0EE3  0864               	movf	??_main^(0+128),w
  3600  0EE4  0140               	movlb	0	; select bank0
  3601  0EE5  00C7               	movwf	_light_array+6
  3602  0EE6                     l2925:
  3603                           
  3604                           ;main.c: 512:                     silent_night_playing = 1;
  3605  0EE6  01D3               	clrf	_silent_night_playing
  3606  0EE7  0AD3               	incf	_silent_night_playing,f
  3607                           
  3608                           ;main.c: 513:                     break;
  3609  0EE8  2F5A               	goto	l561
  3610  0EE9                     l2927:
  3611                           
  3612                           ;main.c: 543:                     light_array[0] = 0xFF;
  3613  0EE9  30FF               	movlw	255
  3614  0EEA  00E4               	movwf	??_main^(0+128)
  3615  0EEB  0864               	movf	??_main^(0+128),w
  3616  0EEC  0140               	movlb	0	; select bank0
  3617  0EED  00C1               	movwf	_light_array
  3618                           
  3619                           ;main.c: 544:                     light_array[1] = 0xFF;
  3620  0EEE  30FF               	movlw	255
  3621  0EEF  0141               	movlb	1	; select bank1
  3622  0EF0  00E4               	movwf	??_main^(0+128)
  3623  0EF1  0864               	movf	??_main^(0+128),w
  3624  0EF2  0140               	movlb	0	; select bank0
  3625  0EF3  00C2               	movwf	_light_array+1
  3626                           
  3627                           ;main.c: 545:                     light_array[2] = 0xFF;
  3628  0EF4  30FF               	movlw	255
  3629  0EF5  0141               	movlb	1	; select bank1
  3630  0EF6  00E4               	movwf	??_main^(0+128)
  3631  0EF7  0864               	movf	??_main^(0+128),w
  3632  0EF8  0140               	movlb	0	; select bank0
  3633  0EF9  00C3               	movwf	_light_array+2
  3634                           
  3635                           ;main.c: 546:                     light_array[3] = 0xFF;
  3636  0EFA  30FF               	movlw	255
  3637  0EFB  0141               	movlb	1	; select bank1
  3638  0EFC  00E4               	movwf	??_main^(0+128)
  3639  0EFD  0864               	movf	??_main^(0+128),w
  3640  0EFE  0140               	movlb	0	; select bank0
  3641  0EFF  00C4               	movwf	_light_array+3
  3642                           
  3643                           ;main.c: 547:                     light_array[4] = 0xFF;
  3644  0F00  30FF               	movlw	255
  3645  0F01  0141               	movlb	1	; select bank1
  3646  0F02  00E4               	movwf	??_main^(0+128)
  3647  0F03  0864               	movf	??_main^(0+128),w
  3648  0F04  0140               	movlb	0	; select bank0
  3649  0F05  00C5               	movwf	_light_array+4
  3650                           
  3651                           ;main.c: 548:                     light_array[5] = 0xFF;
  3652  0F06  30FF               	movlw	255
  3653  0F07  0141               	movlb	1	; select bank1
  3654  0F08  00E4               	movwf	??_main^(0+128)
  3655  0F09  0864               	movf	??_main^(0+128),w
  3656  0F0A  0140               	movlb	0	; select bank0
  3657  0F0B  00C6               	movwf	_light_array+5
  3658                           
  3659                           ;main.c: 549:                     light_array[6] = 0xFF;
  3660  0F0C  30FF               	movlw	255
  3661  0F0D  0141               	movlb	1	; select bank1
  3662  0F0E  00E4               	movwf	??_main^(0+128)
  3663  0F0F  0864               	movf	??_main^(0+128),w
  3664  0F10  0140               	movlb	0	; select bank0
  3665  0F11  00C7               	movwf	_light_array+6
  3666  0F12                     l2929:
  3667                           
  3668                           ;main.c: 550:                     vibes_count = 0;
  3669  0F12  01CD               	clrf	_vibes_count
  3670  0F13                     l2931:
  3671                           
  3672                           ;main.c: 551:                     vibes_count2 = 0;
  3673  0F13  01CC               	clrf	_vibes_count2
  3674  0F14                     l2933:
  3675                           
  3676                           ;main.c: 552:                     vibes_count3 = 0;
  3677  0F14  01CB               	clrf	_vibes_count3
  3678  0F15                     l2935:
  3679                           
  3680                           ;main.c: 554:                     song2_playing = 1;
  3681  0F15  01D1               	clrf	_song2_playing
  3682  0F16  0AD1               	incf	_song2_playing,f
  3683                           
  3684                           ;main.c: 555:                     break;
  3685  0F17  2F5A               	goto	l561
  3686  0F18                     l2937:
  3687                           
  3688                           ;main.c: 567:                     light_array[0] = 0xFF;
  3689  0F18  30FF               	movlw	255
  3690  0F19  00E4               	movwf	??_main^(0+128)
  3691  0F1A  0864               	movf	??_main^(0+128),w
  3692  0F1B  0140               	movlb	0	; select bank0
  3693  0F1C  00C1               	movwf	_light_array
  3694                           
  3695                           ;main.c: 568:                     light_array[1] = 0xFF;
  3696  0F1D  30FF               	movlw	255
  3697  0F1E  0141               	movlb	1	; select bank1
  3698  0F1F  00E4               	movwf	??_main^(0+128)
  3699  0F20  0864               	movf	??_main^(0+128),w
  3700  0F21  0140               	movlb	0	; select bank0
  3701  0F22  00C2               	movwf	_light_array+1
  3702                           
  3703                           ;main.c: 569:                     light_array[2] = 0xFF;
  3704  0F23  30FF               	movlw	255
  3705  0F24  0141               	movlb	1	; select bank1
  3706  0F25  00E4               	movwf	??_main^(0+128)
  3707  0F26  0864               	movf	??_main^(0+128),w
  3708  0F27  0140               	movlb	0	; select bank0
  3709  0F28  00C3               	movwf	_light_array+2
  3710                           
  3711                           ;main.c: 570:                     light_array[3] = 0xFF;
  3712  0F29  30FF               	movlw	255
  3713  0F2A  0141               	movlb	1	; select bank1
  3714  0F2B  00E4               	movwf	??_main^(0+128)
  3715  0F2C  0864               	movf	??_main^(0+128),w
  3716  0F2D  0140               	movlb	0	; select bank0
  3717  0F2E  00C4               	movwf	_light_array+3
  3718                           
  3719                           ;main.c: 571:                     light_array[4] = 0xFF;
  3720  0F2F  30FF               	movlw	255
  3721  0F30  0141               	movlb	1	; select bank1
  3722  0F31  00E4               	movwf	??_main^(0+128)
  3723  0F32  0864               	movf	??_main^(0+128),w
  3724  0F33  0140               	movlb	0	; select bank0
  3725  0F34  00C5               	movwf	_light_array+4
  3726                           
  3727                           ;main.c: 572:                     light_array[5] = 0xFF;
  3728  0F35  30FF               	movlw	255
  3729  0F36  0141               	movlb	1	; select bank1
  3730  0F37  00E4               	movwf	??_main^(0+128)
  3731  0F38  0864               	movf	??_main^(0+128),w
  3732  0F39  0140               	movlb	0	; select bank0
  3733  0F3A  00C6               	movwf	_light_array+5
  3734                           
  3735                           ;main.c: 573:                     light_array[6] = 0xFF;
  3736  0F3B  30FF               	movlw	255
  3737  0F3C  0141               	movlb	1	; select bank1
  3738  0F3D  00E4               	movwf	??_main^(0+128)
  3739  0F3E  0864               	movf	??_main^(0+128),w
  3740  0F3F  0140               	movlb	0	; select bank0
  3741  0F40  00C7               	movwf	_light_array+6
  3742  0F41                     l2939:
  3743                           
  3744                           ;main.c: 574:                     cole_counter = 0;
  3745  0F41  01CA               	clrf	_cole_counter
  3746  0F42                     l2941:
  3747                           
  3748                           ;main.c: 588:                     song3_playing = 1;
  3749  0F42  01D2               	clrf	_song3_playing
  3750  0F43  0AD2               	incf	_song3_playing,f
  3751                           
  3752                           ;main.c: 589:                     break;
  3753  0F44  2F5A               	goto	l561
  3754  0F45                     l2945:
  3755  0F45  0140               	movlb	0	; select bank0
  3756  0F46  084E               	movf	_presses,w
  3757  0F47  0141               	movlb	1	; select bank1
  3758  0F48  00E4               	movwf	??_main^(0+128)
  3759  0F49  01E5               	clrf	(??_main^(0+128)+1)
  3760                           
  3761                           ; Switch on 2 bytes has been partitioned into a top level switch of size 1, and 1 sub-sw
      +                          itches
  3762                           ; Switch size 1, requested type "simple"
  3763                           ; Number of cases is 1, Range of values is 0 to 0
  3764                           ; switch strategies available:
  3765                           ; Name         Instructions Cycles
  3766                           ; simple_byte            4     3 (average)
  3767                           ; direct_byte            8     6 (fixed)
  3768                           ; jumptable            260     6 (fixed)
  3769                           ;	Chosen strategy is simple_byte
  3770  0F4A  0865               	movf	(??_main+1)^(0+128),w
  3771  0F4B  3A00               	xorlw	0	; case 0
  3772  0F4C  1903               	skipnz
  3773  0F4D  2F4F               	goto	l2999
  3774  0F4E  2F5A               	goto	l561
  3775  0F4F                     l2999:
  3776                           
  3777                           ; Switch size 1, requested type "simple"
  3778                           ; Number of cases is 3, Range of values is 1 to 3
  3779                           ; switch strategies available:
  3780                           ; Name         Instructions Cycles
  3781                           ; simple_byte           10     6 (average)
  3782                           ; direct_byte           15     9 (fixed)
  3783                           ; jumptable            263     9 (fixed)
  3784                           ;	Chosen strategy is simple_byte
  3785  0F4F  0864               	movf	??_main^(0+128),w
  3786  0F50  3A01               	xorlw	1	; case 1
  3787  0F51  1903               	skipnz
  3788  0F52  2EBD               	goto	l2923
  3789  0F53  3A03               	xorlw	3	; case 2
  3790  0F54  1903               	skipnz
  3791  0F55  2EE9               	goto	l2927
  3792  0F56  3A01               	xorlw	1	; case 3
  3793  0F57  1903               	skipnz
  3794  0F58  2F18               	goto	l2937
  3795  0F59  2F5A               	goto	l561
  3796  0F5A                     l561:
  3797                           
  3798                           ;main.c: 591:             T1CONbits.TMR1ON = 1;
  3799  0F5A  0144               	movlb	4	; select bank4
  3800  0F5B  140E               	bsf	14,0	;volatile
  3801                           
  3802                           ;main.c: 592:             T2CONbits.TMR2ON = 1;
  3803  0F5C  0145               	movlb	5	; select bank5
  3804  0F5D  178E               	bsf	14,7	;volatile
  3805                           
  3806                           ;main.c: 595:             while (presses == 1)
  3807  0F5E  2F88               	goto	l2949
  3808  0F5F                     l2947:
  3809                           
  3810                           ;main.c: 596:             {;main.c: 597:                 playNote(silent_night[count], s
      +                          ilent_night_pre[count]);
  3811  0F5F  3066               	movlw	102
  3812  0F60  0141               	movlb	1	; select bank1
  3813  0F61  00E4               	movwf	??_main^(0+128)
  3814  0F62  3023               	movlw	35
  3815  0F63  00E5               	movwf	(??_main^(0+128)+1)
  3816  0F64  0140               	movlb	0	; select bank0
  3817  0F65  0848               	movf	_count,w
  3818  0F66  0141               	movlb	1	; select bank1
  3819  0F67  0764               	addwf	??_main^(0+128),w
  3820  0F68  0086               	movwf	6
  3821  0F69  0140               	movlb	0	; select bank0
  3822  0F6A  0849               	movf	_count+1,w
  3823  0F6B  0141               	movlb	1	; select bank1
  3824  0F6C  3D65               	addwfc	(??_main+1)^(0+128),w
  3825  0F6D  0087               	movwf	7
  3826  0F6E  0801               	movf	1,w
  3827  0F6F  00E6               	movwf	(??_main+2)^(0+128)
  3828  0F70  0866               	movf	(??_main+2)^(0+128),w
  3829  0F71  00F2               	movwf	playNote@prescale
  3830  0F72  30DB               	movlw	219
  3831  0F73  00E7               	movwf	(??_main+3)^(0+128)
  3832  0F74  3022               	movlw	34
  3833  0F75  00E8               	movwf	((??_main+3)^(0+128)+1)
  3834  0F76  0140               	movlb	0	; select bank0
  3835  0F77  0848               	movf	_count,w
  3836  0F78  0141               	movlb	1	; select bank1
  3837  0F79  0767               	addwf	(??_main+3)^(0+128),w
  3838  0F7A  0086               	movwf	6
  3839  0F7B  0140               	movlb	0	; select bank0
  3840  0F7C  0849               	movf	_count+1,w
  3841  0F7D  0141               	movlb	1	; select bank1
  3842  0F7E  3D68               	addwfc	(??_main+4)^(0+128),w
  3843  0F7F  0087               	movwf	7
  3844  0F80  0801               	movf	1,w
  3845  0F81  3187  275F  318D   	fcall	_playNote
  3846                           
  3847                           ;main.c: 598:                 displayMatrix(light_array);
  3848  0F84  3041               	movlw	(low (_light_array| 0))& (0+255)
  3849  0F85  3186  26A7  318D   	fcall	_displayMatrix
  3850  0F88                     l2949:
  3851                           
  3852                           ;main.c: 595:             while (presses == 1)
  3853  0F88  0140               	movlb	0	; select bank0
  3854  0F89  034E               	decf	_presses,w
  3855  0F8A  1903               	btfsc	3,2
  3856  0F8B  2F8D               	goto	u2041
  3857  0F8C  2F8E               	goto	u2040
  3858  0F8D                     u2041:
  3859  0F8D  2F5F               	goto	l2947
  3860  0F8E                     u2040:
  3861  0F8E  2FB8               	goto	l2953
  3862  0F8F                     l2951:
  3863                           
  3864                           ;main.c: 602:             {;main.c: 628:                 playNote(song2[count], song2_pr
      +                          e[count]);
  3865  0F8F  307B               	movlw	123
  3866  0F90  0141               	movlb	1	; select bank1
  3867  0F91  00E4               	movwf	??_main^(0+128)
  3868  0F92  3021               	movlw	33
  3869  0F93  00E5               	movwf	(??_main^(0+128)+1)
  3870  0F94  0140               	movlb	0	; select bank0
  3871  0F95  0848               	movf	_count,w
  3872  0F96  0141               	movlb	1	; select bank1
  3873  0F97  0764               	addwf	??_main^(0+128),w
  3874  0F98  0086               	movwf	6
  3875  0F99  0140               	movlb	0	; select bank0
  3876  0F9A  0849               	movf	_count+1,w
  3877  0F9B  0141               	movlb	1	; select bank1
  3878  0F9C  3D65               	addwfc	(??_main+1)^(0+128),w
  3879  0F9D  0087               	movwf	7
  3880  0F9E  0801               	movf	1,w
  3881  0F9F  00E6               	movwf	(??_main+2)^(0+128)
  3882  0FA0  0866               	movf	(??_main+2)^(0+128),w
  3883  0FA1  00F2               	movwf	playNote@prescale
  3884  0FA2  302B               	movlw	43
  3885  0FA3  00E7               	movwf	(??_main+3)^(0+128)
  3886  0FA4  3022               	movlw	34
  3887  0FA5  00E8               	movwf	((??_main+3)^(0+128)+1)
  3888  0FA6  0140               	movlb	0	; select bank0
  3889  0FA7  0848               	movf	_count,w
  3890  0FA8  0141               	movlb	1	; select bank1
  3891  0FA9  0767               	addwf	(??_main+3)^(0+128),w
  3892  0FAA  0086               	movwf	6
  3893  0FAB  0140               	movlb	0	; select bank0
  3894  0FAC  0849               	movf	_count+1,w
  3895  0FAD  0141               	movlb	1	; select bank1
  3896  0FAE  3D68               	addwfc	(??_main+4)^(0+128),w
  3897  0FAF  0087               	movwf	7
  3898  0FB0  0801               	movf	1,w
  3899  0FB1  3187  275F  318D   	fcall	_playNote
  3900                           
  3901                           ;main.c: 629:                 displayMatrix(light_array);
  3902  0FB4  3041               	movlw	(low (_light_array| 0))& (0+255)
  3903  0FB5  3186  26A7  318D   	fcall	_displayMatrix
  3904  0FB8                     l2953:
  3905                           
  3906                           ;main.c: 601:             while (presses == 2)
  3907  0FB8  3002               	movlw	2
  3908  0FB9  0140               	movlb	0	; select bank0
  3909  0FBA  064E               	xorwf	_presses,w
  3910  0FBB  1903               	btfsc	3,2
  3911  0FBC  2FBE               	goto	u2051
  3912  0FBD  2FBF               	goto	u2050
  3913  0FBE                     u2051:
  3914  0FBE  2F8F               	goto	l2951
  3915  0FBF                     u2050:
  3916  0FBF  2FD6               	goto	l2957
  3917  0FC0                     l2955:
  3918                           
  3919                           ;main.c: 634:             {;main.c: 635:                 playNote(song3[count], song3_pr
      +                          e[count]);
  3920  0FC0  0848               	movf	_count,w
  3921  0FC1  3EA0               	addlw	(low (_song3_pre| 0))& (0+255)
  3922  0FC2  0086               	movwf	6
  3923  0FC3  0187               	clrf	7
  3924  0FC4  0801               	movf	1,w
  3925  0FC5  0141               	movlb	1	; select bank1
  3926  0FC6  00E4               	movwf	??_main^(0+128)
  3927  0FC7  0864               	movf	??_main^(0+128),w
  3928  0FC8  00F2               	movwf	playNote@prescale
  3929  0FC9  0140               	movlb	0	; select bank0
  3930  0FCA  0848               	movf	_count,w
  3931  0FCB  3EC0               	addlw	(low (_song3| 0))& (0+255)
  3932  0FCC  0086               	movwf	6
  3933  0FCD  0187               	clrf	7
  3934  0FCE  0801               	movf	1,w
  3935  0FCF  3187  275F  318D   	fcall	_playNote
  3936                           
  3937                           ;main.c: 636:                 displayMatrix(light_array);
  3938  0FD2  3041               	movlw	(low (_light_array| 0))& (0+255)
  3939  0FD3  3186  26A7  318D   	fcall	_displayMatrix
  3940  0FD6                     l2957:
  3941                           
  3942                           ;main.c: 633:             while (presses == 3)
  3943  0FD6  3003               	movlw	3
  3944  0FD7  0140               	movlb	0	; select bank0
  3945  0FD8  064E               	xorwf	_presses,w
  3946  0FD9  1903               	btfsc	3,2
  3947  0FDA  2FDC               	goto	u2061
  3948  0FDB  2FDD               	goto	u2060
  3949  0FDC                     u2061:
  3950  0FDC  2FC0               	goto	l2955
  3951  0FDD                     u2060:
  3952  0FDD                     l2959:
  3953                           
  3954                           ;main.c: 638:             presses = 0;
  3955  0FDD  01CE               	clrf	_presses
  3956                           
  3957                           ;main.c: 639:             silent_night_playing = 0;
  3958  0FDE  01D3               	clrf	_silent_night_playing
  3959                           
  3960                           ;main.c: 640:             song2_playing = 0;
  3961  0FDF  01D1               	clrf	_song2_playing
  3962                           
  3963                           ;main.c: 641:             song3_playing = 0;
  3964  0FE0  01D2               	clrf	_song3_playing
  3965  0FE1                     l2961:
  3966                           
  3967                           ;main.c: 642:             T1CONbits.TMR1ON = 0;
  3968  0FE1  0144               	movlb	4	; select bank4
  3969  0FE2  100E               	bcf	14,0	;volatile
  3970  0FE3                     l2963:
  3971                           
  3972                           ;main.c: 643:             T2CONbits.TMR2ON = 0;
  3973  0FE3  0145               	movlb	5	; select bank5
  3974  0FE4  138E               	bcf	14,7	;volatile
  3975  0FE5                     l2965:
  3976                           
  3977                           ;main.c: 646:         if (TMR0_complete && (!presses))
  3978  0FE5  0140               	movlb	0	; select bank0
  3979  0FE6  0850               	movf	_TMR0_complete,w
  3980  0FE7  1903               	btfsc	3,2
  3981  0FE8  2FEA               	goto	u2071
  3982  0FE9  2FEB               	goto	u2070
  3983  0FEA                     u2071:
  3984  0FEA  2EA2               	goto	l553
  3985  0FEB                     u2070:
  3986  0FEB                     l2967:
  3987  0FEB  084E               	movf	_presses,w
  3988  0FEC  1D03               	btfss	3,2
  3989  0FED  2FEF               	goto	u2081
  3990  0FEE  2FF0               	goto	u2080
  3991  0FEF                     u2081:
  3992  0FEF  2EA2               	goto	l553
  3993  0FF0                     u2080:
  3994  0FF0                     l2969:
  3995                           
  3996                           ;main.c: 647:         {;main.c: 648:             T0CON0bits.T0EN = 0;
  3997  0FF0  014B               	movlb	11	; select bank11
  3998  0FF1  139E               	bcf	30,7	;volatile
  3999                           
  4000                           ;main.c: 649:             T1CONbits.TMR1ON = 0;
  4001  0FF2  0144               	movlb	4	; select bank4
  4002  0FF3  100E               	bcf	14,0	;volatile
  4003                           
  4004                           ;main.c: 650:             T2CONbits.TMR2ON = 0;
  4005  0FF4  0145               	movlb	5	; select bank5
  4006  0FF5  138E               	bcf	14,7	;volatile
  4007                           
  4008                           ;main.c: 651:             PIR0bits.INTF = 0;
  4009  0FF6  014E               	movlb	14	; select bank14
  4010  0FF7  100C               	bcf	12,0	;volatile
  4011                           
  4012                           ;main.c: 652:             PIE0bits.INTE = 1;
  4013  0FF8  1416               	bsf	22,0	;volatile
  4014  0FF9                     l574:	
  4015                           ;main.c: 653:             do { LATCbits.LATC2 = 1; } while(0);
  4016                           
  4017  0FF9  0140               	movlb	0	; select bank0
  4018  0FFA  151A               	bsf	26,2	;volatile
  4019  0FFB                     l576:	
  4020                           ;main.c: 654:             do { LATCbits.LATC0 = 1; } while(0);
  4021                           
  4022  0FFB  141A               	bsf	26,0	;volatile
  4023  0FFC                     l577:
  4024  0FFC  0063               	sleep	;# 
  4025  0FFD  2EA2               	goto	l553
  4026  0FFE  3180  2831         	ljmp	start
  4027  1000                     __end_of_main:
  4028                           
  4029                           	psect	text1
  4030  075F                     __ptext1:	
  4031 ;; *************** function _playNote *****************
  4032 ;; Defined at:
  4033 ;;		line 1218 in file "main.c"
  4034 ;; Parameters:    Size  Location     Type
  4035 ;;  note            1    wreg     unsigned char 
  4036 ;;  prescale        1    2[COMMON] unsigned char 
  4037 ;; Auto vars:     Size  Location     Type
  4038 ;;  note            1    4[COMMON] unsigned char 
  4039 ;; Return value:  Size  Location     Type
  4040 ;;                  1    wreg      void 
  4041 ;; Registers used:
  4042 ;;		wreg
  4043 ;; Tracked objects:
  4044 ;;		On entry : 0/0
  4045 ;;		On exit  : 0/0
  4046 ;;		Unchanged: 0/0
  4047 ;; Data sizes:     COMMON   BANK0   BANK1   BANK2   BANK3   BANK4   BANK5   BANK6   BANK7   BANK8   BANK9  BANK10  BANK1
      +1  BANK12
  4048 ;;      Params:         1       0       0       0       0       0       0       0       0       0       0       0       
      +0       0
  4049 ;;      Locals:         1       0       0       0       0       0       0       0       0       0       0       0       
      +0       0
  4050 ;;      Temps:          1       0       0       0       0       0       0       0       0       0       0       0       
      +0       0
  4051 ;;      Totals:         3       0       0       0       0       0       0       0       0       0       0       0       
      +0       0
  4052 ;;Total ram usage:        3 bytes
  4053 ;; Hardware stack levels used: 1
  4054 ;; Hardware stack levels required when called: 5
  4055 ;; This function calls:
  4056 ;;		Nothing
  4057 ;; This function is called by:
  4058 ;;		_main
  4059 ;; This function uses a non-reentrant model
  4060 ;;
  4061                           
  4062                           
  4063                           ;psect for function _playNote
  4064  075F                     _playNote:
  4065                           
  4066                           ;incstack = 0
  4067                           ; Regs used in _playNote: [wreg]
  4068                           ;playNote@note stored from wreg
  4069  075F  00F4               	movwf	playNote@note
  4070  0760                     l2813:
  4071                           
  4072                           ;main.c: 1218: void playNote(uint8_t note, uint8_t prescale);main.c: 1219: {;main.c: 122
      +                          1:     if (note != last_note)
  4073  0760  0874               	movf	playNote@note,w
  4074  0761  0140               	movlb	0	; select bank0
  4075  0762  064F               	xorwf	_last_note,w
  4076  0763  1903               	skipnz
  4077  0764  2F66               	goto	u1911
  4078  0765  2F67               	goto	u1910
  4079  0766                     u1911:
  4080  0766  2F6A               	goto	l666
  4081  0767                     u1910:
  4082  0767                     l2815:
  4083                           
  4084                           ;main.c: 1222:     {;main.c: 1223:         T2PR = note;
  4085  0767  0874               	movf	playNote@note,w
  4086  0768  0145               	movlb	5	; select bank5
  4087  0769  008D               	movwf	13	;volatile
  4088  076A                     l666:	
  4089                           ;main.c: 1224:     }
  4090                           
  4091                           
  4092                           ;main.c: 1226:     if (prescale != last_prescale)
  4093  076A  0872               	movf	playNote@prescale,w
  4094  076B  0679               	xorwf	_last_prescale,w
  4095  076C  1903               	skipnz
  4096  076D  2F6F               	goto	u1921
  4097  076E  2F70               	goto	u1920
  4098  076F                     u1921:
  4099  076F  2F73               	goto	l667
  4100  0770                     u1920:
  4101  0770                     l2817:
  4102                           
  4103                           ;main.c: 1227:     {;main.c: 1228:         T2CON = prescale;
  4104  0770  0872               	movf	playNote@prescale,w
  4105  0771  0145               	movlb	5	; select bank5
  4106  0772  008E               	movwf	14	;volatile
  4107  0773                     l667:	
  4108                           ;main.c: 1229:     }
  4109                           
  4110                           
  4111                           ;main.c: 1230:     last_note = note;
  4112  0773  0874               	movf	playNote@note,w
  4113  0774  00F3               	movwf	??_playNote
  4114  0775  0873               	movf	??_playNote,w
  4115  0776  0140               	movlb	0	; select bank0
  4116  0777  00CF               	movwf	_last_note
  4117                           
  4118                           ;main.c: 1231:     last_prescale = prescale;
  4119  0778  0872               	movf	playNote@prescale,w
  4120  0779  00F3               	movwf	??_playNote
  4121  077A  0873               	movf	??_playNote,w
  4122  077B  00F9               	movwf	_last_prescale
  4123  077C                     l668:
  4124  077C  0008               	return
  4125  077D                     __end_of_playNote:
  4126                           
  4127                           	psect	text2
  4128  06A7                     __ptext2:	
  4129 ;; *************** function _displayMatrix *****************
  4130 ;; Defined at:
  4131 ;;		line 1256 in file "main.c"
  4132 ;; Parameters:    Size  Location     Type
  4133 ;;  states          1    wreg     PTR unsigned char 
  4134 ;;		 -> light_array(7), 
  4135 ;; Auto vars:     Size  Location     Type
  4136 ;;  states          1    0[BANK1 ] PTR unsigned char 
  4137 ;;		 -> light_array(7), 
  4138 ;;  i               2    1[BANK1 ] int 
  4139 ;;  lowSide         1    3[BANK1 ] unsigned char 
  4140 ;; Return value:  Size  Location     Type
  4141 ;;                  1    wreg      void 
  4142 ;; Registers used:
  4143 ;;		wreg, fsr1l, fsr1h, status,2, status,0, pclath, cstack
  4144 ;; Tracked objects:
  4145 ;;		On entry : 0/0
  4146 ;;		On exit  : 0/0
  4147 ;;		Unchanged: 0/0
  4148 ;; Data sizes:     COMMON   BANK0   BANK1   BANK2   BANK3   BANK4   BANK5   BANK6   BANK7   BANK8   BANK9  BANK10  BANK1
      +1  BANK12
  4149 ;;      Params:         0       0       0       0       0       0       0       0       0       0       0       0       
      +0       0
  4150 ;;      Locals:         0       0       4       0       0       0       0       0       0       0       0       0       
      +0       0
  4151 ;;      Temps:          2       0       0       0       0       0       0       0       0       0       0       0       
      +0       0
  4152 ;;      Totals:         2       0       4       0       0       0       0       0       0       0       0       0       
      +0       0
  4153 ;;Total ram usage:        6 bytes
  4154 ;; Hardware stack levels used: 1
  4155 ;; Hardware stack levels required when called: 7
  4156 ;; This function calls:
  4157 ;;		_shiftBytes
  4158 ;; This function is called by:
  4159 ;;		_main
  4160 ;; This function uses a non-reentrant model
  4161 ;;
  4162                           
  4163                           
  4164                           ;psect for function _displayMatrix
  4165  06A7                     _displayMatrix:
  4166                           
  4167                           ;incstack = 0
  4168                           ; Regs used in _displayMatrix: [wreg+fsr1l+fsr1h+status,2+status,0+pclath+cstack]
  4169                           ;displayMatrix@states stored from wreg
  4170  06A7  0141               	movlb	1	; select bank1
  4171  06A8  00E0               	movwf	displayMatrix@states^(0+128)
  4172  06A9                     l2793:
  4173                           
  4174                           ;main.c: 1256: void displayMatrix(uint8_t states[8]);main.c: 1257: {;main.c: 1260:     u
      +                          int8_t lowSide = 0x00;
  4175  06A9  01E3               	clrf	displayMatrix@lowSide^(0+128)
  4176                           
  4177                           ;main.c: 1261:     for (int i = 0; i < 7; i++)
  4178  06AA  01E1               	clrf	displayMatrix@i^(0+128)
  4179  06AB  01E2               	clrf	(displayMatrix@i+1)^(0+128)
  4180  06AC                     l2799:
  4181                           
  4182                           ;main.c: 1262:     {;main.c: 1263:         if (!lowSide)
  4183  06AC  0141               	movlb	1	; select bank1
  4184  06AD  0863               	movf	displayMatrix@lowSide^(0+128),w
  4185  06AE  1D03               	btfss	3,2
  4186  06AF  2EB1               	goto	u1891
  4187  06B0  2EB2               	goto	u1890
  4188  06B1                     u1891:
  4189  06B1  2EB7               	goto	l2803
  4190  06B2                     u1890:
  4191  06B2                     l2801:
  4192                           
  4193                           ;main.c: 1264:         {;main.c: 1265:             lowSide++;
  4194  06B2  3001               	movlw	1
  4195  06B3  00F5               	movwf	??_displayMatrix
  4196  06B4  0875               	movf	??_displayMatrix,w
  4197  06B5  07E3               	addwf	displayMatrix@lowSide^(0+128),f
  4198                           
  4199                           ;main.c: 1266:         }
  4200  06B6  2EBB               	goto	l2805
  4201  06B7                     l2803:
  4202                           
  4203                           ;main.c: 1268:         {;main.c: 1269:             lowSide = lowSide << 1;
  4204  06B7  3563               	lslf	displayMatrix@lowSide^(0+128),w
  4205  06B8  00F5               	movwf	??_displayMatrix
  4206  06B9  0875               	movf	??_displayMatrix,w
  4207  06BA  00E3               	movwf	displayMatrix@lowSide^(0+128)
  4208  06BB                     l2805:
  4209                           
  4210                           ;main.c: 1272:         shiftBytes(states[i], lowSide);
  4211  06BB  0863               	movf	displayMatrix@lowSide^(0+128),w
  4212  06BC  00F5               	movwf	??_displayMatrix
  4213  06BD  0875               	movf	??_displayMatrix,w
  4214  06BE  00F3               	movwf	shiftBytes@lowSide
  4215  06BF  0861               	movf	displayMatrix@i^(0+128),w
  4216  06C0  0760               	addwf	displayMatrix@states^(0+128),w
  4217  06C1  00F6               	movwf	??_displayMatrix+1
  4218  06C2  0876               	movf	??_displayMatrix+1,w
  4219  06C3  0086               	movwf	6
  4220  06C4  0187               	clrf	7
  4221  06C5  0801               	movf	1,w
  4222  06C6  318D  258A  3186   	fcall	_shiftBytes
  4223  06C9                     l2807:
  4224                           
  4225                           ;main.c: 1273:         _delay((unsigned long)((1)*(8000000/4000.0)));
  4226  06C9  3003               	movlw	3
  4227  06CA  00F5               	movwf	??_displayMatrix
  4228  06CB  3098               	movlw	152
  4229  06CC                     u2097:
  4230  06CC  0B89               	decfsz	9,f
  4231  06CD  2ECC               	goto	u2097
  4232  06CE  0BF5               	decfsz	??_displayMatrix,f
  4233  06CF  2ECC               	goto	u2097
  4234  06D0                     l2809:
  4235                           
  4236                           ;main.c: 1274:     }
  4237  06D0  3001               	movlw	1
  4238  06D1  0141               	movlb	1	; select bank1
  4239  06D2  07E1               	addwf	displayMatrix@i^(0+128),f
  4240  06D3  3000               	movlw	0
  4241  06D4  3DE2               	addwfc	(displayMatrix@i+1)^(0+128),f
  4242  06D5                     l2811:
  4243  06D5  0862               	movf	(displayMatrix@i+1)^(0+128),w
  4244  06D6  3A80               	xorlw	128
  4245  06D7  00F5               	movwf	??_displayMatrix
  4246  06D8  3080               	movlw	128
  4247  06D9  0275               	subwf	??_displayMatrix,w
  4248  06DA  1D03               	skipz
  4249  06DB  2EDE               	goto	u1905
  4250  06DC  3007               	movlw	7
  4251  06DD  0261               	subwf	displayMatrix@i^(0+128),w
  4252  06DE                     u1905:
  4253  06DE  1C03               	skipc
  4254  06DF  2EE1               	goto	u1901
  4255  06E0  2EE2               	goto	u1900
  4256  06E1                     u1901:
  4257  06E1  2EAC               	goto	l2799
  4258  06E2                     u1900:
  4259  06E2                     l689:
  4260  06E2  0008               	return
  4261  06E3                     __end_of_displayMatrix:
  4262                           
  4263                           	psect	text3
  4264  0D8A                     __ptext3:	
  4265 ;; *************** function _shiftBytes *****************
  4266 ;; Defined at:
  4267 ;;		line 1244 in file "main.c"
  4268 ;; Parameters:    Size  Location     Type
  4269 ;;  highSide        1    wreg     unsigned char 
  4270 ;;  lowSide         1    3[COMMON] unsigned char 
  4271 ;; Auto vars:     Size  Location     Type
  4272 ;;  highSide        1    4[COMMON] unsigned char 
  4273 ;; Return value:  Size  Location     Type
  4274 ;;                  1    wreg      void 
  4275 ;; Registers used:
  4276 ;;		wreg, status,2, status,0, pclath, cstack
  4277 ;; Tracked objects:
  4278 ;;		On entry : 0/0
  4279 ;;		On exit  : 0/0
  4280 ;;		Unchanged: 0/0
  4281 ;; Data sizes:     COMMON   BANK0   BANK1   BANK2   BANK3   BANK4   BANK5   BANK6   BANK7   BANK8   BANK9  BANK10  BANK1
      +1  BANK12
  4282 ;;      Params:         1       0       0       0       0       0       0       0       0       0       0       0       
      +0       0
  4283 ;;      Locals:         1       0       0       0       0       0       0       0       0       0       0       0       
      +0       0
  4284 ;;      Temps:          0       0       0       0       0       0       0       0       0       0       0       0       
      +0       0
  4285 ;;      Totals:         2       0       0       0       0       0       0       0       0       0       0       0       
      +0       0
  4286 ;;Total ram usage:        2 bytes
  4287 ;; Hardware stack levels used: 1
  4288 ;; Hardware stack levels required when called: 6
  4289 ;; This function calls:
  4290 ;;		_SPI1_ExchangeByte
  4291 ;; This function is called by:
  4292 ;;		_main
  4293 ;;		_displayMatrix
  4294 ;;		_Initialize_Matrix
  4295 ;; This function uses a non-reentrant model
  4296 ;;
  4297                           
  4298                           
  4299                           ;psect for function _shiftBytes
  4300  0D8A                     _shiftBytes:
  4301                           
  4302                           ;incstack = 0
  4303                           ; Regs used in _shiftBytes: [wreg+status,2+status,0+pclath+cstack]
  4304                           ;shiftBytes@highSide stored from wreg
  4305  0D8A  00F4               	movwf	shiftBytes@highSide
  4306  0D8B                     l2773:
  4307                           
  4308                           ;main.c: 1244: void shiftBytes(uint8_t highSide, uint8_t lowSide);main.c: 1245: {;main.c
      +                          : 1247:     SPI1_ExchangeByte(lowSide);
  4309  0D8B  0873               	movf	shiftBytes@lowSide,w
  4310  0D8C  318D  257D  318D   	fcall	_SPI1_ExchangeByte
  4311                           
  4312                           ;main.c: 1248:     SPI1_ExchangeByte(highSide);
  4313  0D8F  0874               	movf	shiftBytes@highSide,w
  4314  0D90  318D  257D  318D   	fcall	_SPI1_ExchangeByte
  4315  0D93                     l2775:
  4316  0D93  0140               	movlb	0	; select bank0
  4317  0D94  161A               	bsf	26,4	;volatile
  4318  0D95                     l2777:
  4319  0D95  121A               	bcf	26,4	;volatile
  4320  0D96                     l682:
  4321  0D96  0008               	return
  4322  0D97                     __end_of_shiftBytes:
  4323                           
  4324                           	psect	text4
  4325  0D7D                     __ptext4:	
  4326 ;; *************** function _SPI1_ExchangeByte *****************
  4327 ;; Defined at:
  4328 ;;		line 97 in file "mcc_generated_files/spi1.c"
  4329 ;; Parameters:    Size  Location     Type
  4330 ;;  data            1    wreg     unsigned char 
  4331 ;; Auto vars:     Size  Location     Type
  4332 ;;  data            1    2[COMMON] unsigned char 
  4333 ;; Return value:  Size  Location     Type
  4334 ;;                  1    wreg      unsigned char 
  4335 ;; Registers used:
  4336 ;;		wreg
  4337 ;; Tracked objects:
  4338 ;;		On entry : 0/0
  4339 ;;		On exit  : 0/0
  4340 ;;		Unchanged: 0/0
  4341 ;; Data sizes:     COMMON   BANK0   BANK1   BANK2   BANK3   BANK4   BANK5   BANK6   BANK7   BANK8   BANK9  BANK10  BANK1
      +1  BANK12
  4342 ;;      Params:         0       0       0       0       0       0       0       0       0       0       0       0       
      +0       0
  4343 ;;      Locals:         1       0       0       0       0       0       0       0       0       0       0       0       
      +0       0
  4344 ;;      Temps:          0       0       0       0       0       0       0       0       0       0       0       0       
      +0       0
  4345 ;;      Totals:         1       0       0       0       0       0       0       0       0       0       0       0       
      +0       0
  4346 ;;Total ram usage:        1 bytes
  4347 ;; Hardware stack levels used: 1
  4348 ;; Hardware stack levels required when called: 5
  4349 ;; This function calls:
  4350 ;;		Nothing
  4351 ;; This function is called by:
  4352 ;;		_shiftBytes
  4353 ;;		_SPI1_WriteBlock
  4354 ;;		_SPI1_ReadBlock
  4355 ;; This function uses a non-reentrant model
  4356 ;;
  4357                           
  4358                           
  4359                           ;psect for function _SPI1_ExchangeByte
  4360  0D7D                     _SPI1_ExchangeByte:
  4361                           
  4362                           ;incstack = 0
  4363                           ; Regs used in _SPI1_ExchangeByte: [wreg]
  4364                           ;SPI1_ExchangeByte@data stored from wreg
  4365  0D7D  00F2               	movwf	SPI1_ExchangeByte@data
  4366  0D7E                     l2665:
  4367                           
  4368                           ;mcc_generated_files/spi1.c: 97: uint8_t SPI1_ExchangeByte(uint8_t data);mcc_generated_f
      +                          iles/spi1.c: 98: {;mcc_generated_files/spi1.c: 99:     SSP1BUF = data;
  4369  0D7E  0872               	movf	SPI1_ExchangeByte@data,w
  4370  0D7F  0143               	movlb	3	; select bank3
  4371  0D80  008C               	movwf	12	;volatile
  4372  0D81                     l74:	
  4373                           ;mcc_generated_files/spi1.c: 100:     while(!PIR1bits.SSP1IF);
  4374                           
  4375  0D81  014E               	movlb	14	; select bank14
  4376  0D82  1C8D               	btfss	13,1	;volatile
  4377  0D83  2D85               	goto	u1881
  4378  0D84  2D86               	goto	u1880
  4379  0D85                     u1881:
  4380  0D85  2D81               	goto	l74
  4381  0D86                     u1880:
  4382  0D86                     l76:
  4383                           
  4384                           ;mcc_generated_files/spi1.c: 101:     PIR1bits.SSP1IF = 0;
  4385  0D86  108D               	bcf	13,1	;volatile
  4386  0D87                     l2667:
  4387                           
  4388                           ;mcc_generated_files/spi1.c: 102:     return SSP1BUF;
  4389  0D87  0143               	movlb	3	; select bank3
  4390  0D88  080C               	movf	12,w	;volatile
  4391  0D89                     l77:
  4392  0D89  0008               	return
  4393  0D8A                     __end_of_SPI1_ExchangeByte:
  4394                           
  4395                           	psect	text5
  4396  077D                     __ptext5:	
  4397 ;; *************** function _SYSTEM_Initialize *****************
  4398 ;; Defined at:
  4399 ;;		line 50 in file "mcc_generated_files/mcc.c"
  4400 ;; Parameters:    Size  Location     Type
  4401 ;;		None
  4402 ;; Auto vars:     Size  Location     Type
  4403 ;;		None
  4404 ;; Return value:  Size  Location     Type
  4405 ;;                  1    wreg      void 
  4406 ;; Registers used:
  4407 ;;		wreg, status,2, status,0, pclath, cstack
  4408 ;; Tracked objects:
  4409 ;;		On entry : 0/0
  4410 ;;		On exit  : 0/0
  4411 ;;		Unchanged: 0/0
  4412 ;; Data sizes:     COMMON   BANK0   BANK1   BANK2   BANK3   BANK4   BANK5   BANK6   BANK7   BANK8   BANK9  BANK10  BANK1
      +1  BANK12
  4413 ;;      Params:         0       0       0       0       0       0       0       0       0       0       0       0       
      +0       0
  4414 ;;      Locals:         0       0       0       0       0       0       0       0       0       0       0       0       
      +0       0
  4415 ;;      Temps:          0       0       0       0       0       0       0       0       0       0       0       0       
      +0       0
  4416 ;;      Totals:         0       0       0       0       0       0       0       0       0       0       0       0       
      +0       0
  4417 ;;Total ram usage:        0 bytes
  4418 ;; Hardware stack levels used: 1
  4419 ;; Hardware stack levels required when called: 7
  4420 ;; This function calls:
  4421 ;;		_EXT_INT_Initialize
  4422 ;;		_OSCILLATOR_Initialize
  4423 ;;		_PIN_MANAGER_Initialize
  4424 ;;		_PWM3_Initialize
  4425 ;;		_SPI1_Initialize
  4426 ;;		_TMR0_Initialize
  4427 ;;		_TMR1_Initialize
  4428 ;;		_TMR2_Initialize
  4429 ;;		_WDT_Initialize
  4430 ;; This function is called by:
  4431 ;;		_main
  4432 ;; This function uses a non-reentrant model
  4433 ;;
  4434                           
  4435                           
  4436                           ;psect for function _SYSTEM_Initialize
  4437  077D                     _SYSTEM_Initialize:
  4438  077D                     l2779:	
  4439                           ;incstack = 0
  4440                           ; Regs used in _SYSTEM_Initialize: [wreg+status,2+status,0+pclath+cstack]
  4441                           
  4442                           
  4443                           ;mcc_generated_files/mcc.c: 53:     SPI1_Initialize();
  4444  077D  3187  27C9  3187   	fcall	_SPI1_Initialize
  4445                           
  4446                           ;mcc_generated_files/mcc.c: 54:     PIN_MANAGER_Initialize();
  4447  0780  3187  2717  3187   	fcall	_PIN_MANAGER_Initialize
  4448                           
  4449                           ;mcc_generated_files/mcc.c: 55:     OSCILLATOR_Initialize();
  4450  0783  318D  253D  3187   	fcall	_OSCILLATOR_Initialize
  4451  0786                     l2781:
  4452                           
  4453                           ;mcc_generated_files/mcc.c: 56:     WDT_Initialize();
  4454  0786  318D  2524  3187   	fcall	_WDT_Initialize
  4455  0789                     l2783:
  4456                           
  4457                           ;mcc_generated_files/mcc.c: 57:     PWM3_Initialize();
  4458  0789  318D  254F  3187   	fcall	_PWM3_Initialize
  4459  078C                     l2785:
  4460                           
  4461                           ;mcc_generated_files/mcc.c: 58:     TMR2_Initialize();
  4462  078C  318D  2597  3187   	fcall	_TMR2_Initialize
  4463  078F                     l2787:
  4464                           
  4465                           ;mcc_generated_files/mcc.c: 59:     TMR1_Initialize();
  4466  078F  3187  273F  3187   	fcall	_TMR1_Initialize
  4467  0792                     l2789:
  4468                           
  4469                           ;mcc_generated_files/mcc.c: 60:     EXT_INT_Initialize();
  4470  0792  318D  2570  3187   	fcall	_EXT_INT_Initialize
  4471  0795                     l2791:
  4472                           
  4473                           ;mcc_generated_files/mcc.c: 61:     TMR0_Initialize();
  4474  0795  3187  2799  3187   	fcall	_TMR0_Initialize
  4475  0798                     l29:
  4476  0798  0008               	return
  4477  0799                     __end_of_SYSTEM_Initialize:
  4478                           
  4479                           	psect	text6
  4480  0D24                     __ptext6:	
  4481 ;; *************** function _WDT_Initialize *****************
  4482 ;; Defined at:
  4483 ;;		line 74 in file "mcc_generated_files/mcc.c"
  4484 ;; Parameters:    Size  Location     Type
  4485 ;;		None
  4486 ;; Auto vars:     Size  Location     Type
  4487 ;;		None
  4488 ;; Return value:  Size  Location     Type
  4489 ;;                  1    wreg      void 
  4490 ;; Registers used:
  4491 ;;		status,2
  4492 ;; Tracked objects:
  4493 ;;		On entry : 0/0
  4494 ;;		On exit  : 0/0
  4495 ;;		Unchanged: 0/0
  4496 ;; Data sizes:     COMMON   BANK0   BANK1   BANK2   BANK3   BANK4   BANK5   BANK6   BANK7   BANK8   BANK9  BANK10  BANK1
      +1  BANK12
  4497 ;;      Params:         0       0       0       0       0       0       0       0       0       0       0       0       
      +0       0
  4498 ;;      Locals:         0       0       0       0       0       0       0       0       0       0       0       0       
      +0       0
  4499 ;;      Temps:          0       0       0       0       0       0       0       0       0       0       0       0       
      +0       0
  4500 ;;      Totals:         0       0       0       0       0       0       0       0       0       0       0       0       
      +0       0
  4501 ;;Total ram usage:        0 bytes
  4502 ;; Hardware stack levels used: 1
  4503 ;; Hardware stack levels required when called: 5
  4504 ;; This function calls:
  4505 ;;		Nothing
  4506 ;; This function is called by:
  4507 ;;		_SYSTEM_Initialize
  4508 ;; This function uses a non-reentrant model
  4509 ;;
  4510                           
  4511                           
  4512                           ;psect for function _WDT_Initialize
  4513  0D24                     _WDT_Initialize:
  4514  0D24                     l2723:	
  4515                           ;incstack = 0
  4516                           ; Regs used in _WDT_Initialize: [status,2]
  4517                           
  4518                           
  4519                           ;mcc_generated_files/mcc.c: 77:     WDTCON = 0x00;
  4520  0D24  0150               	movlb	16	; select bank16
  4521  0D25  018C               	clrf	12	;volatile
  4522  0D26                     l35:
  4523  0D26  0008               	return
  4524  0D27                     __end_of_WDT_Initialize:
  4525                           
  4526                           	psect	text7
  4527  0D97                     __ptext7:	
  4528 ;; *************** function _TMR2_Initialize *****************
  4529 ;; Defined at:
  4530 ;;		line 62 in file "mcc_generated_files/tmr2.c"
  4531 ;; Parameters:    Size  Location     Type
  4532 ;;		None
  4533 ;; Auto vars:     Size  Location     Type
  4534 ;;		None
  4535 ;; Return value:  Size  Location     Type
  4536 ;;                  1    wreg      void 
  4537 ;; Registers used:
  4538 ;;		wreg, status,2
  4539 ;; Tracked objects:
  4540 ;;		On entry : 0/0
  4541 ;;		On exit  : 0/0
  4542 ;;		Unchanged: 0/0
  4543 ;; Data sizes:     COMMON   BANK0   BANK1   BANK2   BANK3   BANK4   BANK5   BANK6   BANK7   BANK8   BANK9  BANK10  BANK1
      +1  BANK12
  4544 ;;      Params:         0       0       0       0       0       0       0       0       0       0       0       0       
      +0       0
  4545 ;;      Locals:         0       0       0       0       0       0       0       0       0       0       0       0       
      +0       0
  4546 ;;      Temps:          0       0       0       0       0       0       0       0       0       0       0       0       
      +0       0
  4547 ;;      Totals:         0       0       0       0       0       0       0       0       0       0       0       0       
      +0       0
  4548 ;;Total ram usage:        0 bytes
  4549 ;; Hardware stack levels used: 1
  4550 ;; Hardware stack levels required when called: 5
  4551 ;; This function calls:
  4552 ;;		Nothing
  4553 ;; This function is called by:
  4554 ;;		_SYSTEM_Initialize
  4555 ;;		_main
  4556 ;; This function uses a non-reentrant model
  4557 ;;
  4558                           
  4559                           
  4560                           ;psect for function _TMR2_Initialize
  4561  0D97                     _TMR2_Initialize:
  4562  0D97                     l2727:	
  4563                           ;incstack = 0
  4564                           ; Regs used in _TMR2_Initialize: [wreg+status,2]
  4565                           
  4566                           
  4567                           ;mcc_generated_files/tmr2.c: 67:     T2CLKCON = 0x01;
  4568  0D97  3001               	movlw	1
  4569  0D98  0145               	movlb	5	; select bank5
  4570  0D99  0090               	movwf	16	;volatile
  4571  0D9A                     l2729:
  4572                           
  4573                           ;mcc_generated_files/tmr2.c: 70:     T2HLT = 0x00;
  4574  0D9A  018F               	clrf	15	;volatile
  4575  0D9B                     l2731:
  4576                           
  4577                           ;mcc_generated_files/tmr2.c: 73:     T2RST = 0x00;
  4578  0D9B  0191               	clrf	17	;volatile
  4579                           
  4580                           ;mcc_generated_files/tmr2.c: 76:     T2PR = 0xFF;
  4581  0D9C  30FF               	movlw	255
  4582  0D9D  008D               	movwf	13	;volatile
  4583  0D9E                     l2733:
  4584                           
  4585                           ;mcc_generated_files/tmr2.c: 79:     T2TMR = 0x00;
  4586  0D9E  018C               	clrf	12	;volatile
  4587  0D9F                     l2735:
  4588                           
  4589                           ;mcc_generated_files/tmr2.c: 82:     PIR1bits.TMR2IF = 0;
  4590  0D9F  014E               	movlb	14	; select bank14
  4591  0DA0  130D               	bcf	13,6	;volatile
  4592  0DA1                     l2737:
  4593                           
  4594                           ;mcc_generated_files/tmr2.c: 85:     T2CON = 0xB0;
  4595  0DA1  30B0               	movlw	176
  4596  0DA2  0145               	movlb	5	; select bank5
  4597  0DA3  008E               	movwf	14	;volatile
  4598  0DA4                     l177:
  4599  0DA4  0008               	return
  4600  0DA5                     __end_of_TMR2_Initialize:
  4601                           
  4602                           	psect	text8
  4603  073F                     __ptext8:	
  4604 ;; *************** function _TMR1_Initialize *****************
  4605 ;; Defined at:
  4606 ;;		line 64 in file "mcc_generated_files/tmr1.c"
  4607 ;; Parameters:    Size  Location     Type
  4608 ;;		None
  4609 ;; Auto vars:     Size  Location     Type
  4610 ;;		None
  4611 ;; Return value:  Size  Location     Type
  4612 ;;                  1    wreg      void 
  4613 ;; Registers used:
  4614 ;;		wreg, status,2, status,0, pclath, cstack
  4615 ;; Tracked objects:
  4616 ;;		On entry : 0/0
  4617 ;;		On exit  : 0/0
  4618 ;;		Unchanged: 0/0
  4619 ;; Data sizes:     COMMON   BANK0   BANK1   BANK2   BANK3   BANK4   BANK5   BANK6   BANK7   BANK8   BANK9  BANK10  BANK1
      +1  BANK12
  4620 ;;      Params:         0       0       0       0       0       0       0       0       0       0       0       0       
      +0       0
  4621 ;;      Locals:         0       0       0       0       0       0       0       0       0       0       0       0       
      +0       0
  4622 ;;      Temps:          0       0       0       0       0       0       0       0       0       0       0       0       
      +0       0
  4623 ;;      Totals:         0       0       0       0       0       0       0       0       0       0       0       0       
      +0       0
  4624 ;;Total ram usage:        0 bytes
  4625 ;; Hardware stack levels used: 1
  4626 ;; Hardware stack levels required when called: 6
  4627 ;; This function calls:
  4628 ;;		_TMR1_SetInterruptHandler
  4629 ;; This function is called by:
  4630 ;;		_SYSTEM_Initialize
  4631 ;;		_main
  4632 ;; This function uses a non-reentrant model
  4633 ;;
  4634                           
  4635                           
  4636                           ;psect for function _TMR1_Initialize
  4637  073F                     _TMR1_Initialize:
  4638  073F                     l2739:	
  4639                           ;incstack = 0
  4640                           ; Regs used in _TMR1_Initialize: [wreg+status,2+status,0+pclath+cstack]
  4641                           
  4642                           
  4643                           ;mcc_generated_files/tmr1.c: 69:     T1GCON = 0x00;
  4644  073F  0144               	movlb	4	; select bank4
  4645  0740  018F               	clrf	15	;volatile
  4646                           
  4647                           ;mcc_generated_files/tmr1.c: 72:     T1GATE = 0x00;
  4648  0741  0190               	clrf	16	;volatile
  4649  0742                     l2741:
  4650                           
  4651                           ;mcc_generated_files/tmr1.c: 75:     T1CLK = 0x04;
  4652  0742  3004               	movlw	4
  4653  0743  0091               	movwf	17	;volatile
  4654  0744                     l2743:
  4655                           
  4656                           ;mcc_generated_files/tmr1.c: 78:     TMR1H = 0xE1;
  4657  0744  30E1               	movlw	225
  4658  0745  008D               	movwf	13	;volatile
  4659  0746                     l2745:
  4660                           
  4661                           ;mcc_generated_files/tmr1.c: 81:     TMR1L = 0xBA;
  4662  0746  30BA               	movlw	186
  4663  0747  008C               	movwf	12	;volatile
  4664  0748                     l2747:
  4665                           
  4666                           ;mcc_generated_files/tmr1.c: 84:     PIR1bits.TMR1IF = 0;
  4667  0748  014E               	movlb	14	; select bank14
  4668  0749  128D               	bcf	13,5	;volatile
  4669  074A                     l2749:
  4670                           
  4671                           ;mcc_generated_files/tmr1.c: 87:     timer1ReloadVal=(uint16_t)((TMR1H << 8) | TMR1L);
  4672  074A  0144               	movlb	4	; select bank4
  4673  074B  080D               	movf	13,w	;volatile
  4674  074C  0140               	movlb	0	; select bank0
  4675  074D  00D7               	movwf	_timer1ReloadVal+1	;volatile
  4676  074E  0144               	movlb	4	; select bank4
  4677  074F  080C               	movf	12,w	;volatile
  4678  0750  0140               	movlb	0	; select bank0
  4679  0751  00D6               	movwf	_timer1ReloadVal	;volatile
  4680  0752                     l2751:
  4681                           
  4682                           ;mcc_generated_files/tmr1.c: 90:     PIE1bits.TMR1IE = 1;
  4683  0752  014E               	movlb	14	; select bank14
  4684  0753  1697               	bsf	23,5	;volatile
  4685  0754                     l2753:
  4686                           
  4687                           ;mcc_generated_files/tmr1.c: 93:     TMR1_SetInterruptHandler(TMR1_DefaultInterruptHandl
      +                          er);
  4688  0754  3003               	movlw	low _TMR1_DefaultInterruptHandler
  4689  0755  00F2               	movwf	TMR1_SetInterruptHandler@InterruptHandler
  4690  0756  3000               	movlw	high _TMR1_DefaultInterruptHandler
  4691  0757  00F3               	movwf	TMR1_SetInterruptHandler@InterruptHandler+1
  4692  0758  318D  2549  3187   	fcall	_TMR1_SetInterruptHandler
  4693  075B                     l2755:
  4694                           
  4695                           ;mcc_generated_files/tmr1.c: 96:     T1CON = 0x05;
  4696  075B  3005               	movlw	5
  4697  075C  0144               	movlb	4	; select bank4
  4698  075D  008E               	movwf	14	;volatile
  4699  075E                     l365:
  4700  075E  0008               	return
  4701  075F                     __end_of_TMR1_Initialize:
  4702                           
  4703                           	psect	text9
  4704  0D49                     __ptext9:	
  4705 ;; *************** function _TMR1_SetInterruptHandler *****************
  4706 ;; Defined at:
  4707 ;;		line 178 in file "mcc_generated_files/tmr1.c"
  4708 ;; Parameters:    Size  Location     Type
  4709 ;;  InterruptHan    2    2[COMMON] PTR FTN()void 
  4710 ;;		 -> TMR1_ISR_(1), TMR1_DefaultInterruptHandler(1), 
  4711 ;; Auto vars:     Size  Location     Type
  4712 ;;		None
  4713 ;; Return value:  Size  Location     Type
  4714 ;;                  1    wreg      void 
  4715 ;; Registers used:
  4716 ;;		wreg
  4717 ;; Tracked objects:
  4718 ;;		On entry : 0/0
  4719 ;;		On exit  : 0/0
  4720 ;;		Unchanged: 0/0
  4721 ;; Data sizes:     COMMON   BANK0   BANK1   BANK2   BANK3   BANK4   BANK5   BANK6   BANK7   BANK8   BANK9  BANK10  BANK1
      +1  BANK12
  4722 ;;      Params:         2       0       0       0       0       0       0       0       0       0       0       0       
      +0       0
  4723 ;;      Locals:         0       0       0       0       0       0       0       0       0       0       0       0       
      +0       0
  4724 ;;      Temps:          0       0       0       0       0       0       0       0       0       0       0       0       
      +0       0
  4725 ;;      Totals:         2       0       0       0       0       0       0       0       0       0       0       0       
      +0       0
  4726 ;;Total ram usage:        2 bytes
  4727 ;; Hardware stack levels used: 1
  4728 ;; Hardware stack levels required when called: 5
  4729 ;; This function calls:
  4730 ;;		Nothing
  4731 ;; This function is called by:
  4732 ;;		_TMR1_Initialize
  4733 ;;		_main
  4734 ;; This function uses a non-reentrant model
  4735 ;;
  4736                           
  4737                           
  4738                           ;psect for function _TMR1_SetInterruptHandler
  4739  0D49                     _TMR1_SetInterruptHandler:
  4740  0D49                     l2675:	
  4741                           ;incstack = 0
  4742                           ; Regs used in _TMR1_SetInterruptHandler: [wreg]
  4743                           
  4744                           
  4745                           ;mcc_generated_files/tmr1.c: 179:     TMR1_InterruptHandler = InterruptHandler;
  4746  0D49  0873               	movf	TMR1_SetInterruptHandler@InterruptHandler+1,w
  4747  0D4A  0140               	movlb	0	; select bank0
  4748  0D4B  00D5               	movwf	_TMR1_InterruptHandler+1
  4749  0D4C  0872               	movf	TMR1_SetInterruptHandler@InterruptHandler,w
  4750  0D4D  00D4               	movwf	_TMR1_InterruptHandler
  4751  0D4E                     l395:
  4752  0D4E  0008               	return
  4753  0D4F                     __end_of_TMR1_SetInterruptHandler:
  4754                           
  4755                           	psect	text10
  4756  0799                     __ptext10:	
  4757 ;; *************** function _TMR0_Initialize *****************
  4758 ;; Defined at:
  4759 ;;		line 66 in file "mcc_generated_files/tmr0.c"
  4760 ;; Parameters:    Size  Location     Type
  4761 ;;		None
  4762 ;; Auto vars:     Size  Location     Type
  4763 ;;		None
  4764 ;; Return value:  Size  Location     Type
  4765 ;;                  1    wreg      void 
  4766 ;; Registers used:
  4767 ;;		wreg, status,2, status,0, pclath, cstack
  4768 ;; Tracked objects:
  4769 ;;		On entry : 0/0
  4770 ;;		On exit  : 0/0
  4771 ;;		Unchanged: 0/0
  4772 ;; Data sizes:     COMMON   BANK0   BANK1   BANK2   BANK3   BANK4   BANK5   BANK6   BANK7   BANK8   BANK9  BANK10  BANK1
      +1  BANK12
  4773 ;;      Params:         0       0       0       0       0       0       0       0       0       0       0       0       
      +0       0
  4774 ;;      Locals:         0       0       0       0       0       0       0       0       0       0       0       0       
      +0       0
  4775 ;;      Temps:          0       0       0       0       0       0       0       0       0       0       0       0       
      +0       0
  4776 ;;      Totals:         0       0       0       0       0       0       0       0       0       0       0       0       
      +0       0
  4777 ;;Total ram usage:        0 bytes
  4778 ;; Hardware stack levels used: 1
  4779 ;; Hardware stack levels required when called: 6
  4780 ;; This function calls:
  4781 ;;		_TMR0_SetInterruptHandler
  4782 ;; This function is called by:
  4783 ;;		_SYSTEM_Initialize
  4784 ;;		_main
  4785 ;; This function uses a non-reentrant model
  4786 ;;
  4787                           
  4788                           
  4789                           ;psect for function _TMR0_Initialize
  4790  0799                     _TMR0_Initialize:
  4791  0799                     l2763:	
  4792                           ;incstack = 0
  4793                           ; Regs used in _TMR0_Initialize: [wreg+status,2+status,0+pclath+cstack]
  4794                           
  4795                           
  4796                           ;mcc_generated_files/tmr0.c: 71:     T0CON1 = 0x90;
  4797  0799  3090               	movlw	144
  4798  079A  014B               	movlb	11	; select bank11
  4799  079B  009F               	movwf	31	;volatile
  4800                           
  4801                           ;mcc_generated_files/tmr0.c: 74:     TMR0H = 0x86;
  4802  079C  3086               	movlw	134
  4803  079D  009D               	movwf	29	;volatile
  4804                           
  4805                           ;mcc_generated_files/tmr0.c: 77:     TMR0L = 0xE8;
  4806  079E  30E8               	movlw	232
  4807  079F  009C               	movwf	28	;volatile
  4808                           
  4809                           ;mcc_generated_files/tmr0.c: 80:     timer0ReloadVal16bit = (TMR0H << 8) | TMR0L;
  4810  07A0  081D               	movf	29,w	;volatile
  4811  07A1  00F8               	movwf	_timer0ReloadVal16bit+1	;volatile
  4812  07A2  081C               	movf	28,w	;volatile
  4813  07A3  00F7               	movwf	_timer0ReloadVal16bit	;volatile
  4814  07A4                     l2765:
  4815                           
  4816                           ;mcc_generated_files/tmr0.c: 83:     PIR0bits.TMR0IF = 0;
  4817  07A4  014E               	movlb	14	; select bank14
  4818  07A5  128C               	bcf	12,5	;volatile
  4819  07A6                     l2767:
  4820                           
  4821                           ;mcc_generated_files/tmr0.c: 86:     PIE0bits.TMR0IE = 1;
  4822  07A6  1696               	bsf	22,5	;volatile
  4823  07A7                     l2769:
  4824                           
  4825                           ;mcc_generated_files/tmr0.c: 89:     TMR0_SetInterruptHandler(TMR0_DefaultInterruptHandl
      +                          er);
  4826  07A7  3002               	movlw	low _TMR0_DefaultInterruptHandler
  4827  07A8  00F2               	movwf	TMR0_SetInterruptHandler@InterruptHandler
  4828  07A9  3000               	movlw	high _TMR0_DefaultInterruptHandler
  4829  07AA  00F3               	movwf	TMR0_SetInterruptHandler@InterruptHandler+1
  4830  07AB  318D  2543  3187   	fcall	_TMR0_SetInterruptHandler
  4831  07AE                     l2771:
  4832                           
  4833                           ;mcc_generated_files/tmr0.c: 92:     T0CON0 = 0x90;
  4834  07AE  3090               	movlw	144
  4835  07AF  014B               	movlb	11	; select bank11
  4836  07B0  009E               	movwf	30	;volatile
  4837  07B1                     l309:
  4838  07B1  0008               	return
  4839  07B2                     __end_of_TMR0_Initialize:
  4840                           
  4841                           	psect	text11
  4842  0D43                     __ptext11:	
  4843 ;; *************** function _TMR0_SetInterruptHandler *****************
  4844 ;; Defined at:
  4845 ;;		line 151 in file "mcc_generated_files/tmr0.c"
  4846 ;; Parameters:    Size  Location     Type
  4847 ;;  InterruptHan    2    2[COMMON] PTR FTN()void 
  4848 ;;		 -> TMR0_ISR_(1), TMR0_DefaultInterruptHandler(1), 
  4849 ;; Auto vars:     Size  Location     Type
  4850 ;;		None
  4851 ;; Return value:  Size  Location     Type
  4852 ;;                  1    wreg      void 
  4853 ;; Registers used:
  4854 ;;		wreg
  4855 ;; Tracked objects:
  4856 ;;		On entry : 0/0
  4857 ;;		On exit  : 0/0
  4858 ;;		Unchanged: 0/0
  4859 ;; Data sizes:     COMMON   BANK0   BANK1   BANK2   BANK3   BANK4   BANK5   BANK6   BANK7   BANK8   BANK9  BANK10  BANK1
      +1  BANK12
  4860 ;;      Params:         2       0       0       0       0       0       0       0       0       0       0       0       
      +0       0
  4861 ;;      Locals:         0       0       0       0       0       0       0       0       0       0       0       0       
      +0       0
  4862 ;;      Temps:          0       0       0       0       0       0       0       0       0       0       0       0       
      +0       0
  4863 ;;      Totals:         2       0       0       0       0       0       0       0       0       0       0       0       
      +0       0
  4864 ;;Total ram usage:        2 bytes
  4865 ;; Hardware stack levels used: 1
  4866 ;; Hardware stack levels required when called: 5
  4867 ;; This function calls:
  4868 ;;		Nothing
  4869 ;; This function is called by:
  4870 ;;		_TMR0_Initialize
  4871 ;;		_main
  4872 ;; This function uses a non-reentrant model
  4873 ;;
  4874                           
  4875                           
  4876                           ;psect for function _TMR0_SetInterruptHandler
  4877  0D43                     _TMR0_SetInterruptHandler:
  4878  0D43                     l2673:	
  4879                           ;incstack = 0
  4880                           ; Regs used in _TMR0_SetInterruptHandler: [wreg]
  4881                           
  4882                           
  4883                           ;mcc_generated_files/tmr0.c: 152:     TMR0_InterruptHandler = InterruptHandler;
  4884  0D43  0873               	movf	TMR0_SetInterruptHandler@InterruptHandler+1,w
  4885  0D44  0140               	movlb	0	; select bank0
  4886  0D45  00D9               	movwf	_TMR0_InterruptHandler+1
  4887  0D46  0872               	movf	TMR0_SetInterruptHandler@InterruptHandler,w
  4888  0D47  00D8               	movwf	_TMR0_InterruptHandler
  4889  0D48                     l331:
  4890  0D48  0008               	return
  4891  0D49                     __end_of_TMR0_SetInterruptHandler:
  4892                           
  4893                           	psect	text12
  4894  07C9                     __ptext12:	
  4895 ;; *************** function _SPI1_Initialize *****************
  4896 ;; Defined at:
  4897 ;;		line 62 in file "mcc_generated_files/spi1.c"
  4898 ;; Parameters:    Size  Location     Type
  4899 ;;		None
  4900 ;; Auto vars:     Size  Location     Type
  4901 ;;		None
  4902 ;; Return value:  Size  Location     Type
  4903 ;;                  1    wreg      void 
  4904 ;; Registers used:
  4905 ;;		wreg, status,2
  4906 ;; Tracked objects:
  4907 ;;		On entry : 0/0
  4908 ;;		On exit  : 0/0
  4909 ;;		Unchanged: 0/0
  4910 ;; Data sizes:     COMMON   BANK0   BANK1   BANK2   BANK3   BANK4   BANK5   BANK6   BANK7   BANK8   BANK9  BANK10  BANK1
      +1  BANK12
  4911 ;;      Params:         0       0       0       0       0       0       0       0       0       0       0       0       
      +0       0
  4912 ;;      Locals:         0       0       0       0       0       0       0       0       0       0       0       0       
      +0       0
  4913 ;;      Temps:          0       0       0       0       0       0       0       0       0       0       0       0       
      +0       0
  4914 ;;      Totals:         0       0       0       0       0       0       0       0       0       0       0       0       
      +0       0
  4915 ;;Total ram usage:        0 bytes
  4916 ;; Hardware stack levels used: 1
  4917 ;; Hardware stack levels required when called: 5
  4918 ;; This function calls:
  4919 ;;		Nothing
  4920 ;; This function is called by:
  4921 ;;		_SYSTEM_Initialize
  4922 ;;		_main
  4923 ;; This function uses a non-reentrant model
  4924 ;;
  4925                           
  4926                           
  4927                           ;psect for function _SPI1_Initialize
  4928  07C9                     _SPI1_Initialize:
  4929  07C9                     l2677:	
  4930                           ;incstack = 0
  4931                           ; Regs used in _SPI1_Initialize: [wreg+status,2]
  4932                           
  4933                           
  4934                           ;mcc_generated_files/spi1.c: 65:     SSP1CLKPPS = 21;
  4935  07C9  3015               	movlw	21
  4936  07CA  017D               	movlb	61	; select bank61
  4937  07CB  00C5               	movwf	69	;volatile
  4938                           
  4939                           ;mcc_generated_files/spi1.c: 66:     SSP1DATPPS = 4;
  4940  07CC  3004               	movlw	4
  4941  07CD  00C6               	movwf	70	;volatile
  4942                           
  4943                           ;mcc_generated_files/spi1.c: 67:     RC5PPS = 7;
  4944  07CE  3007               	movlw	7
  4945  07CF  017E               	movlb	62	; select bank62
  4946  07D0  00A5               	movwf	37	;volatile
  4947                           
  4948                           ;mcc_generated_files/spi1.c: 68:     RC3PPS = 8;
  4949  07D1  3008               	movlw	8
  4950  07D2  00A3               	movwf	35	;volatile
  4951                           
  4952                           ;mcc_generated_files/spi1.c: 70:     SSP1STAT = 0x40;
  4953  07D3  3040               	movlw	64
  4954  07D4  0143               	movlb	3	; select bank3
  4955  07D5  008F               	movwf	15	;volatile
  4956  07D6                     l2679:
  4957                           
  4958                           ;mcc_generated_files/spi1.c: 71:     SSP1CON1 = 0x00;
  4959  07D6  0190               	clrf	16	;volatile
  4960  07D7                     l2681:
  4961                           
  4962                           ;mcc_generated_files/spi1.c: 72:     SSP1ADD = 0x01;
  4963  07D7  3001               	movlw	1
  4964  07D8  008D               	movwf	13	;volatile
  4965  07D9                     l2683:
  4966                           
  4967                           ;mcc_generated_files/spi1.c: 73:     TRISCbits.TRISC5 = 0;
  4968  07D9  0140               	movlb	0	; select bank0
  4969  07DA  1294               	bcf	20,5	;volatile
  4970  07DB                     l2685:
  4971                           
  4972                           ;mcc_generated_files/spi1.c: 74:     SSP1CON1bits.SSPEN = 0;
  4973  07DB  0143               	movlb	3	; select bank3
  4974  07DC  1290               	bcf	16,5	;volatile
  4975  07DD                     l64:
  4976  07DD  0008               	return
  4977  07DE                     __end_of_SPI1_Initialize:
  4978                           
  4979                           	psect	text13
  4980  0D4F                     __ptext13:	
  4981 ;; *************** function _PWM3_Initialize *****************
  4982 ;; Defined at:
  4983 ;;		line 58 in file "mcc_generated_files/pwm3.c"
  4984 ;; Parameters:    Size  Location     Type
  4985 ;;		None
  4986 ;; Auto vars:     Size  Location     Type
  4987 ;;		None
  4988 ;; Return value:  Size  Location     Type
  4989 ;;                  1    wreg      void 
  4990 ;; Registers used:
  4991 ;;		wreg
  4992 ;; Tracked objects:
  4993 ;;		On entry : 0/0
  4994 ;;		On exit  : 0/0
  4995 ;;		Unchanged: 0/0
  4996 ;; Data sizes:     COMMON   BANK0   BANK1   BANK2   BANK3   BANK4   BANK5   BANK6   BANK7   BANK8   BANK9  BANK10  BANK1
      +1  BANK12
  4997 ;;      Params:         0       0       0       0       0       0       0       0       0       0       0       0       
      +0       0
  4998 ;;      Locals:         0       0       0       0       0       0       0       0       0       0       0       0       
      +0       0
  4999 ;;      Temps:          0       0       0       0       0       0       0       0       0       0       0       0       
      +0       0
  5000 ;;      Totals:         0       0       0       0       0       0       0       0       0       0       0       0       
      +0       0
  5001 ;;Total ram usage:        0 bytes
  5002 ;; Hardware stack levels used: 1
  5003 ;; Hardware stack levels required when called: 5
  5004 ;; This function calls:
  5005 ;;		Nothing
  5006 ;; This function is called by:
  5007 ;;		_SYSTEM_Initialize
  5008 ;;		_main
  5009 ;; This function uses a non-reentrant model
  5010 ;;
  5011                           
  5012                           
  5013                           ;psect for function _PWM3_Initialize
  5014  0D4F                     _PWM3_Initialize:
  5015  0D4F                     l2725:	
  5016                           ;incstack = 0
  5017                           ; Regs used in _PWM3_Initialize: [wreg]
  5018                           
  5019                           
  5020                           ;mcc_generated_files/pwm3.c: 62:     PWM3CON = 0x80;
  5021  0D4F  3080               	movlw	128
  5022  0D50  0146               	movlb	6	; select bank6
  5023  0D51  0096               	movwf	22	;volatile
  5024                           
  5025                           ;mcc_generated_files/pwm3.c: 65:     PWM3DCH = 0x7F;
  5026  0D52  307F               	movlw	127
  5027  0D53  0095               	movwf	21	;volatile
  5028                           
  5029                           ;mcc_generated_files/pwm3.c: 68:     PWM3DCL = 0xC0;
  5030  0D54  30C0               	movlw	192
  5031  0D55  0094               	movwf	20	;volatile
  5032  0D56                     l226:
  5033  0D56  0008               	return
  5034  0D57                     __end_of_PWM3_Initialize:
  5035                           
  5036                           	psect	text14
  5037  0717                     __ptext14:	
  5038 ;; *************** function _PIN_MANAGER_Initialize *****************
  5039 ;; Defined at:
  5040 ;;		line 55 in file "mcc_generated_files/pin_manager.c"
  5041 ;; Parameters:    Size  Location     Type
  5042 ;;		None
  5043 ;; Auto vars:     Size  Location     Type
  5044 ;;		None
  5045 ;; Return value:  Size  Location     Type
  5046 ;;                  1    wreg      void 
  5047 ;; Registers used:
  5048 ;;		wreg, status,2
  5049 ;; Tracked objects:
  5050 ;;		On entry : 0/0
  5051 ;;		On exit  : 0/0
  5052 ;;		Unchanged: 0/0
  5053 ;; Data sizes:     COMMON   BANK0   BANK1   BANK2   BANK3   BANK4   BANK5   BANK6   BANK7   BANK8   BANK9  BANK10  BANK1
      +1  BANK12
  5054 ;;      Params:         0       0       0       0       0       0       0       0       0       0       0       0       
      +0       0
  5055 ;;      Locals:         0       0       0       0       0       0       0       0       0       0       0       0       
      +0       0
  5056 ;;      Temps:          0       0       0       0       0       0       0       0       0       0       0       0       
      +0       0
  5057 ;;      Totals:         0       0       0       0       0       0       0       0       0       0       0       0       
      +0       0
  5058 ;;Total ram usage:        0 bytes
  5059 ;; Hardware stack levels used: 1
  5060 ;; Hardware stack levels required when called: 5
  5061 ;; This function calls:
  5062 ;;		Nothing
  5063 ;; This function is called by:
  5064 ;;		_SYSTEM_Initialize
  5065 ;; This function uses a non-reentrant model
  5066 ;;
  5067                           
  5068                           
  5069                           ;psect for function _PIN_MANAGER_Initialize
  5070  0717                     _PIN_MANAGER_Initialize:
  5071  0717                     l2687:	
  5072                           ;incstack = 0
  5073                           ; Regs used in _PIN_MANAGER_Initialize: [wreg+status,2]
  5074                           
  5075                           
  5076                           ;mcc_generated_files/pin_manager.c: 60:     LATA = 0x00;
  5077  0717  0140               	movlb	0	; select bank0
  5078  0718  0198               	clrf	24	;volatile
  5079                           
  5080                           ;mcc_generated_files/pin_manager.c: 61:     LATC = 0x00;
  5081  0719  019A               	clrf	26	;volatile
  5082  071A                     l2689:
  5083                           
  5084                           ;mcc_generated_files/pin_manager.c: 66:     TRISA = 0x1F;
  5085  071A  301F               	movlw	31
  5086  071B  0092               	movwf	18	;volatile
  5087  071C                     l2691:
  5088                           
  5089                           ;mcc_generated_files/pin_manager.c: 67:     TRISC = 0x02;
  5090  071C  3002               	movlw	2
  5091  071D  0094               	movwf	20	;volatile
  5092  071E                     l2693:
  5093                           
  5094                           ;mcc_generated_files/pin_manager.c: 72:     ANSELC = 0x1F;
  5095  071E  301F               	movlw	31
  5096  071F  017E               	movlb	62	; select bank62
  5097  0720  00CE               	movwf	78	;volatile
  5098  0721                     l2695:
  5099                           
  5100                           ;mcc_generated_files/pin_manager.c: 73:     ANSELA = 0x23;
  5101  0721  3023               	movlw	35
  5102  0722  00B8               	movwf	56	;volatile
  5103                           
  5104                           ;mcc_generated_files/pin_manager.c: 78:     WPUA = 0x00;
  5105  0723  01B9               	clrf	57	;volatile
  5106                           
  5107                           ;mcc_generated_files/pin_manager.c: 79:     WPUC = 0x00;
  5108  0724  01CF               	clrf	79	;volatile
  5109                           
  5110                           ;mcc_generated_files/pin_manager.c: 84:     ODCONA = 0x00;
  5111  0725  01BA               	clrf	58	;volatile
  5112                           
  5113                           ;mcc_generated_files/pin_manager.c: 85:     ODCONC = 0x00;
  5114  0726  01D0               	clrf	80	;volatile
  5115  0727                     l2697:
  5116                           
  5117                           ;mcc_generated_files/pin_manager.c: 90:     SLRCONA = 0x37;
  5118  0727  3037               	movlw	55
  5119  0728  00BB               	movwf	59	;volatile
  5120  0729                     l2699:
  5121                           
  5122                           ;mcc_generated_files/pin_manager.c: 91:     SLRCONC = 0x3F;
  5123  0729  303F               	movlw	63
  5124  072A  00D1               	movwf	81	;volatile
  5125  072B                     l2701:
  5126                           
  5127                           ;mcc_generated_files/pin_manager.c: 96:     INLVLA = 0x3F;
  5128  072B  303F               	movlw	63
  5129  072C  00BC               	movwf	60	;volatile
  5130  072D                     l2703:
  5131                           
  5132                           ;mcc_generated_files/pin_manager.c: 97:     INLVLC = 0x3F;
  5133  072D  303F               	movlw	63
  5134  072E  00D2               	movwf	82	;volatile
  5135  072F                     l2705:
  5136                           
  5137                           ;mcc_generated_files/pin_manager.c: 106:     INTPPS = 0x02;
  5138  072F  3002               	movlw	2
  5139  0730  017D               	movlb	61	; select bank61
  5140  0731  0090               	movwf	16	;volatile
  5141  0732                     l2707:
  5142                           
  5143                           ;mcc_generated_files/pin_manager.c: 107:     SSP1CLKPPS = 0x15;
  5144  0732  3015               	movlw	21
  5145  0733  00C5               	movwf	69	;volatile
  5146  0734                     l2709:
  5147                           
  5148                           ;mcc_generated_files/pin_manager.c: 108:     RC3PPS = 0x08;
  5149  0734  3008               	movlw	8
  5150  0735  017E               	movlb	62	; select bank62
  5151  0736  00A3               	movwf	35	;volatile
  5152  0737                     l2711:
  5153                           
  5154                           ;mcc_generated_files/pin_manager.c: 109:     RA5PPS = 0x03;
  5155  0737  3003               	movlw	3
  5156  0738  0095               	movwf	21	;volatile
  5157  0739                     l2713:
  5158                           
  5159                           ;mcc_generated_files/pin_manager.c: 110:     RC5PPS = 0x07;
  5160  0739  3007               	movlw	7
  5161  073A  00A5               	movwf	37	;volatile
  5162  073B                     l2715:
  5163                           
  5164                           ;mcc_generated_files/pin_manager.c: 111:     SSP1DATPPS = 0x04;
  5165  073B  3004               	movlw	4
  5166  073C  017D               	movlb	61	; select bank61
  5167  073D  00C6               	movwf	70	;volatile
  5168  073E                     l147:
  5169  073E  0008               	return
  5170  073F                     __end_of_PIN_MANAGER_Initialize:
  5171                           
  5172                           	psect	text15
  5173  0D3D                     __ptext15:	
  5174 ;; *************** function _OSCILLATOR_Initialize *****************
  5175 ;; Defined at:
  5176 ;;		line 64 in file "mcc_generated_files/mcc.c"
  5177 ;; Parameters:    Size  Location     Type
  5178 ;;		None
  5179 ;; Auto vars:     Size  Location     Type
  5180 ;;		None
  5181 ;; Return value:  Size  Location     Type
  5182 ;;                  1    wreg      void 
  5183 ;; Registers used:
  5184 ;;		wreg, status,2
  5185 ;; Tracked objects:
  5186 ;;		On entry : 0/0
  5187 ;;		On exit  : 0/0
  5188 ;;		Unchanged: 0/0
  5189 ;; Data sizes:     COMMON   BANK0   BANK1   BANK2   BANK3   BANK4   BANK5   BANK6   BANK7   BANK8   BANK9  BANK10  BANK1
      +1  BANK12
  5190 ;;      Params:         0       0       0       0       0       0       0       0       0       0       0       0       
      +0       0
  5191 ;;      Locals:         0       0       0       0       0       0       0       0       0       0       0       0       
      +0       0
  5192 ;;      Temps:          0       0       0       0       0       0       0       0       0       0       0       0       
      +0       0
  5193 ;;      Totals:         0       0       0       0       0       0       0       0       0       0       0       0       
      +0       0
  5194 ;;Total ram usage:        0 bytes
  5195 ;; Hardware stack levels used: 1
  5196 ;; Hardware stack levels required when called: 5
  5197 ;; This function calls:
  5198 ;;		Nothing
  5199 ;; This function is called by:
  5200 ;;		_SYSTEM_Initialize
  5201 ;; This function uses a non-reentrant model
  5202 ;;
  5203                           
  5204                           
  5205                           ;psect for function _OSCILLATOR_Initialize
  5206  0D3D                     _OSCILLATOR_Initialize:
  5207  0D3D                     l2717:	
  5208                           ;incstack = 0
  5209                           ; Regs used in _OSCILLATOR_Initialize: [wreg+status,2]
  5210                           
  5211                           
  5212                           ;mcc_generated_files/mcc.c: 67:     OSCEN = 0x00;
  5213  0D3D  0151               	movlb	17	; select bank17
  5214  0D3E  0191               	clrf	17	;volatile
  5215  0D3F                     l2719:
  5216                           
  5217                           ;mcc_generated_files/mcc.c: 69:     OSCFRQ = 0x03;
  5218  0D3F  3003               	movlw	3
  5219  0D40  0093               	movwf	19	;volatile
  5220  0D41                     l2721:
  5221                           
  5222                           ;mcc_generated_files/mcc.c: 71:     OSCTUNE = 0x00;
  5223  0D41  0192               	clrf	18	;volatile
  5224  0D42                     l32:
  5225  0D42  0008               	return
  5226  0D43                     __end_of_OSCILLATOR_Initialize:
  5227                           
  5228                           	psect	text16
  5229  0D70                     __ptext16:	
  5230 ;; *************** function _EXT_INT_Initialize *****************
  5231 ;; Defined at:
  5232 ;;		line 72 in file "mcc_generated_files/ext_int.c"
  5233 ;; Parameters:    Size  Location     Type
  5234 ;;		None
  5235 ;; Auto vars:     Size  Location     Type
  5236 ;;		None
  5237 ;; Return value:  Size  Location     Type
  5238 ;;                  1    wreg      void 
  5239 ;; Registers used:
  5240 ;;		wreg, status,2, status,0, pclath, cstack
  5241 ;; Tracked objects:
  5242 ;;		On entry : 0/0
  5243 ;;		On exit  : 0/0
  5244 ;;		Unchanged: 0/0
  5245 ;; Data sizes:     COMMON   BANK0   BANK1   BANK2   BANK3   BANK4   BANK5   BANK6   BANK7   BANK8   BANK9  BANK10  BANK1
      +1  BANK12
  5246 ;;      Params:         0       0       0       0       0       0       0       0       0       0       0       0       
      +0       0
  5247 ;;      Locals:         0       0       0       0       0       0       0       0       0       0       0       0       
      +0       0
  5248 ;;      Temps:          0       0       0       0       0       0       0       0       0       0       0       0       
      +0       0
  5249 ;;      Totals:         0       0       0       0       0       0       0       0       0       0       0       0       
      +0       0
  5250 ;;Total ram usage:        0 bytes
  5251 ;; Hardware stack levels used: 1
  5252 ;; Hardware stack levels required when called: 6
  5253 ;; This function calls:
  5254 ;;		_INT_SetInterruptHandler
  5255 ;; This function is called by:
  5256 ;;		_SYSTEM_Initialize
  5257 ;;		_main
  5258 ;; This function uses a non-reentrant model
  5259 ;;
  5260                           
  5261                           
  5262                           ;psect for function _EXT_INT_Initialize
  5263  0D70                     _EXT_INT_Initialize:
  5264  0D70                     l2757:	
  5265                           ;incstack = 0
  5266                           ; Regs used in _EXT_INT_Initialize: [wreg+status,2+status,0+pclath+cstack]
  5267                           
  5268                           
  5269                           ;mcc_generated_files/ext_int.c: 77:     (PIR0bits.INTF = 0);
  5270  0D70  014E               	movlb	14	; select bank14
  5271  0D71  100C               	bcf	12,0	;volatile
  5272                           
  5273                           ;mcc_generated_files/ext_int.c: 78:     (INTCONbits.INTEDG = 1);
  5274  0D72  140B               	bsf	11,0	;volatile
  5275  0D73                     l2759:
  5276                           
  5277                           ;mcc_generated_files/ext_int.c: 80:     INT_SetInterruptHandler(INT_DefaultInterruptHand
      +                          ler);
  5278  0D73  3023               	movlw	low _INT_DefaultInterruptHandler
  5279  0D74  00F2               	movwf	INT_SetInterruptHandler@InterruptHandler
  5280  0D75  300D               	movlw	high _INT_DefaultInterruptHandler
  5281  0D76  00F3               	movwf	INT_SetInterruptHandler@InterruptHandler+1
  5282  0D77  318D  2537  318D   	fcall	_INT_SetInterruptHandler
  5283  0D7A                     l2761:
  5284                           
  5285                           ;mcc_generated_files/ext_int.c: 81:     (PIE0bits.INTE = 1);
  5286  0D7A  014E               	movlb	14	; select bank14
  5287  0D7B  1416               	bsf	22,0	;volatile
  5288  0D7C                     l284:
  5289  0D7C  0008               	return
  5290  0D7D                     __end_of_EXT_INT_Initialize:
  5291                           
  5292                           	psect	text17
  5293  0D37                     __ptext17:	
  5294 ;; *************** function _INT_SetInterruptHandler *****************
  5295 ;; Defined at:
  5296 ;;		line 63 in file "mcc_generated_files/ext_int.c"
  5297 ;; Parameters:    Size  Location     Type
  5298 ;;  InterruptHan    2    2[COMMON] PTR FTN()void 
  5299 ;;		 -> EXT_ISR(1), INT_DefaultInterruptHandler(1), 
  5300 ;; Auto vars:     Size  Location     Type
  5301 ;;		None
  5302 ;; Return value:  Size  Location     Type
  5303 ;;                  1    wreg      void 
  5304 ;; Registers used:
  5305 ;;		wreg
  5306 ;; Tracked objects:
  5307 ;;		On entry : 0/0
  5308 ;;		On exit  : 0/0
  5309 ;;		Unchanged: 0/0
  5310 ;; Data sizes:     COMMON   BANK0   BANK1   BANK2   BANK3   BANK4   BANK5   BANK6   BANK7   BANK8   BANK9  BANK10  BANK1
      +1  BANK12
  5311 ;;      Params:         2       0       0       0       0       0       0       0       0       0       0       0       
      +0       0
  5312 ;;      Locals:         0       0       0       0       0       0       0       0       0       0       0       0       
      +0       0
  5313 ;;      Temps:          0       0       0       0       0       0       0       0       0       0       0       0       
      +0       0
  5314 ;;      Totals:         2       0       0       0       0       0       0       0       0       0       0       0       
      +0       0
  5315 ;;Total ram usage:        2 bytes
  5316 ;; Hardware stack levels used: 1
  5317 ;; Hardware stack levels required when called: 5
  5318 ;; This function calls:
  5319 ;;		Nothing
  5320 ;; This function is called by:
  5321 ;;		_EXT_INT_Initialize
  5322 ;;		_main
  5323 ;; This function uses a non-reentrant model
  5324 ;;
  5325                           
  5326                           
  5327                           ;psect for function _INT_SetInterruptHandler
  5328  0D37                     _INT_SetInterruptHandler:
  5329  0D37                     l2671:	
  5330                           ;incstack = 0
  5331                           ; Regs used in _INT_SetInterruptHandler: [wreg]
  5332                           
  5333                           
  5334                           ;mcc_generated_files/ext_int.c: 64:     INT_InterruptHandler = InterruptHandler;
  5335  0D37  0873               	movf	INT_SetInterruptHandler@InterruptHandler+1,w
  5336  0D38  0140               	movlb	0	; select bank0
  5337  0D39  00DB               	movwf	_INT_InterruptHandler+1
  5338  0D3A  0872               	movf	INT_SetInterruptHandler@InterruptHandler,w
  5339  0D3B  00DA               	movwf	_INT_InterruptHandler
  5340  0D3C                     l278:
  5341  0D3C  0008               	return
  5342  0D3D                     __end_of_INT_SetInterruptHandler:
  5343                           
  5344                           	psect	intentry
  5345  0004                     __pintentry:	
  5346 ;; *************** function _INTERRUPT_InterruptManager *****************
  5347 ;; Defined at:
  5348 ;;		line 52 in file "mcc_generated_files/interrupt_manager.c"
  5349 ;; Parameters:    Size  Location     Type
  5350 ;;		None
  5351 ;; Auto vars:     Size  Location     Type
  5352 ;;		None
  5353 ;; Return value:  Size  Location     Type
  5354 ;;                  1    wreg      void 
  5355 ;; Registers used:
  5356 ;;		wreg, fsr1l, fsr1h, status,2, status,0, pclath, cstack
  5357 ;; Tracked objects:
  5358 ;;		On entry : 0/0
  5359 ;;		On exit  : 0/0
  5360 ;;		Unchanged: 0/0
  5361 ;; Data sizes:     COMMON   BANK0   BANK1   BANK2   BANK3   BANK4   BANK5   BANK6   BANK7   BANK8   BANK9  BANK10  BANK1
      +1  BANK12
  5362 ;;      Params:         0       0       0       0       0       0       0       0       0       0       0       0       
      +0       0
  5363 ;;      Locals:         0       0       0       0       0       0       0       0       0       0       0       0       
      +0       0
  5364 ;;      Temps:          0       0       0       0       0       0       0       0       0       0       0       0       
      +0       0
  5365 ;;      Totals:         0       0       0       0       0       0       0       0       0       0       0       0       
      +0       0
  5366 ;;Total ram usage:        0 bytes
  5367 ;; Hardware stack levels used: 1
  5368 ;; Hardware stack levels required when called: 4
  5369 ;; This function calls:
  5370 ;;		_INT_ISR
  5371 ;;		_TMR0_ISR
  5372 ;;		_TMR1_ISR
  5373 ;; This function is called by:
  5374 ;;		Interrupt level 1
  5375 ;; This function uses a non-reentrant model
  5376 ;;
  5377                           
  5378  0004                     _INTERRUPT_InterruptManager:
  5379                           
  5380                           ;incstack = 0
  5381  0004  147E               	bsf	int$flags,0	;set compiler interrupt flag (level 1)
  5382                           
  5383                           ; Regs used in _INTERRUPT_InterruptManager: [wreg+fsr1l+fsr1h+status,2+status,0+pclath+c
      +                          stack]
  5384  0005  3180               	pagesel	$
  5385  0006                     i1l2483:
  5386                           
  5387                           ;mcc_generated_files/interrupt_manager.c: 55:     if(PIE0bits.TMR0IE == 1 && PIR0bits.TM
      +                          R0IF == 1)
  5388  0006  014E               	movlb	14	; select bank14
  5389  0007  1E96               	btfss	22,5	;volatile
  5390  0008  280A               	goto	u167_21
  5391  0009  280B               	goto	u167_20
  5392  000A                     u167_21:
  5393  000A  2813               	goto	i1l250
  5394  000B                     u167_20:
  5395  000B                     i1l2485:
  5396  000B  1E8C               	btfss	12,5	;volatile
  5397  000C  280E               	goto	u168_21
  5398  000D  280F               	goto	u168_20
  5399  000E                     u168_21:
  5400  000E  2813               	goto	i1l250
  5401  000F                     u168_20:
  5402  000F                     i1l2487:
  5403                           
  5404                           ;mcc_generated_files/interrupt_manager.c: 56:     {;mcc_generated_files/interrupt_manage
      +                          r.c: 57:         TMR0_ISR();
  5405  000F  3187  27DE  3180   	fcall	_TMR0_ISR
  5406                           
  5407                           ;mcc_generated_files/interrupt_manager.c: 58:     }
  5408  0012  282F               	goto	i1l258
  5409  0013                     i1l250:	
  5410                           ;mcc_generated_files/interrupt_manager.c: 59:     else if(PIE0bits.INTE == 1 && PIR0bits
      +                          .INTF == 1)
  5411                           
  5412  0013  1C16               	btfss	22,0	;volatile
  5413  0014  2816               	goto	u169_21
  5414  0015  2817               	goto	u169_20
  5415  0016                     u169_21:
  5416  0016  281F               	goto	i1l252
  5417  0017                     u169_20:
  5418  0017                     i1l2489:
  5419  0017  1C0C               	btfss	12,0	;volatile
  5420  0018  281A               	goto	u170_21
  5421  0019  281B               	goto	u170_20
  5422  001A                     u170_21:
  5423  001A  281F               	goto	i1l252
  5424  001B                     u170_20:
  5425  001B                     i1l2491:
  5426                           
  5427                           ;mcc_generated_files/interrupt_manager.c: 60:     {;mcc_generated_files/interrupt_manage
      +                          r.c: 61:         INT_ISR();
  5428  001B  318D  2531  3180   	fcall	_INT_ISR
  5429                           
  5430                           ;mcc_generated_files/interrupt_manager.c: 62:     }
  5431  001E  282F               	goto	i1l258
  5432  001F                     i1l252:	
  5433                           ;mcc_generated_files/interrupt_manager.c: 63:     else if(INTCONbits.PEIE == 1)
  5434                           
  5435  001F  1F0B               	btfss	11,6	;volatile
  5436  0020  2822               	goto	u171_21
  5437  0021  2823               	goto	u171_20
  5438  0022                     u171_21:
  5439  0022  282F               	goto	i1l253
  5440  0023                     u171_20:
  5441  0023                     i1l2493:
  5442                           
  5443                           ;mcc_generated_files/interrupt_manager.c: 64:     {;mcc_generated_files/interrupt_manage
      +                          r.c: 65:         if(PIE1bits.TMR1IE == 1 && PIR1bits.TMR1IF == 1)
  5444  0023  1E97               	btfss	23,5	;volatile
  5445  0024  2826               	goto	u172_21
  5446  0025  2827               	goto	u172_20
  5447  0026                     u172_21:
  5448  0026  282F               	goto	i1l253
  5449  0027                     u172_20:
  5450  0027                     i1l2495:
  5451  0027  1E8D               	btfss	13,5	;volatile
  5452  0028  282A               	goto	u173_21
  5453  0029  282B               	goto	u173_20
  5454  002A                     u173_21:
  5455  002A  282F               	goto	i1l253
  5456  002B                     u173_20:
  5457  002B                     i1l2497:
  5458                           
  5459                           ;mcc_generated_files/interrupt_manager.c: 66:         {;mcc_generated_files/interrupt_ma
      +                          nager.c: 67:             TMR1_ISR();
  5460  002B  3187  27B2  3180   	fcall	_TMR1_ISR
  5461                           
  5462                           ;mcc_generated_files/interrupt_manager.c: 68:         }
  5463  002E  282F               	goto	i1l258
  5464  002F                     i1l253:
  5465  002F                     i1l258:
  5466  002F  107E               	bcf	int$flags,0	;clear compiler interrupt flag (level 1)
  5467  0030  0009               	retfie
  5468  0031                     __end_of_INTERRUPT_InterruptManager:
  5469                           
  5470                           	psect	text19
  5471  07B2                     __ptext19:	
  5472 ;; *************** function _TMR1_ISR *****************
  5473 ;; Defined at:
  5474 ;;		line 164 in file "mcc_generated_files/tmr1.c"
  5475 ;; Parameters:    Size  Location     Type
  5476 ;;		None
  5477 ;; Auto vars:     Size  Location     Type
  5478 ;;		None
  5479 ;; Return value:  Size  Location     Type
  5480 ;;                  1    wreg      void 
  5481 ;; Registers used:
  5482 ;;		wreg, fsr1l, fsr1h, status,2, status,0, pclath, cstack
  5483 ;; Tracked objects:
  5484 ;;		On entry : 0/0
  5485 ;;		On exit  : 0/0
  5486 ;;		Unchanged: 0/0
  5487 ;; Data sizes:     COMMON   BANK0   BANK1   BANK2   BANK3   BANK4   BANK5   BANK6   BANK7   BANK8   BANK9  BANK10  BANK1
      +1  BANK12
  5488 ;;      Params:         0       0       0       0       0       0       0       0       0       0       0       0       
      +0       0
  5489 ;;      Locals:         0       0       0       0       0       0       0       0       0       0       0       0       
      +0       0
  5490 ;;      Temps:          0       0       0       0       0       0       0       0       0       0       0       0       
      +0       0
  5491 ;;      Totals:         0       0       0       0       0       0       0       0       0       0       0       0       
      +0       0
  5492 ;;Total ram usage:        0 bytes
  5493 ;; Hardware stack levels used: 1
  5494 ;; Hardware stack levels required when called: 1
  5495 ;; This function calls:
  5496 ;;		Absolute function
  5497 ;;		_TMR1_DefaultInterruptHandler
  5498 ;;		_TMR1_ISR_
  5499 ;;		_TMR1_WriteTimer
  5500 ;; This function is called by:
  5501 ;;		_INTERRUPT_InterruptManager
  5502 ;; This function uses a non-reentrant model
  5503 ;;
  5504                           
  5505                           
  5506                           ;psect for function _TMR1_ISR
  5507  07B2                     _TMR1_ISR:
  5508  07B2                     i1l2433:	
  5509                           ;incstack = 0
  5510                           ; Regs used in _TMR1_ISR: [wreg+fsr1l+fsr1h+status,2+status,0+pclath+cstack]
  5511                           
  5512                           
  5513                           ;mcc_generated_files/tmr1.c: 168:     PIR1bits.TMR1IF = 0;
  5514  07B2  014E               	movlb	14	; select bank14
  5515  07B3  128D               	bcf	13,5	;volatile
  5516  07B4                     i1l2435:
  5517                           
  5518                           ;mcc_generated_files/tmr1.c: 169:     TMR1_WriteTimer(timer1ReloadVal);
  5519  07B4  0140               	movlb	0	; select bank0
  5520  07B5  0857               	movf	_timer1ReloadVal+1,w	;volatile
  5521  07B6  00F1               	movwf	TMR1_WriteTimer@timerVal+1
  5522  07B7  0856               	movf	_timer1ReloadVal,w	;volatile
  5523  07B8  00F0               	movwf	TMR1_WriteTimer@timerVal
  5524  07B9  318D  25A5  3187   	fcall	_TMR1_WriteTimer
  5525  07BC                     i1l2437:
  5526                           
  5527                           ;mcc_generated_files/tmr1.c: 171:     if(TMR1_InterruptHandler)
  5528  07BC  0140               	movlb	0	; select bank0
  5529  07BD  0854               	movf	_TMR1_InterruptHandler,w
  5530  07BE  0455               	iorwf	_TMR1_InterruptHandler+1,w
  5531  07BF  1903               	btfsc	3,2
  5532  07C0  2FC2               	goto	u160_21
  5533  07C1  2FC3               	goto	u160_20
  5534  07C2                     u160_21:
  5535  07C2  2FC8               	goto	i1l392
  5536  07C3                     u160_20:
  5537  07C3                     i1l2439:
  5538                           
  5539                           ;mcc_generated_files/tmr1.c: 172:     {;mcc_generated_files/tmr1.c: 173:         TMR1_In
      +                          terruptHandler();
  5540  07C3  0855               	movf	_TMR1_InterruptHandler+1,w
  5541  07C4  008A               	movwf	10
  5542  07C5  0854               	movf	_TMR1_InterruptHandler,w
  5543  07C6  000A               	callw
  5544  07C7  3187               	pagesel	$
  5545  07C8                     i1l392:
  5546  07C8  0008               	return
  5547  07C9                     __end_of_TMR1_ISR:
  5548                           
  5549                           	psect	text20
  5550  0DA5                     __ptext20:	
  5551 ;; *************** function _TMR1_WriteTimer *****************
  5552 ;; Defined at:
  5553 ;;		line 127 in file "mcc_generated_files/tmr1.c"
  5554 ;; Parameters:    Size  Location     Type
  5555 ;;  timerVal        2    0[COMMON] unsigned short 
  5556 ;; Auto vars:     Size  Location     Type
  5557 ;;		None
  5558 ;; Return value:  Size  Location     Type
  5559 ;;                  1    wreg      void 
  5560 ;; Registers used:
  5561 ;;		wreg, status,2
  5562 ;; Tracked objects:
  5563 ;;		On entry : 0/0
  5564 ;;		On exit  : 0/0
  5565 ;;		Unchanged: 0/0
  5566 ;; Data sizes:     COMMON   BANK0   BANK1   BANK2   BANK3   BANK4   BANK5   BANK6   BANK7   BANK8   BANK9  BANK10  BANK1
      +1  BANK12
  5567 ;;      Params:         2       0       0       0       0       0       0       0       0       0       0       0       
      +0       0
  5568 ;;      Locals:         0       0       0       0       0       0       0       0       0       0       0       0       
      +0       0
  5569 ;;      Temps:          0       0       0       0       0       0       0       0       0       0       0       0       
      +0       0
  5570 ;;      Totals:         2       0       0       0       0       0       0       0       0       0       0       0       
      +0       0
  5571 ;;Total ram usage:        2 bytes
  5572 ;; Hardware stack levels used: 1
  5573 ;; This function calls:
  5574 ;;		Nothing
  5575 ;; This function is called by:
  5576 ;;		_TMR1_ISR
  5577 ;;		_TMR1_Reload
  5578 ;; This function uses a non-reentrant model
  5579 ;;
  5580                           
  5581                           
  5582                           ;psect for function _TMR1_WriteTimer
  5583  0DA5                     _TMR1_WriteTimer:
  5584  0DA5                     i1l2135:	
  5585                           ;incstack = 0
  5586                           ; Regs used in _TMR1_WriteTimer: [wreg+status,2]
  5587                           
  5588                           
  5589                           ;mcc_generated_files/tmr1.c: 127: void TMR1_WriteTimer(uint16_t timerVal);mcc_generated_
      +                          files/tmr1.c: 128: {;mcc_generated_files/tmr1.c: 129:     if (T1CONbits.NOT_SYNC == 1)
  5590  0DA5  0144               	movlb	4	; select bank4
  5591  0DA6  1D0E               	btfss	14,2	;volatile
  5592  0DA7  2DA9               	goto	u103_21
  5593  0DA8  2DAA               	goto	u103_20
  5594  0DA9                     u103_21:
  5595  0DA9  2DB1               	goto	i1l2145
  5596  0DAA                     u103_20:
  5597  0DAA                     i1l2137:
  5598                           
  5599                           ;mcc_generated_files/tmr1.c: 130:     {;mcc_generated_files/tmr1.c: 132:         T1CONbi
      +                          ts.TMR1ON = 0;
  5600  0DAA  100E               	bcf	14,0	;volatile
  5601  0DAB                     i1l2139:
  5602                           
  5603                           ;mcc_generated_files/tmr1.c: 135:         TMR1H = (uint8_t)(timerVal >> 8);
  5604  0DAB  0871               	movf	TMR1_WriteTimer@timerVal+1,w
  5605  0DAC  008D               	movwf	13	;volatile
  5606  0DAD                     i1l2141:
  5607                           
  5608                           ;mcc_generated_files/tmr1.c: 136:         TMR1L = (uint8_t)timerVal;
  5609  0DAD  0870               	movf	TMR1_WriteTimer@timerVal,w
  5610  0DAE  008C               	movwf	12	;volatile
  5611  0DAF                     i1l2143:
  5612                           
  5613                           ;mcc_generated_files/tmr1.c: 139:         T1CONbits.TMR1ON =1;
  5614  0DAF  140E               	bsf	14,0	;volatile
  5615                           
  5616                           ;mcc_generated_files/tmr1.c: 140:     }
  5617  0DB0  2DB5               	goto	i1l379
  5618  0DB1                     i1l2145:
  5619                           
  5620                           ;mcc_generated_files/tmr1.c: 142:     {;mcc_generated_files/tmr1.c: 144:         TMR1H =
      +                           (uint8_t)(timerVal >> 8);
  5621  0DB1  0871               	movf	TMR1_WriteTimer@timerVal+1,w
  5622  0DB2  008D               	movwf	13	;volatile
  5623  0DB3                     i1l2147:
  5624                           
  5625                           ;mcc_generated_files/tmr1.c: 145:         TMR1L = (uint8_t)timerVal;
  5626  0DB3  0870               	movf	TMR1_WriteTimer@timerVal,w
  5627  0DB4  008C               	movwf	12	;volatile
  5628  0DB5                     i1l379:
  5629  0DB5  0008               	return
  5630  0DB6                     __end_of_TMR1_WriteTimer:
  5631                           
  5632                           	psect	text21
  5633  0003                     __ptext21:	
  5634 ;; *************** function _TMR1_DefaultInterruptHandler *****************
  5635 ;; Defined at:
  5636 ;;		line 182 in file "mcc_generated_files/tmr1.c"
  5637 ;; Parameters:    Size  Location     Type
  5638 ;;		None
  5639 ;; Auto vars:     Size  Location     Type
  5640 ;;		None
  5641 ;; Return value:  Size  Location     Type
  5642 ;;                  1    wreg      void 
  5643 ;; Registers used:
  5644 ;;		None
  5645 ;; Tracked objects:
  5646 ;;		On entry : 0/0
  5647 ;;		On exit  : 0/0
  5648 ;;		Unchanged: 0/0
  5649 ;; Data sizes:     COMMON   BANK0   BANK1   BANK2   BANK3   BANK4   BANK5   BANK6   BANK7   BANK8   BANK9  BANK10  BANK1
      +1  BANK12
  5650 ;;      Params:         0       0       0       0       0       0       0       0       0       0       0       0       
      +0       0
  5651 ;;      Locals:         0       0       0       0       0       0       0       0       0       0       0       0       
      +0       0
  5652 ;;      Temps:          0       0       0       0       0       0       0       0       0       0       0       0       
      +0       0
  5653 ;;      Totals:         0       0       0       0       0       0       0       0       0       0       0       0       
      +0       0
  5654 ;;Total ram usage:        0 bytes
  5655 ;; Hardware stack levels used: 1
  5656 ;; This function calls:
  5657 ;;		Nothing
  5658 ;; This function is called by:
  5659 ;;		_TMR1_Initialize
  5660 ;;		_TMR1_ISR
  5661 ;; This function uses a non-reentrant model
  5662 ;;
  5663                           
  5664                           
  5665                           ;psect for function _TMR1_DefaultInterruptHandler
  5666  0003                     _TMR1_DefaultInterruptHandler:
  5667  0003                     i1l398:	
  5668                           ;incstack = 0
  5669                           ; Regs used in _TMR1_DefaultInterruptHandler: []
  5670                           
  5671  0003  0008               	return
  5672  0004                     __end_of_TMR1_DefaultInterruptHandler:
  5673                           
  5674                           	psect	text22
  5675  006E                     __ptext22:	
  5676 ;; *************** function _TMR1_ISR_ *****************
  5677 ;; Defined at:
  5678 ;;		line 707 in file "main.c"
  5679 ;; Parameters:    Size  Location     Type
  5680 ;;		None
  5681 ;; Auto vars:     Size  Location     Type
  5682 ;;  lights          1   17[BANK0 ] unsigned char 
  5683 ;;  i               2   24[BANK0 ] int 
  5684 ;;  lights          1    2[BANK0 ] unsigned char 
  5685 ;;  lights          1    0[BANK0 ] unsigned char 
  5686 ;;  i               2   11[BANK0 ] int 
  5687 ;;  i               2   15[BANK0 ] int 
  5688 ;;  i               2    5[BANK0 ] int 
  5689 ;;  i               2   22[BANK0 ] int 
  5690 ;;  lights          1    1[BANK0 ] unsigned char 
  5691 ;;  i               2   18[BANK0 ] int 
  5692 ;;  i               2    9[BANK0 ] int 
  5693 ;;  i               2    7[BANK0 ] int 
  5694 ;;  i               2    3[BANK0 ] int 
  5695 ;;  i               2   20[BANK0 ] int 
  5696 ;;  i               2   13[BANK0 ] int 
  5697 ;; Return value:  Size  Location     Type
  5698 ;;                  1    wreg      void 
  5699 ;; Registers used:
  5700 ;;		wreg, fsr1l, fsr1h, status,2, status,0
  5701 ;; Tracked objects:
  5702 ;;		On entry : 0/0
  5703 ;;		On exit  : 0/0
  5704 ;;		Unchanged: 0/0
  5705 ;; Data sizes:     COMMON   BANK0   BANK1   BANK2   BANK3   BANK4   BANK5   BANK6   BANK7   BANK8   BANK9  BANK10  BANK1
      +1  BANK12
  5706 ;;      Params:         0       0       0       0       0       0       0       0       0       0       0       0       
      +0       0
  5707 ;;      Locals:         0      26       0       0       0       0       0       0       0       0       0       0       
      +0       0
  5708 ;;      Temps:          2       0       0       0       0       0       0       0       0       0       0       0       
      +0       0
  5709 ;;      Totals:         2      26       0       0       0       0       0       0       0       0       0       0       
      +0       0
  5710 ;;Total ram usage:       28 bytes
  5711 ;; Hardware stack levels used: 1
  5712 ;; This function calls:
  5713 ;;		Nothing
  5714 ;; This function is called by:
  5715 ;;		_main
  5716 ;;		_TMR1_ISR
  5717 ;; This function uses a non-reentrant model
  5718 ;;
  5719                           
  5720                           
  5721                           ;psect for function _TMR1_ISR_
  5722  006E                     _TMR1_ISR_:
  5723  006E                     i1l2157:	
  5724                           ;incstack = 0
  5725                           ; Regs used in _TMR1_ISR_: [wreg+fsr1l+fsr1h+status,2+status,0]
  5726                           
  5727                           
  5728                           ;main.c: 709:     count++;
  5729  006E  3001               	movlw	1
  5730  006F  0140               	movlb	0	; select bank0
  5731  0070  07C8               	addwf	_count,f
  5732  0071  3000               	movlw	0
  5733  0072  3DC9               	addwfc	_count+1,f
  5734  0073                     i1l2159:
  5735                           
  5736                           ;main.c: 712:     if (silent_night_playing)
  5737  0073  0853               	movf	_silent_night_playing,w
  5738  0074  1903               	btfsc	3,2
  5739  0075  2877               	goto	u104_21
  5740  0076  2878               	goto	u104_20
  5741  0077                     u104_21:
  5742  0077  2962               	goto	i1l2211
  5743  0078                     u104_20:
  5744  0078                     i1l2161:
  5745                           
  5746                           ;main.c: 713:     {;main.c: 714:         if (count < 24 || ((count > 48) && (count < 96)
      +                          ))
  5747  0078  0849               	movf	_count+1,w
  5748  0079  3A80               	xorlw	128
  5749  007A  00F0               	movwf	??_TMR1_ISR_
  5750  007B  3080               	movlw	128
  5751  007C  0270               	subwf	??_TMR1_ISR_,w
  5752  007D  1D03               	skipz
  5753  007E  2881               	goto	u105_25
  5754  007F  3018               	movlw	24
  5755  0080  0248               	subwf	_count,w
  5756  0081                     u105_25:
  5757  0081  1C03               	skipc
  5758  0082  2884               	goto	u105_21
  5759  0083  2885               	goto	u105_20
  5760  0084                     u105_21:
  5761  0084  28A1               	goto	i1l2167
  5762  0085                     u105_20:
  5763  0085                     i1l2163:
  5764  0085  0140               	movlb	0	; select bank0
  5765  0086  0849               	movf	_count+1,w
  5766  0087  3A80               	xorlw	128
  5767  0088  00F0               	movwf	??_TMR1_ISR_
  5768  0089  3080               	movlw	128
  5769  008A  0270               	subwf	??_TMR1_ISR_,w
  5770  008B  1D03               	skipz
  5771  008C  288F               	goto	u106_25
  5772  008D  3031               	movlw	49
  5773  008E  0248               	subwf	_count,w
  5774  008F                     u106_25:
  5775  008F  1C03               	skipc
  5776  0090  2892               	goto	u106_21
  5777  0091  2893               	goto	u106_20
  5778  0092                     u106_21:
  5779  0092  28E2               	goto	i1l2181
  5780  0093                     u106_20:
  5781  0093                     i1l2165:
  5782  0093  0140               	movlb	0	; select bank0
  5783  0094  0849               	movf	_count+1,w
  5784  0095  3A80               	xorlw	128
  5785  0096  00F0               	movwf	??_TMR1_ISR_
  5786  0097  3080               	movlw	128
  5787  0098  0270               	subwf	??_TMR1_ISR_,w
  5788  0099  1D03               	skipz
  5789  009A  289D               	goto	u107_25
  5790  009B  3060               	movlw	96
  5791  009C  0248               	subwf	_count,w
  5792  009D                     u107_25:
  5793  009D  1803               	skipnc
  5794  009E  28A0               	goto	u107_21
  5795  009F  28A1               	goto	u107_20
  5796  00A0                     u107_21:
  5797  00A0  28E2               	goto	i1l2181
  5798  00A1                     u107_20:
  5799  00A1                     i1l2167:
  5800                           
  5801                           ;main.c: 715:         {;main.c: 716:             if (last_note != silent_night[count])
  5802  00A1  30DB               	movlw	219
  5803  00A2  00F0               	movwf	??_TMR1_ISR_
  5804  00A3  3022               	movlw	34
  5805  00A4  00F1               	movwf	??_TMR1_ISR_+1
  5806  00A5  0140               	movlb	0	; select bank0
  5807  00A6  0848               	movf	_count,w
  5808  00A7  0770               	addwf	??_TMR1_ISR_,w
  5809  00A8  0086               	movwf	6
  5810  00A9  0849               	movf	_count+1,w
  5811  00AA  3D71               	addwfc	??_TMR1_ISR_+1,w
  5812  00AB  0087               	movwf	7
  5813  00AC  0801               	movf	1,w
  5814  00AD  064F               	xorwf	_last_note,w
  5815  00AE  1903               	skipnz
  5816  00AF  28B1               	goto	u108_21
  5817  00B0  28B2               	goto	u108_20
  5818  00B1                     u108_21:
  5819  00B1  2962               	goto	i1l2211
  5820  00B2                     u108_20:
  5821  00B2                     i1l2169:
  5822                           
  5823                           ;main.c: 717:             {;main.c: 718:                 for (int i = 0; i < 7; i++)
  5824  00B2  01B2               	clrf	TMR1_ISR_@i
  5825  00B3  01B3               	clrf	TMR1_ISR_@i+1
  5826  00B4                     i1l2175:
  5827                           
  5828                           ;main.c: 719:                 {;main.c: 720:                     uint8_t lights = light_
      +                          array[i] >> 7;
  5829  00B4  0140               	movlb	0	; select bank0
  5830  00B5  0832               	movf	TMR1_ISR_@i,w
  5831  00B6  3E41               	addlw	(low (_light_array| 0))& (0+255)
  5832  00B7  0086               	movwf	6
  5833  00B8  0187               	clrf	7
  5834  00B9  0801               	movf	1,w
  5835  00BA  00F0               	movwf	??_TMR1_ISR_
  5836  00BB  3007               	movlw	7
  5837  00BC                     u109_25:
  5838  00BC  36F0               	lsrf	??_TMR1_ISR_,f
  5839  00BD  0B89               	decfsz	9,f
  5840  00BE  28BC               	goto	u109_25
  5841  00BF  0870               	movf	??_TMR1_ISR_,w
  5842  00C0  00F1               	movwf	??_TMR1_ISR_+1
  5843  00C1  0871               	movf	??_TMR1_ISR_+1,w
  5844  00C2  00A0               	movwf	TMR1_ISR_@lights
  5845                           
  5846                           ;main.c: 721:                     light_array[i] = (light_array[i] << 1) + lights;
  5847  00C3  0832               	movf	TMR1_ISR_@i,w
  5848  00C4  3E41               	addlw	(low (_light_array| 0))& (0+255)
  5849  00C5  0086               	movwf	6
  5850  00C6  0187               	clrf	7
  5851  00C7  3501               	lslf	1,w
  5852  00C8  0720               	addwf	TMR1_ISR_@lights,w
  5853  00C9  00F0               	movwf	??_TMR1_ISR_
  5854  00CA  0832               	movf	TMR1_ISR_@i,w
  5855  00CB  3E41               	addlw	(low (_light_array| 0))& (0+255)
  5856  00CC  0086               	movwf	6
  5857  00CD  0187               	clrf	7
  5858  00CE  0870               	movf	??_TMR1_ISR_,w
  5859  00CF  0081               	movwf	1
  5860  00D0                     i1l2177:
  5861                           
  5862                           ;main.c: 722:                 }
  5863  00D0  3001               	movlw	1
  5864  00D1  07B2               	addwf	TMR1_ISR_@i,f
  5865  00D2  3000               	movlw	0
  5866  00D3  3DB3               	addwfc	TMR1_ISR_@i+1,f
  5867  00D4                     i1l2179:
  5868  00D4  0833               	movf	TMR1_ISR_@i+1,w
  5869  00D5  3A80               	xorlw	128
  5870  00D6  00F0               	movwf	??_TMR1_ISR_
  5871  00D7  3080               	movlw	128
  5872  00D8  0270               	subwf	??_TMR1_ISR_,w
  5873  00D9  1D03               	skipz
  5874  00DA  28DD               	goto	u110_25
  5875  00DB  3007               	movlw	7
  5876  00DC  0232               	subwf	TMR1_ISR_@i,w
  5877  00DD                     u110_25:
  5878  00DD  1C03               	skipc
  5879  00DE  28E0               	goto	u110_21
  5880  00DF  28E1               	goto	u110_20
  5881  00E0                     u110_21:
  5882  00E0  28B4               	goto	i1l2175
  5883  00E1                     u110_20:
  5884  00E1  2962               	goto	i1l2211
  5885  00E2                     i1l2181:
  5886  00E2  0140               	movlb	0	; select bank0
  5887  00E3  0849               	movf	_count+1,w
  5888  00E4  3A80               	xorlw	128
  5889  00E5  00F0               	movwf	??_TMR1_ISR_
  5890  00E6  3080               	movlw	128
  5891  00E7  0270               	subwf	??_TMR1_ISR_,w
  5892  00E8  1D03               	skipz
  5893  00E9  28EC               	goto	u111_25
  5894  00EA  3078               	movlw	120
  5895  00EB  0248               	subwf	_count,w
  5896  00EC                     u111_25:
  5897  00EC  1C03               	skipc
  5898  00ED  28EF               	goto	u111_21
  5899  00EE  28F0               	goto	u111_20
  5900  00EF                     u111_21:
  5901  00EF  2923               	goto	i1l2197
  5902  00F0                     u111_20:
  5903  00F0                     i1l2183:
  5904  00F0  30DB               	movlw	219
  5905  00F1  00F0               	movwf	??_TMR1_ISR_
  5906  00F2  3022               	movlw	34
  5907  00F3  00F1               	movwf	??_TMR1_ISR_+1
  5908  00F4  0140               	movlb	0	; select bank0
  5909  00F5  0848               	movf	_count,w
  5910  00F6  0770               	addwf	??_TMR1_ISR_,w
  5911  00F7  0086               	movwf	6
  5912  00F8  0849               	movf	_count+1,w
  5913  00F9  3D71               	addwfc	??_TMR1_ISR_+1,w
  5914  00FA  0087               	movwf	7
  5915  00FB  0801               	movf	1,w
  5916  00FC  064F               	xorwf	_last_note,w
  5917  00FD  1903               	skipnz
  5918  00FE  2900               	goto	u112_21
  5919  00FF  2901               	goto	u112_20
  5920  0100                     u112_21:
  5921  0100  2923               	goto	i1l2197
  5922  0101                     u112_20:
  5923  0101                     i1l2185:
  5924                           
  5925                           ;main.c: 726:         {;main.c: 727:             for (int i = 0; i < 7; i++)
  5926  0101  01AD               	clrf	TMR1_ISR_@i_1209
  5927  0102  01AE               	clrf	TMR1_ISR_@i_1209+1
  5928  0103                     i1l2191:
  5929                           
  5930                           ;main.c: 728:             {;main.c: 729:                 light_array[i] = (light_array[i
      +                          ] << 1) + 1;
  5931  0103  0140               	movlb	0	; select bank0
  5932  0104  082D               	movf	TMR1_ISR_@i_1209,w
  5933  0105  3E41               	addlw	(low (_light_array| 0))& (0+255)
  5934  0106  0086               	movwf	6
  5935  0107  0187               	clrf	7
  5936  0108  1403               	setc
  5937  0109  0D01               	rlf	1,w
  5938  010A  00F0               	movwf	??_TMR1_ISR_
  5939  010B  082D               	movf	TMR1_ISR_@i_1209,w
  5940  010C  3E41               	addlw	(low (_light_array| 0))& (0+255)
  5941  010D  0086               	movwf	6
  5942  010E  0187               	clrf	7
  5943  010F  0870               	movf	??_TMR1_ISR_,w
  5944  0110  0081               	movwf	1
  5945  0111                     i1l2193:
  5946                           
  5947                           ;main.c: 730:             }
  5948  0111  3001               	movlw	1
  5949  0112  07AD               	addwf	TMR1_ISR_@i_1209,f
  5950  0113  3000               	movlw	0
  5951  0114  3DAE               	addwfc	TMR1_ISR_@i_1209+1,f
  5952  0115                     i1l2195:
  5953  0115  082E               	movf	TMR1_ISR_@i_1209+1,w
  5954  0116  3A80               	xorlw	128
  5955  0117  00F0               	movwf	??_TMR1_ISR_
  5956  0118  3080               	movlw	128
  5957  0119  0270               	subwf	??_TMR1_ISR_,w
  5958  011A  1D03               	skipz
  5959  011B  291E               	goto	u113_25
  5960  011C  3007               	movlw	7
  5961  011D  022D               	subwf	TMR1_ISR_@i_1209,w
  5962  011E                     u113_25:
  5963  011E  1C03               	skipc
  5964  011F  2921               	goto	u113_21
  5965  0120  2922               	goto	u113_20
  5966  0121                     u113_21:
  5967  0121  2903               	goto	i1l2191
  5968  0122                     u113_20:
  5969  0122  2962               	goto	i1l2211
  5970  0123                     i1l2197:
  5971  0123  0140               	movlb	0	; select bank0
  5972  0124  0849               	movf	_count+1,w
  5973  0125  3A80               	xorlw	128
  5974  0126  00F0               	movwf	??_TMR1_ISR_
  5975  0127  3080               	movlw	128
  5976  0128  0270               	subwf	??_TMR1_ISR_,w
  5977  0129  1D03               	skipz
  5978  012A  292D               	goto	u114_25
  5979  012B  3078               	movlw	120
  5980  012C  0248               	subwf	_count,w
  5981  012D                     u114_25:
  5982  012D  1803               	skipnc
  5983  012E  2930               	goto	u114_21
  5984  012F  2931               	goto	u114_20
  5985  0130                     u114_21:
  5986  0130  2962               	goto	i1l604
  5987  0131                     u114_20:
  5988  0131                     i1l2199:
  5989                           
  5990                           ;main.c: 733:         {;main.c: 734:             for (int i = 0; i < 7; i++)
  5991  0131  0140               	movlb	0	; select bank0
  5992  0132  01B4               	clrf	TMR1_ISR_@i_1210
  5993  0133  01B5               	clrf	TMR1_ISR_@i_1210+1
  5994  0134                     i1l2205:
  5995                           
  5996                           ;main.c: 735:             {;main.c: 736:                 uint8_t lights = light_array[i]
      +                           >> 7;
  5997  0134  0140               	movlb	0	; select bank0
  5998  0135  0834               	movf	TMR1_ISR_@i_1210,w
  5999  0136  3E41               	addlw	(low (_light_array| 0))& (0+255)
  6000  0137  0086               	movwf	6
  6001  0138  0187               	clrf	7
  6002  0139  0801               	movf	1,w
  6003  013A  00F0               	movwf	??_TMR1_ISR_
  6004  013B  3007               	movlw	7
  6005  013C                     u115_25:
  6006  013C  36F0               	lsrf	??_TMR1_ISR_,f
  6007  013D  0B89               	decfsz	9,f
  6008  013E  293C               	goto	u115_25
  6009  013F  0870               	movf	??_TMR1_ISR_,w
  6010  0140  00F1               	movwf	??_TMR1_ISR_+1
  6011  0141  0871               	movf	??_TMR1_ISR_+1,w
  6012  0142  00A1               	movwf	TMR1_ISR_@lights_1211
  6013                           
  6014                           ;main.c: 737:                 light_array[i] = (light_array[i] << 1) + lights;
  6015  0143  0834               	movf	TMR1_ISR_@i_1210,w
  6016  0144  3E41               	addlw	(low (_light_array| 0))& (0+255)
  6017  0145  0086               	movwf	6
  6018  0146  0187               	clrf	7
  6019  0147  3501               	lslf	1,w
  6020  0148  0721               	addwf	TMR1_ISR_@lights_1211,w
  6021  0149  00F0               	movwf	??_TMR1_ISR_
  6022  014A  0834               	movf	TMR1_ISR_@i_1210,w
  6023  014B  3E41               	addlw	(low (_light_array| 0))& (0+255)
  6024  014C  0086               	movwf	6
  6025  014D  0187               	clrf	7
  6026  014E  0870               	movf	??_TMR1_ISR_,w
  6027  014F  0081               	movwf	1
  6028  0150                     i1l2207:
  6029                           
  6030                           ;main.c: 738:             }
  6031  0150  3001               	movlw	1
  6032  0151  07B4               	addwf	TMR1_ISR_@i_1210,f
  6033  0152  3000               	movlw	0
  6034  0153  3DB5               	addwfc	TMR1_ISR_@i_1210+1,f
  6035  0154                     i1l2209:
  6036  0154  0835               	movf	TMR1_ISR_@i_1210+1,w
  6037  0155  3A80               	xorlw	128
  6038  0156  00F0               	movwf	??_TMR1_ISR_
  6039  0157  3080               	movlw	128
  6040  0158  0270               	subwf	??_TMR1_ISR_,w
  6041  0159  1D03               	skipz
  6042  015A  295D               	goto	u116_25
  6043  015B  3007               	movlw	7
  6044  015C  0234               	subwf	TMR1_ISR_@i_1210,w
  6045  015D                     u116_25:
  6046  015D  1C03               	skipc
  6047  015E  2960               	goto	u116_21
  6048  015F  2961               	goto	u116_20
  6049  0160                     u116_21:
  6050  0160  2934               	goto	i1l2205
  6051  0161                     u116_20:
  6052  0161  2962               	goto	i1l2211
  6053  0162                     i1l604:
  6054  0162                     i1l2211:
  6055                           
  6056                           ;main.c: 743:     if (song2_playing)
  6057  0162  0140               	movlb	0	; select bank0
  6058  0163  0851               	movf	_song2_playing,w
  6059  0164  1903               	btfsc	3,2
  6060  0165  2967               	goto	u117_21
  6061  0166  2968               	goto	u117_20
  6062  0167                     u117_21:
  6063  0167  2A87               	goto	i1l2287
  6064  0168                     u117_20:
  6065  0168                     i1l2213:
  6066                           
  6067                           ;main.c: 744:     {;main.c: 863:         if (((song2[count] == 0) ||(song2[count] == 50)
      +                          ) && (vibes_count3 < 8))
  6068  0168  302B               	movlw	43
  6069  0169  00F0               	movwf	??_TMR1_ISR_
  6070  016A  3022               	movlw	34
  6071  016B  00F1               	movwf	??_TMR1_ISR_+1
  6072  016C  0848               	movf	_count,w
  6073  016D  0770               	addwf	??_TMR1_ISR_,w
  6074  016E  0086               	movwf	6
  6075  016F  0849               	movf	_count+1,w
  6076  0170  3D71               	addwfc	??_TMR1_ISR_+1,w
  6077  0171  0087               	movwf	7
  6078  0172  0801               	movf	1,w
  6079  0173  1903               	btfsc	3,2
  6080  0174  2976               	goto	u118_21
  6081  0175  2977               	goto	u118_20
  6082  0176                     u118_21:
  6083  0176  2987               	goto	i1l2217
  6084  0177                     u118_20:
  6085  0177                     i1l2215:
  6086  0177  302B               	movlw	43
  6087  0178  00F0               	movwf	??_TMR1_ISR_
  6088  0179  3022               	movlw	34
  6089  017A  00F1               	movwf	??_TMR1_ISR_+1
  6090  017B  0848               	movf	_count,w
  6091  017C  0770               	addwf	??_TMR1_ISR_,w
  6092  017D  0086               	movwf	6
  6093  017E  0849               	movf	_count+1,w
  6094  017F  3D71               	addwfc	??_TMR1_ISR_+1,w
  6095  0180  0087               	movwf	7
  6096  0181  3032               	movlw	50
  6097  0182  0601               	xorwf	1,w
  6098  0183  1D03               	btfss	3,2
  6099  0184  2986               	goto	u119_21
  6100  0185  2987               	goto	u119_20
  6101  0186                     u119_21:
  6102  0186  29AB               	goto	i1l2231
  6103  0187                     u119_20:
  6104  0187                     i1l2217:
  6105  0187  3008               	movlw	8
  6106  0188  024B               	subwf	_vibes_count3,w
  6107  0189  1803               	skipnc
  6108  018A  298C               	goto	u120_21
  6109  018B  298D               	goto	u120_20
  6110  018C                     u120_21:
  6111  018C  29AB               	goto	i1l2231
  6112  018D                     u120_20:
  6113  018D                     i1l2219:
  6114                           
  6115                           ;main.c: 864:         {;main.c: 865:             for (int i = 0; i < 7; i++)
  6116  018D  01A3               	clrf	TMR1_ISR_@i_1212
  6117  018E  01A4               	clrf	TMR1_ISR_@i_1212+1
  6118  018F                     i1l2225:
  6119                           
  6120                           ;main.c: 866:             {;main.c: 867:                 light_array[i] = 0xFF;
  6121  018F  30FF               	movlw	255
  6122  0190  00F0               	movwf	??_TMR1_ISR_
  6123  0191  0140               	movlb	0	; select bank0
  6124  0192  0823               	movf	TMR1_ISR_@i_1212,w
  6125  0193  3E41               	addlw	(low (_light_array| 0))& (0+255)
  6126  0194  0086               	movwf	6
  6127  0195  0187               	clrf	7
  6128  0196  0870               	movf	??_TMR1_ISR_,w
  6129  0197  0081               	movwf	1
  6130  0198                     i1l2227:
  6131                           
  6132                           ;main.c: 868:             }
  6133  0198  3001               	movlw	1
  6134  0199  07A3               	addwf	TMR1_ISR_@i_1212,f
  6135  019A  3000               	movlw	0
  6136  019B  3DA4               	addwfc	TMR1_ISR_@i_1212+1,f
  6137  019C                     i1l2229:
  6138  019C  0824               	movf	TMR1_ISR_@i_1212+1,w
  6139  019D  3A80               	xorlw	128
  6140  019E  00F0               	movwf	??_TMR1_ISR_
  6141  019F  3080               	movlw	128
  6142  01A0  0270               	subwf	??_TMR1_ISR_,w
  6143  01A1  1D03               	skipz
  6144  01A2  29A5               	goto	u121_25
  6145  01A3  3007               	movlw	7
  6146  01A4  0223               	subwf	TMR1_ISR_@i_1212,w
  6147  01A5                     u121_25:
  6148  01A5  1C03               	skipc
  6149  01A6  29A8               	goto	u121_21
  6150  01A7  29A9               	goto	u121_20
  6151  01A8                     u121_21:
  6152  01A8  298F               	goto	i1l2225
  6153  01A9                     u121_20:
  6154  01A9  2A7B               	goto	i1l2281
  6155  01AA                     i1l617:
  6156                           
  6157                           ;main.c: 869:         }
  6158  01AA  2A7B               	goto	i1l2281
  6159  01AB                     i1l2231:
  6160  01AB  0849               	movf	_count+1,w
  6161  01AC  3A80               	xorlw	128
  6162  01AD  00F0               	movwf	??_TMR1_ISR_
  6163  01AE  3080               	movlw	128
  6164  01AF  0270               	subwf	??_TMR1_ISR_,w
  6165  01B0  1D03               	skipz
  6166  01B1  29B4               	goto	u122_25
  6167  01B2  3080               	movlw	128
  6168  01B3  0248               	subwf	_count,w
  6169  01B4                     u122_25:
  6170  01B4  1803               	skipnc
  6171  01B5  29B7               	goto	u122_21
  6172  01B6  29B8               	goto	u122_20
  6173  01B7                     u122_21:
  6174  01B7  2A7B               	goto	i1l2281
  6175  01B8                     u122_20:
  6176  01B8                     i1l2233:
  6177                           
  6178                           ;main.c: 871:         {;main.c: 872:             if (vibes_count3 == 4)
  6179  01B8  3004               	movlw	4
  6180  01B9  0140               	movlb	0	; select bank0
  6181  01BA  064B               	xorwf	_vibes_count3,w
  6182  01BB  1D03               	btfss	3,2
  6183  01BC  29BE               	goto	u123_21
  6184  01BD  29BF               	goto	u123_20
  6185  01BE                     u123_21:
  6186  01BE  29DC               	goto	i1l2237
  6187  01BF                     u123_20:
  6188  01BF                     i1l2235:
  6189                           
  6190                           ;main.c: 873:             {;main.c: 874:                 light_array[0] = 0x88;
  6191  01BF  3088               	movlw	136
  6192  01C0  00F0               	movwf	??_TMR1_ISR_
  6193  01C1  0870               	movf	??_TMR1_ISR_,w
  6194  01C2  00C1               	movwf	_light_array
  6195                           
  6196                           ;main.c: 875:                 light_array[1] = 0x44;
  6197  01C3  3044               	movlw	68
  6198  01C4  00F0               	movwf	??_TMR1_ISR_
  6199  01C5  0870               	movf	??_TMR1_ISR_,w
  6200  01C6  00C2               	movwf	_light_array+1
  6201                           
  6202                           ;main.c: 876:                 light_array[2] = 0x22;
  6203  01C7  3022               	movlw	34
  6204  01C8  00F0               	movwf	??_TMR1_ISR_
  6205  01C9  0870               	movf	??_TMR1_ISR_,w
  6206  01CA  00C3               	movwf	_light_array+2
  6207                           
  6208                           ;main.c: 877:                 light_array[3] = 0x11;
  6209  01CB  3011               	movlw	17
  6210  01CC  00F0               	movwf	??_TMR1_ISR_
  6211  01CD  0870               	movf	??_TMR1_ISR_,w
  6212  01CE  00C4               	movwf	_light_array+3
  6213                           
  6214                           ;main.c: 878:                 light_array[4] = 0x88;
  6215  01CF  3088               	movlw	136
  6216  01D0  00F0               	movwf	??_TMR1_ISR_
  6217  01D1  0870               	movf	??_TMR1_ISR_,w
  6218  01D2  00C5               	movwf	_light_array+4
  6219                           
  6220                           ;main.c: 879:                 light_array[5] = 0x44;
  6221  01D3  3044               	movlw	68
  6222  01D4  00F0               	movwf	??_TMR1_ISR_
  6223  01D5  0870               	movf	??_TMR1_ISR_,w
  6224  01D6  00C6               	movwf	_light_array+5
  6225                           
  6226                           ;main.c: 880:                 light_array[6] = 0x22;
  6227  01D7  3022               	movlw	34
  6228  01D8  00F0               	movwf	??_TMR1_ISR_
  6229  01D9  0870               	movf	??_TMR1_ISR_,w
  6230  01DA  00C7               	movwf	_light_array+6
  6231                           
  6232                           ;main.c: 881:             }
  6233  01DB  2A7B               	goto	i1l2281
  6234  01DC                     i1l2237:
  6235  01DC  300E               	movlw	14
  6236  01DD  024B               	subwf	_vibes_count3,w
  6237  01DE  1803               	skipnc
  6238  01DF  29E1               	goto	u124_21
  6239  01E0  29E2               	goto	u124_20
  6240  01E1                     u124_21:
  6241  01E1  2A22               	goto	i1l2253
  6242  01E2                     u124_20:
  6243  01E2                     i1l2239:
  6244  01E2  302B               	movlw	43
  6245  01E3  00F0               	movwf	??_TMR1_ISR_
  6246  01E4  3022               	movlw	34
  6247  01E5  00F1               	movwf	??_TMR1_ISR_+1
  6248  01E6  0848               	movf	_count,w
  6249  01E7  0770               	addwf	??_TMR1_ISR_,w
  6250  01E8  0086               	movwf	6
  6251  01E9  0849               	movf	_count+1,w
  6252  01EA  3D71               	addwfc	??_TMR1_ISR_+1,w
  6253  01EB  0087               	movwf	7
  6254  01EC  0801               	movf	1,w
  6255  01ED  064F               	xorwf	_last_note,w
  6256  01EE  1903               	skipnz
  6257  01EF  29F1               	goto	u125_21
  6258  01F0  29F2               	goto	u125_20
  6259  01F1                     u125_21:
  6260  01F1  2A22               	goto	i1l2253
  6261  01F2                     u125_20:
  6262  01F2                     i1l2241:
  6263                           
  6264                           ;main.c: 883:             {;main.c: 884:                 for (int i = 0; i < 7; i++)
  6265  01F2  01B6               	clrf	TMR1_ISR_@i_1213
  6266  01F3  01B7               	clrf	TMR1_ISR_@i_1213+1
  6267  01F4                     i1l2247:
  6268                           
  6269                           ;main.c: 885:                 {;main.c: 886:                     uint8_t lights = light_
      +                          array[i] >> 7;
  6270  01F4  0140               	movlb	0	; select bank0
  6271  01F5  0836               	movf	TMR1_ISR_@i_1213,w
  6272  01F6  3E41               	addlw	(low (_light_array| 0))& (0+255)
  6273  01F7  0086               	movwf	6
  6274  01F8  0187               	clrf	7
  6275  01F9  0801               	movf	1,w
  6276  01FA  00F0               	movwf	??_TMR1_ISR_
  6277  01FB  3007               	movlw	7
  6278  01FC                     u126_25:
  6279  01FC  36F0               	lsrf	??_TMR1_ISR_,f
  6280  01FD  0B89               	decfsz	9,f
  6281  01FE  29FC               	goto	u126_25
  6282  01FF  0870               	movf	??_TMR1_ISR_,w
  6283  0200  00F1               	movwf	??_TMR1_ISR_+1
  6284  0201  0871               	movf	??_TMR1_ISR_+1,w
  6285  0202  00A2               	movwf	TMR1_ISR_@lights_1214
  6286                           
  6287                           ;main.c: 887:                     light_array[i] = (light_array[i] << 1) + lights;
  6288  0203  0836               	movf	TMR1_ISR_@i_1213,w
  6289  0204  3E41               	addlw	(low (_light_array| 0))& (0+255)
  6290  0205  0086               	movwf	6
  6291  0206  0187               	clrf	7
  6292  0207  3501               	lslf	1,w
  6293  0208  0722               	addwf	TMR1_ISR_@lights_1214,w
  6294  0209  00F0               	movwf	??_TMR1_ISR_
  6295  020A  0836               	movf	TMR1_ISR_@i_1213,w
  6296  020B  3E41               	addlw	(low (_light_array| 0))& (0+255)
  6297  020C  0086               	movwf	6
  6298  020D  0187               	clrf	7
  6299  020E  0870               	movf	??_TMR1_ISR_,w
  6300  020F  0081               	movwf	1
  6301  0210                     i1l2249:
  6302                           
  6303                           ;main.c: 888:                 }
  6304  0210  3001               	movlw	1
  6305  0211  07B6               	addwf	TMR1_ISR_@i_1213,f
  6306  0212  3000               	movlw	0
  6307  0213  3DB7               	addwfc	TMR1_ISR_@i_1213+1,f
  6308  0214                     i1l2251:
  6309  0214  0837               	movf	TMR1_ISR_@i_1213+1,w
  6310  0215  3A80               	xorlw	128
  6311  0216  00F0               	movwf	??_TMR1_ISR_
  6312  0217  3080               	movlw	128
  6313  0218  0270               	subwf	??_TMR1_ISR_,w
  6314  0219  1D03               	skipz
  6315  021A  2A1D               	goto	u127_25
  6316  021B  3007               	movlw	7
  6317  021C  0236               	subwf	TMR1_ISR_@i_1213,w
  6318  021D                     u127_25:
  6319  021D  1C03               	skipc
  6320  021E  2A20               	goto	u127_21
  6321  021F  2A21               	goto	u127_20
  6322  0220                     u127_21:
  6323  0220  29F4               	goto	i1l2247
  6324  0221                     u127_20:
  6325  0221  2A7B               	goto	i1l2281
  6326  0222                     i1l2253:
  6327  0222  300E               	movlw	14
  6328  0223  064B               	xorwf	_vibes_count3,w
  6329  0224  1D03               	btfss	3,2
  6330  0225  2A27               	goto	u128_21
  6331  0226  2A28               	goto	u128_20
  6332  0227                     u128_21:
  6333  0227  2A45               	goto	i1l2267
  6334  0228                     u128_20:
  6335  0228                     i1l2255:
  6336                           
  6337                           ;main.c: 891:             {;main.c: 892:                 for (int i = 0; i < 7; i++)
  6338  0228  01A5               	clrf	TMR1_ISR_@i_1215
  6339  0229  01A6               	clrf	TMR1_ISR_@i_1215+1
  6340  022A                     i1l2261:
  6341                           
  6342                           ;main.c: 893:                 {;main.c: 894:                     light_array[i] = 0x7F;
  6343  022A  307F               	movlw	127
  6344  022B  00F0               	movwf	??_TMR1_ISR_
  6345  022C  0140               	movlb	0	; select bank0
  6346  022D  0825               	movf	TMR1_ISR_@i_1215,w
  6347  022E  3E41               	addlw	(low (_light_array| 0))& (0+255)
  6348  022F  0086               	movwf	6
  6349  0230  0187               	clrf	7
  6350  0231  0870               	movf	??_TMR1_ISR_,w
  6351  0232  0081               	movwf	1
  6352  0233                     i1l2263:
  6353                           
  6354                           ;main.c: 895:                 }
  6355  0233  3001               	movlw	1
  6356  0234  07A5               	addwf	TMR1_ISR_@i_1215,f
  6357  0235  3000               	movlw	0
  6358  0236  3DA6               	addwfc	TMR1_ISR_@i_1215+1,f
  6359  0237                     i1l2265:
  6360  0237  0826               	movf	TMR1_ISR_@i_1215+1,w
  6361  0238  3A80               	xorlw	128
  6362  0239  00F0               	movwf	??_TMR1_ISR_
  6363  023A  3080               	movlw	128
  6364  023B  0270               	subwf	??_TMR1_ISR_,w
  6365  023C  1D03               	skipz
  6366  023D  2A40               	goto	u129_25
  6367  023E  3007               	movlw	7
  6368  023F  0225               	subwf	TMR1_ISR_@i_1215,w
  6369  0240                     u129_25:
  6370  0240  1C03               	skipc
  6371  0241  2A43               	goto	u129_21
  6372  0242  2A44               	goto	u129_20
  6373  0243                     u129_21:
  6374  0243  2A2A               	goto	i1l2261
  6375  0244                     u129_20:
  6376  0244  2A7B               	goto	i1l2281
  6377  0245                     i1l2267:
  6378  0245  302B               	movlw	43
  6379  0246  00F0               	movwf	??_TMR1_ISR_
  6380  0247  3022               	movlw	34
  6381  0248  00F1               	movwf	??_TMR1_ISR_+1
  6382  0249  0848               	movf	_count,w
  6383  024A  0770               	addwf	??_TMR1_ISR_,w
  6384  024B  0086               	movwf	6
  6385  024C  0849               	movf	_count+1,w
  6386  024D  3D71               	addwfc	??_TMR1_ISR_+1,w
  6387  024E  0087               	movwf	7
  6388  024F  0801               	movf	1,w
  6389  0250  064F               	xorwf	_last_note,w
  6390  0251  1903               	skipnz
  6391  0252  2A54               	goto	u130_21
  6392  0253  2A55               	goto	u130_20
  6393  0254                     u130_21:
  6394  0254  29AA               	goto	i1l617
  6395  0255                     u130_20:
  6396  0255                     i1l2269:
  6397                           
  6398                           ;main.c: 898:             {;main.c: 899:                 for (int i = 0; i < 7; i++)
  6399  0255  01AF               	clrf	TMR1_ISR_@i_1216
  6400  0256  01B0               	clrf	TMR1_ISR_@i_1216+1
  6401  0257                     i1l2275:
  6402                           
  6403                           ;main.c: 900:                 {;main.c: 901:                     light_array[i] = light_
      +                          array[i] >> 2;
  6404  0257  0140               	movlb	0	; select bank0
  6405  0258  082F               	movf	TMR1_ISR_@i_1216,w
  6406  0259  3E41               	addlw	(low (_light_array| 0))& (0+255)
  6407  025A  0086               	movwf	6
  6408  025B  0187               	clrf	7
  6409  025C  0801               	movf	1,w
  6410  025D  00F0               	movwf	??_TMR1_ISR_
  6411  025E  3002               	movlw	2
  6412  025F                     u131_25:
  6413  025F  36F0               	lsrf	??_TMR1_ISR_,f
  6414  0260  0B89               	decfsz	9,f
  6415  0261  2A5F               	goto	u131_25
  6416  0262  0870               	movf	??_TMR1_ISR_,w
  6417  0263  00F1               	movwf	??_TMR1_ISR_+1
  6418  0264  082F               	movf	TMR1_ISR_@i_1216,w
  6419  0265  3E41               	addlw	(low (_light_array| 0))& (0+255)
  6420  0266  0086               	movwf	6
  6421  0267  0187               	clrf	7
  6422  0268  0871               	movf	??_TMR1_ISR_+1,w
  6423  0269  0081               	movwf	1
  6424  026A                     i1l2277:
  6425                           
  6426                           ;main.c: 902:                 }
  6427  026A  3001               	movlw	1
  6428  026B  07AF               	addwf	TMR1_ISR_@i_1216,f
  6429  026C  3000               	movlw	0
  6430  026D  3DB0               	addwfc	TMR1_ISR_@i_1216+1,f
  6431  026E                     i1l2279:
  6432  026E  0830               	movf	TMR1_ISR_@i_1216+1,w
  6433  026F  3A80               	xorlw	128
  6434  0270  00F0               	movwf	??_TMR1_ISR_
  6435  0271  3080               	movlw	128
  6436  0272  0270               	subwf	??_TMR1_ISR_,w
  6437  0273  1D03               	skipz
  6438  0274  2A77               	goto	u132_25
  6439  0275  3007               	movlw	7
  6440  0276  022F               	subwf	TMR1_ISR_@i_1216,w
  6441  0277                     u132_25:
  6442  0277  1C03               	skipc
  6443  0278  2A7A               	goto	u132_21
  6444  0279  2A7B               	goto	u132_20
  6445  027A                     u132_21:
  6446  027A  2A57               	goto	i1l2275
  6447  027B                     u132_20:
  6448  027B                     i1l2281:
  6449                           
  6450                           ;main.c: 905:         vibes_count3++;
  6451  027B  3001               	movlw	1
  6452  027C  00F0               	movwf	??_TMR1_ISR_
  6453  027D  0870               	movf	??_TMR1_ISR_,w
  6454  027E  0140               	movlb	0	; select bank0
  6455  027F  07CB               	addwf	_vibes_count3,f
  6456  0280                     i1l2283:
  6457                           
  6458                           ;main.c: 906:         if (vibes_count3 > 31) vibes_count3 = 0;
  6459  0280  3020               	movlw	32
  6460  0281  024B               	subwf	_vibes_count3,w
  6461  0282  1C03               	skipc
  6462  0283  2A85               	goto	u133_21
  6463  0284  2A86               	goto	u133_20
  6464  0285                     u133_21:
  6465  0285  2A87               	goto	i1l2287
  6466  0286                     u133_20:
  6467  0286                     i1l2285:
  6468  0286  01CB               	clrf	_vibes_count3
  6469  0287                     i1l2287:
  6470                           
  6471                           ;main.c: 913:     if (song3_playing)
  6472  0287  0852               	movf	_song3_playing,w
  6473  0288  1903               	btfsc	3,2
  6474  0289  2A8B               	goto	u134_21
  6475  028A  2A8C               	goto	u134_20
  6476  028B                     u134_21:
  6477  028B  2B5E               	goto	i1l2355
  6478  028C                     u134_20:
  6479  028C                     i1l2289:
  6480                           
  6481                           ;main.c: 914:     {;main.c: 986:        if (song3[count] == 212)
  6482  028C  0848               	movf	_count,w
  6483  028D  3EC0               	addlw	(low (_song3| 0))& (0+255)
  6484  028E  0086               	movwf	6
  6485  028F  0187               	clrf	7
  6486  0290  30D4               	movlw	212
  6487  0291  0601               	xorwf	1,w
  6488  0292  1D03               	btfss	3,2
  6489  0293  2A95               	goto	u135_21
  6490  0294  2A96               	goto	u135_20
  6491  0295                     u135_21:
  6492  0295  2AB1               	goto	i1l2303
  6493  0296                     u135_20:
  6494  0296                     i1l2291:
  6495                           
  6496                           ;main.c: 987:        {;main.c: 988:            for (int i = 0; i < 7; i++)
  6497  0296  01A7               	clrf	TMR1_ISR_@i_1217
  6498  0297  01A8               	clrf	TMR1_ISR_@i_1217+1
  6499  0298                     i1l2293:
  6500  0298  0828               	movf	TMR1_ISR_@i_1217+1,w
  6501  0299  3A80               	xorlw	128
  6502  029A  00F0               	movwf	??_TMR1_ISR_
  6503  029B  3080               	movlw	128
  6504  029C  0270               	subwf	??_TMR1_ISR_,w
  6505  029D  1D03               	skipz
  6506  029E  2AA1               	goto	u136_25
  6507  029F  3007               	movlw	7
  6508  02A0  0227               	subwf	TMR1_ISR_@i_1217,w
  6509  02A1                     u136_25:
  6510  02A1  1C03               	skipc
  6511  02A2  2AA4               	goto	u136_21
  6512  02A3  2AA5               	goto	u136_20
  6513  02A4                     u136_21:
  6514  02A4  2AA6               	goto	i1l2297
  6515  02A5                     u136_20:
  6516  02A5  2B5E               	goto	i1l2355
  6517  02A6                     i1l2297:
  6518                           
  6519                           ;main.c: 989:             {;main.c: 990:                 light_array[i] = 0x00;
  6520  02A6  0140               	movlb	0	; select bank0
  6521  02A7  0827               	movf	TMR1_ISR_@i_1217,w
  6522  02A8  3E41               	addlw	(low (_light_array| 0))& (0+255)
  6523  02A9  0086               	movwf	6
  6524  02AA  0187               	clrf	7
  6525  02AB  0181               	clrf	1
  6526  02AC                     i1l2299:
  6527                           
  6528                           ;main.c: 991:             }
  6529  02AC  3001               	movlw	1
  6530  02AD  07A7               	addwf	TMR1_ISR_@i_1217,f
  6531  02AE  3000               	movlw	0
  6532  02AF  3DA8               	addwfc	TMR1_ISR_@i_1217+1,f
  6533  02B0  2A98               	goto	i1l2293
  6534  02B1                     i1l2303:
  6535  02B1  0848               	movf	_count,w
  6536  02B2  3EC0               	addlw	(low (_song3| 0))& (0+255)
  6537  02B3  0086               	movwf	6
  6538  02B4  0187               	clrf	7
  6539  02B5  0801               	movf	1,w
  6540  02B6  1D03               	btfss	3,2
  6541  02B7  2AB9               	goto	u137_21
  6542  02B8  2ABA               	goto	u137_20
  6543  02B9                     u137_21:
  6544  02B9  2AD8               	goto	i1l2317
  6545  02BA                     u137_20:
  6546  02BA                     i1l2305:
  6547                           
  6548                           ;main.c: 994:        {;main.c: 995:            for (int i = 0; i < 7; i++)
  6549  02BA  01A9               	clrf	TMR1_ISR_@i_1218
  6550  02BB  01AA               	clrf	TMR1_ISR_@i_1218+1
  6551  02BC                     i1l2307:
  6552  02BC  082A               	movf	TMR1_ISR_@i_1218+1,w
  6553  02BD  3A80               	xorlw	128
  6554  02BE  00F0               	movwf	??_TMR1_ISR_
  6555  02BF  3080               	movlw	128
  6556  02C0  0270               	subwf	??_TMR1_ISR_,w
  6557  02C1  1D03               	skipz
  6558  02C2  2AC5               	goto	u138_25
  6559  02C3  3007               	movlw	7
  6560  02C4  0229               	subwf	TMR1_ISR_@i_1218,w
  6561  02C5                     u138_25:
  6562  02C5  1C03               	skipc
  6563  02C6  2AC8               	goto	u138_21
  6564  02C7  2AC9               	goto	u138_20
  6565  02C8                     u138_21:
  6566  02C8  2ACA               	goto	i1l2311
  6567  02C9                     u138_20:
  6568  02C9  2B5E               	goto	i1l2355
  6569  02CA                     i1l2311:
  6570                           
  6571                           ;main.c: 996:             {;main.c: 997:                 light_array[i] = 0xFF;
  6572  02CA  30FF               	movlw	255
  6573  02CB  00F0               	movwf	??_TMR1_ISR_
  6574  02CC  0140               	movlb	0	; select bank0
  6575  02CD  0829               	movf	TMR1_ISR_@i_1218,w
  6576  02CE  3E41               	addlw	(low (_light_array| 0))& (0+255)
  6577  02CF  0086               	movwf	6
  6578  02D0  0187               	clrf	7
  6579  02D1  0870               	movf	??_TMR1_ISR_,w
  6580  02D2  0081               	movwf	1
  6581  02D3                     i1l2313:
  6582                           
  6583                           ;main.c: 998:             }
  6584  02D3  3001               	movlw	1
  6585  02D4  07A9               	addwf	TMR1_ISR_@i_1218,f
  6586  02D5  3000               	movlw	0
  6587  02D6  3DAA               	addwfc	TMR1_ISR_@i_1218+1,f
  6588  02D7  2ABC               	goto	i1l2307
  6589  02D8                     i1l2317:
  6590                           
  6591                           ;main.c: 1001:        {;main.c: 1002:            if ((light_array[1] == 0x00) || (light_
      +                          array[1] == 0xFF))
  6592  02D8  0842               	movf	_light_array+1,w
  6593  02D9  1903               	btfsc	3,2
  6594  02DA  2ADC               	goto	u139_21
  6595  02DB  2ADD               	goto	u139_20
  6596  02DC                     u139_21:
  6597  02DC  2AE2               	goto	i1l2321
  6598  02DD                     u139_20:
  6599  02DD                     i1l2319:
  6600  02DD  0A42               	incf	_light_array+1,w
  6601  02DE  1D03               	btfss	3,2
  6602  02DF  2AE1               	goto	u140_21
  6603  02E0  2AE2               	goto	u140_20
  6604  02E1                     u140_21:
  6605  02E1  2B00               	goto	i1l2333
  6606  02E2                     u140_20:
  6607  02E2                     i1l2321:
  6608                           
  6609                           ;main.c: 1003:            {;main.c: 1004:                 for (int i = 0; i < 7; i++)
  6610  02E2  01AB               	clrf	TMR1_ISR_@i_1219
  6611  02E3  01AC               	clrf	TMR1_ISR_@i_1219+1
  6612  02E4                     i1l2323:
  6613  02E4  082C               	movf	TMR1_ISR_@i_1219+1,w
  6614  02E5  3A80               	xorlw	128
  6615  02E6  00F0               	movwf	??_TMR1_ISR_
  6616  02E7  3080               	movlw	128
  6617  02E8  0270               	subwf	??_TMR1_ISR_,w
  6618  02E9  1D03               	skipz
  6619  02EA  2AED               	goto	u141_25
  6620  02EB  3007               	movlw	7
  6621  02EC  022B               	subwf	TMR1_ISR_@i_1219,w
  6622  02ED                     u141_25:
  6623  02ED  1C03               	skipc
  6624  02EE  2AF0               	goto	u141_21
  6625  02EF  2AF1               	goto	u141_20
  6626  02F0                     u141_21:
  6627  02F0  2AF2               	goto	i1l2327
  6628  02F1                     u141_20:
  6629  02F1  2B5E               	goto	i1l2355
  6630  02F2                     i1l2327:
  6631                           
  6632                           ;main.c: 1005:                 {;main.c: 1006:                     light_array[i] = 0xF9
      +                          ;
  6633  02F2  30F9               	movlw	249
  6634  02F3  00F0               	movwf	??_TMR1_ISR_
  6635  02F4  0140               	movlb	0	; select bank0
  6636  02F5  082B               	movf	TMR1_ISR_@i_1219,w
  6637  02F6  3E41               	addlw	(low (_light_array| 0))& (0+255)
  6638  02F7  0086               	movwf	6
  6639  02F8  0187               	clrf	7
  6640  02F9  0870               	movf	??_TMR1_ISR_,w
  6641  02FA  0081               	movwf	1
  6642  02FB                     i1l2329:
  6643                           
  6644                           ;main.c: 1007:                 }
  6645  02FB  3001               	movlw	1
  6646  02FC  07AB               	addwf	TMR1_ISR_@i_1219,f
  6647  02FD  3000               	movlw	0
  6648  02FE  3DAC               	addwfc	TMR1_ISR_@i_1219+1,f
  6649  02FF  2AE4               	goto	i1l2323
  6650  0300                     i1l2333:
  6651                           
  6652                           ;main.c: 1010:            {;main.c: 1011:                 if (last_note != song3[count])
  6653  0300  0848               	movf	_count,w
  6654  0301  3EC0               	addlw	(low (_song3| 0))& (0+255)
  6655  0302  0086               	movwf	6
  6656  0303  0187               	clrf	7
  6657  0304  0801               	movf	1,w
  6658  0305  064F               	xorwf	_last_note,w
  6659  0306  1903               	skipnz
  6660  0307  2B09               	goto	u142_21
  6661  0308  2B0A               	goto	u142_20
  6662  0309                     u142_21:
  6663  0309  2B5E               	goto	i1l2355
  6664  030A                     u142_20:
  6665  030A                     i1l2335:
  6666                           
  6667                           ;main.c: 1012:                 {;main.c: 1013:                     for (int i = 0; i < 7
      +                          ; i++)
  6668  030A  01B8               	clrf	TMR1_ISR_@i_1220
  6669  030B  01B9               	clrf	TMR1_ISR_@i_1220+1
  6670  030C                     i1l2337:
  6671  030C  0839               	movf	TMR1_ISR_@i_1220+1,w
  6672  030D  3A80               	xorlw	128
  6673  030E  00F0               	movwf	??_TMR1_ISR_
  6674  030F  3080               	movlw	128
  6675  0310  0270               	subwf	??_TMR1_ISR_,w
  6676  0311  1D03               	skipz
  6677  0312  2B15               	goto	u143_25
  6678  0313  3007               	movlw	7
  6679  0314  0238               	subwf	TMR1_ISR_@i_1220,w
  6680  0315                     u143_25:
  6681  0315  1C03               	skipc
  6682  0316  2B18               	goto	u143_21
  6683  0317  2B19               	goto	u143_20
  6684  0318                     u143_21:
  6685  0318  2B1A               	goto	i1l2341
  6686  0319                     u143_20:
  6687  0319  2B5E               	goto	i1l2355
  6688  031A                     i1l2341:
  6689                           
  6690                           ;main.c: 1014:                     {;main.c: 1015:                         uint8_t light
      +                          s = (light_array[i]) << 1;
  6691  031A  0140               	movlb	0	; select bank0
  6692  031B  0838               	movf	TMR1_ISR_@i_1220,w
  6693  031C  3E41               	addlw	(low (_light_array| 0))& (0+255)
  6694  031D  0086               	movwf	6
  6695  031E  0187               	clrf	7
  6696  031F  3501               	lslf	1,w
  6697  0320  00F0               	movwf	??_TMR1_ISR_
  6698  0321  0870               	movf	??_TMR1_ISR_,w
  6699  0322  00B1               	movwf	TMR1_ISR_@lights_1221
  6700  0323                     i1l2343:
  6701                           
  6702                           ;main.c: 1016:                         lights = lights >> 7;
  6703  0323  0831               	movf	TMR1_ISR_@lights_1221,w
  6704  0324  00F0               	movwf	??_TMR1_ISR_
  6705  0325  3007               	movlw	7
  6706  0326                     u144_25:
  6707  0326  36F0               	lsrf	??_TMR1_ISR_,f
  6708  0327  0B89               	decfsz	9,f
  6709  0328  2B26               	goto	u144_25
  6710  0329  0870               	movf	??_TMR1_ISR_,w
  6711  032A  00F1               	movwf	??_TMR1_ISR_+1
  6712  032B  0871               	movf	??_TMR1_ISR_+1,w
  6713  032C  00B1               	movwf	TMR1_ISR_@lights_1221
  6714  032D                     i1l2345:
  6715                           
  6716                           ;main.c: 1017:                         light_array[i] = (light_array[i] << 1) + lights;
  6717  032D  0838               	movf	TMR1_ISR_@i_1220,w
  6718  032E  3E41               	addlw	(low (_light_array| 0))& (0+255)
  6719  032F  0086               	movwf	6
  6720  0330  0187               	clrf	7
  6721  0331  3501               	lslf	1,w
  6722  0332  0731               	addwf	TMR1_ISR_@lights_1221,w
  6723  0333  00F0               	movwf	??_TMR1_ISR_
  6724  0334  0838               	movf	TMR1_ISR_@i_1220,w
  6725  0335  3E41               	addlw	(low (_light_array| 0))& (0+255)
  6726  0336  0086               	movwf	6
  6727  0337  0187               	clrf	7
  6728  0338  0870               	movf	??_TMR1_ISR_,w
  6729  0339  0081               	movwf	1
  6730  033A                     i1l2347:
  6731                           
  6732                           ;main.c: 1018:                         lights = (light_array[i]) << 1;
  6733  033A  0838               	movf	TMR1_ISR_@i_1220,w
  6734  033B  3E41               	addlw	(low (_light_array| 0))& (0+255)
  6735  033C  0086               	movwf	6
  6736  033D  0187               	clrf	7
  6737  033E  3501               	lslf	1,w
  6738  033F  00F0               	movwf	??_TMR1_ISR_
  6739  0340  0870               	movf	??_TMR1_ISR_,w
  6740  0341  00B1               	movwf	TMR1_ISR_@lights_1221
  6741  0342                     i1l2349:
  6742                           
  6743                           ;main.c: 1019:                         lights = lights >> 7;
  6744  0342  0831               	movf	TMR1_ISR_@lights_1221,w
  6745  0343  00F0               	movwf	??_TMR1_ISR_
  6746  0344  3007               	movlw	7
  6747  0345                     u145_25:
  6748  0345  36F0               	lsrf	??_TMR1_ISR_,f
  6749  0346  0B89               	decfsz	9,f
  6750  0347  2B45               	goto	u145_25
  6751  0348  0870               	movf	??_TMR1_ISR_,w
  6752  0349  00F1               	movwf	??_TMR1_ISR_+1
  6753  034A  0871               	movf	??_TMR1_ISR_+1,w
  6754  034B  00B1               	movwf	TMR1_ISR_@lights_1221
  6755                           
  6756                           ;main.c: 1020:                         light_array[i] = (light_array[i] << 1) + lights;
  6757  034C  0838               	movf	TMR1_ISR_@i_1220,w
  6758  034D  3E41               	addlw	(low (_light_array| 0))& (0+255)
  6759  034E  0086               	movwf	6
  6760  034F  0187               	clrf	7
  6761  0350  3501               	lslf	1,w
  6762  0351  0731               	addwf	TMR1_ISR_@lights_1221,w
  6763  0352  00F0               	movwf	??_TMR1_ISR_
  6764  0353  0838               	movf	TMR1_ISR_@i_1220,w
  6765  0354  3E41               	addlw	(low (_light_array| 0))& (0+255)
  6766  0355  0086               	movwf	6
  6767  0356  0187               	clrf	7
  6768  0357  0870               	movf	??_TMR1_ISR_,w
  6769  0358  0081               	movwf	1
  6770  0359                     i1l2351:
  6771                           
  6772                           ;main.c: 1021:                     }
  6773  0359  3001               	movlw	1
  6774  035A  07B8               	addwf	TMR1_ISR_@i_1220,f
  6775  035B  3000               	movlw	0
  6776  035C  3DB9               	addwfc	TMR1_ISR_@i_1220+1,f
  6777  035D  2B0C               	goto	i1l2337
  6778  035E                     i1l2355:
  6779                           
  6780                           ;main.c: 1147:     if (song2_playing)
  6781  035E  0140               	movlb	0	; select bank0
  6782  035F  0851               	movf	_song2_playing,w
  6783  0360  1903               	btfsc	3,2
  6784  0361  2B63               	goto	u146_21
  6785  0362  2B64               	goto	u146_20
  6786  0363                     u146_21:
  6787  0363  2B93               	goto	i1l2377
  6788  0364                     u146_20:
  6789  0364                     i1l2357:
  6790                           
  6791                           ;main.c: 1148:     {;main.c: 1163:         if ((count == 32) && (vibes_count < 3))
  6792  0364  3020               	movlw	32
  6793  0365  0648               	xorwf	_count,w
  6794  0366  0449               	iorwf	_count+1,w
  6795  0367  1D03               	btfss	3,2
  6796  0368  2B6A               	goto	u147_21
  6797  0369  2B6B               	goto	u147_20
  6798  036A                     u147_21:
  6799  036A  2B78               	goto	i1l2365
  6800  036B                     u147_20:
  6801  036B                     i1l2359:
  6802  036B  3003               	movlw	3
  6803  036C  024D               	subwf	_vibes_count,w
  6804  036D  1803               	skipnc
  6805  036E  2B70               	goto	u148_21
  6806  036F  2B71               	goto	u148_20
  6807  0370                     u148_21:
  6808  0370  2B78               	goto	i1l2365
  6809  0371                     u148_20:
  6810  0371                     i1l2361:
  6811                           
  6812                           ;main.c: 1164:         {;main.c: 1165:             count = 0;
  6813  0371  01C8               	clrf	_count
  6814  0372  01C9               	clrf	_count+1
  6815  0373                     i1l2363:
  6816                           
  6817                           ;main.c: 1166:             vibes_count++;
  6818  0373  3001               	movlw	1
  6819  0374  00F0               	movwf	??_TMR1_ISR_
  6820  0375  0870               	movf	??_TMR1_ISR_,w
  6821  0376  07CD               	addwf	_vibes_count,f
  6822                           
  6823                           ;main.c: 1167:         }
  6824  0377  2B8C               	goto	i1l2373
  6825  0378                     i1l2365:
  6826  0378  3040               	movlw	64
  6827  0379  0648               	xorwf	_count,w
  6828  037A  0449               	iorwf	_count+1,w
  6829  037B  1D03               	btfss	3,2
  6830  037C  2B7E               	goto	u149_21
  6831  037D  2B7F               	goto	u149_20
  6832  037E                     u149_21:
  6833  037E  2B8C               	goto	i1l2373
  6834  037F                     u149_20:
  6835  037F                     i1l2367:
  6836  037F  084C               	movf	_vibes_count2,w
  6837  0380  1D03               	btfss	3,2
  6838  0381  2B83               	goto	u150_21
  6839  0382  2B84               	goto	u150_20
  6840  0383                     u150_21:
  6841  0383  2B8C               	goto	i1l2373
  6842  0384                     u150_20:
  6843  0384                     i1l2369:
  6844                           
  6845                           ;main.c: 1169:         {;main.c: 1170:             count = 32;
  6846  0384  3020               	movlw	32
  6847  0385  00C8               	movwf	_count
  6848  0386  3000               	movlw	0
  6849  0387  00C9               	movwf	_count+1
  6850  0388                     i1l2371:
  6851                           
  6852                           ;main.c: 1171:             vibes_count2++;
  6853  0388  3001               	movlw	1
  6854  0389  00F0               	movwf	??_TMR1_ISR_
  6855  038A  0870               	movf	??_TMR1_ISR_,w
  6856  038B  07CC               	addwf	_vibes_count2,f
  6857  038C                     i1l2373:
  6858                           
  6859                           ;main.c: 1174:         TMR1H = timer_high_2;
  6860  038C  083F               	movf	_timer_high_2,w
  6861  038D  0144               	movlb	4	; select bank4
  6862  038E  008D               	movwf	13	;volatile
  6863  038F                     i1l2375:
  6864                           
  6865                           ;main.c: 1175:         TMR1L = timer_low_2;
  6866  038F  0140               	movlb	0	; select bank0
  6867  0390  083E               	movf	_timer_low_2,w
  6868  0391  0144               	movlb	4	; select bank4
  6869  0392  008C               	movwf	12	;volatile
  6870  0393                     i1l2377:
  6871                           
  6872                           ;main.c: 1179:     if (song3_playing)
  6873  0393  0140               	movlb	0	; select bank0
  6874  0394  0852               	movf	_song3_playing,w
  6875  0395  1903               	btfsc	3,2
  6876  0396  2B98               	goto	u151_21
  6877  0397  2B99               	goto	u151_20
  6878  0398                     u151_21:
  6879  0398  2BA0               	goto	i1l656
  6880  0399                     u151_20:
  6881  0399                     i1l2379:
  6882                           
  6883                           ;main.c: 1180:     {;main.c: 1181:         TMR1H = timer_high_3;
  6884  0399  083C               	movf	_timer_high_3,w
  6885  039A  0144               	movlb	4	; select bank4
  6886  039B  008D               	movwf	13	;volatile
  6887                           
  6888                           ;main.c: 1182:         TMR1L = timer_low_3;
  6889  039C  0140               	movlb	0	; select bank0
  6890  039D  083B               	movf	_timer_low_3,w
  6891  039E  0144               	movlb	4	; select bank4
  6892  039F  008C               	movwf	12	;volatile
  6893  03A0                     i1l656:	
  6894                           ;main.c: 1183:     }
  6895                           
  6896                           
  6897                           ;main.c: 1186:     if ((count > 138) && silent_night_playing)
  6898  03A0  0140               	movlb	0	; select bank0
  6899  03A1  0849               	movf	_count+1,w
  6900  03A2  3A80               	xorlw	128
  6901  03A3  00F0               	movwf	??_TMR1_ISR_
  6902  03A4  3080               	movlw	128
  6903  03A5  0270               	subwf	??_TMR1_ISR_,w
  6904  03A6  1D03               	skipz
  6905  03A7  2BAA               	goto	u152_25
  6906  03A8  308B               	movlw	139
  6907  03A9  0248               	subwf	_count,w
  6908  03AA                     u152_25:
  6909  03AA  1C03               	skipc
  6910  03AB  2BAD               	goto	u152_21
  6911  03AC  2BAE               	goto	u152_20
  6912  03AD                     u152_21:
  6913  03AD  2BB8               	goto	i1l2385
  6914  03AE                     u152_20:
  6915  03AE                     i1l2381:
  6916  03AE  0140               	movlb	0	; select bank0
  6917  03AF  0853               	movf	_silent_night_playing,w
  6918  03B0  1903               	btfsc	3,2
  6919  03B1  2BB3               	goto	u153_21
  6920  03B2  2BB4               	goto	u153_20
  6921  03B3                     u153_21:
  6922  03B3  2BB8               	goto	i1l2385
  6923  03B4                     u153_20:
  6924  03B4                     i1l2383:
  6925                           
  6926                           ;main.c: 1187:     {;main.c: 1188:         presses = 0;
  6927  03B4  01CE               	clrf	_presses
  6928                           
  6929                           ;main.c: 1189:         count = 0;
  6930  03B5  01C8               	clrf	_count
  6931  03B6  01C9               	clrf	_count+1
  6932                           
  6933                           ;main.c: 1190:     }
  6934  03B7  2BF1               	goto	i1l663
  6935  03B8                     i1l2385:
  6936  03B8  0140               	movlb	0	; select bank0
  6937  03B9  0849               	movf	_count+1,w
  6938  03BA  3A80               	xorlw	128
  6939  03BB  3C80               	sublw	128
  6940  03BC  1D03               	skipz
  6941  03BD  2BC0               	goto	u154_25
  6942  03BE  0848               	movf	_count,w
  6943  03BF  023D               	subwf	_song2_length,w
  6944  03C0                     u154_25:
  6945  03C0  1803               	skipnc
  6946  03C1  2BC3               	goto	u154_21
  6947  03C2  2BC4               	goto	u154_20
  6948  03C3                     u154_21:
  6949  03C3  2BCB               	goto	i1l2391
  6950  03C4                     u154_20:
  6951  03C4                     i1l2387:
  6952  03C4  0140               	movlb	0	; select bank0
  6953  03C5  0851               	movf	_song2_playing,w
  6954  03C6  1903               	btfsc	3,2
  6955  03C7  2BC9               	goto	u155_21
  6956  03C8  2BCA               	goto	u155_20
  6957  03C9                     u155_21:
  6958  03C9  2BCB               	goto	i1l2391
  6959  03CA                     u155_20:
  6960  03CA  2BB4               	goto	i1l2383
  6961  03CB                     i1l2391:
  6962  03CB  0140               	movlb	0	; select bank0
  6963  03CC  0849               	movf	_count+1,w
  6964  03CD  3A80               	xorlw	128
  6965  03CE  3C80               	sublw	128
  6966  03CF  1D03               	skipz
  6967  03D0  2BD3               	goto	u156_25
  6968  03D1  0848               	movf	_count,w
  6969  03D2  023A               	subwf	_song3_length,w
  6970  03D3                     u156_25:
  6971  03D3  1803               	skipnc
  6972  03D4  2BD6               	goto	u156_21
  6973  03D5  2BD7               	goto	u156_20
  6974  03D6                     u156_21:
  6975  03D6  2BF1               	goto	i1l663
  6976  03D7                     u156_20:
  6977  03D7                     i1l2393:
  6978  03D7  0140               	movlb	0	; select bank0
  6979  03D8  0852               	movf	_song3_playing,w
  6980  03D9  1903               	btfsc	3,2
  6981  03DA  2BDC               	goto	u157_21
  6982  03DB  2BDD               	goto	u157_20
  6983  03DC                     u157_21:
  6984  03DC  2BF1               	goto	i1l663
  6985  03DD                     u157_20:
  6986  03DD                     i1l2395:
  6987                           
  6988                           ;main.c: 1201:     {;main.c: 1202:         presses = 0;
  6989  03DD  01CE               	clrf	_presses
  6990                           
  6991                           ;main.c: 1203:         count = 0;
  6992  03DE  01C8               	clrf	_count
  6993  03DF  01C9               	clrf	_count+1
  6994  03E0                     i1l2397:
  6995                           
  6996                           ;main.c: 1205:         if (cole_counter < 2)
  6997  03E0  3002               	movlw	2
  6998  03E1  024A               	subwf	_cole_counter,w
  6999  03E2  1803               	skipnc
  7000  03E3  2BE5               	goto	u158_21
  7001  03E4  2BE6               	goto	u158_20
  7002  03E5                     u158_21:
  7003  03E5  2BF1               	goto	i1l660
  7004  03E6                     u158_20:
  7005  03E6                     i1l2399:
  7006                           
  7007                           ;main.c: 1206:         {;main.c: 1207:             count = 0;
  7008  03E6  01C8               	clrf	_count
  7009  03E7  01C9               	clrf	_count+1
  7010  03E8                     i1l2401:
  7011                           
  7012                           ;main.c: 1208:             presses = 3;
  7013  03E8  3003               	movlw	3
  7014  03E9  00F0               	movwf	??_TMR1_ISR_
  7015  03EA  0870               	movf	??_TMR1_ISR_,w
  7016  03EB  00CE               	movwf	_presses
  7017  03EC                     i1l2403:
  7018                           
  7019                           ;main.c: 1209:             cole_counter++;
  7020  03EC  3001               	movlw	1
  7021  03ED  00F0               	movwf	??_TMR1_ISR_
  7022  03EE  0870               	movf	??_TMR1_ISR_,w
  7023  03EF  07CA               	addwf	_cole_counter,f
  7024  03F0  2BF1               	goto	i1l663
  7025  03F1                     i1l660:
  7026  03F1                     i1l663:
  7027  03F1  0008               	return
  7028  03F2                     __end_of_TMR1_ISR_:
  7029                           
  7030                           	psect	text23
  7031  07DE                     __ptext23:	
  7032 ;; *************** function _TMR0_ISR *****************
  7033 ;; Defined at:
  7034 ;;		line 134 in file "mcc_generated_files/tmr0.c"
  7035 ;; Parameters:    Size  Location     Type
  7036 ;;		None
  7037 ;; Auto vars:     Size  Location     Type
  7038 ;;		None
  7039 ;; Return value:  Size  Location     Type
  7040 ;;                  1    wreg      void 
  7041 ;; Registers used:
  7042 ;;		wreg, status,2, status,0, pclath, cstack
  7043 ;; Tracked objects:
  7044 ;;		On entry : 0/0
  7045 ;;		On exit  : 0/0
  7046 ;;		Unchanged: 0/0
  7047 ;; Data sizes:     COMMON   BANK0   BANK1   BANK2   BANK3   BANK4   BANK5   BANK6   BANK7   BANK8   BANK9  BANK10  BANK1
      +1  BANK12
  7048 ;;      Params:         0       0       0       0       0       0       0       0       0       0       0       0       
      +0       0
  7049 ;;      Locals:         0       0       0       0       0       0       0       0       0       0       0       0       
      +0       0
  7050 ;;      Temps:          0       0       0       0       0       0       0       0       0       0       0       0       
      +0       0
  7051 ;;      Totals:         0       0       0       0       0       0       0       0       0       0       0       0       
      +0       0
  7052 ;;Total ram usage:        0 bytes
  7053 ;; Hardware stack levels used: 1
  7054 ;; Hardware stack levels required when called: 1
  7055 ;; This function calls:
  7056 ;;		Absolute function
  7057 ;;		_TMR0_DefaultInterruptHandler
  7058 ;;		_TMR0_ISR_
  7059 ;; This function is called by:
  7060 ;;		_INTERRUPT_InterruptManager
  7061 ;; This function uses a non-reentrant model
  7062 ;;
  7063                           
  7064                           
  7065                           ;psect for function _TMR0_ISR
  7066  07DE                     _TMR0_ISR:
  7067  07DE                     i1l2419:	
  7068                           ;incstack = 0
  7069                           ; Regs used in _TMR0_ISR: [wreg+status,2+status,0+pclath+cstack]
  7070                           
  7071                           
  7072                           ;mcc_generated_files/tmr0.c: 137:     PIR0bits.TMR0IF = 0;
  7073  07DE  014E               	movlb	14	; select bank14
  7074  07DF  128C               	bcf	12,5	;volatile
  7075  07E0                     i1l2421:
  7076                           
  7077                           ;mcc_generated_files/tmr0.c: 139:     TMR0H = timer0ReloadVal16bit >> 8;
  7078  07E0  0878               	movf	_timer0ReloadVal16bit+1,w	;volatile
  7079  07E1  014B               	movlb	11	; select bank11
  7080  07E2  009D               	movwf	29	;volatile
  7081  07E3                     i1l2423:
  7082                           
  7083                           ;mcc_generated_files/tmr0.c: 140:     TMR0L = (uint8_t) timer0ReloadVal16bit;
  7084  07E3  0877               	movf	_timer0ReloadVal16bit,w	;volatile
  7085  07E4  009C               	movwf	28	;volatile
  7086  07E5                     i1l2425:
  7087                           
  7088                           ;mcc_generated_files/tmr0.c: 142:     if(TMR0_InterruptHandler)
  7089  07E5  0140               	movlb	0	; select bank0
  7090  07E6  0858               	movf	_TMR0_InterruptHandler,w
  7091  07E7  0459               	iorwf	_TMR0_InterruptHandler+1,w
  7092  07E8  1903               	btfsc	3,2
  7093  07E9  2FEB               	goto	u159_21
  7094  07EA  2FEC               	goto	u159_20
  7095  07EB                     u159_21:
  7096  07EB  2FF1               	goto	i1l328
  7097  07EC                     u159_20:
  7098  07EC                     i1l2427:
  7099                           
  7100                           ;mcc_generated_files/tmr0.c: 143:     {;mcc_generated_files/tmr0.c: 144:         TMR0_In
      +                          terruptHandler();
  7101  07EC  0859               	movf	_TMR0_InterruptHandler+1,w
  7102  07ED  008A               	movwf	10
  7103  07EE  0858               	movf	_TMR0_InterruptHandler,w
  7104  07EF  000A               	callw
  7105  07F0  3187               	pagesel	$
  7106  07F1                     i1l328:
  7107  07F1  0008               	return
  7108  07F2                     __end_of_TMR0_ISR:
  7109                           
  7110                           	psect	text24
  7111  0002                     __ptext24:	
  7112 ;; *************** function _TMR0_DefaultInterruptHandler *****************
  7113 ;; Defined at:
  7114 ;;		line 155 in file "mcc_generated_files/tmr0.c"
  7115 ;; Parameters:    Size  Location     Type
  7116 ;;		None
  7117 ;; Auto vars:     Size  Location     Type
  7118 ;;		None
  7119 ;; Return value:  Size  Location     Type
  7120 ;;                  1    wreg      void 
  7121 ;; Registers used:
  7122 ;;		None
  7123 ;; Tracked objects:
  7124 ;;		On entry : 0/0
  7125 ;;		On exit  : 0/0
  7126 ;;		Unchanged: 0/0
  7127 ;; Data sizes:     COMMON   BANK0   BANK1   BANK2   BANK3   BANK4   BANK5   BANK6   BANK7   BANK8   BANK9  BANK10  BANK1
      +1  BANK12
  7128 ;;      Params:         0       0       0       0       0       0       0       0       0       0       0       0       
      +0       0
  7129 ;;      Locals:         0       0       0       0       0       0       0       0       0       0       0       0       
      +0       0
  7130 ;;      Temps:          0       0       0       0       0       0       0       0       0       0       0       0       
      +0       0
  7131 ;;      Totals:         0       0       0       0       0       0       0       0       0       0       0       0       
      +0       0
  7132 ;;Total ram usage:        0 bytes
  7133 ;; Hardware stack levels used: 1
  7134 ;; This function calls:
  7135 ;;		Nothing
  7136 ;; This function is called by:
  7137 ;;		_TMR0_Initialize
  7138 ;;		_TMR0_ISR
  7139 ;; This function uses a non-reentrant model
  7140 ;;
  7141                           
  7142                           
  7143                           ;psect for function _TMR0_DefaultInterruptHandler
  7144  0002                     _TMR0_DefaultInterruptHandler:
  7145  0002                     i1l334:	
  7146                           ;incstack = 0
  7147                           ; Regs used in _TMR0_DefaultInterruptHandler: []
  7148                           
  7149  0002  0008               	return
  7150  0003                     __end_of_TMR0_DefaultInterruptHandler:
  7151                           
  7152                           	psect	text25
  7153  0D27                     __ptext25:	
  7154 ;; *************** function _TMR0_ISR_ *****************
  7155 ;; Defined at:
  7156 ;;		line 701 in file "main.c"
  7157 ;; Parameters:    Size  Location     Type
  7158 ;;		None
  7159 ;; Auto vars:     Size  Location     Type
  7160 ;;		None
  7161 ;; Return value:  Size  Location     Type
  7162 ;;                  1    wreg      void 
  7163 ;; Registers used:
  7164 ;;		None
  7165 ;; Tracked objects:
  7166 ;;		On entry : 0/0
  7167 ;;		On exit  : 0/0
  7168 ;;		Unchanged: 0/0
  7169 ;; Data sizes:     COMMON   BANK0   BANK1   BANK2   BANK3   BANK4   BANK5   BANK6   BANK7   BANK8   BANK9  BANK10  BANK1
      +1  BANK12
  7170 ;;      Params:         0       0       0       0       0       0       0       0       0       0       0       0       
      +0       0
  7171 ;;      Locals:         0       0       0       0       0       0       0       0       0       0       0       0       
      +0       0
  7172 ;;      Temps:          0       0       0       0       0       0       0       0       0       0       0       0       
      +0       0
  7173 ;;      Totals:         0       0       0       0       0       0       0       0       0       0       0       0       
      +0       0
  7174 ;;Total ram usage:        0 bytes
  7175 ;; Hardware stack levels used: 1
  7176 ;; This function calls:
  7177 ;;		Nothing
  7178 ;; This function is called by:
  7179 ;;		_main
  7180 ;;		_TMR0_ISR
  7181 ;; This function uses a non-reentrant model
  7182 ;;
  7183                           
  7184                           
  7185                           ;psect for function _TMR0_ISR_
  7186  0D27                     _TMR0_ISR_:
  7187  0D27                     i1l2155:	
  7188                           ;incstack = 0
  7189                           ; Regs used in _TMR0_ISR_: []
  7190                           
  7191                           
  7192                           ;main.c: 703:     TMR0_complete = 1;
  7193  0D27  0140               	movlb	0	; select bank0
  7194  0D28  01D0               	clrf	_TMR0_complete
  7195  0D29  0AD0               	incf	_TMR0_complete,f
  7196  0D2A                     i1l594:
  7197  0D2A  0008               	return
  7198  0D2B                     __end_of_TMR0_ISR_:
  7199                           
  7200                           	psect	text26
  7201  0D31                     __ptext26:	
  7202 ;; *************** function _INT_ISR *****************
  7203 ;; Defined at:
  7204 ;;		line 33 in file "mcc_generated_files/ext_int.c"
  7205 ;; Parameters:    Size  Location     Type
  7206 ;;		None
  7207 ;; Auto vars:     Size  Location     Type
  7208 ;;		None
  7209 ;; Return value:  Size  Location     Type
  7210 ;;                  1    wreg      void 
  7211 ;; Registers used:
  7212 ;;		wreg, status,2, status,0, pclath, cstack
  7213 ;; Tracked objects:
  7214 ;;		On entry : 0/0
  7215 ;;		On exit  : 0/0
  7216 ;;		Unchanged: 0/0
  7217 ;; Data sizes:     COMMON   BANK0   BANK1   BANK2   BANK3   BANK4   BANK5   BANK6   BANK7   BANK8   BANK9  BANK10  BANK1
      +1  BANK12
  7218 ;;      Params:         0       0       0       0       0       0       0       0       0       0       0       0       
      +0       0
  7219 ;;      Locals:         0       0       0       0       0       0       0       0       0       0       0       0       
      +0       0
  7220 ;;      Temps:          0       0       0       0       0       0       0       0       0       0       0       0       
      +0       0
  7221 ;;      Totals:         0       0       0       0       0       0       0       0       0       0       0       0       
      +0       0
  7222 ;;Total ram usage:        0 bytes
  7223 ;; Hardware stack levels used: 1
  7224 ;; Hardware stack levels required when called: 3
  7225 ;; This function calls:
  7226 ;;		_INT_CallBack
  7227 ;; This function is called by:
  7228 ;;		_INTERRUPT_InterruptManager
  7229 ;; This function uses a non-reentrant model
  7230 ;;
  7231                           
  7232                           
  7233                           ;psect for function _INT_ISR
  7234  0D31                     _INT_ISR:
  7235  0D31                     i1l2429:	
  7236                           ;incstack = 0
  7237                           ; Regs used in _INT_ISR: [wreg+status,2+status,0+pclath+cstack]
  7238                           
  7239                           
  7240                           ;mcc_generated_files/ext_int.c: 47:     (PIR0bits.INTF = 0);
  7241  0D31  014E               	movlb	14	; select bank14
  7242  0D32  100C               	bcf	12,0	;volatile
  7243  0D33                     i1l2431:
  7244                           
  7245                           ;mcc_generated_files/ext_int.c: 50:     INT_CallBack();
  7246  0D33  318D  2563  318D   	fcall	_INT_CallBack
  7247  0D36                     i1l271:
  7248  0D36  0008               	return
  7249  0D37                     __end_of_INT_ISR:
  7250                           
  7251                           	psect	text27
  7252  0D63                     __ptext27:	
  7253 ;; *************** function _INT_CallBack *****************
  7254 ;; Defined at:
  7255 ;;		line 54 in file "mcc_generated_files/ext_int.c"
  7256 ;; Parameters:    Size  Location     Type
  7257 ;;		None
  7258 ;; Auto vars:     Size  Location     Type
  7259 ;;		None
  7260 ;; Return value:  Size  Location     Type
  7261 ;;                  1    wreg      void 
  7262 ;; Registers used:
  7263 ;;		wreg, status,2, status,0, pclath, cstack
  7264 ;; Tracked objects:
  7265 ;;		On entry : 0/0
  7266 ;;		On exit  : 0/0
  7267 ;;		Unchanged: 0/0
  7268 ;; Data sizes:     COMMON   BANK0   BANK1   BANK2   BANK3   BANK4   BANK5   BANK6   BANK7   BANK8   BANK9  BANK10  BANK1
      +1  BANK12
  7269 ;;      Params:         0       0       0       0       0       0       0       0       0       0       0       0       
      +0       0
  7270 ;;      Locals:         0       0       0       0       0       0       0       0       0       0       0       0       
      +0       0
  7271 ;;      Temps:          0       0       0       0       0       0       0       0       0       0       0       0       
      +0       0
  7272 ;;      Totals:         0       0       0       0       0       0       0       0       0       0       0       0       
      +0       0
  7273 ;;Total ram usage:        0 bytes
  7274 ;; Hardware stack levels used: 1
  7275 ;; Hardware stack levels required when called: 2
  7276 ;; This function calls:
  7277 ;;		Absolute function
  7278 ;;		_EXT_ISR
  7279 ;;		_INT_DefaultInterruptHandler
  7280 ;; This function is called by:
  7281 ;;		_INT_ISR
  7282 ;; This function uses a non-reentrant model
  7283 ;;
  7284                           
  7285                           
  7286                           ;psect for function _INT_CallBack
  7287  0D63                     _INT_CallBack:
  7288  0D63                     i1l2131:	
  7289                           ;incstack = 0
  7290                           ; Regs used in _INT_CallBack: [wreg+status,2+status,0+pclath+cstack]
  7291                           
  7292                           
  7293                           ;mcc_generated_files/ext_int.c: 57:     if(INT_InterruptHandler)
  7294  0D63  0140               	movlb	0	; select bank0
  7295  0D64  085A               	movf	_INT_InterruptHandler,w
  7296  0D65  045B               	iorwf	_INT_InterruptHandler+1,w
  7297  0D66  1903               	btfsc	3,2
  7298  0D67  2D69               	goto	u102_21
  7299  0D68  2D6A               	goto	u102_20
  7300  0D69                     u102_21:
  7301  0D69  2D6F               	goto	i1l275
  7302  0D6A                     u102_20:
  7303  0D6A                     i1l2133:
  7304                           
  7305                           ;mcc_generated_files/ext_int.c: 58:     {;mcc_generated_files/ext_int.c: 59:         INT
      +                          _InterruptHandler();
  7306  0D6A  085B               	movf	_INT_InterruptHandler+1,w
  7307  0D6B  008A               	movwf	10
  7308  0D6C  085A               	movf	_INT_InterruptHandler,w
  7309  0D6D  000A               	callw
  7310  0D6E  318D               	pagesel	$
  7311  0D6F                     i1l275:
  7312  0D6F  0008               	return
  7313  0D70                     __end_of_INT_CallBack:
  7314                           
  7315                           	psect	text28
  7316  06E3                     __ptext28:	
  7317 ;; *************** function _EXT_ISR *****************
  7318 ;; Defined at:
  7319 ;;		line 664 in file "main.c"
  7320 ;; Parameters:    Size  Location     Type
  7321 ;;		None
  7322 ;; Auto vars:     Size  Location     Type
  7323 ;;  debounce        1    1[COMMON] unsigned char 
  7324 ;; Return value:  Size  Location     Type
  7325 ;;                  1    wreg      void 
  7326 ;; Registers used:
  7327 ;;		wreg, status,2, status,0, pclath, cstack
  7328 ;; Tracked objects:
  7329 ;;		On entry : 0/0
  7330 ;;		On exit  : 0/0
  7331 ;;		Unchanged: 0/0
  7332 ;; Data sizes:     COMMON   BANK0   BANK1   BANK2   BANK3   BANK4   BANK5   BANK6   BANK7   BANK8   BANK9  BANK10  BANK1
      +1  BANK12
  7333 ;;      Params:         0       0       0       0       0       0       0       0       0       0       0       0       
      +0       0
  7334 ;;      Locals:         1       0       0       0       0       0       0       0       0       0       0       0       
      +0       0
  7335 ;;      Temps:          1       0       0       0       0       0       0       0       0       0       0       0       
      +0       0
  7336 ;;      Totals:         2       0       0       0       0       0       0       0       0       0       0       0       
      +0       0
  7337 ;;Total ram usage:        2 bytes
  7338 ;; Hardware stack levels used: 1
  7339 ;; Hardware stack levels required when called: 1
  7340 ;; This function calls:
  7341 ;;		_TMR0_Reload
  7342 ;; This function is called by:
  7343 ;;		_main
  7344 ;;		_INT_CallBack
  7345 ;; This function uses a non-reentrant model
  7346 ;;
  7347                           
  7348                           
  7349                           ;psect for function _EXT_ISR
  7350  06E3                     _EXT_ISR:
  7351  06E3                     i1l2011:	
  7352                           ;incstack = 0
  7353                           ; Regs used in _EXT_ISR: [wreg+status,2+status,0+pclath+cstack]
  7354                           
  7355                           
  7356                           ;main.c: 666:     uint8_t debounce = 0;
  7357  06E3  01F1               	clrf	EXT_ISR@debounce
  7358                           
  7359                           ;main.c: 667:     while (debounce < 40)
  7360  06E4  2EF5               	goto	i1l2019
  7361  06E5                     i1l584:
  7362                           
  7363                           ;main.c: 668:     {;main.c: 669:         if (PORTAbits.RA2)
  7364  06E5  0140               	movlb	0	; select bank0
  7365  06E6  1D0C               	btfss	12,2	;volatile
  7366  06E7  2EE9               	goto	u98_21
  7367  06E8  2EEA               	goto	u98_20
  7368  06E9                     u98_21:
  7369  06E9  2EE3               	goto	i1l2011
  7370  06EA                     u98_20:
  7371  06EA                     i1l2013:
  7372                           
  7373                           ;main.c: 670:         {;main.c: 671:             debounce++;
  7374  06EA  3001               	movlw	1
  7375  06EB  00F0               	movwf	??_EXT_ISR
  7376  06EC  0870               	movf	??_EXT_ISR,w
  7377  06ED  07F1               	addwf	EXT_ISR@debounce,f
  7378  06EE                     i1l2015:
  7379                           
  7380                           ;main.c: 672:             _delay((unsigned long)((1)*(8000000/4000.0)));
  7381  06EE  3003               	movlw	3
  7382  06EF  00F0               	movwf	??_EXT_ISR
  7383  06F0  3098               	movlw	152
  7384  06F1                     u210_27:
  7385  06F1  0B89               	decfsz	9,f
  7386  06F2  2EF1               	goto	u210_27
  7387  06F3  0BF0               	decfsz	??_EXT_ISR,f
  7388  06F4  2EF1               	goto	u210_27
  7389  06F5                     i1l2019:	
  7390                           ;main.c: 673:         }
  7391                           
  7392                           
  7393                           ;main.c: 667:     while (debounce < 40)
  7394  06F5  3028               	movlw	40
  7395  06F6  0271               	subwf	EXT_ISR@debounce,w
  7396  06F7  1C03               	skipc
  7397  06F8  2EFA               	goto	u99_21
  7398  06F9  2EFB               	goto	u99_20
  7399  06FA                     u99_21:
  7400  06FA  2EE5               	goto	i1l584
  7401  06FB                     u99_20:
  7402  06FB                     i1l2021:
  7403                           
  7404                           ;main.c: 679:     presses++;
  7405  06FB  3001               	movlw	1
  7406  06FC  00F0               	movwf	??_EXT_ISR
  7407  06FD  0870               	movf	??_EXT_ISR,w
  7408  06FE  0140               	movlb	0	; select bank0
  7409  06FF  07CE               	addwf	_presses,f
  7410  0700                     i1l2023:
  7411                           
  7412                           ;main.c: 680:     TMR0_Reload();
  7413  0700  318D  252B  3186   	fcall	_TMR0_Reload
  7414  0703                     i1l2025:
  7415                           
  7416                           ;main.c: 683:     if (T1CONbits.TMR1ON)
  7417  0703  0144               	movlb	4	; select bank4
  7418  0704  1C0E               	btfss	14,0	;volatile
  7419  0705  2F07               	goto	u100_21
  7420  0706  2F08               	goto	u100_20
  7421  0707                     u100_21:
  7422  0707  2F0D               	goto	i1l2029
  7423  0708                     u100_20:
  7424  0708                     i1l2027:
  7425                           
  7426                           ;main.c: 684:     {;main.c: 685:         presses = 0;
  7427  0708  0140               	movlb	0	; select bank0
  7428  0709  01CE               	clrf	_presses
  7429                           
  7430                           ;main.c: 686:         count = 0;
  7431  070A  01C8               	clrf	_count
  7432  070B  01C9               	clrf	_count+1
  7433                           
  7434                           ;main.c: 687:     }
  7435  070C  2F0F               	goto	i1l2031
  7436  070D                     i1l2029:
  7437                           
  7438                           ;main.c: 690:     {;main.c: 691:         TMR0_complete = 0;
  7439  070D  0140               	movlb	0	; select bank0
  7440  070E  01D0               	clrf	_TMR0_complete
  7441  070F                     i1l2031:
  7442                           
  7443                           ;main.c: 694:     if (presses > num_songs)
  7444  070F  084E               	movf	_presses,w
  7445  0710  0240               	subwf	_num_songs,w
  7446  0711  1803               	skipnc
  7447  0712  2F14               	goto	u101_21
  7448  0713  2F15               	goto	u101_20
  7449  0714                     u101_21:
  7450  0714  2F16               	goto	i1l591
  7451  0715                     u101_20:
  7452  0715                     i1l2033:
  7453                           
  7454                           ;main.c: 695:     {;main.c: 696:         presses = 0;
  7455  0715  01CE               	clrf	_presses
  7456  0716                     i1l591:
  7457  0716  0008               	return
  7458  0717                     __end_of_EXT_ISR:
  7459                           
  7460                           	psect	text29
  7461  0D23                     __ptext29:	
  7462 ;; *************** function _INT_DefaultInterruptHandler *****************
  7463 ;; Defined at:
  7464 ;;		line 67 in file "mcc_generated_files/ext_int.c"
  7465 ;; Parameters:    Size  Location     Type
  7466 ;;		None
  7467 ;; Auto vars:     Size  Location     Type
  7468 ;;		None
  7469 ;; Return value:  Size  Location     Type
  7470 ;;                  1    wreg      void 
  7471 ;; Registers used:
  7472 ;;		None
  7473 ;; Tracked objects:
  7474 ;;		On entry : 0/0
  7475 ;;		On exit  : 0/0
  7476 ;;		Unchanged: 0/0
  7477 ;; Data sizes:     COMMON   BANK0   BANK1   BANK2   BANK3   BANK4   BANK5   BANK6   BANK7   BANK8   BANK9  BANK10  BANK1
      +1  BANK12
  7478 ;;      Params:         0       0       0       0       0       0       0       0       0       0       0       0       
      +0       0
  7479 ;;      Locals:         0       0       0       0       0       0       0       0       0       0       0       0       
      +0       0
  7480 ;;      Temps:          0       0       0       0       0       0       0       0       0       0       0       0       
      +0       0
  7481 ;;      Totals:         0       0       0       0       0       0       0       0       0       0       0       0       
      +0       0
  7482 ;;Total ram usage:        0 bytes
  7483 ;; Hardware stack levels used: 1
  7484 ;; This function calls:
  7485 ;;		Nothing
  7486 ;; This function is called by:
  7487 ;;		_EXT_INT_Initialize
  7488 ;;		_INT_CallBack
  7489 ;; This function uses a non-reentrant model
  7490 ;;
  7491                           
  7492                           
  7493                           ;psect for function _INT_DefaultInterruptHandler
  7494  0D23                     _INT_DefaultInterruptHandler:
  7495  0D23                     i1l281:	
  7496                           ;incstack = 0
  7497                           ; Regs used in _INT_DefaultInterruptHandler: []
  7498                           
  7499  0D23  0008               	return
  7500  0D24                     __end_of_INT_DefaultInterruptHandler:
  7501                           
  7502                           	psect	text30
  7503  0D2B                     __ptext30:	
  7504 ;; *************** function _TMR0_Reload *****************
  7505 ;; Defined at:
  7506 ;;		line 127 in file "mcc_generated_files/tmr0.c"
  7507 ;; Parameters:    Size  Location     Type
  7508 ;;		None
  7509 ;; Auto vars:     Size  Location     Type
  7510 ;;		None
  7511 ;; Return value:  Size  Location     Type
  7512 ;;                  1    wreg      void 
  7513 ;; Registers used:
  7514 ;;		wreg, status,2
  7515 ;; Tracked objects:
  7516 ;;		On entry : 0/0
  7517 ;;		On exit  : 0/0
  7518 ;;		Unchanged: 0/0
  7519 ;; Data sizes:     COMMON   BANK0   BANK1   BANK2   BANK3   BANK4   BANK5   BANK6   BANK7   BANK8   BANK9  BANK10  BANK1
      +1  BANK12
  7520 ;;      Params:         0       0       0       0       0       0       0       0       0       0       0       0       
      +0       0
  7521 ;;      Locals:         0       0       0       0       0       0       0       0       0       0       0       0       
      +0       0
  7522 ;;      Temps:          0       0       0       0       0       0       0       0       0       0       0       0       
      +0       0
  7523 ;;      Totals:         0       0       0       0       0       0       0       0       0       0       0       0       
      +0       0
  7524 ;;Total ram usage:        0 bytes
  7525 ;; Hardware stack levels used: 1
  7526 ;; This function calls:
  7527 ;;		Nothing
  7528 ;; This function is called by:
  7529 ;;		_EXT_ISR
  7530 ;; This function uses a non-reentrant model
  7531 ;;
  7532                           
  7533                           
  7534                           ;psect for function _TMR0_Reload
  7535  0D2B                     _TMR0_Reload:
  7536  0D2B                     i1l1995:	
  7537                           ;incstack = 0
  7538                           ; Regs used in _TMR0_Reload: [wreg+status,2]
  7539                           
  7540                           
  7541                           ;mcc_generated_files/tmr0.c: 130:     TMR0H = timer0ReloadVal16bit >> 8;
  7542  0D2B  0878               	movf	_timer0ReloadVal16bit+1,w	;volatile
  7543  0D2C  014B               	movlb	11	; select bank11
  7544  0D2D  009D               	movwf	29	;volatile
  7545  0D2E                     i1l1997:
  7546                           
  7547                           ;mcc_generated_files/tmr0.c: 131:     TMR0L = (uint8_t) timer0ReloadVal16bit;
  7548  0D2E  0877               	movf	_timer0ReloadVal16bit,w	;volatile
  7549  0D2F  009C               	movwf	28	;volatile
  7550  0D30                     i1l324:
  7551  0D30  0008               	return
  7552  0D31                     __end_of_TMR0_Reload:
  7553  007E                     btemp	set	126	;btemp
  7554  007E                     int$flags	set	126
  7555  007E                     wtemp0	set	126
  7556  217B                     
  7557                           	psect	config
  7558                           
  7559                           ;Config register CONFIG1 @ 0x8007
  7560                           ;	External Oscillator Mode Selection bits
  7561                           ;	FEXTOSC = OFF, Oscillator not enabled
  7562                           ;	Power-up Default Value for COSC bits
  7563                           ;	RSTOSC = HFINTOSC_1MHZ, HFINTOSC (1 MHz)
  7564                           ;	Clock Out Enable bit
  7565                           ;	CLKOUTEN = OFF, CLKOUT function is disabled; I/O function on RA4
  7566                           ;	VDD Range Analog Calibration Selection bit
  7567                           ;	VDDAR = HI, Internal analog systems are calibrated for operation between VDD = 2.3V - 
      +                          5.5V
  7568  8007                     	org	32775
  7569  8007  3FED               	dw	16365
  7570                           
  7571                           ;Config register CONFIG2 @ 0x8008
  7572                           ;	Master Clear Enable bit
  7573                           ;	MCLRE = EXTMCLR, If LVP = 0, MCLR pin is MCLR; If LVP = 1, RA3 pin function is MCLR
  7574                           ;	Power-up Timer Selection bits
  7575                           ;	PWRTS = PWRT_OFF, PWRT is disabled
  7576                           ;	WDT Operating Mode bits
  7577                           ;	WDTE = OFF, WDT disabled; SEN is ignored
  7578                           ;	Brown-out Reset Enable bits
  7579                           ;	BOREN = ON, Brown-out Reset Enabled, SBOREN bit is ignored
  7580                           ;	Brown-out Reset Voltage Selection bit
  7581                           ;	BORV = LO, Brown-out Reset Voltage (VBOR) set to 1.9V
  7582                           ;	PPSLOCKED One-Way Set Enable bit
  7583                           ;	PPS1WAY = ON, The PPSLOCKED bit can be set once after an unlocking sequence is execute
      +                          d; once PPSLOCKED is set, all future changes to PPS registers are prevented
  7584                           ;	Stack Overflow/Underflow Reset Enable bit
  7585                           ;	STVREN = ON, Stack Overflow or Underflow will cause a reset
  7586  8008                     	org	32776
  7587  8008  3FE7               	dw	16359
  7588                           
  7589                           ;Config register CONFIG4 @ 0x800A
  7590                           ;	Boot Block Size Selection bits
  7591                           ;	BBSIZE = BB512, 512 words boot block size
  7592                           ;	Boot Block Enable bit
  7593                           ;	BBEN = OFF, Boot Block is disabled
  7594                           ;	SAF Enable bit
  7595                           ;	SAFEN = OFF, SAF is disabled
  7596                           ;	Application Block Write Protection bit
  7597                           ;	WRTAPP = OFF, Application Block is not write-protected
  7598                           ;	Boot Block Write Protection bit
  7599                           ;	WRTB = OFF, Boot Block is not write-protected
  7600                           ;	Configuration Registers Write Protection bit
  7601                           ;	WRTC = OFF, Configuration Registers are not write-protected
  7602                           ;	Storage Area Flash (SAF) Write Protection bit
  7603                           ;	WRTSAF = OFF, SAF is not write-protected
  7604                           ;	Low Voltage Programming Enable bit
  7605                           ;	LVP = ON, Low Voltage programming enabled. MCLR/Vpp pin function is MCLR. MCLRE Config
      +                          uration bit is ignored.
  7606  800A                     	org	32778
  7607  800A  3FFF               	dw	16383
  7608                           
  7609                           ;Config register CONFIG5 @ 0x800B
  7610                           ;	User Program Flash Memory Code Protection bit
  7611                           ;	CP = OFF, User Program Flash Memory code protection is disabled
  7612  800B                     	org	32779
  7613  800B  3FFF               	dw	16383

Data Sizes:
    Strings     0
    Constant    11
    Data        707
    BSS         13
    Persistent  42
    Stack       0

Auto Spaces:
    Space          Size  Autos    Used
    COMMON           14      7      10
    BANK0            80     26      60
    BANK1            80      9      73
    BANK2            80      9       9
    BANK3            80      0       0
    BANK4            59      0       0
    BANK5             0      0       0
    BANK6             0      0       0
    BANK7             0      0       0
    BANK8             0      0       0
    BANK9             0      0       0
    BANK10            0      0       0
    BANK11            0      0       0
    BANK12            0      0       0

Pointer List with Targets:

    displayMatrix@states	PTR unsigned char  size(1) Largest target is 7
		 -> light_array(BANK0[7]), 

    TMR1_SetInterruptHandler@InterruptHandler	PTR FTN()void  size(2) Largest target is 1
		 -> TMR1_ISR_(), TMR1_DefaultInterruptHandler(), 

    TMR1_InterruptHandler	PTR FTN()void  size(2) Largest target is 1
		 -> TMR1_ISR_(), TMR1_DefaultInterruptHandler(), Absolute function(), 

    TMR0_SetInterruptHandler@InterruptHandler	PTR FTN()void  size(2) Largest target is 1
		 -> TMR0_ISR_(), TMR0_DefaultInterruptHandler(), 

    TMR0_InterruptHandler	PTR FTN()void  size(2) Largest target is 1
		 -> TMR0_ISR_(), TMR0_DefaultInterruptHandler(), Absolute function(), 

    INT_SetInterruptHandler@InterruptHandler	PTR FTN()void  size(2) Largest target is 1
		 -> EXT_ISR(), INT_DefaultInterruptHandler(), 

    INT_InterruptHandler	PTR FTN()void  size(2) Largest target is 1
		 -> EXT_ISR(), INT_DefaultInterruptHandler(), Absolute function(), 


Critical Paths under _main in COMMON

    _main->_displayMatrix
    _displayMatrix->_shiftBytes
    _shiftBytes->_SPI1_ExchangeByte
    _TMR1_Initialize->_TMR1_SetInterruptHandler
    _TMR0_Initialize->_TMR0_SetInterruptHandler
    _EXT_INT_Initialize->_INT_SetInterruptHandler

Critical Paths under _INTERRUPT_InterruptManager in COMMON

    _TMR1_ISR->_TMR1_ISR_
    _TMR1_ISR->_TMR1_WriteTimer
    _INT_CallBack->_EXT_ISR

Critical Paths under _main in BANK0

    None.

Critical Paths under _INTERRUPT_InterruptManager in BANK0

    _TMR1_ISR->_TMR1_ISR_

Critical Paths under _main in BANK1

    _main->_displayMatrix

Critical Paths under _INTERRUPT_InterruptManager in BANK1

    None.

Critical Paths under _main in BANK2

    None.

Critical Paths under _INTERRUPT_InterruptManager in BANK2

    None.

Critical Paths under _main in BANK3

    None.

Critical Paths under _INTERRUPT_InterruptManager in BANK3

    None.

Critical Paths under _main in BANK4

    None.

Critical Paths under _INTERRUPT_InterruptManager in BANK4

    None.

Critical Paths under _main in BANK5

    None.

Critical Paths under _INTERRUPT_InterruptManager in BANK5

    None.

Critical Paths under _main in BANK6

    None.

Critical Paths under _INTERRUPT_InterruptManager in BANK6

    None.

Critical Paths under _main in BANK7

    None.

Critical Paths under _INTERRUPT_InterruptManager in BANK7

    None.

Critical Paths under _main in BANK8

    None.

Critical Paths under _INTERRUPT_InterruptManager in BANK8

    None.

Critical Paths under _main in BANK9

    None.

Critical Paths under _INTERRUPT_InterruptManager in BANK9

    None.

Critical Paths under _main in BANK10

    None.

Critical Paths under _INTERRUPT_InterruptManager in BANK10

    None.

Critical Paths under _main in BANK11

    None.

Critical Paths under _INTERRUPT_InterruptManager in BANK11

    None.

Critical Paths under _main in BANK12

    None.

Critical Paths under _INTERRUPT_InterruptManager in BANK12

    None.

Call Graph Tables:

 ---------------------------------------------------------------------------------
 (Depth) Function   	        Calls       Base Space   Used Autos Params    Refs
 ---------------------------------------------------------------------------------
 (0) _main                                                15    15      0    3983
                                              4 BANK1      5     5      0
                                              0 BANK2      9     9      0
                 _EXT_INT_Initialize
            _INT_SetInterruptHandler
                    _PWM3_Initialize
                    _SPI1_Initialize
                  _SYSTEM_Initialize
                    _TMR0_Initialize
           _TMR0_SetInterruptHandler
                    _TMR1_Initialize
           _TMR1_SetInterruptHandler
                    _TMR2_Initialize
                      _displayMatrix
                           _playNote
                         _shiftBytes
 ---------------------------------------------------------------------------------
 (1) _playNote                                             3     2      1     456
                                              2 COMMON     3     2      1
 ---------------------------------------------------------------------------------
 (1) _displayMatrix                                        6     6      0     739
                                              5 COMMON     2     2      0
                                              0 BANK1      4     4      0
                         _shiftBytes
 ---------------------------------------------------------------------------------
 (1) _shiftBytes                                           2     1      1     363
                                              3 COMMON     2     1      1
                  _SPI1_ExchangeByte
 ---------------------------------------------------------------------------------
 (2) _SPI1_ExchangeByte                                    1     1      0      31
                                              2 COMMON     1     1      0
 ---------------------------------------------------------------------------------
 (1) _SYSTEM_Initialize                                    0     0      0     633
                 _EXT_INT_Initialize
              _OSCILLATOR_Initialize
             _PIN_MANAGER_Initialize
                    _PWM3_Initialize
                    _SPI1_Initialize
                    _TMR0_Initialize
                    _TMR1_Initialize
                    _TMR2_Initialize
                     _WDT_Initialize
 ---------------------------------------------------------------------------------
 (2) _WDT_Initialize                                       0     0      0       0
 ---------------------------------------------------------------------------------
 (1) _TMR2_Initialize                                      0     0      0       0
 ---------------------------------------------------------------------------------
 (1) _TMR1_Initialize                                      0     0      0     211
           _TMR1_SetInterruptHandler
 ---------------------------------------------------------------------------------
 (1) _TMR1_SetInterruptHandler                             2     0      2     211
                                              2 COMMON     2     0      2
 ---------------------------------------------------------------------------------
 (1) _TMR0_Initialize                                      0     0      0     211
           _TMR0_SetInterruptHandler
 ---------------------------------------------------------------------------------
 (1) _TMR0_SetInterruptHandler                             2     0      2     211
                                              2 COMMON     2     0      2
 ---------------------------------------------------------------------------------
 (2) _SPI1_Initialize                                      0     0      0       0
 ---------------------------------------------------------------------------------
 (2) _PWM3_Initialize                                      0     0      0       0
 ---------------------------------------------------------------------------------
 (2) _PIN_MANAGER_Initialize                               0     0      0       0
 ---------------------------------------------------------------------------------
 (2) _OSCILLATOR_Initialize                                0     0      0       0
 ---------------------------------------------------------------------------------
 (2) _EXT_INT_Initialize                                   0     0      0     211
            _INT_SetInterruptHandler
 ---------------------------------------------------------------------------------
 (3) _INT_SetInterruptHandler                              2     0      2     211
                                              2 COMMON     2     0      2
 ---------------------------------------------------------------------------------
 Estimated maximum stack depth 3
 ---------------------------------------------------------------------------------
 (Depth) Function   	        Calls       Base Space   Used Autos Params    Refs
 ---------------------------------------------------------------------------------
 (4) _INTERRUPT_InterruptManager                           0     0      0    1460
                            _INT_ISR
                           _TMR0_ISR
                           _TMR1_ISR
 ---------------------------------------------------------------------------------
 (5) _TMR1_ISR                                             0     0      0    1435
                   Absolute function *
       _TMR1_DefaultInterruptHandler *
                          _TMR1_ISR_ *
                    _TMR1_WriteTimer
 ---------------------------------------------------------------------------------
 (6) _TMR1_WriteTimer                                      2     0      2     240
                                              0 COMMON     2     0      2
 ---------------------------------------------------------------------------------
 (6) _TMR1_ISR_                                           28    28      0    1195
                                              0 COMMON     2     2      0
                                              0 BANK0     26    26      0
 ---------------------------------------------------------------------------------
 (6) _TMR1_DefaultInterruptHandler                         0     0      0       0
 ---------------------------------------------------------------------------------
 (5) _TMR0_ISR                                             0     0      0       0
                   Absolute function *
       _TMR0_DefaultInterruptHandler *
                          _TMR0_ISR_ *
 ---------------------------------------------------------------------------------
 (6) _TMR0_ISR_                                            0     0      0       0
 ---------------------------------------------------------------------------------
 (6) _TMR0_DefaultInterruptHandler                         0     0      0       0
 ---------------------------------------------------------------------------------
 (5) _INT_ISR                                              0     0      0      25
                       _INT_CallBack
 ---------------------------------------------------------------------------------
 (6) _INT_CallBack                                         0     0      0      25
                   Absolute function *
                            _EXT_ISR *
        _INT_DefaultInterruptHandler *
 ---------------------------------------------------------------------------------
 (7) _INT_DefaultInterruptHandler                          0     0      0       0
 ---------------------------------------------------------------------------------
 (7) _EXT_ISR                                              2     2      0      25
                                              0 COMMON     2     2      0
                        _TMR0_Reload
 ---------------------------------------------------------------------------------
 (8) _TMR0_Reload                                          0     0      0       0
 ---------------------------------------------------------------------------------
 (6) Absolute function(Fake)                               0     0      0       0
 ---------------------------------------------------------------------------------
 Estimated maximum stack depth 8
 ---------------------------------------------------------------------------------

 Call Graph Graphs:

 _main (ROOT)
   _EXT_INT_Initialize
     _INT_SetInterruptHandler
   _INT_SetInterruptHandler
   _PWM3_Initialize
   _SPI1_Initialize
   _SYSTEM_Initialize
     _EXT_INT_Initialize
     _OSCILLATOR_Initialize
     _PIN_MANAGER_Initialize
     _PWM3_Initialize
     _SPI1_Initialize
     _TMR0_Initialize
       _TMR0_SetInterruptHandler
     _TMR1_Initialize
       _TMR1_SetInterruptHandler
     _TMR2_Initialize
     _WDT_Initialize
   _TMR0_Initialize
   _TMR0_SetInterruptHandler
   _TMR1_Initialize
   _TMR1_SetInterruptHandler
   _TMR2_Initialize
   _displayMatrix
     _shiftBytes
       _SPI1_ExchangeByte
   _playNote
   _shiftBytes

 _INTERRUPT_InterruptManager (ROOT)
   _INT_ISR
     _INT_CallBack
       Absolute function(Fake) *
       _EXT_ISR *
         _TMR0_Reload
       _INT_DefaultInterruptHandler *
   _TMR0_ISR
     Absolute function(Fake) *
     _TMR0_DefaultInterruptHandler *
     _TMR0_ISR_ *
   _TMR1_ISR
     Absolute function(Fake) *
     _TMR1_DefaultInterruptHandler *
     _TMR1_ISR_ *
     _TMR1_WriteTimer *

 Address spaces:
Name               Size   Autos  Total    Cost      Usage
BIGRAM             3F0      0       0       0        0.0%
NULL                 0      0       0       0        0.0%
CODE                 0      0       0       0        0.0%
BITCOMMON            E      0       0       1        0.0%
BITSFR0              0      0       0       1        0.0%
SFR0                 0      0       0       1        0.0%
COMMON               E      7       A       2       71.4%
BITSFR1              0      0       0       2        0.0%
SFR1                 0      0       0       2        0.0%
BITSFR2              0      0       0       3        0.0%
SFR2                 0      0       0       3        0.0%
STACK                0      0       0       3        0.0%
BITSFR3              0      0       0       4        0.0%
SFR3                 0      0       0       4        0.0%
ABS                  0      0      98       4        0.0%
BITBANK0            50      0       0       5        0.0%
BITSFR4              0      0       0       5        0.0%
SFR4                 0      0       0       5        0.0%
BANK0               50     1A      3C       6       75.0%
BITSFR5              0      0       0       6        0.0%
SFR5                 0      0       0       6        0.0%
BITBANK1            50      0       0       7        0.0%
BITSFR6              0      0       0       7        0.0%
SFR6                 0      0       0       7        0.0%
BANK1               50      9      49       8       91.2%
BITSFR7              0      0       0       8        0.0%
SFR7                 0      0       0       8        0.0%
BITBANK2            50      0       0       9        0.0%
BITSFR8              0      0       0       9        0.0%
SFR8                 0      0       0       9        0.0%
BANK2               50      9       9      10       11.2%
BITSFR9              0      0       0      10        0.0%
SFR9                 0      0       0      10        0.0%
BITBANK3            50      0       0      11        0.0%
BITSFR10             0      0       0      11        0.0%
SFR10                0      0       0      11        0.0%
BANK3               50      0       0      12        0.0%
BITSFR11             0      0       0      12        0.0%
SFR11                0      0       0      12        0.0%
BITBANK4            50      0       0      13        0.0%
BITSFR12             0      0       0      13        0.0%
SFR12                0      0       0      13        0.0%
BANK4               3B      0       0      14        0.0%
BITSFR13             0      0       0      14        0.0%
SFR13                0      0       0      14        0.0%
BITBANK5            50      0       0      15        0.0%
BITSFR14             0      0       0      15        0.0%
SFR14                0      0       0      15        0.0%
BITSFR15             0      0       0      16        0.0%
SFR15                0      0       0      16        0.0%
BANK5                0      0       0      16        0.0%
BITBANK6            50      0       0      17        0.0%
BITSFR16             0      0       0      17        0.0%
SFR16                0      0       0      17        0.0%
BITSFR17             0      0       0      18        0.0%
SFR17                0      0       0      18        0.0%
BANK6                0      0       0      18        0.0%
BITBANK7            50      0       0      19        0.0%
BITSFR18             0      0       0      19        0.0%
SFR18                0      0       0      19        0.0%
BITSFR19             0      0       0      20        0.0%
SFR19                0      0       0      20        0.0%
BANK7                0      0       0      20        0.0%
BITBANK8            50      0       0      21        0.0%
BITSFR20             0      0       0      21        0.0%
SFR20                0      0       0      21        0.0%
BITSFR21             0      0       0      22        0.0%
SFR21                0      0       0      22        0.0%
BANK8                0      0       0      22        0.0%
BITBANK9            50      0       0      23        0.0%
BITSFR22             0      0       0      23        0.0%
SFR22                0      0       0      23        0.0%
BITSFR23             0      0       0      24        0.0%
SFR23                0      0       0      24        0.0%
BANK9                0      0       0      24        0.0%
BITBANK10           50      0       0      25        0.0%
BITSFR24             0      0       0      25        0.0%
SFR24                0      0       0      25        0.0%
BITSFR25             0      0       0      26        0.0%
SFR25                0      0       0      26        0.0%
BANK10               0      0       0      26        0.0%
BITBANK11           50      0       0      27        0.0%
BITSFR26             0      0       0      27        0.0%
SFR26                0      0       0      27        0.0%
BITSFR27             0      0       0      28        0.0%
SFR27                0      0       0      28        0.0%
BANK11               0      0       0      28        0.0%
BITBANK12           30      0       0      29        0.0%
BITSFR28             0      0       0      29        0.0%
SFR28                0      0       0      29        0.0%
BITSFR29             0      0       0      30        0.0%
SFR29                0      0       0      30        0.0%
BANK12               0      0       0      30        0.0%
BITSFR30             0      0       0      31        0.0%
SFR30                0      0       0      31        0.0%
DATA                 0      0      98      31        0.0%
BITSFR31             0      0       0      32        0.0%
SFR31                0      0       0      32        0.0%
BITSFR32             0      0       0      33        0.0%
SFR32                0      0       0      33        0.0%
BITSFR33             0      0       0      34        0.0%
SFR33                0      0       0      34        0.0%
BITSFR34             0      0       0      35        0.0%
SFR34                0      0       0      35        0.0%
BITSFR35             0      0       0      36        0.0%
SFR35                0      0       0      36        0.0%
BITSFR36             0      0       0      37        0.0%
SFR36                0      0       0      37        0.0%
BITSFR37             0      0       0      38        0.0%
SFR37                0      0       0      38        0.0%
BITSFR38             0      0       0      39        0.0%
SFR38                0      0       0      39        0.0%
BITSFR39             0      0       0      40        0.0%
SFR39                0      0       0      40        0.0%
BITSFR40             0      0       0      41        0.0%
SFR40                0      0       0      41        0.0%
BITSFR41             0      0       0      42        0.0%
SFR41                0      0       0      42        0.0%
BITSFR42             0      0       0      43        0.0%
SFR42                0      0       0      43        0.0%
BITSFR43             0      0       0      44        0.0%
SFR43                0      0       0      44        0.0%
BITSFR44             0      0       0      45        0.0%
SFR44                0      0       0      45        0.0%
BITSFR45             0      0       0      46        0.0%
SFR45                0      0       0      46        0.0%
BITSFR46             0      0       0      47        0.0%
SFR46                0      0       0      47        0.0%
BITSFR47             0      0       0      48        0.0%
SFR47                0      0       0      48        0.0%
BITSFR48             0      0       0      49        0.0%
SFR48                0      0       0      49        0.0%
BITSFR49             0      0       0      50        0.0%
SFR49                0      0       0      50        0.0%
BITSFR50             0      0       0      51        0.0%
SFR50                0      0       0      51        0.0%
BITSFR51             0      0       0      52        0.0%
SFR51                0      0       0      52        0.0%
BITSFR52             0      0       0      53        0.0%
SFR52                0      0       0      53        0.0%
BITSFR53             0      0       0      54        0.0%
SFR53                0      0       0      54        0.0%
BITSFR54             0      0       0      55        0.0%
SFR54                0      0       0      55        0.0%
BITSFR55             0      0       0      56        0.0%
SFR55                0      0       0      56        0.0%
BITSFR56             0      0       0      57        0.0%
SFR56                0      0       0      57        0.0%
BITSFR57             0      0       0      58        0.0%
SFR57                0      0       0      58        0.0%
BITSFR58             0      0       0      59        0.0%
SFR58                0      0       0      59        0.0%
BITSFR59             0      0       0      60        0.0%
SFR59                0      0       0      60        0.0%
BITSFR60             0      0       0      61        0.0%
SFR60                0      0       0      61        0.0%
BITSFR61             0      0       0      62        0.0%
SFR61                0      0       0      62        0.0%
BITSFR62             0      0       0      63        0.0%
SFR62                0      0       0      63        0.0%
BITSFR63             0      0       0      64        0.0%
SFR63                0      0       0      64        0.0%


Microchip Technology PIC Macro Assembler V2.32 build 20210201212658 
Symbol Table                                                                                   Sat Dec 25 07:38:33 2021

                       _SPI1_ExchangeByte 0D7D                                         _a 1004  
                                       _b 100A                                         _c 1009  
                                       _d 1008                                         _e 1007  
                                       _f 1006                                         _g 1005  
                                      l32 0D42                                        l35 0D26  
                                      l29 0798                                        l64 07DD  
                                      l74 0D81                                        l76 0D86  
                                      l77 0D89                        ?_SPI1_ExchangeByte 0070  
                                     l226 0D56                                       l147 073E  
                                     l331 0D48                                       l309 07B1  
                                     l177 0DA4                                       l284 0D7C  
                                     l365 075E                                       l278 0D3C  
                                     l561 0F5A                                       l553 0EA2  
                                     l395 0D4E                                       l574 0FF9  
                                     l576 0FFB                                       l577 0FFC  
                                     l682 0D96                                       l666 076A  
                                     l667 0773                                       l668 077C  
                                     l689 06E2                                       _PR2 028D  
                         _timer1ReloadVal 0056                       ??_SPI1_ExchangeByte 0072  
                         _TMR2_Initialize 0D97                                       wreg 0009  
                          ?_displayMatrix 0070                                      l2701 072B  
                                    l2711 0737                                      l2703 072D  
                                    l2721 0D41                                      l2713 0739  
                                    l2705 072F                                      l2801 06B2  
                                    l2715 073B                                      l2707 0732  
                                    l2731 0D9B                                      l2723 0D24  
                                    l2811 06D5                                      l2803 06B7  
                                    l2717 0D3D                                      l2709 0734  
                                    l2725 0D4F                                      l2741 0742  
                                    l2733 0D9E                                      l2805 06BB  
                                    l2813 0760                                      l2671 0D37  
                                    l2719 0D3F                                      l2751 0752  
                                    l2743 0744                                      l2735 0D9F  
                                    l2727 0D97                                      l2807 06C9  
                                    l2815 0767                                      l2911 0EA4  
                                    l2903 0E69                                      l2761 0D7A  
                                    l2681 07D7                                      l2673 0D43  
                                    l2753 0754                                      l2745 0746  
                                    l2737 0DA1                                      l2729 0D9A  
                                    l2665 0D7E                                      l2809 06D0  
                                    l2817 0770                                      l2921 0EBA  
                                    l2913 0EAD                                      l2905 0E7A  
                                    l2841 0DBE                                      l2691 071C  
                                    l2683 07D9                                      l2771 07AE  
                                    l2763 0799                                      l2675 0D49  
                                    l2755 075B                                      l2747 0748  
                                    l2739 073F                                      l2667 0D87  
                                    l2931 0F13                                      l2923 0EBD  
                                    l2915 0EAF                                      l2907 0E7F  
                                    l2851 0DD0                                      l2843 0DC0  
                                    l2835 0DB6                                      l2757 0D70  
                                    l2693 071E                                      l2685 07DB  
                                    l2677 07C9                                      l2765 07A4  
                                    l2749 074A                                      l2781 0786  
                                    l2773 0D8B                                      l2941 0F42  
                                    l2933 0F14                                      l2925 0EE6  
                                    l2917 0EB0                                      l2909 0E8E  
                                    l2861 0DF4                                      l2853 0DDC  
                                    l2845 0DC2                                      l2837 0DB9  
                                    l2759 0D73                                      l2695 0721  
                                    l2687 0717                                      l2679 07D6  
                                    l2767 07A6                                      l2791 0795  
                                    l2783 0789                                      l2775 0D93  
                                    l2951 0F8F                                      l2935 0F15  
                                    l2927 0EE9                                      l2919 0EB5  
                                    l2871 0DF9                                      l2863 0DF5  
                                    l2855 0DE8                                      l2847 0DC3  
                                    l2839 0DBA                                      l2697 0727  
                                    l2689 071A                                      l2769 07A7  
                                    l2785 078C                                      l2777 0D95  
                                    l2793 06A9                                      l2961 0FE1  
                                    l2953 0FB8                                      l2937 0F18  
                                    l2929 0F12                                      l2945 0F45  
                                    l2881 0E05                                      l2865 0DF6  
                                    l2857 0DED                                      l2849 0DC4  
                                    l2699 0729                                      l2787 078F  
                                    l2779 077D                                      l2963 0FE3  
                                    l2955 0FC0                                      l2947 0F5F  
                                    l2939 0F41                                      l2891 0E27  
                                    l2883 0E14                                      l2859 0DF2  
                                    l2789 0792                                      l2957 0FD6  
                                    l2949 0F88                                      l2965 0FE5  
                                    l2893 0E51                                      l2885 0E24  
                                    l2877 0DFC                                      l2799 06AC  
                                    l2967 0FEB                                      l2959 0FDD  
                                    l2895 0E56                                      l2879 0E00  
                                    l2969 0FF0                                      l2897 0E66  
                                    l2999 0F4F                                      u2000 0E8E  
                                    u2001 0E8D                                      u2010 0EA2  
                                    u2011 0EA1                                      u2020 0EB5  
                                    u2021 0EB4                                      u2005 0E8A  
                                    u2030 0EBA                                      u2031 0EB9  
                                    u2015 0E9E                                      u2040 0F8E  
                                    u2041 0F8D                                      u2050 0FBF  
                                    u2051 0FBE                                      u2060 0FDD  
                                    u2061 0FDC                                      _LATA 0018  
                                    u2070 0FEB                           __end_of_INT_ISR 0D37  
                                    u2071 0FEA                                      _LATC 001A  
                                    u2080 0FF0                                      u2081 0FEF  
                                    u2097 06CC                                      _T2PR 028D  
                                    u1900 06E2                                      u1901 06E1  
                                    u1910 0767                                      u1911 0766  
                                    u1920 0770                                      u1905 06DE  
                                    u1921 076F                                      u1950 0E14  
                                    u1951 0E13                                      u1880 0D86  
                                    u1960 0E24                                      u1881 0D85  
                                    u1961 0E23                                      u1890 06B2  
                                    u1891 06B1                                      u1955 0E10  
                                    u1965 0E20                                      u1990 0E65  
                                    u1991 0E64                                      u1975 0E30  
                                    u1985 0E3D                                      u1995 0E61  
                         __end_of_EXT_ISR 0717                                      _TMR2 028C  
                                    _WPUA 1F39                                      _WPUC 1F4F  
                                    _main 0DB6                                      fsr0h 0005  
                                    fsr1h 0007                                      fsr0l 0004  
                                    indf1 0001                                      fsr1l 0006  
                                    btemp 007E       __end_of_INT_DefaultInterruptHandler 0D24  
             _INT_DefaultInterruptHandler 0D23                                      start 0031  
         __end_of_INT_SetInterruptHandler 0D3D                 __end_of_SPI1_ExchangeByte 0D8A  
              ??_TMR1_SetInterruptHandler 0074                   __end_of_TMR0_Initialize 07B2  
          ??_TMR0_DefaultInterruptHandler 0070            __size_of_OSCILLATOR_Initialize 0006  
           __end_of_OSCILLATOR_Initialize 0D43                                     ?_main 0070  
                                   _T1CLK 0211                                     _T1CON 020E  
                                   _T2CON 028E                                     _T2HLT 028F  
                                   _T2TMR 028C                                     i1l250 0013  
                                   _T2RST 0291                                     i1l324 0D30  
                                   i1l252 001F                                     i1l253 002F  
                                   i1l334 0002                                     i1l271 0D36  
                                   i1l328 07F1                                     i1l281 0D23  
                                   i1l258 002F                                     i1l275 0D6F  
                                   i1l604 0162                                     i1l392 07C8  
                                   i1l617 01AA                                     i1l379 0DB5  
                                   i1l660 03F1                                     i1l398 0003  
                                   i1l591 0716                                     i1l663 03F1  
                                   i1l584 06E5                                     i1l656 03A0  
                                   i1l594 0D2A                                     _OSCEN 0891  
                                   _TMR0H 059D                          playNote@prescale 0072  
                                   _TMR1H 020D                                     _TMR0L 059C  
                                   _TMR1L 020C                                     _TRISA 0012  
                                   _TRISC 0014                                     u98_20 06EA  
                                   u98_21 06E9                                     u99_20 06FB  
                                   u99_21 06FA         __size_of_TMR0_SetInterruptHandler 0006  
               ?_TMR0_SetInterruptHandler 0072                        __size_of_TMR0_ISR_ 0004  
                      __size_of_TMR1_ISR_ 0384                          __end_of_TMR0_ISR 07F2  
                        __end_of_TMR1_ISR 07C9                            _WDT_Initialize 0D24  
                                   _count 0048                                     _song2 222B  
                                   _song3 00C0                                     main@i 0123  
                                   main@j 0121                   __end_of_PWM3_Initialize 0D57  
                 __end_of_TMR1_Initialize 075F                                     pclath 000A  
                                   status 0003                                     wtemp0 007E  
                         _TMR1_WriteTimer 0DA5                  __size_of_SPI1_Initialize 0015  
                         __initialization 0033                              __end_of_main 1000  
                 __end_of_TMR2_Initialize 0DA5               ?_INTERRUPT_InterruptManager 0070  
                    TMR1_ISR_@lights_1211 0021                      TMR1_ISR_@lights_1221 0031  
                    TMR1_ISR_@lights_1214 0022                                    ??_main 00E4  
                         ??_displayMatrix 0075                    __end_of_WDT_Initialize 0D27  
                               ??_INT_ISR 0072                                 ??_EXT_ISR 0070  
                                  _ANSELA 1F38                                    _ANSELC 1F4E  
                                  _T0CON0 059E                                    _T0CON1 059F  
                                  _T1GATE 0210                                    _T1GCON 020F  
                                  _RA5PPS 1F15                                    u100_20 0708  
                                  u100_21 0707                                    u101_20 0715  
                                  u101_21 0714                                    _RC3PPS 1F23  
                                  u102_20 0D6A                                    u110_20 00E1  
                                  u102_21 0D69                                    u110_21 00E0  
                 TMR1_WriteTimer@timerVal 0070                                    i1l2011 06E3  
                                  i1l2021 06FB                                    i1l2013 06EA  
                                  u110_25 00DD                                    i1l2031 070F  
                                  i1l2023 0700                                    i1l2015 06EE  
                                  u111_20 00F0                                    u103_20 0DAA  
                                  i1l2033 0715                                    i1l2025 0703  
                                  u111_21 00EF                                    u103_21 0DA9  
                                  i1l2027 0708                                    i1l2019 06F5  
                                  i1l2131 0D63                                    i1l2211 0162  
                                  _RC5PPS 1F25                                    i1l2029 070D  
                                  i1l2133 0D6A                                    i1l2213 0168  
                                  i1l2205 0134                                    u111_25 00EC  
                                  i1l2141 0DAD                                    i1l2311 02CA  
                                  i1l2303 02B1                                    i1l2231 01AB  
                                  i1l2215 0177                                    i1l2207 0150  
                                  i1l2143 0DAF                                    i1l2135 0DA5  
                                  u120_20 018D                                    u112_20 0101  
                                  u104_20 0078                                    i1l2401 03E8  
                                  i1l2321 02E2                                    i1l2313 02D3  
                                  i1l2305 02BA                                    i1l2241 01F2  
                                  i1l2233 01B8                                    i1l2225 018F  
                                  u120_21 018C                                    i1l2217 0187  
                                  i1l2209 0154                                    u112_21 0100  
                                  i1l2161 0078                                    u104_21 0077  
                                  i1l2137 0DAA                                    i1l2145 0DB1  
                                  _ODCONA 1F3A                                    i1l2155 0D27  
                                  i1l2403 03EC                                    i1l2323 02E4  
                                  i1l2307 02BC                                    i1l2251 0214  
                                  i1l2235 01BF                                    i1l2227 0198  
                                  i1l2219 018D                                    i1l2163 0085  
                                  i1l2147 0DB3                                    i1l2139 0DAB  
                                  _ODCONC 1F50                                    i1l2421 07E0  
                                  i1l2341 031A                                    i1l2333 0300  
                                  i1l2317 02D8                                    i1l2261 022A  
                                  i1l2253 0222                                    i1l2237 01DC  
                                  i1l2229 019C                                    i1l2165 0093  
                                  i1l2181 00E2                                    i1l2157 006E  
                                  i1l2431 0D33                                    i1l2423 07E3  
                                  i1l2351 0359                                    i1l2343 0323  
                                  i1l2335 030A                                    i1l2327 02F2  
                                  i1l2319 02DD                                    i1l2263 0233  
                                  i1l2255 0228                                    i1l2247 01F4  
                                  i1l2239 01E2                                    i1l2191 0103  
                                  i1l2183 00F0                                    i1l2175 00B4  
                                  i1l2167 00A1                                    i1l2159 0073  
                                  u121_20 01A9                                    u113_20 0122  
                                  u105_20 0085                                    i1l2425 07E5  
                                  i1l2361 0371                                    i1l2345 032D  
                                  i1l2337 030C                                    i1l2329 02FB  
                                  i1l2265 0237                                    i1l2249 0210  
                                  i1l2281 027B                                    u121_21 01A8  
                                  u113_21 0121                                    i1l2193 0111  
                                  i1l2185 0101                                    i1l2177 00D0  
                                  i1l2169 00B2                                    u105_21 0084  
                                  i1l2433 07B2                                    i1l2427 07EC  
                                  i1l2419 07DE                                    i1l2371 0388  
                                  i1l2363 0373                                    i1l2347 033A  
                                  i1l2291 0296                                    i1l2355 035E  
                                  i1l2283 0280                                    i1l2275 0257  
                                  i1l2267 0245                                    i1l2195 0115  
                                  i1l2179 00D4                                    i1l2435 07B4  
                                  i1l2429 0D31                                    i1l2381 03AE  
                                  i1l2373 038C                                    i1l2365 0378  
                                  i1l2357 0364                                    i1l2349 0342  
                                  i1l2293 0298                                    i1l2285 0286  
                                  i1l2277 026A                                    i1l2269 0255  
                                  u121_25 01A5                                    u113_25 011E  
                                  i1l2197 0123                                    u105_25 0081  
                                  i1l2437 07BC                                    i1l2391 03CB  
                                  i1l2383 03B4                                    i1l2375 038F  
                                  i1l2367 037F                                    i1l2359 036B  
                                  i1l2279 026E                                    i1l2287 0287  
                                  i1l2199 0131                                    i1l2439 07C3  
                                  u130_20 0255                                    u122_20 01B8  
                                  u114_20 0131                                    u106_20 0093  
                                  i1l2393 03D7                                    i1l2385 03B8  
                                  i1l2369 0384                                    i1l2377 0393  
                                  i1l2297 02A6                                    i1l2289 028C  
                                  u130_21 0254                                    u122_21 01B7  
                                  u114_21 0130                                    u106_21 0092  
                                  i1l2395 03DD                                    i1l2387 03C4  
                                  i1l2379 0399                                    i1l2299 02AC  
                                  i1l2491 001B                                    i1l2483 0006  
                                  i1l2397 03E0                                    u122_25 01B4  
                                  u114_25 012D                                    u106_25 008F  
                                  i1l2493 0023                                    i1l2485 000B  
                                  u210_27 06F1                                    i1l2399 03E6  
                                  i1l2495 0027                                    i1l2487 000F  
                                  u123_20 01BF                                    u107_20 00A1  
                                  u123_21 01BE                                    u107_21 00A0  
                                  i1l2497 002B                                    i1l2489 0017  
                                  u131_25 025F                                    u115_25 013C  
                                  u107_25 009D                                    u140_20 02E2  
                                  u132_20 027B                                    u124_20 01E2  
                                  u116_20 0161                                    u108_20 00B2  
                                  u140_21 02E1                                    u132_21 027A  
                                  u124_21 01E1                                    u116_21 0160  
                                  u108_21 00B1                                    i1l1995 0D2B  
                                  i1l1997 0D2E                                    u132_25 0277  
                                  u116_25 015D                                    u141_20 02F1  
                                  u133_20 0286                                    u125_20 01F2  
                                  u117_20 0168                                    u141_21 02F0  
                                  u133_21 0285                                    u125_21 01F1  
                                  u117_21 0167                                    u141_25 02ED  
                                  u109_25 00BC                                    u150_20 0384  
                                  u142_20 030A                                    u134_20 028C  
                                  u118_20 0177                                    u150_21 0383  
                                  u142_21 0309                                    u134_21 028B  
                                  u118_21 0176                                    u126_25 01FC  
                                  u151_20 0399                                    u143_20 0319  
                                  u135_20 0296                                    u127_20 0221  
                                  u119_20 0187                                    u151_21 0398  
                                  u143_21 0318                                    u135_21 0295  
                                  u127_21 0220                                    u119_21 0186  
                                  u143_25 0315                                    u127_25 021D  
                                  u152_20 03AE                                    u136_20 02A5  
                                  u128_20 0228                                    u160_20 07C3  
                                  u152_21 03AD                                    u136_21 02A4  
                                  u128_21 0227                                    u160_21 07C2  
                                  _INLVLA 1F3C                                    _INLVLC 1F52  
                                  u152_25 03AA                                    u144_25 0326  
                                  u136_25 02A1                                    u153_20 03B4  
                                  u137_20 02BA                                    u129_20 0244  
                                  u153_21 03B3                                    u137_21 02B9  
                                  u129_21 0243                                    u145_25 0345  
                                  u129_25 0240                                    u154_20 03C4  
                                  u146_20 0364                                    u138_20 02C9  
                                  u170_20 001B                                    u154_21 03C3  
                                  u146_21 0363                                    u138_21 02C8  
                                  u170_21 001A                                    u154_25 03C0  
                                  u138_25 02C5                                    u155_20 03CA  
                                  u147_20 036B                                    u139_20 02DD  
                                  u171_20 0023                                    u155_21 03C9  
                                  u147_21 036A                                    u139_21 02DC  
                                  u171_21 0022                                    u156_20 03D7  
                                  u148_20 0371                                    u172_20 0027  
                                  u156_21 03D6                                    u148_21 0370  
                                  u172_21 0026                                    u156_25 03D3  
                                  u157_20 03DD                                    u149_20 037F  
                                  u173_20 002B                                    u157_21 03DC  
                                  u149_21 037E                                    u173_21 002A  
                                  u158_20 03E6                                    u158_21 03E5  
                                  u159_20 07EC                                    u167_20 000B  
                                  u159_21 07EB                                    u167_21 000A  
                                  u168_20 000F                                    u168_21 000E  
                                  _INTPPS 1E90                                    u169_20 0017  
                                  u169_21 0016                                    _OSCFRQ 0893  
                                  _WDTCON 080C                __size_of_SPI1_ExchangeByte 000D  
    __end_of_TMR1_DefaultInterruptHandler 0004     __size_of_TMR1_DefaultInterruptHandler 0001  
            _TMR1_DefaultInterruptHandler 0003                         __end_of_TMR0_ISR_ 0D2B  
                       __end_of_TMR1_ISR_ 03F2                              ?_TMR0_Reload 0070  
                        ?_TMR0_Initialize 0070                             ?_INT_CallBack 0070  
                        __end_of_playNote 077D                              __pdataBIGRAM 217B  
                         ?_WDT_Initialize 0070          __size_of_INT_SetInterruptHandler 0006  
TMR1_SetInterruptHandler@InterruptHandler 0072  TMR0_SetInterruptHandler@InterruptHandler 0072  
 INT_SetInterruptHandler@InterruptHandler 0072                   __end_of_TMR1_WriteTimer 0DB6  
                        ?_TMR1_Initialize 0070                          ?_PWM3_Initialize 0070  
                       _SYSTEM_Initialize 077D                   __end_of__initialization 006A  
                      ?_SYSTEM_Initialize 0070                             _last_prescale 0079  
                    _silent_night_playing 0053                            __pcstackCOMMON 0070  
                            __pidataBANK0 07F2                              __pidataBANK1 0667  
                     ??_SYSTEM_Initialize 0074                                 ?_TMR0_ISR 0070  
                               ?_TMR1_ISR 0070             ?_TMR1_DefaultInterruptHandler 0070  
                       ??_SPI1_Initialize 0072                          ?_TMR2_Initialize 0070  
                          ??_INT_CallBack 0072                     SPI1_ExchangeByte@data 0072  
                         EXT_ISR@debounce 0071                         shiftBytes@lowSide 0073  
                      _spi1_configuration 1000               __size_of_EXT_INT_Initialize 000D  
               __end_of_SYSTEM_Initialize 0799                                __pbssBANK0 0048  
                              __pnvCOMMON 0077                                __pmaintext 0DB6  
        __end_of_TMR0_SetInterruptHandler 0D49                                ??_TMR0_ISR 0070  
                              ??_TMR1_ISR 0072                                __pintentry 0004  
                    displayMatrix@lowSide 00E3                                   _INT_ISR 0D31  
                                 _EXT_ISR 06E3                                   _OSCTUNE 0892  
                                 _PWM3DCH 0315                                   _PWM3DCL 0314  
                                 _PWM3CON 0316                                   _SSP1ADD 018D  
                                 _SLRCONA 1F3B                                   _SLRCONC 1F51  
                                 _SSP1BUF 018C                          ?_TMR1_WriteTimer 0070  
                               ?_playNote 0072                      __size_of_TMR0_Reload 0006  
                                 __ptext1 075F                                   __ptext2 06A7  
                                 __ptext3 0D8A                                   __ptext4 0D7D  
                                 __ptext5 077D                                   __ptext6 0D24  
                                 __ptext7 0D97                                   __ptext8 073F  
                                 __ptext9 0D49            ??_TMR1_DefaultInterruptHandler 0070  
                               _T1CONbits 020E                     _OSCILLATOR_Initialize 0D3D  
                               _T2CONbits 028E                            displayMatrix@i 00E1  
                            _cole_counter 004A         __size_of_TMR1_SetInterruptHandler 0006  
                ??_PIN_MANAGER_Initialize 0072                 ?_TMR1_SetInterruptHandler 0072  
                               _T2HLTbits 028F                   _INT_SetInterruptHandler 0D37  
                                 _presses 004E                __size_of_SYSTEM_Initialize 001C  
                    end_of_initialization 006A                                 _T2RSTbits 0291  
                                 init_ram 0D57                                   initloop 0D58  
                    __end_of_INT_CallBack 0D70                                _shiftBytes 0D8A  
                              ??_playNote 0073                                 _TMR0_ISR_ 0D27  
                               _TMR1_ISR_ 006E                          ??_WDT_Initialize 0072  
                _TMR0_SetInterruptHandler 0D43                                 _PORTAbits 000C  
                               _TRISAbits 0012                                 _TRISCbits 0014  
                   __end_of_displayMatrix 06E3                                main@j_1192 0125  
                              main@j_1194 0127                          _silent_night_pre 2366  
                         _SPI1_Initialize 07C9                      _timer0ReloadVal16bit 0077  
                           __pidataBIGRAM 03F2                                ?_TMR0_ISR_ 0070  
                              ?_TMR1_ISR_ 0070                         __size_of_TMR0_ISR 0014  
                       __size_of_TMR1_ISR 0017                    ?_OSCILLATOR_Initialize 0070  
               ??_INT_SetInterruptHandler 0074                        shiftBytes@highSide 0074  
                     start_initialization 0033                  __size_of_TMR0_Initialize 0019  
         __size_of_PIN_MANAGER_Initialize 0028              ?_INT_DefaultInterruptHandler 0070  
                             ?_shiftBytes 0073                  __size_of_PWM3_Initialize 0008  
                __size_of_TMR1_Initialize 0020                               __pdataBANK0 003A  
                             __pdataBANK1 00A0                __end_of_EXT_INT_Initialize 0D7D  
                             __pbssCOMMON 0079                                 ___latbits 0002  
                                ?_INT_ISR 0070                             __pcstackBANK0 0020  
                           __pcstackBANK1 00E0                             __pcstackBANK2 0120  
                                ?_EXT_ISR 0070                  __size_of_TMR2_Initialize 000E  
                 __end_of_SPI1_Initialize 07DE                     __size_of_INT_CallBack 000D  
                               __end_of_a 1005                                 __end_of_b 100B  
                               __end_of_c 100A                                 __end_of_d 1009  
                               __end_of_e 1008                                 __end_of_f 1007  
                               __end_of_g 1006                           TMR1_ISR_@i_1210 0034  
                         TMR1_ISR_@i_1220 0038                           TMR1_ISR_@i_1212 0023  
                         TMR1_ISR_@i_1213 0036                           TMR1_ISR_@i_1215 0025  
                         TMR1_ISR_@i_1216 002F                           TMR1_ISR_@i_1209 002D  
                         TMR1_ISR_@i_1217 0027                           TMR1_ISR_@i_1218 0029  
                         TMR1_ISR_@i_1219 002B                     _TMR0_InterruptHandler 0058  
                               __pnvBANK0 0054                           TMR1_ISR_@lights 0020  
                  _PIN_MANAGER_Initialize 0717             ??_INT_DefaultInterruptHandler 0070  
                       __size_of_playNote 001E          __end_of_TMR1_SetInterruptHandler 0D4F  
                             ??_TMR0_ISR_ 0070                               ??_TMR1_ISR_ 0070  
            ??_INTERRUPT_InterruptManager 0072                       displayMatrix@states 00E0  
                            _INT_CallBack 0D63                              playNote@note 0074  
                     __size_of_shiftBytes 000D                                 _last_note 004F  
                              TMR1_ISR_@i 0032                                  _T2CLKCON 0290  
                       ??_TMR0_Initialize 0074                                  _LATCbits 001A  
                                _PIE0bits 0716                                  _PIE1bits 0717  
                __size_of_TMR1_WriteTimer 0011       __size_of_INTERRUPT_InterruptManager 002D  
              ??_TMR0_SetInterruptHandler 0074                                  _PIR0bits 070C  
                                _PIR1bits 070D                             ??_TMR0_Reload 0070  
                               _song2_pre 217B                                 _song3_pre 00A0  
                                _SSP1CON1 0190                                  _SSP1CON2 0191  
                                _TMR0_ISR 07DE                                  _TMR1_ISR 07B2  
                               _num_songs 0040                                  _SSP1STAT 018F  
                       ??_TMR1_Initialize 0074                         ??_PWM3_Initialize 0072  
                               main@light 0120      __size_of_INT_DefaultInterruptHandler 0001  
                        __size_of_INT_ISR 0006                          __size_of_EXT_ISR 0034  
                        ?_SPI1_Initialize 0070                         ??_TMR2_Initialize 0072  
                           _song2_playing 0051                             _song3_playing 0052  
                           _TMR0_complete 0050                   ??_OSCILLATOR_Initialize 0072  
                             _light_array 0041                  _TMR1_SetInterruptHandler 0D49  
                     __end_of_TMR0_Reload 0D31                     _TMR1_InterruptHandler 0054  
                              _T0CON0bits 059E                                  __ptext10 0799  
                                __ptext11 0D43                                  __ptext20 0DA5  
                                __ptext12 07C9                                  __ptext21 0003  
                                __ptext13 0D4F                                _T1GCONbits 020F  
                                __ptext30 0D2B                                  __ptext22 006E  
                                __ptext14 0717                                  __ptext23 07DE  
                                __ptext15 0D3D                                  __ptext24 0002  
                                __ptext16 0D70                                  __ptext25 0D27  
                                __ptext17 0D37                                  __ptext26 0D31  
                                __ptext27 0D63                                  __ptext19 07B2  
                                __ptext28 06E3                                  __ptext29 0D23  
                            _SSP1CON1bits 0190                             __size_of_main 024A  
    __end_of_TMR0_DefaultInterruptHandler 0003     __size_of_TMR0_DefaultInterruptHandler 0001  
            _TMR0_DefaultInterruptHandler 0002                              ??_shiftBytes 0074  
                                _playNote 075F                    __size_of_displayMatrix 003C  
                                int$flags 007E        __end_of_INTERRUPT_InterruptManager 0031  
              _INTERRUPT_InterruptManager 0004                         ??_TMR1_WriteTimer 0072  
                            _song2_length 003D                              _song3_length 003A  
                              _INTCONbits 000B                      _INT_InterruptHandler 005A  
                      __end_of_shiftBytes 0D97                              _silent_night 22DB  
                      _EXT_INT_Initialize 0D70                   __size_of_WDT_Initialize 0003  
                                intlevel1 0000                              _vibes_count2 004C  
                            _vibes_count3 004B                   ?_PIN_MANAGER_Initialize 0070  
                     ?_EXT_INT_Initialize 0070             ?_TMR0_DefaultInterruptHandler 0070  
                             _TMR0_Reload 0D2B                              _timer_high_2 003F  
                            _timer_high_3 003C                  ?_INT_SetInterruptHandler 0072  
                           __pstringtext1 1000                             __pstringtext2 1004  
                           __pstringtext3 1005                             __pstringtext4 1006  
                           __pstringtext5 1007                             __pstringtext6 1008  
                           __pstringtext7 1009                             __pstringtext8 100A  
                    ??_EXT_INT_Initialize 0074                                _SSP1DATPPS 1EC6  
                             _vibes_count 004D                                _SSP1CLKPPS 1EC5  
                         _TMR0_Initialize 0799                               _timer_low_2 003E  
                             _timer_low_3 003B                             _displayMatrix 06A7  
          __end_of_PIN_MANAGER_Initialize 073F                           _TMR1_Initialize 073F  
                         _PWM3_Initialize 0D4F                __end_of_spi1_configuration 1004  
