

Microchip MPLAB XC8 Assembler V2.32 build 20210201212658 
                                                                                               Mon Dec 13 10:33:35 2021

Microchip MPLAB XC8 C Compiler v2.32 (Free license) build 20210201212658 Og1 
     1                           	processor	16F15225
     2                           	pagewidth 120
     3                           	opt	flic
     4                           	psect	idataBIGRAM,global,class=CODE,delta=2,noexec
     5                           	psect	idataBANK0,global,class=CODE,delta=2,noexec
     6                           	psect	idataBANK1,global,class=CODE,delta=2,noexec
     7                           	psect	idataBANK2,global,class=CODE,delta=2,noexec
     8                           	psect	stringtext1,global,class=STRCODE,delta=2,noexec
     9                           	psect	nvCOMMON,global,class=COMMON,space=1,delta=1,noexec
    10                           	psect	nvBANK0,global,class=BANK0,space=1,delta=1,noexec
    11                           	psect	cinit,global,class=CODE,merge=1,delta=2
    12                           	psect	dataBIGRAM,global,delta=1
    13                           	psect	bssCOMMON,global,class=COMMON,space=1,delta=1,noexec
    14                           	psect	bssBANK0,global,class=BANK0,space=1,delta=1,noexec
    15                           	psect	dataBANK0,global,class=BANK0,space=1,delta=1,noexec
    16                           	psect	dataBANK1,global,class=BANK1,space=1,delta=1,noexec
    17                           	psect	dataBANK2,global,class=BANK2,space=1,delta=1,noexec
    18                           	psect	inittext,global,class=CODE,delta=2
    19                           	psect	cstackBANK2,global,class=BANK2,space=1,delta=1,noexec
    20                           	psect	cstackBANK1,global,class=BANK1,space=1,delta=1,noexec
    21                           	psect	cstackCOMMON,global,class=COMMON,space=1,delta=1,noexec
    22                           	psect	cstackBANK0,global,class=BANK0,space=1,delta=1,noexec
    23                           	psect	maintext,global,class=CODE,merge=1,split=1,delta=2
    24                           	psect	text1,local,class=CODE,merge=1,delta=2
    25                           	psect	text2,local,class=CODE,merge=1,delta=2
    26                           	psect	text3,local,class=CODE,merge=1,delta=2
    27                           	psect	text4,local,class=CODE,merge=1,delta=2
    28                           	psect	text5,local,class=CODE,merge=1,delta=2
    29                           	psect	text6,local,class=CODE,merge=1,delta=2
    30                           	psect	text7,local,class=CODE,merge=1,delta=2
    31                           	psect	text8,local,class=CODE,merge=1,delta=2
    32                           	psect	text9,local,class=CODE,merge=1,delta=2
    33                           	psect	text10,local,class=CODE,merge=1,delta=2
    34                           	psect	text11,local,class=CODE,merge=1,delta=2
    35                           	psect	text12,local,class=CODE,merge=1,delta=2
    36                           	psect	text13,local,class=CODE,merge=1,delta=2
    37                           	psect	text14,local,class=CODE,merge=1,delta=2
    38                           	psect	text15,local,class=CODE,merge=1,delta=2
    39                           	psect	text16,local,class=CODE,merge=1,delta=2
    40                           	psect	text17,local,class=CODE,merge=1,delta=2
    41                           	psect	intentry,global,class=CODE,delta=2
    42                           	psect	text19,local,class=CODE,merge=1,delta=2
    43                           	psect	text20,local,class=CODE,merge=1,delta=2
    44                           	psect	text21,local,class=CODE,merge=1,delta=2
    45                           	psect	text22,local,class=CODE,merge=1,delta=2
    46                           	psect	text23,local,class=CODE,merge=1,delta=2
    47                           	psect	text24,local,class=CODE,merge=1,delta=2
    48                           	psect	text25,local,class=CODE,merge=1,delta=2
    49                           	psect	text26,local,class=CODE,merge=1,delta=2
    50                           	psect	text27,local,class=CODE,merge=1,delta=2
    51                           	psect	text28,local,class=CODE,merge=1,delta=2
    52                           	psect	text29,local,class=CODE,merge=1,delta=2
    53                           	psect	text30,local,class=CODE,merge=1,delta=2
    54                           	psect	config,global,abs,ovrld,class=CONFIG,space=4,delta=2,noexec
    55                           	dabs	1,0x620,48
    56                           	dabs	1,0x5A0,80
    57                           	dabs	1,0x566,10
    58                           	dabs	1,0x520,70
    59                           	dabs	1,0x4AC,68
    60                           	dabs	1,0x22DC,0,_silent_night_pre
    61                           	dabs	1,0x2366,0,_silent_night
    62                           	dabs	1,0x7E,2
    63  0000                     
    64                           ; Version 2.35
    65                           ; Generated 13/04/2021 GMT
    66                           ; 
    67                           ; Copyright © 2021, Microchip Technology Inc. and its subsidiaries ("Microchip")
    68                           ; All rights reserved.
    69                           ; 
    70                           ; This software is developed by Microchip Technology Inc. and its subsidiaries ("Microch
      +                          ip").
    71                           ; 
    72                           ; Redistribution and use in source and binary forms, with or without modification, are
    73                           ; permitted provided that the following conditions are met:
    74                           ; 
    75                           ;     1. Redistributions of source code must retain the above copyright notice, this lis
      +                          t of
    76                           ;        conditions and the following disclaimer.
    77                           ; 
    78                           ;     2. Redistributions in binary form must reproduce the above copyright notice, this 
      +                          list
    79                           ;        of conditions and the following disclaimer in the documentation and/or other
    80                           ;        materials provided with the distribution. Publication is not required when
    81                           ;        this file is used in an embedded application.
    82                           ; 
    83                           ;     3. Microchip's name may not be used to endorse or promote products derived from th
      +                          is
    84                           ;        software without specific prior written permission.
    85                           ; 
    86                           ; THIS SOFTWARE IS PROVIDED BY MICROCHIP "AS IS" AND ANY EXPRESS OR IMPLIED WARRANTIES,
    87                           ; INCLUDING, BUT NOT LIMITED TO, THE IMPLIED WARRANTIES OF MERCHANTABILITY AND FITNESS F
      +                          OR
    88                           ; PURPOSE ARE DISCLAIMED.  IN NO EVENT SHALL MICROCHIP BE LIABLE FOR ANY DIRECT, INDIREC
      +                          T,
    89                           ; INCIDENTAL, SPECIAL, EXEMPLARY, OR CONSEQUENTIAL DAMAGES (INCLUDING BUT NOT LIMITED TO
    90                           ; PROCUREMENT OF SUBSTITUTE GOODS OR SERVICES; LOSS OF USE, DATA OR PROFITS; OR BUSINESS
    91                           ; INTERRUPTION) HOWSOEVER CAUSED AND ON ANY THEORY OF LIABILITY, WHETHER IN CONTRACT, ST
      +                          RICT
    92                           ; LIABILITY, OR TORT (INCLUDING NEGLIGENCE OR OTHERWISE) ARISING IN ANY WAY OUT OF THE U
      +                          SE OF
    93                           ; THIS SOFTWARE, EVEN IF ADVISED OF THE POSSIBILITY OF SUCH DAMAGE.
    94                           ; 
    95                           ; 
    96                           ; Code-generator required, PIC16F15225 Definitions
    97                           ; 
    98                           ; SFR Addresses
    99  0000                     	;# 
   100  0001                     	;# 
   101  0002                     	;# 
   102  0003                     	;# 
   103  0004                     	;# 
   104  0005                     	;# 
   105  0006                     	;# 
   106  0007                     	;# 
   107  0008                     	;# 
   108  0009                     	;# 
   109  000A                     	;# 
   110  000B                     	;# 
   111  000C                     	;# 
   112  000E                     	;# 
   113  0012                     	;# 
   114  0014                     	;# 
   115  0018                     	;# 
   116  001A                     	;# 
   117  009A                     	;# 
   118  009B                     	;# 
   119  009B                     	;# 
   120  009C                     	;# 
   121  009D                     	;# 
   122  009E                     	;# 
   123  009F                     	;# 
   124  010E                     	;# 
   125  010F                     	;# 
   126  0119                     	;# 
   127  011A                     	;# 
   128  011B                     	;# 
   129  011B                     	;# 
   130  011C                     	;# 
   131  011D                     	;# 
   132  011E                     	;# 
   133  011F                     	;# 
   134  018C                     	;# 
   135  018D                     	;# 
   136  018E                     	;# 
   137  018F                     	;# 
   138  0190                     	;# 
   139  0191                     	;# 
   140  0192                     	;# 
   141  020C                     	;# 
   142  020D                     	;# 
   143  020E                     	;# 
   144  020E                     	;# 
   145  020F                     	;# 
   146  020F                     	;# 
   147  0210                     	;# 
   148  0210                     	;# 
   149  0211                     	;# 
   150  0211                     	;# 
   151  028C                     	;# 
   152  028C                     	;# 
   153  028D                     	;# 
   154  028D                     	;# 
   155  028E                     	;# 
   156  028F                     	;# 
   157  0290                     	;# 
   158  0291                     	;# 
   159  030C                     	;# 
   160  030C                     	;# 
   161  030D                     	;# 
   162  030E                     	;# 
   163  030F                     	;# 
   164  0310                     	;# 
   165  0310                     	;# 
   166  0311                     	;# 
   167  0312                     	;# 
   168  0313                     	;# 
   169  0314                     	;# 
   170  0314                     	;# 
   171  0315                     	;# 
   172  0316                     	;# 
   173  0318                     	;# 
   174  0318                     	;# 
   175  0319                     	;# 
   176  031A                     	;# 
   177  059C                     	;# 
   178  059C                     	;# 
   179  059D                     	;# 
   180  059D                     	;# 
   181  059E                     	;# 
   182  059F                     	;# 
   183  070C                     	;# 
   184  070D                     	;# 
   185  070E                     	;# 
   186  0716                     	;# 
   187  0717                     	;# 
   188  0718                     	;# 
   189  080C                     	;# 
   190  0811                     	;# 
   191  0813                     	;# 
   192  0814                     	;# 
   193  081A                     	;# 
   194  081A                     	;# 
   195  081B                     	;# 
   196  081C                     	;# 
   197  081C                     	;# 
   198  081D                     	;# 
   199  081E                     	;# 
   200  081F                     	;# 
   201  088E                     	;# 
   202  0890                     	;# 
   203  0891                     	;# 
   204  0892                     	;# 
   205  0893                     	;# 
   206  090C                     	;# 
   207  1E8F                     	;# 
   208  1E90                     	;# 
   209  1E91                     	;# 
   210  1E92                     	;# 
   211  1E93                     	;# 
   212  1E9C                     	;# 
   213  1EA1                     	;# 
   214  1EA2                     	;# 
   215  1EC3                     	;# 
   216  1EC5                     	;# 
   217  1EC6                     	;# 
   218  1EC7                     	;# 
   219  1ECB                     	;# 
   220  1ECB                     	;# 
   221  1ECB                     	;# 
   222  1ECC                     	;# 
   223  1ECC                     	;# 
   224  1ECC                     	;# 
   225  1F10                     	;# 
   226  1F11                     	;# 
   227  1F12                     	;# 
   228  1F14                     	;# 
   229  1F15                     	;# 
   230  1F20                     	;# 
   231  1F21                     	;# 
   232  1F22                     	;# 
   233  1F23                     	;# 
   234  1F24                     	;# 
   235  1F25                     	;# 
   236  1F38                     	;# 
   237  1F39                     	;# 
   238  1F3A                     	;# 
   239  1F3B                     	;# 
   240  1F3C                     	;# 
   241  1F3D                     	;# 
   242  1F3E                     	;# 
   243  1F3F                     	;# 
   244  1F4E                     	;# 
   245  1F4F                     	;# 
   246  1F50                     	;# 
   247  1F51                     	;# 
   248  1F52                     	;# 
   249  1F53                     	;# 
   250  1F54                     	;# 
   251  1F55                     	;# 
   252  1FE4                     	;# 
   253  1FE5                     	;# 
   254  1FE6                     	;# 
   255  1FE7                     	;# 
   256  1FE8                     	;# 
   257  1FE8                     	;# 
   258  1FE9                     	;# 
   259  1FEA                     	;# 
   260  1FEB                     	;# 
   261  1FED                     	;# 
   262  1FEE                     	;# 
   263  1FEF                     	;# 
   264  0000                     	;# 
   265  0001                     	;# 
   266  0002                     	;# 
   267  0003                     	;# 
   268  0004                     	;# 
   269  0005                     	;# 
   270  0006                     	;# 
   271  0007                     	;# 
   272  0008                     	;# 
   273  0009                     	;# 
   274  000A                     	;# 
   275  000B                     	;# 
   276  000C                     	;# 
   277  000E                     	;# 
   278  0012                     	;# 
   279  0014                     	;# 
   280  0018                     	;# 
   281  001A                     	;# 
   282  009A                     	;# 
   283  009B                     	;# 
   284  009B                     	;# 
   285  009C                     	;# 
   286  009D                     	;# 
   287  009E                     	;# 
   288  009F                     	;# 
   289  010E                     	;# 
   290  010F                     	;# 
   291  0119                     	;# 
   292  011A                     	;# 
   293  011B                     	;# 
   294  011B                     	;# 
   295  011C                     	;# 
   296  011D                     	;# 
   297  011E                     	;# 
   298  011F                     	;# 
   299  018C                     	;# 
   300  018D                     	;# 
   301  018E                     	;# 
   302  018F                     	;# 
   303  0190                     	;# 
   304  0191                     	;# 
   305  0192                     	;# 
   306  020C                     	;# 
   307  020D                     	;# 
   308  020E                     	;# 
   309  020E                     	;# 
   310  020F                     	;# 
   311  020F                     	;# 
   312  0210                     	;# 
   313  0210                     	;# 
   314  0211                     	;# 
   315  0211                     	;# 
   316  028C                     	;# 
   317  028C                     	;# 
   318  028D                     	;# 
   319  028D                     	;# 
   320  028E                     	;# 
   321  028F                     	;# 
   322  0290                     	;# 
   323  0291                     	;# 
   324  030C                     	;# 
   325  030C                     	;# 
   326  030D                     	;# 
   327  030E                     	;# 
   328  030F                     	;# 
   329  0310                     	;# 
   330  0310                     	;# 
   331  0311                     	;# 
   332  0312                     	;# 
   333  0313                     	;# 
   334  0314                     	;# 
   335  0314                     	;# 
   336  0315                     	;# 
   337  0316                     	;# 
   338  0318                     	;# 
   339  0318                     	;# 
   340  0319                     	;# 
   341  031A                     	;# 
   342  059C                     	;# 
   343  059C                     	;# 
   344  059D                     	;# 
   345  059D                     	;# 
   346  059E                     	;# 
   347  059F                     	;# 
   348  070C                     	;# 
   349  070D                     	;# 
   350  070E                     	;# 
   351  0716                     	;# 
   352  0717                     	;# 
   353  0718                     	;# 
   354  080C                     	;# 
   355  0811                     	;# 
   356  0813                     	;# 
   357  0814                     	;# 
   358  081A                     	;# 
   359  081A                     	;# 
   360  081B                     	;# 
   361  081C                     	;# 
   362  081C                     	;# 
   363  081D                     	;# 
   364  081E                     	;# 
   365  081F                     	;# 
   366  088E                     	;# 
   367  0890                     	;# 
   368  0891                     	;# 
   369  0892                     	;# 
   370  0893                     	;# 
   371  090C                     	;# 
   372  1E8F                     	;# 
   373  1E90                     	;# 
   374  1E91                     	;# 
   375  1E92                     	;# 
   376  1E93                     	;# 
   377  1E9C                     	;# 
   378  1EA1                     	;# 
   379  1EA2                     	;# 
   380  1EC3                     	;# 
   381  1EC5                     	;# 
   382  1EC6                     	;# 
   383  1EC7                     	;# 
   384  1ECB                     	;# 
   385  1ECB                     	;# 
   386  1ECB                     	;# 
   387  1ECC                     	;# 
   388  1ECC                     	;# 
   389  1ECC                     	;# 
   390  1F10                     	;# 
   391  1F11                     	;# 
   392  1F12                     	;# 
   393  1F14                     	;# 
   394  1F15                     	;# 
   395  1F20                     	;# 
   396  1F21                     	;# 
   397  1F22                     	;# 
   398  1F23                     	;# 
   399  1F24                     	;# 
   400  1F25                     	;# 
   401  1F38                     	;# 
   402  1F39                     	;# 
   403  1F3A                     	;# 
   404  1F3B                     	;# 
   405  1F3C                     	;# 
   406  1F3D                     	;# 
   407  1F3E                     	;# 
   408  1F3F                     	;# 
   409  1F4E                     	;# 
   410  1F4F                     	;# 
   411  1F50                     	;# 
   412  1F51                     	;# 
   413  1F52                     	;# 
   414  1F53                     	;# 
   415  1F54                     	;# 
   416  1F55                     	;# 
   417  1FE4                     	;# 
   418  1FE5                     	;# 
   419  1FE6                     	;# 
   420  1FE7                     	;# 
   421  1FE8                     	;# 
   422  1FE8                     	;# 
   423  1FE9                     	;# 
   424  1FEA                     	;# 
   425  1FEB                     	;# 
   426  1FED                     	;# 
   427  1FEE                     	;# 
   428  1FEF                     	;# 
   429  0000                     	;# 
   430  0001                     	;# 
   431  0002                     	;# 
   432  0003                     	;# 
   433  0004                     	;# 
   434  0005                     	;# 
   435  0006                     	;# 
   436  0007                     	;# 
   437  0008                     	;# 
   438  0009                     	;# 
   439  000A                     	;# 
   440  000B                     	;# 
   441  000C                     	;# 
   442  000E                     	;# 
   443  0012                     	;# 
   444  0014                     	;# 
   445  0018                     	;# 
   446  001A                     	;# 
   447  009A                     	;# 
   448  009B                     	;# 
   449  009B                     	;# 
   450  009C                     	;# 
   451  009D                     	;# 
   452  009E                     	;# 
   453  009F                     	;# 
   454  010E                     	;# 
   455  010F                     	;# 
   456  0119                     	;# 
   457  011A                     	;# 
   458  011B                     	;# 
   459  011B                     	;# 
   460  011C                     	;# 
   461  011D                     	;# 
   462  011E                     	;# 
   463  011F                     	;# 
   464  018C                     	;# 
   465  018D                     	;# 
   466  018E                     	;# 
   467  018F                     	;# 
   468  0190                     	;# 
   469  0191                     	;# 
   470  0192                     	;# 
   471  020C                     	;# 
   472  020D                     	;# 
   473  020E                     	;# 
   474  020E                     	;# 
   475  020F                     	;# 
   476  020F                     	;# 
   477  0210                     	;# 
   478  0210                     	;# 
   479  0211                     	;# 
   480  0211                     	;# 
   481  028C                     	;# 
   482  028C                     	;# 
   483  028D                     	;# 
   484  028D                     	;# 
   485  028E                     	;# 
   486  028F                     	;# 
   487  0290                     	;# 
   488  0291                     	;# 
   489  030C                     	;# 
   490  030C                     	;# 
   491  030D                     	;# 
   492  030E                     	;# 
   493  030F                     	;# 
   494  0310                     	;# 
   495  0310                     	;# 
   496  0311                     	;# 
   497  0312                     	;# 
   498  0313                     	;# 
   499  0314                     	;# 
   500  0314                     	;# 
   501  0315                     	;# 
   502  0316                     	;# 
   503  0318                     	;# 
   504  0318                     	;# 
   505  0319                     	;# 
   506  031A                     	;# 
   507  059C                     	;# 
   508  059C                     	;# 
   509  059D                     	;# 
   510  059D                     	;# 
   511  059E                     	;# 
   512  059F                     	;# 
   513  070C                     	;# 
   514  070D                     	;# 
   515  070E                     	;# 
   516  0716                     	;# 
   517  0717                     	;# 
   518  0718                     	;# 
   519  080C                     	;# 
   520  0811                     	;# 
   521  0813                     	;# 
   522  0814                     	;# 
   523  081A                     	;# 
   524  081A                     	;# 
   525  081B                     	;# 
   526  081C                     	;# 
   527  081C                     	;# 
   528  081D                     	;# 
   529  081E                     	;# 
   530  081F                     	;# 
   531  088E                     	;# 
   532  0890                     	;# 
   533  0891                     	;# 
   534  0892                     	;# 
   535  0893                     	;# 
   536  090C                     	;# 
   537  1E8F                     	;# 
   538  1E90                     	;# 
   539  1E91                     	;# 
   540  1E92                     	;# 
   541  1E93                     	;# 
   542  1E9C                     	;# 
   543  1EA1                     	;# 
   544  1EA2                     	;# 
   545  1EC3                     	;# 
   546  1EC5                     	;# 
   547  1EC6                     	;# 
   548  1EC7                     	;# 
   549  1ECB                     	;# 
   550  1ECB                     	;# 
   551  1ECB                     	;# 
   552  1ECC                     	;# 
   553  1ECC                     	;# 
   554  1ECC                     	;# 
   555  1F10                     	;# 
   556  1F11                     	;# 
   557  1F12                     	;# 
   558  1F14                     	;# 
   559  1F15                     	;# 
   560  1F20                     	;# 
   561  1F21                     	;# 
   562  1F22                     	;# 
   563  1F23                     	;# 
   564  1F24                     	;# 
   565  1F25                     	;# 
   566  1F38                     	;# 
   567  1F39                     	;# 
   568  1F3A                     	;# 
   569  1F3B                     	;# 
   570  1F3C                     	;# 
   571  1F3D                     	;# 
   572  1F3E                     	;# 
   573  1F3F                     	;# 
   574  1F4E                     	;# 
   575  1F4F                     	;# 
   576  1F50                     	;# 
   577  1F51                     	;# 
   578  1F52                     	;# 
   579  1F53                     	;# 
   580  1F54                     	;# 
   581  1F55                     	;# 
   582  1FE4                     	;# 
   583  1FE5                     	;# 
   584  1FE6                     	;# 
   585  1FE7                     	;# 
   586  1FE8                     	;# 
   587  1FE8                     	;# 
   588  1FE9                     	;# 
   589  1FEA                     	;# 
   590  1FEB                     	;# 
   591  1FED                     	;# 
   592  1FEE                     	;# 
   593  1FEF                     	;# 
   594  0000                     	;# 
   595  0001                     	;# 
   596  0002                     	;# 
   597  0003                     	;# 
   598  0004                     	;# 
   599  0005                     	;# 
   600  0006                     	;# 
   601  0007                     	;# 
   602  0008                     	;# 
   603  0009                     	;# 
   604  000A                     	;# 
   605  000B                     	;# 
   606  000C                     	;# 
   607  000E                     	;# 
   608  0012                     	;# 
   609  0014                     	;# 
   610  0018                     	;# 
   611  001A                     	;# 
   612  009A                     	;# 
   613  009B                     	;# 
   614  009B                     	;# 
   615  009C                     	;# 
   616  009D                     	;# 
   617  009E                     	;# 
   618  009F                     	;# 
   619  010E                     	;# 
   620  010F                     	;# 
   621  0119                     	;# 
   622  011A                     	;# 
   623  011B                     	;# 
   624  011B                     	;# 
   625  011C                     	;# 
   626  011D                     	;# 
   627  011E                     	;# 
   628  011F                     	;# 
   629  018C                     	;# 
   630  018D                     	;# 
   631  018E                     	;# 
   632  018F                     	;# 
   633  0190                     	;# 
   634  0191                     	;# 
   635  0192                     	;# 
   636  020C                     	;# 
   637  020D                     	;# 
   638  020E                     	;# 
   639  020E                     	;# 
   640  020F                     	;# 
   641  020F                     	;# 
   642  0210                     	;# 
   643  0210                     	;# 
   644  0211                     	;# 
   645  0211                     	;# 
   646  028C                     	;# 
   647  028C                     	;# 
   648  028D                     	;# 
   649  028D                     	;# 
   650  028E                     	;# 
   651  028F                     	;# 
   652  0290                     	;# 
   653  0291                     	;# 
   654  030C                     	;# 
   655  030C                     	;# 
   656  030D                     	;# 
   657  030E                     	;# 
   658  030F                     	;# 
   659  0310                     	;# 
   660  0310                     	;# 
   661  0311                     	;# 
   662  0312                     	;# 
   663  0313                     	;# 
   664  0314                     	;# 
   665  0314                     	;# 
   666  0315                     	;# 
   667  0316                     	;# 
   668  0318                     	;# 
   669  0318                     	;# 
   670  0319                     	;# 
   671  031A                     	;# 
   672  059C                     	;# 
   673  059C                     	;# 
   674  059D                     	;# 
   675  059D                     	;# 
   676  059E                     	;# 
   677  059F                     	;# 
   678  070C                     	;# 
   679  070D                     	;# 
   680  070E                     	;# 
   681  0716                     	;# 
   682  0717                     	;# 
   683  0718                     	;# 
   684  080C                     	;# 
   685  0811                     	;# 
   686  0813                     	;# 
   687  0814                     	;# 
   688  081A                     	;# 
   689  081A                     	;# 
   690  081B                     	;# 
   691  081C                     	;# 
   692  081C                     	;# 
   693  081D                     	;# 
   694  081E                     	;# 
   695  081F                     	;# 
   696  088E                     	;# 
   697  0890                     	;# 
   698  0891                     	;# 
   699  0892                     	;# 
   700  0893                     	;# 
   701  090C                     	;# 
   702  1E8F                     	;# 
   703  1E90                     	;# 
   704  1E91                     	;# 
   705  1E92                     	;# 
   706  1E93                     	;# 
   707  1E9C                     	;# 
   708  1EA1                     	;# 
   709  1EA2                     	;# 
   710  1EC3                     	;# 
   711  1EC5                     	;# 
   712  1EC6                     	;# 
   713  1EC7                     	;# 
   714  1ECB                     	;# 
   715  1ECB                     	;# 
   716  1ECB                     	;# 
   717  1ECC                     	;# 
   718  1ECC                     	;# 
   719  1ECC                     	;# 
   720  1F10                     	;# 
   721  1F11                     	;# 
   722  1F12                     	;# 
   723  1F14                     	;# 
   724  1F15                     	;# 
   725  1F20                     	;# 
   726  1F21                     	;# 
   727  1F22                     	;# 
   728  1F23                     	;# 
   729  1F24                     	;# 
   730  1F25                     	;# 
   731  1F38                     	;# 
   732  1F39                     	;# 
   733  1F3A                     	;# 
   734  1F3B                     	;# 
   735  1F3C                     	;# 
   736  1F3D                     	;# 
   737  1F3E                     	;# 
   738  1F3F                     	;# 
   739  1F4E                     	;# 
   740  1F4F                     	;# 
   741  1F50                     	;# 
   742  1F51                     	;# 
   743  1F52                     	;# 
   744  1F53                     	;# 
   745  1F54                     	;# 
   746  1F55                     	;# 
   747  1FE4                     	;# 
   748  1FE5                     	;# 
   749  1FE6                     	;# 
   750  1FE7                     	;# 
   751  1FE8                     	;# 
   752  1FE8                     	;# 
   753  1FE9                     	;# 
   754  1FEA                     	;# 
   755  1FEB                     	;# 
   756  1FED                     	;# 
   757  1FEE                     	;# 
   758  1FEF                     	;# 
   759  0000                     	;# 
   760  0001                     	;# 
   761  0002                     	;# 
   762  0003                     	;# 
   763  0004                     	;# 
   764  0005                     	;# 
   765  0006                     	;# 
   766  0007                     	;# 
   767  0008                     	;# 
   768  0009                     	;# 
   769  000A                     	;# 
   770  000B                     	;# 
   771  000C                     	;# 
   772  000E                     	;# 
   773  0012                     	;# 
   774  0014                     	;# 
   775  0018                     	;# 
   776  001A                     	;# 
   777  009A                     	;# 
   778  009B                     	;# 
   779  009B                     	;# 
   780  009C                     	;# 
   781  009D                     	;# 
   782  009E                     	;# 
   783  009F                     	;# 
   784  010E                     	;# 
   785  010F                     	;# 
   786  0119                     	;# 
   787  011A                     	;# 
   788  011B                     	;# 
   789  011B                     	;# 
   790  011C                     	;# 
   791  011D                     	;# 
   792  011E                     	;# 
   793  011F                     	;# 
   794  018C                     	;# 
   795  018D                     	;# 
   796  018E                     	;# 
   797  018F                     	;# 
   798  0190                     	;# 
   799  0191                     	;# 
   800  0192                     	;# 
   801  020C                     	;# 
   802  020D                     	;# 
   803  020E                     	;# 
   804  020E                     	;# 
   805  020F                     	;# 
   806  020F                     	;# 
   807  0210                     	;# 
   808  0210                     	;# 
   809  0211                     	;# 
   810  0211                     	;# 
   811  028C                     	;# 
   812  028C                     	;# 
   813  028D                     	;# 
   814  028D                     	;# 
   815  028E                     	;# 
   816  028F                     	;# 
   817  0290                     	;# 
   818  0291                     	;# 
   819  030C                     	;# 
   820  030C                     	;# 
   821  030D                     	;# 
   822  030E                     	;# 
   823  030F                     	;# 
   824  0310                     	;# 
   825  0310                     	;# 
   826  0311                     	;# 
   827  0312                     	;# 
   828  0313                     	;# 
   829  0314                     	;# 
   830  0314                     	;# 
   831  0315                     	;# 
   832  0316                     	;# 
   833  0318                     	;# 
   834  0318                     	;# 
   835  0319                     	;# 
   836  031A                     	;# 
   837  059C                     	;# 
   838  059C                     	;# 
   839  059D                     	;# 
   840  059D                     	;# 
   841  059E                     	;# 
   842  059F                     	;# 
   843  070C                     	;# 
   844  070D                     	;# 
   845  070E                     	;# 
   846  0716                     	;# 
   847  0717                     	;# 
   848  0718                     	;# 
   849  080C                     	;# 
   850  0811                     	;# 
   851  0813                     	;# 
   852  0814                     	;# 
   853  081A                     	;# 
   854  081A                     	;# 
   855  081B                     	;# 
   856  081C                     	;# 
   857  081C                     	;# 
   858  081D                     	;# 
   859  081E                     	;# 
   860  081F                     	;# 
   861  088E                     	;# 
   862  0890                     	;# 
   863  0891                     	;# 
   864  0892                     	;# 
   865  0893                     	;# 
   866  090C                     	;# 
   867  1E8F                     	;# 
   868  1E90                     	;# 
   869  1E91                     	;# 
   870  1E92                     	;# 
   871  1E93                     	;# 
   872  1E9C                     	;# 
   873  1EA1                     	;# 
   874  1EA2                     	;# 
   875  1EC3                     	;# 
   876  1EC5                     	;# 
   877  1EC6                     	;# 
   878  1EC7                     	;# 
   879  1ECB                     	;# 
   880  1ECB                     	;# 
   881  1ECB                     	;# 
   882  1ECC                     	;# 
   883  1ECC                     	;# 
   884  1ECC                     	;# 
   885  1F10                     	;# 
   886  1F11                     	;# 
   887  1F12                     	;# 
   888  1F14                     	;# 
   889  1F15                     	;# 
   890  1F20                     	;# 
   891  1F21                     	;# 
   892  1F22                     	;# 
   893  1F23                     	;# 
   894  1F24                     	;# 
   895  1F25                     	;# 
   896  1F38                     	;# 
   897  1F39                     	;# 
   898  1F3A                     	;# 
   899  1F3B                     	;# 
   900  1F3C                     	;# 
   901  1F3D                     	;# 
   902  1F3E                     	;# 
   903  1F3F                     	;# 
   904  1F4E                     	;# 
   905  1F4F                     	;# 
   906  1F50                     	;# 
   907  1F51                     	;# 
   908  1F52                     	;# 
   909  1F53                     	;# 
   910  1F54                     	;# 
   911  1F55                     	;# 
   912  1FE4                     	;# 
   913  1FE5                     	;# 
   914  1FE6                     	;# 
   915  1FE7                     	;# 
   916  1FE8                     	;# 
   917  1FE8                     	;# 
   918  1FE9                     	;# 
   919  1FEA                     	;# 
   920  1FEB                     	;# 
   921  1FED                     	;# 
   922  1FEE                     	;# 
   923  1FEF                     	;# 
   924  0000                     	;# 
   925  0001                     	;# 
   926  0002                     	;# 
   927  0003                     	;# 
   928  0004                     	;# 
   929  0005                     	;# 
   930  0006                     	;# 
   931  0007                     	;# 
   932  0008                     	;# 
   933  0009                     	;# 
   934  000A                     	;# 
   935  000B                     	;# 
   936  000C                     	;# 
   937  000E                     	;# 
   938  0012                     	;# 
   939  0014                     	;# 
   940  0018                     	;# 
   941  001A                     	;# 
   942  009A                     	;# 
   943  009B                     	;# 
   944  009B                     	;# 
   945  009C                     	;# 
   946  009D                     	;# 
   947  009E                     	;# 
   948  009F                     	;# 
   949  010E                     	;# 
   950  010F                     	;# 
   951  0119                     	;# 
   952  011A                     	;# 
   953  011B                     	;# 
   954  011B                     	;# 
   955  011C                     	;# 
   956  011D                     	;# 
   957  011E                     	;# 
   958  011F                     	;# 
   959  018C                     	;# 
   960  018D                     	;# 
   961  018E                     	;# 
   962  018F                     	;# 
   963  0190                     	;# 
   964  0191                     	;# 
   965  0192                     	;# 
   966  020C                     	;# 
   967  020D                     	;# 
   968  020E                     	;# 
   969  020E                     	;# 
   970  020F                     	;# 
   971  020F                     	;# 
   972  0210                     	;# 
   973  0210                     	;# 
   974  0211                     	;# 
   975  0211                     	;# 
   976  028C                     	;# 
   977  028C                     	;# 
   978  028D                     	;# 
   979  028D                     	;# 
   980  028E                     	;# 
   981  028F                     	;# 
   982  0290                     	;# 
   983  0291                     	;# 
   984  030C                     	;# 
   985  030C                     	;# 
   986  030D                     	;# 
   987  030E                     	;# 
   988  030F                     	;# 
   989  0310                     	;# 
   990  0310                     	;# 
   991  0311                     	;# 
   992  0312                     	;# 
   993  0313                     	;# 
   994  0314                     	;# 
   995  0314                     	;# 
   996  0315                     	;# 
   997  0316                     	;# 
   998  0318                     	;# 
   999  0318                     	;# 
  1000  0319                     	;# 
  1001  031A                     	;# 
  1002  059C                     	;# 
  1003  059C                     	;# 
  1004  059D                     	;# 
  1005  059D                     	;# 
  1006  059E                     	;# 
  1007  059F                     	;# 
  1008  070C                     	;# 
  1009  070D                     	;# 
  1010  070E                     	;# 
  1011  0716                     	;# 
  1012  0717                     	;# 
  1013  0718                     	;# 
  1014  080C                     	;# 
  1015  0811                     	;# 
  1016  0813                     	;# 
  1017  0814                     	;# 
  1018  081A                     	;# 
  1019  081A                     	;# 
  1020  081B                     	;# 
  1021  081C                     	;# 
  1022  081C                     	;# 
  1023  081D                     	;# 
  1024  081E                     	;# 
  1025  081F                     	;# 
  1026  088E                     	;# 
  1027  0890                     	;# 
  1028  0891                     	;# 
  1029  0892                     	;# 
  1030  0893                     	;# 
  1031  090C                     	;# 
  1032  1E8F                     	;# 
  1033  1E90                     	;# 
  1034  1E91                     	;# 
  1035  1E92                     	;# 
  1036  1E93                     	;# 
  1037  1E9C                     	;# 
  1038  1EA1                     	;# 
  1039  1EA2                     	;# 
  1040  1EC3                     	;# 
  1041  1EC5                     	;# 
  1042  1EC6                     	;# 
  1043  1EC7                     	;# 
  1044  1ECB                     	;# 
  1045  1ECB                     	;# 
  1046  1ECB                     	;# 
  1047  1ECC                     	;# 
  1048  1ECC                     	;# 
  1049  1ECC                     	;# 
  1050  1F10                     	;# 
  1051  1F11                     	;# 
  1052  1F12                     	;# 
  1053  1F14                     	;# 
  1054  1F15                     	;# 
  1055  1F20                     	;# 
  1056  1F21                     	;# 
  1057  1F22                     	;# 
  1058  1F23                     	;# 
  1059  1F24                     	;# 
  1060  1F25                     	;# 
  1061  1F38                     	;# 
  1062  1F39                     	;# 
  1063  1F3A                     	;# 
  1064  1F3B                     	;# 
  1065  1F3C                     	;# 
  1066  1F3D                     	;# 
  1067  1F3E                     	;# 
  1068  1F3F                     	;# 
  1069  1F4E                     	;# 
  1070  1F4F                     	;# 
  1071  1F50                     	;# 
  1072  1F51                     	;# 
  1073  1F52                     	;# 
  1074  1F53                     	;# 
  1075  1F54                     	;# 
  1076  1F55                     	;# 
  1077  1FE4                     	;# 
  1078  1FE5                     	;# 
  1079  1FE6                     	;# 
  1080  1FE7                     	;# 
  1081  1FE8                     	;# 
  1082  1FE8                     	;# 
  1083  1FE9                     	;# 
  1084  1FEA                     	;# 
  1085  1FEB                     	;# 
  1086  1FED                     	;# 
  1087  1FEE                     	;# 
  1088  1FEF                     	;# 
  1089  0000                     	;# 
  1090  0001                     	;# 
  1091  0002                     	;# 
  1092  0003                     	;# 
  1093  0004                     	;# 
  1094  0005                     	;# 
  1095  0006                     	;# 
  1096  0007                     	;# 
  1097  0008                     	;# 
  1098  0009                     	;# 
  1099  000A                     	;# 
  1100  000B                     	;# 
  1101  000C                     	;# 
  1102  000E                     	;# 
  1103  0012                     	;# 
  1104  0014                     	;# 
  1105  0018                     	;# 
  1106  001A                     	;# 
  1107  009A                     	;# 
  1108  009B                     	;# 
  1109  009B                     	;# 
  1110  009C                     	;# 
  1111  009D                     	;# 
  1112  009E                     	;# 
  1113  009F                     	;# 
  1114  010E                     	;# 
  1115  010F                     	;# 
  1116  0119                     	;# 
  1117  011A                     	;# 
  1118  011B                     	;# 
  1119  011B                     	;# 
  1120  011C                     	;# 
  1121  011D                     	;# 
  1122  011E                     	;# 
  1123  011F                     	;# 
  1124  018C                     	;# 
  1125  018D                     	;# 
  1126  018E                     	;# 
  1127  018F                     	;# 
  1128  0190                     	;# 
  1129  0191                     	;# 
  1130  0192                     	;# 
  1131  020C                     	;# 
  1132  020D                     	;# 
  1133  020E                     	;# 
  1134  020E                     	;# 
  1135  020F                     	;# 
  1136  020F                     	;# 
  1137  0210                     	;# 
  1138  0210                     	;# 
  1139  0211                     	;# 
  1140  0211                     	;# 
  1141  028C                     	;# 
  1142  028C                     	;# 
  1143  028D                     	;# 
  1144  028D                     	;# 
  1145  028E                     	;# 
  1146  028F                     	;# 
  1147  0290                     	;# 
  1148  0291                     	;# 
  1149  030C                     	;# 
  1150  030C                     	;# 
  1151  030D                     	;# 
  1152  030E                     	;# 
  1153  030F                     	;# 
  1154  0310                     	;# 
  1155  0310                     	;# 
  1156  0311                     	;# 
  1157  0312                     	;# 
  1158  0313                     	;# 
  1159  0314                     	;# 
  1160  0314                     	;# 
  1161  0315                     	;# 
  1162  0316                     	;# 
  1163  0318                     	;# 
  1164  0318                     	;# 
  1165  0319                     	;# 
  1166  031A                     	;# 
  1167  059C                     	;# 
  1168  059C                     	;# 
  1169  059D                     	;# 
  1170  059D                     	;# 
  1171  059E                     	;# 
  1172  059F                     	;# 
  1173  070C                     	;# 
  1174  070D                     	;# 
  1175  070E                     	;# 
  1176  0716                     	;# 
  1177  0717                     	;# 
  1178  0718                     	;# 
  1179  080C                     	;# 
  1180  0811                     	;# 
  1181  0813                     	;# 
  1182  0814                     	;# 
  1183  081A                     	;# 
  1184  081A                     	;# 
  1185  081B                     	;# 
  1186  081C                     	;# 
  1187  081C                     	;# 
  1188  081D                     	;# 
  1189  081E                     	;# 
  1190  081F                     	;# 
  1191  088E                     	;# 
  1192  0890                     	;# 
  1193  0891                     	;# 
  1194  0892                     	;# 
  1195  0893                     	;# 
  1196  090C                     	;# 
  1197  1E8F                     	;# 
  1198  1E90                     	;# 
  1199  1E91                     	;# 
  1200  1E92                     	;# 
  1201  1E93                     	;# 
  1202  1E9C                     	;# 
  1203  1EA1                     	;# 
  1204  1EA2                     	;# 
  1205  1EC3                     	;# 
  1206  1EC5                     	;# 
  1207  1EC6                     	;# 
  1208  1EC7                     	;# 
  1209  1ECB                     	;# 
  1210  1ECB                     	;# 
  1211  1ECB                     	;# 
  1212  1ECC                     	;# 
  1213  1ECC                     	;# 
  1214  1ECC                     	;# 
  1215  1F10                     	;# 
  1216  1F11                     	;# 
  1217  1F12                     	;# 
  1218  1F14                     	;# 
  1219  1F15                     	;# 
  1220  1F20                     	;# 
  1221  1F21                     	;# 
  1222  1F22                     	;# 
  1223  1F23                     	;# 
  1224  1F24                     	;# 
  1225  1F25                     	;# 
  1226  1F38                     	;# 
  1227  1F39                     	;# 
  1228  1F3A                     	;# 
  1229  1F3B                     	;# 
  1230  1F3C                     	;# 
  1231  1F3D                     	;# 
  1232  1F3E                     	;# 
  1233  1F3F                     	;# 
  1234  1F4E                     	;# 
  1235  1F4F                     	;# 
  1236  1F50                     	;# 
  1237  1F51                     	;# 
  1238  1F52                     	;# 
  1239  1F53                     	;# 
  1240  1F54                     	;# 
  1241  1F55                     	;# 
  1242  1FE4                     	;# 
  1243  1FE5                     	;# 
  1244  1FE6                     	;# 
  1245  1FE7                     	;# 
  1246  1FE8                     	;# 
  1247  1FE8                     	;# 
  1248  1FE9                     	;# 
  1249  1FEA                     	;# 
  1250  1FEB                     	;# 
  1251  1FED                     	;# 
  1252  1FEE                     	;# 
  1253  1FEF                     	;# 
  1254  0000                     	;# 
  1255  0001                     	;# 
  1256  0002                     	;# 
  1257  0003                     	;# 
  1258  0004                     	;# 
  1259  0005                     	;# 
  1260  0006                     	;# 
  1261  0007                     	;# 
  1262  0008                     	;# 
  1263  0009                     	;# 
  1264  000A                     	;# 
  1265  000B                     	;# 
  1266  000C                     	;# 
  1267  000E                     	;# 
  1268  0012                     	;# 
  1269  0014                     	;# 
  1270  0018                     	;# 
  1271  001A                     	;# 
  1272  009A                     	;# 
  1273  009B                     	;# 
  1274  009B                     	;# 
  1275  009C                     	;# 
  1276  009D                     	;# 
  1277  009E                     	;# 
  1278  009F                     	;# 
  1279  010E                     	;# 
  1280  010F                     	;# 
  1281  0119                     	;# 
  1282  011A                     	;# 
  1283  011B                     	;# 
  1284  011B                     	;# 
  1285  011C                     	;# 
  1286  011D                     	;# 
  1287  011E                     	;# 
  1288  011F                     	;# 
  1289  018C                     	;# 
  1290  018D                     	;# 
  1291  018E                     	;# 
  1292  018F                     	;# 
  1293  0190                     	;# 
  1294  0191                     	;# 
  1295  0192                     	;# 
  1296  020C                     	;# 
  1297  020D                     	;# 
  1298  020E                     	;# 
  1299  020E                     	;# 
  1300  020F                     	;# 
  1301  020F                     	;# 
  1302  0210                     	;# 
  1303  0210                     	;# 
  1304  0211                     	;# 
  1305  0211                     	;# 
  1306  028C                     	;# 
  1307  028C                     	;# 
  1308  028D                     	;# 
  1309  028D                     	;# 
  1310  028E                     	;# 
  1311  028F                     	;# 
  1312  0290                     	;# 
  1313  0291                     	;# 
  1314  030C                     	;# 
  1315  030C                     	;# 
  1316  030D                     	;# 
  1317  030E                     	;# 
  1318  030F                     	;# 
  1319  0310                     	;# 
  1320  0310                     	;# 
  1321  0311                     	;# 
  1322  0312                     	;# 
  1323  0313                     	;# 
  1324  0314                     	;# 
  1325  0314                     	;# 
  1326  0315                     	;# 
  1327  0316                     	;# 
  1328  0318                     	;# 
  1329  0318                     	;# 
  1330  0319                     	;# 
  1331  031A                     	;# 
  1332  059C                     	;# 
  1333  059C                     	;# 
  1334  059D                     	;# 
  1335  059D                     	;# 
  1336  059E                     	;# 
  1337  059F                     	;# 
  1338  070C                     	;# 
  1339  070D                     	;# 
  1340  070E                     	;# 
  1341  0716                     	;# 
  1342  0717                     	;# 
  1343  0718                     	;# 
  1344  080C                     	;# 
  1345  0811                     	;# 
  1346  0813                     	;# 
  1347  0814                     	;# 
  1348  081A                     	;# 
  1349  081A                     	;# 
  1350  081B                     	;# 
  1351  081C                     	;# 
  1352  081C                     	;# 
  1353  081D                     	;# 
  1354  081E                     	;# 
  1355  081F                     	;# 
  1356  088E                     	;# 
  1357  0890                     	;# 
  1358  0891                     	;# 
  1359  0892                     	;# 
  1360  0893                     	;# 
  1361  090C                     	;# 
  1362  1E8F                     	;# 
  1363  1E90                     	;# 
  1364  1E91                     	;# 
  1365  1E92                     	;# 
  1366  1E93                     	;# 
  1367  1E9C                     	;# 
  1368  1EA1                     	;# 
  1369  1EA2                     	;# 
  1370  1EC3                     	;# 
  1371  1EC5                     	;# 
  1372  1EC6                     	;# 
  1373  1EC7                     	;# 
  1374  1ECB                     	;# 
  1375  1ECB                     	;# 
  1376  1ECB                     	;# 
  1377  1ECC                     	;# 
  1378  1ECC                     	;# 
  1379  1ECC                     	;# 
  1380  1F10                     	;# 
  1381  1F11                     	;# 
  1382  1F12                     	;# 
  1383  1F14                     	;# 
  1384  1F15                     	;# 
  1385  1F20                     	;# 
  1386  1F21                     	;# 
  1387  1F22                     	;# 
  1388  1F23                     	;# 
  1389  1F24                     	;# 
  1390  1F25                     	;# 
  1391  1F38                     	;# 
  1392  1F39                     	;# 
  1393  1F3A                     	;# 
  1394  1F3B                     	;# 
  1395  1F3C                     	;# 
  1396  1F3D                     	;# 
  1397  1F3E                     	;# 
  1398  1F3F                     	;# 
  1399  1F4E                     	;# 
  1400  1F4F                     	;# 
  1401  1F50                     	;# 
  1402  1F51                     	;# 
  1403  1F52                     	;# 
  1404  1F53                     	;# 
  1405  1F54                     	;# 
  1406  1F55                     	;# 
  1407  1FE4                     	;# 
  1408  1FE5                     	;# 
  1409  1FE6                     	;# 
  1410  1FE7                     	;# 
  1411  1FE8                     	;# 
  1412  1FE8                     	;# 
  1413  1FE9                     	;# 
  1414  1FEA                     	;# 
  1415  1FEB                     	;# 
  1416  1FED                     	;# 
  1417  1FEE                     	;# 
  1418  1FEF                     	;# 
  1419  0000                     	;# 
  1420  0001                     	;# 
  1421  0002                     	;# 
  1422  0003                     	;# 
  1423  0004                     	;# 
  1424  0005                     	;# 
  1425  0006                     	;# 
  1426  0007                     	;# 
  1427  0008                     	;# 
  1428  0009                     	;# 
  1429  000A                     	;# 
  1430  000B                     	;# 
  1431  000C                     	;# 
  1432  000E                     	;# 
  1433  0012                     	;# 
  1434  0014                     	;# 
  1435  0018                     	;# 
  1436  001A                     	;# 
  1437  009A                     	;# 
  1438  009B                     	;# 
  1439  009B                     	;# 
  1440  009C                     	;# 
  1441  009D                     	;# 
  1442  009E                     	;# 
  1443  009F                     	;# 
  1444  010E                     	;# 
  1445  010F                     	;# 
  1446  0119                     	;# 
  1447  011A                     	;# 
  1448  011B                     	;# 
  1449  011B                     	;# 
  1450  011C                     	;# 
  1451  011D                     	;# 
  1452  011E                     	;# 
  1453  011F                     	;# 
  1454  018C                     	;# 
  1455  018D                     	;# 
  1456  018E                     	;# 
  1457  018F                     	;# 
  1458  0190                     	;# 
  1459  0191                     	;# 
  1460  0192                     	;# 
  1461  020C                     	;# 
  1462  020D                     	;# 
  1463  020E                     	;# 
  1464  020E                     	;# 
  1465  020F                     	;# 
  1466  020F                     	;# 
  1467  0210                     	;# 
  1468  0210                     	;# 
  1469  0211                     	;# 
  1470  0211                     	;# 
  1471  028C                     	;# 
  1472  028C                     	;# 
  1473  028D                     	;# 
  1474  028D                     	;# 
  1475  028E                     	;# 
  1476  028F                     	;# 
  1477  0290                     	;# 
  1478  0291                     	;# 
  1479  030C                     	;# 
  1480  030C                     	;# 
  1481  030D                     	;# 
  1482  030E                     	;# 
  1483  030F                     	;# 
  1484  0310                     	;# 
  1485  0310                     	;# 
  1486  0311                     	;# 
  1487  0312                     	;# 
  1488  0313                     	;# 
  1489  0314                     	;# 
  1490  0314                     	;# 
  1491  0315                     	;# 
  1492  0316                     	;# 
  1493  0318                     	;# 
  1494  0318                     	;# 
  1495  0319                     	;# 
  1496  031A                     	;# 
  1497  059C                     	;# 
  1498  059C                     	;# 
  1499  059D                     	;# 
  1500  059D                     	;# 
  1501  059E                     	;# 
  1502  059F                     	;# 
  1503  070C                     	;# 
  1504  070D                     	;# 
  1505  070E                     	;# 
  1506  0716                     	;# 
  1507  0717                     	;# 
  1508  0718                     	;# 
  1509  080C                     	;# 
  1510  0811                     	;# 
  1511  0813                     	;# 
  1512  0814                     	;# 
  1513  081A                     	;# 
  1514  081A                     	;# 
  1515  081B                     	;# 
  1516  081C                     	;# 
  1517  081C                     	;# 
  1518  081D                     	;# 
  1519  081E                     	;# 
  1520  081F                     	;# 
  1521  088E                     	;# 
  1522  0890                     	;# 
  1523  0891                     	;# 
  1524  0892                     	;# 
  1525  0893                     	;# 
  1526  090C                     	;# 
  1527  1E8F                     	;# 
  1528  1E90                     	;# 
  1529  1E91                     	;# 
  1530  1E92                     	;# 
  1531  1E93                     	;# 
  1532  1E9C                     	;# 
  1533  1EA1                     	;# 
  1534  1EA2                     	;# 
  1535  1EC3                     	;# 
  1536  1EC5                     	;# 
  1537  1EC6                     	;# 
  1538  1EC7                     	;# 
  1539  1ECB                     	;# 
  1540  1ECB                     	;# 
  1541  1ECB                     	;# 
  1542  1ECC                     	;# 
  1543  1ECC                     	;# 
  1544  1ECC                     	;# 
  1545  1F10                     	;# 
  1546  1F11                     	;# 
  1547  1F12                     	;# 
  1548  1F14                     	;# 
  1549  1F15                     	;# 
  1550  1F20                     	;# 
  1551  1F21                     	;# 
  1552  1F22                     	;# 
  1553  1F23                     	;# 
  1554  1F24                     	;# 
  1555  1F25                     	;# 
  1556  1F38                     	;# 
  1557  1F39                     	;# 
  1558  1F3A                     	;# 
  1559  1F3B                     	;# 
  1560  1F3C                     	;# 
  1561  1F3D                     	;# 
  1562  1F3E                     	;# 
  1563  1F3F                     	;# 
  1564  1F4E                     	;# 
  1565  1F4F                     	;# 
  1566  1F50                     	;# 
  1567  1F51                     	;# 
  1568  1F52                     	;# 
  1569  1F53                     	;# 
  1570  1F54                     	;# 
  1571  1F55                     	;# 
  1572  1FE4                     	;# 
  1573  1FE5                     	;# 
  1574  1FE6                     	;# 
  1575  1FE7                     	;# 
  1576  1FE8                     	;# 
  1577  1FE8                     	;# 
  1578  1FE9                     	;# 
  1579  1FEA                     	;# 
  1580  1FEB                     	;# 
  1581  1FED                     	;# 
  1582  1FEE                     	;# 
  1583  1FEF                     	;# 
  1584  0000                     	;# 
  1585  0001                     	;# 
  1586  0002                     	;# 
  1587  0003                     	;# 
  1588  0004                     	;# 
  1589  0005                     	;# 
  1590  0006                     	;# 
  1591  0007                     	;# 
  1592  0008                     	;# 
  1593  0009                     	;# 
  1594  000A                     	;# 
  1595  000B                     	;# 
  1596  000C                     	;# 
  1597  000E                     	;# 
  1598  0012                     	;# 
  1599  0014                     	;# 
  1600  0018                     	;# 
  1601  001A                     	;# 
  1602  009A                     	;# 
  1603  009B                     	;# 
  1604  009B                     	;# 
  1605  009C                     	;# 
  1606  009D                     	;# 
  1607  009E                     	;# 
  1608  009F                     	;# 
  1609  010E                     	;# 
  1610  010F                     	;# 
  1611  0119                     	;# 
  1612  011A                     	;# 
  1613  011B                     	;# 
  1614  011B                     	;# 
  1615  011C                     	;# 
  1616  011D                     	;# 
  1617  011E                     	;# 
  1618  011F                     	;# 
  1619  018C                     	;# 
  1620  018D                     	;# 
  1621  018E                     	;# 
  1622  018F                     	;# 
  1623  0190                     	;# 
  1624  0191                     	;# 
  1625  0192                     	;# 
  1626  020C                     	;# 
  1627  020D                     	;# 
  1628  020E                     	;# 
  1629  020E                     	;# 
  1630  020F                     	;# 
  1631  020F                     	;# 
  1632  0210                     	;# 
  1633  0210                     	;# 
  1634  0211                     	;# 
  1635  0211                     	;# 
  1636  028C                     	;# 
  1637  028C                     	;# 
  1638  028D                     	;# 
  1639  028D                     	;# 
  1640  028E                     	;# 
  1641  028F                     	;# 
  1642  0290                     	;# 
  1643  0291                     	;# 
  1644  030C                     	;# 
  1645  030C                     	;# 
  1646  030D                     	;# 
  1647  030E                     	;# 
  1648  030F                     	;# 
  1649  0310                     	;# 
  1650  0310                     	;# 
  1651  0311                     	;# 
  1652  0312                     	;# 
  1653  0313                     	;# 
  1654  0314                     	;# 
  1655  0314                     	;# 
  1656  0315                     	;# 
  1657  0316                     	;# 
  1658  0318                     	;# 
  1659  0318                     	;# 
  1660  0319                     	;# 
  1661  031A                     	;# 
  1662  059C                     	;# 
  1663  059C                     	;# 
  1664  059D                     	;# 
  1665  059D                     	;# 
  1666  059E                     	;# 
  1667  059F                     	;# 
  1668  070C                     	;# 
  1669  070D                     	;# 
  1670  070E                     	;# 
  1671  0716                     	;# 
  1672  0717                     	;# 
  1673  0718                     	;# 
  1674  080C                     	;# 
  1675  0811                     	;# 
  1676  0813                     	;# 
  1677  0814                     	;# 
  1678  081A                     	;# 
  1679  081A                     	;# 
  1680  081B                     	;# 
  1681  081C                     	;# 
  1682  081C                     	;# 
  1683  081D                     	;# 
  1684  081E                     	;# 
  1685  081F                     	;# 
  1686  088E                     	;# 
  1687  0890                     	;# 
  1688  0891                     	;# 
  1689  0892                     	;# 
  1690  0893                     	;# 
  1691  090C                     	;# 
  1692  1E8F                     	;# 
  1693  1E90                     	;# 
  1694  1E91                     	;# 
  1695  1E92                     	;# 
  1696  1E93                     	;# 
  1697  1E9C                     	;# 
  1698  1EA1                     	;# 
  1699  1EA2                     	;# 
  1700  1EC3                     	;# 
  1701  1EC5                     	;# 
  1702  1EC6                     	;# 
  1703  1EC7                     	;# 
  1704  1ECB                     	;# 
  1705  1ECB                     	;# 
  1706  1ECB                     	;# 
  1707  1ECC                     	;# 
  1708  1ECC                     	;# 
  1709  1ECC                     	;# 
  1710  1F10                     	;# 
  1711  1F11                     	;# 
  1712  1F12                     	;# 
  1713  1F14                     	;# 
  1714  1F15                     	;# 
  1715  1F20                     	;# 
  1716  1F21                     	;# 
  1717  1F22                     	;# 
  1718  1F23                     	;# 
  1719  1F24                     	;# 
  1720  1F25                     	;# 
  1721  1F38                     	;# 
  1722  1F39                     	;# 
  1723  1F3A                     	;# 
  1724  1F3B                     	;# 
  1725  1F3C                     	;# 
  1726  1F3D                     	;# 
  1727  1F3E                     	;# 
  1728  1F3F                     	;# 
  1729  1F4E                     	;# 
  1730  1F4F                     	;# 
  1731  1F50                     	;# 
  1732  1F51                     	;# 
  1733  1F52                     	;# 
  1734  1F53                     	;# 
  1735  1F54                     	;# 
  1736  1F55                     	;# 
  1737  1FE4                     	;# 
  1738  1FE5                     	;# 
  1739  1FE6                     	;# 
  1740  1FE7                     	;# 
  1741  1FE8                     	;# 
  1742  1FE8                     	;# 
  1743  1FE9                     	;# 
  1744  1FEA                     	;# 
  1745  1FEB                     	;# 
  1746  1FED                     	;# 
  1747  1FEE                     	;# 
  1748  1FEF                     	;_silent_night_pre
  1749                           
  1750                           	psect	idataBIGRAM
  1751  0549                     __pidataBIGRAM:
  1752                           
  1753                           ;initializer for _silent_night_pre
  1754  0549  34D0               	retlw	208
  1755  054A  34D0               	retlw	208
  1756  054B  34D0               	retlw	208
  1757  054C  34D0               	retlw	208
  1758  054D  34D0               	retlw	208
  1759  054E  34D0               	retlw	208
  1760  054F  34D0               	retlw	208
  1761  0550  34D0               	retlw	208
  1762  0551  34D0               	retlw	208
  1763  0552  34D0               	retlw	208
  1764  0553  34D0               	retlw	208
  1765  0554  34D0               	retlw	208
  1766  0555  34D0               	retlw	208
  1767  0556  34D0               	retlw	208
  1768  0557  34D0               	retlw	208
  1769  0558  34D0               	retlw	208
  1770  0559  34D0               	retlw	208
  1771  055A  34D0               	retlw	208
  1772  055B  34D0               	retlw	208
  1773  055C  34D0               	retlw	208
  1774  055D  34D0               	retlw	208
  1775  055E  34D0               	retlw	208
  1776  055F  34D0               	retlw	208
  1777  0560  34D0               	retlw	208
  1778  0561  34C0               	retlw	192
  1779  0562  34C0               	retlw	192
  1780  0563  34C0               	retlw	192
  1781  0564  34C0               	retlw	192
  1782  0565  34C0               	retlw	192
  1783  0566  34C0               	retlw	192
  1784  0567  34C0               	retlw	192
  1785  0568  34C0               	retlw	192
  1786  0569  34C0               	retlw	192
  1787  056A  34C0               	retlw	192
  1788  056B  34C0               	retlw	192
  1789  056C  34C0               	retlw	192
  1790  056D  34C0               	retlw	192
  1791  056E  34C0               	retlw	192
  1792  056F  34C0               	retlw	192
  1793  0570  34C0               	retlw	192
  1794  0571  34C0               	retlw	192
  1795  0572  34C0               	retlw	192
  1796  0573  34D0               	retlw	208
  1797  0574  34D0               	retlw	208
  1798  0575  34D0               	retlw	208
  1799  0576  34D0               	retlw	208
  1800  0577  34D0               	retlw	208
  1801  0578  34D0               	retlw	208
  1802  0579  34D0               	retlw	208
  1803  057A  34D0               	retlw	208
  1804  057B  34D0               	retlw	208
  1805  057C  34D0               	retlw	208
  1806  057D  34D0               	retlw	208
  1807  057E  34D0               	retlw	208
  1808  057F  34C0               	retlw	192
  1809  0580  34C0               	retlw	192
  1810  0581  34C0               	retlw	192
  1811  0582  34C0               	retlw	192
  1812  0583  34D0               	retlw	208
  1813  0584  34D0               	retlw	208
  1814  0585  34D0               	retlw	208
  1815  0586  34D0               	retlw	208
  1816  0587  34D0               	retlw	208
  1817  0588  34D0               	retlw	208
  1818  0589  34D0               	retlw	208
  1819  058A  34D0               	retlw	208
  1820  058B  34D0               	retlw	208
  1821  058C  34D0               	retlw	208
  1822  058D  34D0               	retlw	208
  1823  058E  34D0               	retlw	208
  1824  058F  34D0               	retlw	208
  1825  0590  34D0               	retlw	208
  1826  0591  34D0               	retlw	208
  1827  0592  34D0               	retlw	208
  1828  0593  34D0               	retlw	208
  1829  0594  34D0               	retlw	208
  1830  0595  34D0               	retlw	208
  1831  0596  34D0               	retlw	208
  1832  0597  34C0               	retlw	192
  1833  0598  34C0               	retlw	192
  1834  0599  34C0               	retlw	192
  1835  059A  34C0               	retlw	192
  1836  059B  34D0               	retlw	208
  1837  059C  34D0               	retlw	208
  1838  059D  34D0               	retlw	208
  1839  059E  34D0               	retlw	208
  1840  059F  34D0               	retlw	208
  1841  05A0  34D0               	retlw	208
  1842  05A1  34D0               	retlw	208
  1843  05A2  34D0               	retlw	208
  1844  05A3  34D0               	retlw	208
  1845  05A4  34D0               	retlw	208
  1846  05A5  34D0               	retlw	208
  1847  05A6  34D0               	retlw	208
  1848  05A7  34D0               	retlw	208
  1849  05A8  34D0               	retlw	208
  1850  05A9  34C0               	retlw	192
  1851  05AA  34C0               	retlw	192
  1852  05AB  34C0               	retlw	192
  1853  05AC  34C0               	retlw	192
  1854  05AD  34C0               	retlw	192
  1855  05AE  34C0               	retlw	192
  1856  05AF  34C0               	retlw	192
  1857  05B0  34C0               	retlw	192
  1858  05B1  34C0               	retlw	192
  1859  05B2  34C0               	retlw	192
  1860  05B3  34C0               	retlw	192
  1861  05B4  34C0               	retlw	192
  1862  05B5  34C0               	retlw	192
  1863  05B6  34C0               	retlw	192
  1864  05B7  34C0               	retlw	192
  1865  05B8  34C0               	retlw	192
  1866  05B9  34C0               	retlw	192
  1867  05BA  34C0               	retlw	192
  1868  05BB  34C0               	retlw	192
  1869  05BC  34C0               	retlw	192
  1870  05BD  34C0               	retlw	192
  1871  05BE  34C0               	retlw	192
  1872  05BF  34C0               	retlw	192
  1873  05C0  34C0               	retlw	192
  1874  05C1  34C0               	retlw	192
  1875  05C2  34C0               	retlw	192
  1876  05C3  34D0               	retlw	208
  1877  05C4  34D0               	retlw	208
  1878  05C5  34D0               	retlw	208
  1879  05C6  34D0               	retlw	208
  1880  05C7  34D0               	retlw	208
  1881  05C8  34D0               	retlw	208
  1882  05C9  34D0               	retlw	208
  1883  05CA  34D0               	retlw	208
  1884  05CB  34D0               	retlw	208
  1885  05CC  34D0               	retlw	208
  1886  05CD  34D0               	retlw	208
  1887  05CE  34D0               	retlw	208
  1888  05CF  34D0               	retlw	208
  1889  05D0  34D0               	retlw	208
  1890  05D1  34D0               	retlw	208
  1891  05D2  34D0               	retlw	208
  1892                           
  1893                           ;initializer for _silent_night
  1894  05D3  349E               	retlw	158
  1895  05D4  349E               	retlw	158
  1896  05D5  349E               	retlw	158
  1897  05D6  348D               	retlw	141
  1898  05D7  349E               	retlw	158
  1899  05D8  349E               	retlw	158
  1900  05D9  34BC               	retlw	188
  1901  05DA  34BC               	retlw	188
  1902  05DB  34BC               	retlw	188
  1903  05DC  34BC               	retlw	188
  1904  05DD  34BC               	retlw	188
  1905  05DE  34BC               	retlw	188
  1906  05DF  349E               	retlw	158
  1907  05E0  349E               	retlw	158
  1908  05E1  349E               	retlw	158
  1909  05E2  348D               	retlw	141
  1910  05E3  349E               	retlw	158
  1911  05E4  349E               	retlw	158
  1912  05E5  34BC               	retlw	188
  1913  05E6  34BC               	retlw	188
  1914  05E7  34BC               	retlw	188
  1915  05E8  34BC               	retlw	188
  1916  05E9  34BC               	retlw	188
  1917  05EA  34BC               	retlw	188
  1918  05EB  34D3               	retlw	211
  1919  05EC  34D3               	retlw	211
  1920  05ED  34D3               	retlw	211
  1921  05EE  34D3               	retlw	211
  1922  05EF  34D3               	retlw	211
  1923  05F0  34D3               	retlw	211
  1924  05F1  34FC               	retlw	252
  1925  05F2  34FC               	retlw	252
  1926  05F3  34FC               	retlw	252
  1927  05F4  34FC               	retlw	252
  1928  05F5  34FC               	retlw	252
  1929  05F6  34FC               	retlw	252
  1930  05F7  34EE               	retlw	238
  1931  05F8  34EE               	retlw	238
  1932  05F9  34EE               	retlw	238
  1933  05FA  34EE               	retlw	238
  1934  05FB  34EE               	retlw	238
  1935  05FC  34EE               	retlw	238
  1936  05FD  349E               	retlw	158
  1937  05FE  349E               	retlw	158
  1938  05FF  349E               	retlw	158
  1939  0600  349E               	retlw	158
  1940  0601  349E               	retlw	158
  1941  0602  349E               	retlw	158
  1942  0603  348D               	retlw	141
  1943  0604  348D               	retlw	141
  1944  0605  348D               	retlw	141
  1945  0606  348D               	retlw	141
  1946  0607  348D               	retlw	141
  1947  0608  348D               	retlw	141
  1948  0609  34ED               	retlw	237
  1949  060A  34ED               	retlw	237
  1950  060B  34ED               	retlw	237
  1951  060C  34FC               	retlw	252
  1952  060D  348D               	retlw	141
  1953  060E  348D               	retlw	141
  1954  060F  349E               	retlw	158
  1955  0610  349E               	retlw	158
  1956  0611  349E               	retlw	158
  1957  0612  348D               	retlw	141
  1958  0613  349E               	retlw	158
  1959  0614  349E               	retlw	158
  1960  0615  34BC               	retlw	188
  1961  0616  34BC               	retlw	188
  1962  0617  34BC               	retlw	188
  1963  0618  34BC               	retlw	188
  1964  0619  34BC               	retlw	188
  1965  061A  34BC               	retlw	188
  1966  061B  348D               	retlw	141
  1967  061C  348D               	retlw	141
  1968  061D  348D               	retlw	141
  1969  061E  348D               	retlw	141
  1970  061F  348D               	retlw	141
  1971  0620  348D               	retlw	141
  1972  0621  34ED               	retlw	237
  1973  0622  34ED               	retlw	237
  1974  0623  34ED               	retlw	237
  1975  0624  34FC               	retlw	252
  1976  0625  348D               	retlw	141
  1977  0626  348D               	retlw	141
  1978  0627  349E               	retlw	158
  1979  0628  349E               	retlw	158
  1980  0629  349E               	retlw	158
  1981  062A  348D               	retlw	141
  1982  062B  349E               	retlw	158
  1983  062C  349E               	retlw	158
  1984  062D  34BC               	retlw	188
  1985  062E  34BC               	retlw	188
  1986  062F  34BC               	retlw	188
  1987  0630  34BC               	retlw	188
  1988  0631  34BC               	retlw	188
  1989  0632  34BC               	retlw	188
  1990  0633  34D3               	retlw	211
  1991  0634  34D3               	retlw	211
  1992  0635  34D3               	retlw	211
  1993  0636  34D3               	retlw	211
  1994  0637  34D3               	retlw	211
  1995  0638  34D3               	retlw	211
  1996  0639  34B1               	retlw	177
  1997  063A  34B1               	retlw	177
  1998  063B  34B1               	retlw	177
  1999  063C  34D3               	retlw	211
  2000  063D  34FC               	retlw	252
  2001  063E  34FC               	retlw	252
  2002  063F  34ED               	retlw	237
  2003  0640  34ED               	retlw	237
  2004  0641  34ED               	retlw	237
  2005  0642  34ED               	retlw	237
  2006  0643  34ED               	retlw	237
  2007  0644  34ED               	retlw	237
  2008  0645  34BC               	retlw	188
  2009  0646  34BC               	retlw	188
  2010  0647  34BC               	retlw	188
  2011  0648  34BC               	retlw	188
  2012  0649  34BC               	retlw	188
  2013  064A  34BC               	retlw	188
  2014  064B  34ED               	retlw	237
  2015  064C  34ED               	retlw	237
  2016  064D  349E               	retlw	158
  2017  064E  349E               	retlw	158
  2018  064F  34BC               	retlw	188
  2019  0650  34BC               	retlw	188
  2020  0651  349E               	retlw	158
  2021  0652  349E               	retlw	158
  2022  0653  349E               	retlw	158
  2023  0654  34B1               	retlw	177
  2024  0655  34D3               	retlw	211
  2025  0656  34D3               	retlw	211
  2026  0657  34EE               	retlw	238
  2027  0658  34EE               	retlw	238
  2028  0659  34EE               	retlw	238
  2029  065A  34EE               	retlw	238
  2030  065B  34EE               	retlw	238
  2031  065C  34EE               	retlw	238
  2032                           
  2033                           	psect	idataBANK0
  2034  0FE1                     __pidataBANK0:
  2035                           
  2036                           ;initializer for _song3_length
  2037  0FE1  341F               	retlw	31
  2038                           
  2039                           ;initializer for _timer_low_3
  2040  0FE2  3488               	retlw	136
  2041                           
  2042                           ;initializer for _timer_high_3
  2043  0FE3  34EF               	retlw	239
  2044                           
  2045                           ;initializer for _song2_length
  2046  0FE4  3410               	retlw	16
  2047                           
  2048                           ;initializer for _timer_low_2
  2049  0FE5  34E4               	retlw	228
  2050                           
  2051                           ;initializer for _timer_high_2
  2052  0FE6  34F3               	retlw	243
  2053                           
  2054                           ;initializer for _num_songs
  2055  0FE7  3403               	retlw	3
  2056                           
  2057                           ;initializer for _light_array
  2058  0FE8  34FE               	retlw	254
  2059  0FE9  34FF               	retlw	255
  2060  0FEA  34FE               	retlw	254
  2061  0FEB  34FF               	retlw	255
  2062  0FEC  34FE               	retlw	254
  2063  0FED  34FF               	retlw	255
  2064  0FEE  34FE               	retlw	254
  2065                           
  2066                           	psect	idataBANK1
  2067  065D                     __pidataBANK1:
  2068                           
  2069                           ;initializer for _song3
  2070  065D  34D4               	retlw	212
  2071  065E  3400               	retlw	0
  2072  065F  34D4               	retlw	212
  2073  0660  34EE               	retlw	238
  2074  0661  34FC               	retlw	252
  2075  0662  34EE               	retlw	238
  2076  0663  34FC               	retlw	252
  2077  0664  348D               	retlw	141
  2078  0665  349E               	retlw	158
  2079  0666  349E               	retlw	158
  2080  0667  34D4               	retlw	212
  2081  0668  3400               	retlw	0
  2082  0669  34D4               	retlw	212
  2083  066A  34D4               	retlw	212
  2084  066B  3400               	retlw	0
  2085  066C  3400               	retlw	0
  2086  066D  3400               	retlw	0
  2087  066E  3400               	retlw	0
  2088  066F  34D4               	retlw	212
  2089  0670  34EE               	retlw	238
  2090  0671  34FC               	retlw	252
  2091  0672  34EE               	retlw	238
  2092  0673  34FC               	retlw	252
  2093  0674  348D               	retlw	141
  2094  0675  349E               	retlw	158
  2095  0676  349E               	retlw	158
  2096  0677  34D4               	retlw	212
  2097  0678  3400               	retlw	0
  2098  0679  34D4               	retlw	212
  2099  067A  34D4               	retlw	212
  2100  067B  3400               	retlw	0
  2101  067C  3400               	retlw	0
  2102                           
  2103                           ;initializer for _song2_pre
  2104  067D  34C0               	retlw	192
  2105  067E  34C0               	retlw	192
  2106  067F  34C0               	retlw	192
  2107  0680  34B0               	retlw	176
  2108  0681  34B0               	retlw	176
  2109  0682  34B0               	retlw	176
  2110  0683  34B0               	retlw	176
  2111  0684  34B0               	retlw	176
  2112  0685  34B0               	retlw	176
  2113  0686  34D0               	retlw	208
  2114  0687  34D0               	retlw	208
  2115  0688  34D0               	retlw	208
  2116  0689  34D0               	retlw	208
  2117  068A  34D0               	retlw	208
  2118  068B  34D0               	retlw	208
  2119  068C  34D0               	retlw	208
  2120  068D  34D0               	retlw	208
  2121  068E  34D0               	retlw	208
  2122                           
  2123                           ;initializer for _song2
  2124  068F  34D3               	retlw	211
  2125  0690  349E               	retlw	158
  2126  0691  348D               	retlw	141
  2127  0692  34D3               	retlw	211
  2128  0693  34BC               	retlw	188
  2129  0694  34BC               	retlw	188
  2130  0695  3400               	retlw	0
  2131  0696  3400               	retlw	0
  2132  0697  3400               	retlw	0
  2133  0698  34BC               	retlw	188
  2134  0699  34BC               	retlw	188
  2135  069A  349E               	retlw	158
  2136  069B  349E               	retlw	158
  2137  069C  34BC               	retlw	188
  2138  069D  34BC               	retlw	188
  2139  069E  348D               	retlw	141
  2140  069F  348D               	retlw	141
  2141  06A0  348D               	retlw	141
  2142                           
  2143                           	psect	idataBANK2
  2144  0705                     __pidataBANK2:
  2145                           
  2146                           ;initializer for _song3_pre
  2147  0705  34D0               	retlw	208
  2148  0706  34D0               	retlw	208
  2149  0707  34D0               	retlw	208
  2150  0708  34D0               	retlw	208
  2151  0709  34D0               	retlw	208
  2152  070A  34D0               	retlw	208
  2153  070B  34D0               	retlw	208
  2154  070C  34E0               	retlw	224
  2155  070D  34E0               	retlw	224
  2156  070E  34E0               	retlw	224
  2157  070F  34E0               	retlw	224
  2158  0710  34E0               	retlw	224
  2159  0711  34E0               	retlw	224
  2160  0712  34E0               	retlw	224
  2161  0713  34D0               	retlw	208
  2162  0714  34D0               	retlw	208
  2163  0715  34D0               	retlw	208
  2164  0716  34D0               	retlw	208
  2165  0717  34D0               	retlw	208
  2166  0718  34D0               	retlw	208
  2167  0719  34D0               	retlw	208
  2168  071A  34D0               	retlw	208
  2169  071B  34D0               	retlw	208
  2170  071C  34E0               	retlw	224
  2171  071D  34E0               	retlw	224
  2172  071E  34E0               	retlw	224
  2173  071F  34E0               	retlw	224
  2174  0720  34E0               	retlw	224
  2175  0721  34E0               	retlw	224
  2176  0722  34E0               	retlw	224
  2177  0723  34D0               	retlw	208
  2178  0724  34D0               	retlw	208
  2179                           
  2180                           	psect	stringtext1
  2181  1000                     __pstringtext1:
  2182  1000                     _spi1_configuration:
  2183  1000  3400               	retlw	0
  2184  1001  3440               	retlw	64
  2185  1002  3401               	retlw	1
  2186  1003  3400               	retlw	0
  2187  1004                     __end_of_spi1_configuration:
  2188                           
  2189                           	psect	nvCOMMON
  2190  0077                     __pnvCOMMON:
  2191  0077                     _timer0ReloadVal16bit:
  2192  0077                     	ds	2
  2193                           
  2194                           	psect	nvBANK0
  2195  004F                     __pnvBANK0:
  2196  004F                     _TMR1_InterruptHandler:
  2197  004F                     	ds	2
  2198  0051                     _timer1ReloadVal:
  2199  0051                     	ds	2
  2200  0053                     _TMR0_InterruptHandler:
  2201  0053                     	ds	2
  2202  0055                     _INT_InterruptHandler:
  2203  0055                     	ds	2
  2204  001A                     _LATCbits	set	26
  2205  0012                     _TRISAbits	set	18
  2206  000B                     _INTCONbits	set	11
  2207  0014                     _TRISC	set	20
  2208  0012                     _TRISA	set	18
  2209  001A                     _LATC	set	26
  2210  0018                     _LATA	set	24
  2211  0014                     _TRISCbits	set	20
  2212  018C                     _SSP1BUF	set	396
  2213  0191                     _SSP1CON2	set	401
  2214  0190                     _SSP1CON1bits	set	400
  2215  018D                     _SSP1ADD	set	397
  2216  0190                     _SSP1CON1	set	400
  2217  018F                     _SSP1STAT	set	399
  2218  020F                     _T1GCONbits	set	527
  2219  020E                     _T1CONbits	set	526
  2220  020E                     _T1CON	set	526
  2221  020C                     _TMR1L	set	524
  2222  020D                     _TMR1H	set	525
  2223  0211                     _T1CLK	set	529
  2224  0210                     _T1GATE	set	528
  2225  020F                     _T1GCON	set	527
  2226  028D                     _PR2	set	653
  2227  028C                     _TMR2	set	652
  2228  028E                     _T2CONbits	set	654
  2229  0291                     _T2RSTbits	set	657
  2230  028F                     _T2HLTbits	set	655
  2231  028E                     _T2CON	set	654
  2232  028C                     _T2TMR	set	652
  2233  028D                     _T2PR	set	653
  2234  0291                     _T2RST	set	657
  2235  028F                     _T2HLT	set	655
  2236  0290                     _T2CLKCON	set	656
  2237  0314                     _PWM3DCL	set	788
  2238  0315                     _PWM3DCH	set	789
  2239  0316                     _PWM3CON	set	790
  2240  059E                     _T0CON0bits	set	1438
  2241  059E                     _T0CON0	set	1438
  2242  059C                     _TMR0L	set	1436
  2243  059D                     _TMR0H	set	1437
  2244  059F                     _T0CON1	set	1439
  2245  0717                     _PIE1bits	set	1815
  2246  070C                     _PIR0bits	set	1804
  2247  0716                     _PIE0bits	set	1814
  2248  070D                     _PIR1bits	set	1805
  2249  080C                     _WDTCON	set	2060
  2250  0892                     _OSCTUNE	set	2194
  2251  0893                     _OSCFRQ	set	2195
  2252  0891                     _OSCEN	set	2193
  2253  1E90                     _INTPPS	set	7824
  2254  1EC6                     _SSP1DATPPS	set	7878
  2255  1EC5                     _SSP1CLKPPS	set	7877
  2256  1F15                     _RA5PPS	set	7957
  2257  1F52                     _INLVLC	set	8018
  2258  1F3C                     _INLVLA	set	7996
  2259  1F51                     _SLRCONC	set	8017
  2260  1F3B                     _SLRCONA	set	7995
  2261  1F50                     _ODCONC	set	8016
  2262  1F3A                     _ODCONA	set	7994
  2263  1F4F                     _WPUC	set	8015
  2264  1F39                     _WPUA	set	7993
  2265  1F38                     _ANSELA	set	7992
  2266  1F4E                     _ANSELC	set	8014
  2267  1F23                     _RC3PPS	set	7971
  2268  1F25                     _RC5PPS	set	7973
  2269                           
  2270                           	psect	cinit
  2271  0033                     start_initialization:	
  2272                           ; #config settings
  2273                           
  2274  0033                     __initialization:	;BIGRAM
  2275                           
  2276                           ; Initialize objects allocated to BIGRAM
  2277  0033  3049               	movlw	low __pidataBIGRAM
  2278  0034  0084               	movwf	4
  2279  0035  3085               	movlw	(high __pidataBIGRAM)| (0+128)
  2280  0036  0085               	movwf	5
  2281  0037  30DC               	movlw	low (0+8924)
  2282  0038  0086               	movwf	6
  2283  0039  3022               	movlw	high (0+8924)
  2284  003A  0087               	movwf	7
  2285  003B  3001               	movlw	1
  2286  003C  00FF               	movwf	btemp+1
  2287  003D  3014               	movlw	20
  2288  003E  3187  27F4  3180   	fcall	init_ram
  2289                           
  2290                           ; Initialize objects allocated to BANK0
  2291  0041  30E1               	movlw	low __pidataBANK0
  2292  0042  0084               	movwf	4
  2293  0043  308F               	movlw	(high __pidataBANK0)| (0+128)
  2294  0044  0085               	movwf	5
  2295  0045  3038               	movlw	low __pdataBANK0
  2296  0046  0086               	movwf	6
  2297  0047  3000               	movlw	high __pdataBANK0
  2298  0048  0087               	movwf	7
  2299  0049  3000               	movlw	0
  2300  004A  00FF               	movwf	btemp+1
  2301  004B  300E               	movlw	14
  2302  004C  3187  27F4  3180   	fcall	init_ram
  2303                           
  2304                           ; Initialize objects allocated to BANK1
  2305  004F  305D               	movlw	low __pidataBANK1
  2306  0050  0084               	movwf	4
  2307  0051  3086               	movlw	(high __pidataBANK1)| (0+128)
  2308  0052  0085               	movwf	5
  2309  0053  30A0               	movlw	low __pdataBANK1
  2310  0054  0086               	movwf	6
  2311  0055  3000               	movlw	high __pdataBANK1
  2312  0056  0087               	movwf	7
  2313  0057  3000               	movlw	0
  2314  0058  00FF               	movwf	btemp+1
  2315  0059  3044               	movlw	68
  2316  005A  3187  27F4  3180   	fcall	init_ram
  2317                           
  2318                           ; Initialize objects allocated to BANK2
  2319  005D  3005               	movlw	low __pidataBANK2
  2320  005E  0084               	movwf	4
  2321  005F  3087               	movlw	(high __pidataBANK2)| (0+128)
  2322  0060  0085               	movwf	5
  2323  0061  3020               	movlw	low __pdataBANK2
  2324  0062  0086               	movwf	6
  2325  0063  3001               	movlw	high __pdataBANK2
  2326  0064  0087               	movwf	7
  2327  0065  3000               	movlw	0
  2328  0066  00FF               	movwf	btemp+1
  2329  0067  3020               	movlw	32
  2330  0068  3187  27F4  3180   	fcall	init_ram
  2331                           
  2332                           ; Clear objects allocated to COMMON
  2333  006B  01F9               	clrf	__pbssCOMMON& (0+127)
  2334                           
  2335                           ; Clear objects allocated to BANK0
  2336  006C  01C6               	clrf	__pbssBANK0& (0+127)
  2337  006D  01C7               	clrf	(__pbssBANK0+1)& (0+127)
  2338  006E  01C8               	clrf	(__pbssBANK0+2)& (0+127)
  2339  006F  01C9               	clrf	(__pbssBANK0+3)& (0+127)
  2340  0070  01CA               	clrf	(__pbssBANK0+4)& (0+127)
  2341  0071  01CB               	clrf	(__pbssBANK0+5)& (0+127)
  2342  0072  01CC               	clrf	(__pbssBANK0+6)& (0+127)
  2343  0073  01CD               	clrf	(__pbssBANK0+7)& (0+127)
  2344  0074  01CE               	clrf	(__pbssBANK0+8)& (0+127)
  2345  0075                     end_of_initialization:	
  2346                           ;End of C runtime variable initialization code
  2347                           
  2348  0075                     __end_of__initialization:
  2349  0075  107E               	bcf	int$flags,0	;clear compiler interrupt flag (level 1)
  2350  0076  0140               	movlb	0
  2351  0077  3183  2B17         	ljmp	_main	;jump to C main() function
  2352                           
  2353                           	psect	bssCOMMON
  2354  0079                     __pbssCOMMON:
  2355  0079                     _last_prescale:
  2356  0079                     	ds	1
  2357                           
  2358                           	psect	bssBANK0
  2359  0046                     __pbssBANK0:
  2360  0046                     _count:
  2361  0046                     	ds	2
  2362  0048                     _cole_counter:
  2363  0048                     	ds	1
  2364  0049                     _presses:
  2365  0049                     	ds	1
  2366  004A                     _last_note:
  2367  004A                     	ds	1
  2368  004B                     _TMR0_complete:
  2369  004B                     	ds	1
  2370  004C                     _song2_playing:
  2371  004C                     	ds	1
  2372  004D                     _song3_playing:
  2373  004D                     	ds	1
  2374  004E                     _silent_night_playing:
  2375  004E                     	ds	1
  2376                           
  2377                           	psect	dataBANK0
  2378  0038                     __pdataBANK0:
  2379  0038                     _song3_length:
  2380  0038                     	ds	1
  2381  0039                     _timer_low_3:
  2382  0039                     	ds	1
  2383  003A                     _timer_high_3:
  2384  003A                     	ds	1
  2385  003B                     _song2_length:
  2386  003B                     	ds	1
  2387  003C                     _timer_low_2:
  2388  003C                     	ds	1
  2389  003D                     _timer_high_2:
  2390  003D                     	ds	1
  2391  003E                     _num_songs:
  2392  003E                     	ds	1
  2393  003F                     _light_array:
  2394  003F                     	ds	7
  2395                           
  2396                           	psect	dataBANK1
  2397  00A0                     __pdataBANK1:
  2398  00A0                     _song3:
  2399  00A0                     	ds	32
  2400  00C0                     _song2_pre:
  2401  00C0                     	ds	18
  2402  00D2                     _song2:
  2403  00D2                     	ds	18
  2404                           
  2405                           	psect	dataBANK2
  2406  0120                     __pdataBANK2:
  2407  0120                     _song3_pre:
  2408  0120                     	ds	32
  2409                           
  2410                           	psect	inittext
  2411  07F4                     init_ram:
  2412  07F4  00FE               	movwf	btemp
  2413  07F5                     initloop:
  2414  07F5  0012               	moviw fsr0++
  2415  07F6  001E               	movwi fsr1++
  2416  07F7  3001               	movlw	1
  2417  07F8  02FE               	subwf	btemp,f
  2418  07F9  3000               	movlw	0
  2419  07FA  3BFF               	subwfb	btemp+1,f
  2420  07FB  087F               	movf	btemp+1,w
  2421  07FC  047E               	iorwf	btemp,w
  2422  07FD  1D03               	skipz
  2423  07FE  2FF5               	goto	initloop
  2424  07FF  3400               	retlw	0
  2425                           
  2426                           	psect	cstackBANK2
  2427  0140                     __pcstackBANK2:
  2428  0140                     main@light:
  2429                           
  2430                           ; 1 bytes @ 0x0
  2431  0140                     	ds	1
  2432  0141                     main@j:
  2433                           
  2434                           ; 2 bytes @ 0x1
  2435  0141                     	ds	2
  2436  0143                     main@i:
  2437                           
  2438                           ; 2 bytes @ 0x3
  2439  0143                     	ds	2
  2440  0145                     main@j_1165:
  2441                           
  2442                           ; 2 bytes @ 0x5
  2443  0145                     	ds	2
  2444  0147                     main@j_1167:
  2445                           
  2446                           ; 2 bytes @ 0x7
  2447  0147                     	ds	2
  2448                           
  2449                           	psect	cstackBANK1
  2450  00E4                     __pcstackBANK1:
  2451  00E4                     displayMatrix@states:
  2452                           
  2453                           ; 1 bytes @ 0x0
  2454  00E4                     	ds	1
  2455  00E5                     displayMatrix@i:
  2456                           
  2457                           ; 2 bytes @ 0x1
  2458  00E5                     	ds	2
  2459  00E7                     displayMatrix@lowSide:
  2460                           
  2461                           ; 1 bytes @ 0x3
  2462  00E7                     	ds	1
  2463  00E8                     ??_main:
  2464                           
  2465                           ; 1 bytes @ 0x4
  2466  00E8                     	ds	5
  2467                           
  2468                           	psect	cstackCOMMON
  2469  0070                     __pcstackCOMMON:
  2470  0070                     ?_SPI1_Initialize:
  2471  0070                     ?_PIN_MANAGER_Initialize:	
  2472                           ; 1 bytes @ 0x0
  2473                           
  2474  0070                     ?_OSCILLATOR_Initialize:	
  2475                           ; 1 bytes @ 0x0
  2476                           
  2477  0070                     ?_WDT_Initialize:	
  2478                           ; 1 bytes @ 0x0
  2479                           
  2480  0070                     ?_PWM3_Initialize:	
  2481                           ; 1 bytes @ 0x0
  2482                           
  2483  0070                     ?_TMR2_Initialize:	
  2484                           ; 1 bytes @ 0x0
  2485                           
  2486  0070                     ?_TMR1_Initialize:	
  2487                           ; 1 bytes @ 0x0
  2488                           
  2489  0070                     ?_EXT_INT_Initialize:	
  2490                           ; 1 bytes @ 0x0
  2491                           
  2492  0070                     ?_TMR0_Initialize:	
  2493                           ; 1 bytes @ 0x0
  2494                           
  2495  0070                     ?_TMR0_ISR:	
  2496                           ; 1 bytes @ 0x0
  2497                           
  2498  0070                     ??_TMR0_ISR:	
  2499                           ; 1 bytes @ 0x0
  2500                           
  2501  0070                     ?_INT_ISR:	
  2502                           ; 1 bytes @ 0x0
  2503                           
  2504  0070                     ?_TMR1_ISR:	
  2505                           ; 1 bytes @ 0x0
  2506                           
  2507  0070                     ?_INT_CallBack:	
  2508                           ; 1 bytes @ 0x0
  2509                           
  2510  0070                     ?_TMR0_DefaultInterruptHandler:	
  2511                           ; 1 bytes @ 0x0
  2512                           
  2513  0070                     ??_TMR0_DefaultInterruptHandler:	
  2514                           ; 1 bytes @ 0x0
  2515                           
  2516  0070                     ?_TMR1_DefaultInterruptHandler:	
  2517                           ; 1 bytes @ 0x0
  2518                           
  2519  0070                     ??_TMR1_DefaultInterruptHandler:	
  2520                           ; 1 bytes @ 0x0
  2521                           
  2522  0070                     ?_EXT_ISR:	
  2523                           ; 1 bytes @ 0x0
  2524                           
  2525  0070                     ??_EXT_ISR:	
  2526                           ; 1 bytes @ 0x0
  2527                           
  2528  0070                     ?_TMR0_ISR_:	
  2529                           ; 1 bytes @ 0x0
  2530                           
  2531  0070                     ??_TMR0_ISR_:	
  2532                           ; 1 bytes @ 0x0
  2533                           
  2534  0070                     ?_TMR1_ISR_:	
  2535                           ; 1 bytes @ 0x0
  2536                           
  2537  0070                     ??_TMR1_ISR_:	
  2538                           ; 1 bytes @ 0x0
  2539                           
  2540  0070                     ?_displayMatrix:	
  2541                           ; 1 bytes @ 0x0
  2542                           
  2543  0070                     ?_SYSTEM_Initialize:	
  2544                           ; 1 bytes @ 0x0
  2545                           
  2546  0070                     ?_SPI1_ExchangeByte:	
  2547                           ; 1 bytes @ 0x0
  2548                           
  2549  0070                     ?_INTERRUPT_InterruptManager:	
  2550                           ; 1 bytes @ 0x0
  2551                           
  2552  0070                     ?_INT_DefaultInterruptHandler:	
  2553                           ; 1 bytes @ 0x0
  2554                           
  2555  0070                     ??_INT_DefaultInterruptHandler:	
  2556                           ; 1 bytes @ 0x0
  2557                           
  2558  0070                     ?_TMR0_Reload:	
  2559                           ; 1 bytes @ 0x0
  2560                           
  2561  0070                     ??_TMR0_Reload:	
  2562                           ; 1 bytes @ 0x0
  2563                           
  2564  0070                     ?_TMR1_WriteTimer:	
  2565                           ; 1 bytes @ 0x0
  2566                           
  2567  0070                     ?_main:	
  2568                           ; 1 bytes @ 0x0
  2569                           
  2570  0070                     TMR1_WriteTimer@timerVal:	
  2571                           ; 1 bytes @ 0x0
  2572                           
  2573                           
  2574                           ; 2 bytes @ 0x0
  2575  0070                     	ds	1
  2576  0071                     ??_INT_ISR:
  2577  0071                     ??_INT_CallBack:	
  2578                           ; 1 bytes @ 0x1
  2579                           
  2580                           
  2581                           ; 1 bytes @ 0x1
  2582  0071                     	ds	1
  2583  0072                     ??_SPI1_Initialize:
  2584  0072                     ??_PIN_MANAGER_Initialize:	
  2585                           ; 1 bytes @ 0x2
  2586                           
  2587  0072                     ??_OSCILLATOR_Initialize:	
  2588                           ; 1 bytes @ 0x2
  2589                           
  2590  0072                     ??_WDT_Initialize:	
  2591                           ; 1 bytes @ 0x2
  2592                           
  2593  0072                     ??_PWM3_Initialize:	
  2594                           ; 1 bytes @ 0x2
  2595                           
  2596  0072                     ??_TMR2_Initialize:	
  2597                           ; 1 bytes @ 0x2
  2598                           
  2599  0072                     ??_TMR1_ISR:	
  2600                           ; 1 bytes @ 0x2
  2601                           
  2602  0072                     ?_TMR0_SetInterruptHandler:	
  2603                           ; 1 bytes @ 0x2
  2604                           
  2605  0072                     ?_TMR1_SetInterruptHandler:	
  2606                           ; 1 bytes @ 0x2
  2607                           
  2608  0072                     ?_playNote:	
  2609                           ; 1 bytes @ 0x2
  2610                           
  2611  0072                     ??_SPI1_ExchangeByte:	
  2612                           ; 1 bytes @ 0x2
  2613                           
  2614  0072                     ??_INTERRUPT_InterruptManager:	
  2615                           ; 1 bytes @ 0x2
  2616                           
  2617  0072                     ?_INT_SetInterruptHandler:	
  2618                           ; 1 bytes @ 0x2
  2619                           
  2620  0072                     ??_TMR1_WriteTimer:	
  2621                           ; 1 bytes @ 0x2
  2622                           
  2623  0072                     SPI1_ExchangeByte@data:	
  2624                           ; 1 bytes @ 0x2
  2625                           
  2626  0072                     playNote@prescale:	
  2627                           ; 1 bytes @ 0x2
  2628                           
  2629  0072                     INT_SetInterruptHandler@InterruptHandler:	
  2630                           ; 1 bytes @ 0x2
  2631                           
  2632  0072                     TMR0_SetInterruptHandler@InterruptHandler:	
  2633                           ; 2 bytes @ 0x2
  2634                           
  2635  0072                     TMR1_SetInterruptHandler@InterruptHandler:	
  2636                           ; 2 bytes @ 0x2
  2637                           
  2638                           
  2639                           ; 2 bytes @ 0x2
  2640  0072                     	ds	1
  2641  0073                     ?_shiftBytes:
  2642  0073                     ??_playNote:	
  2643                           ; 1 bytes @ 0x3
  2644                           
  2645  0073                     shiftBytes@lowSide:	
  2646                           ; 1 bytes @ 0x3
  2647                           
  2648                           
  2649                           ; 1 bytes @ 0x3
  2650  0073                     	ds	1
  2651  0074                     ??_TMR1_Initialize:
  2652  0074                     ??_EXT_INT_Initialize:	
  2653                           ; 1 bytes @ 0x4
  2654                           
  2655  0074                     ??_TMR0_Initialize:	
  2656                           ; 1 bytes @ 0x4
  2657                           
  2658  0074                     ??_TMR0_SetInterruptHandler:	
  2659                           ; 1 bytes @ 0x4
  2660                           
  2661  0074                     ??_TMR1_SetInterruptHandler:	
  2662                           ; 1 bytes @ 0x4
  2663                           
  2664  0074                     ??_shiftBytes:	
  2665                           ; 1 bytes @ 0x4
  2666                           
  2667  0074                     ??_SYSTEM_Initialize:	
  2668                           ; 1 bytes @ 0x4
  2669                           
  2670  0074                     ??_INT_SetInterruptHandler:	
  2671                           ; 1 bytes @ 0x4
  2672                           
  2673  0074                     playNote@note:	
  2674                           ; 1 bytes @ 0x4
  2675                           
  2676  0074                     shiftBytes@highSide:	
  2677                           ; 1 bytes @ 0x4
  2678                           
  2679                           
  2680                           ; 1 bytes @ 0x4
  2681  0074                     	ds	1
  2682  0075                     ??_displayMatrix:
  2683                           
  2684                           ; 1 bytes @ 0x5
  2685  0075                     	ds	2
  2686                           
  2687                           	psect	cstackBANK0
  2688  0020                     __pcstackBANK0:
  2689  0020                     TMR1_ISR_@lights:
  2690                           
  2691                           ; 1 bytes @ 0x0
  2692  0020                     	ds	1
  2693  0021                     TMR1_ISR_@lights_1177:
  2694                           
  2695                           ; 1 bytes @ 0x1
  2696  0021                     	ds	1
  2697  0022                     TMR1_ISR_@lights_1180:
  2698                           
  2699                           ; 1 bytes @ 0x2
  2700  0022                     	ds	1
  2701  0023                     TMR1_ISR_@i_1179:
  2702                           
  2703                           ; 2 bytes @ 0x3
  2704  0023                     	ds	2
  2705  0025                     TMR1_ISR_@i_1182:
  2706                           
  2707                           ; 2 bytes @ 0x5
  2708  0025                     	ds	2
  2709  0027                     TMR1_ISR_@i_1183:
  2710                           
  2711                           ; 2 bytes @ 0x7
  2712  0027                     	ds	2
  2713  0029                     TMR1_ISR_@i_1184:
  2714                           
  2715                           ; 2 bytes @ 0x9
  2716  0029                     	ds	2
  2717  002B                     TMR1_ISR_@i_1175:
  2718                           
  2719                           ; 2 bytes @ 0xB
  2720  002B                     	ds	2
  2721  002D                     TMR1_ISR_@i_1178:
  2722                           
  2723                           ; 2 bytes @ 0xD
  2724  002D                     	ds	2
  2725  002F                     TMR1_ISR_@i_1181:
  2726                           
  2727                           ; 2 bytes @ 0xF
  2728  002F                     	ds	2
  2729  0031                     TMR1_ISR_@lights_1186:
  2730                           
  2731                           ; 1 bytes @ 0x11
  2732  0031                     	ds	1
  2733  0032                     TMR1_ISR_@i:
  2734                           
  2735                           ; 2 bytes @ 0x12
  2736  0032                     	ds	2
  2737  0034                     TMR1_ISR_@i_1176:
  2738                           
  2739                           ; 2 bytes @ 0x14
  2740  0034                     	ds	2
  2741  0036                     TMR1_ISR_@i_1185:
  2742                           
  2743                           ; 2 bytes @ 0x16
  2744  0036                     	ds	2
  2745                           
  2746                           	psect	maintext
  2747  0317                     __pmaintext:	
  2748 ;;
  2749 ;;Main: autosize = 0, tempsize = 5, incstack = 0, save=0
  2750 ;;
  2751 ;; *************** function _main *****************
  2752 ;; Defined at:
  2753 ;;		line 238 in file "main.c"
  2754 ;; Parameters:    Size  Location     Type
  2755 ;;		None
  2756 ;; Auto vars:     Size  Location     Type
  2757 ;;  light           1    0        unsigned char 
  2758 ;;  light           1    0[BANK2 ] unsigned char 
  2759 ;;  j               2    7[BANK2 ] int 
  2760 ;;  j               2    5[BANK2 ] int 
  2761 ;;  j               2    1[BANK2 ] int 
  2762 ;;  i               2    3[BANK2 ] int 
  2763 ;; Return value:  Size  Location     Type
  2764 ;;                  1    wreg      void 
  2765 ;; Registers used:
  2766 ;;		wreg, fsr0l, fsr0h, fsr1l, fsr1h, status,2, status,0, pclath, cstack
  2767 ;; Tracked objects:
  2768 ;;		On entry : B3F/0
  2769 ;;		On exit  : 0/0
  2770 ;;		Unchanged: 0/0
  2771 ;; Data sizes:     COMMON   BANK0   BANK1   BANK2   BANK3   BANK4   BANK5   BANK6   BANK7   BANK8   BANK9  BANK10  BANK1
      +1  BANK12
  2772 ;;      Params:         0       0       0       0       0       0       0       0       0       0       0       0       
      +0       0
  2773 ;;      Locals:         0       0       0       9       0       0       0       0       0       0       0       0       
      +0       0
  2774 ;;      Temps:          0       0       5       0       0       0       0       0       0       0       0       0       
      +0       0
  2775 ;;      Totals:         0       0       5       9       0       0       0       0       0       0       0       0       
      +0       0
  2776 ;;Total ram usage:       14 bytes
  2777 ;; Hardware stack levels required when called: 8
  2778 ;; This function calls:
  2779 ;;		_EXT_INT_Initialize
  2780 ;;		_INT_SetInterruptHandler
  2781 ;;		_PWM3_Initialize
  2782 ;;		_SPI1_Initialize
  2783 ;;		_SYSTEM_Initialize
  2784 ;;		_TMR0_Initialize
  2785 ;;		_TMR0_SetInterruptHandler
  2786 ;;		_TMR1_Initialize
  2787 ;;		_TMR1_SetInterruptHandler
  2788 ;;		_TMR2_Initialize
  2789 ;;		_displayMatrix
  2790 ;;		_playNote
  2791 ;;		_shiftBytes
  2792 ;; This function is called by:
  2793 ;;		Startup code after reset
  2794 ;; This function uses a non-reentrant model
  2795 ;;
  2796                           
  2797                           
  2798                           ;psect for function _main
  2799  0317                     _main:
  2800  0317                     l2654:	
  2801                           ;incstack = 0
  2802                           ; Regs used in _main: [wreg-fsr1h+status,2+status,0+pclath+cstack]
  2803                           
  2804                           
  2805                           ;main.c: 241:     SYSTEM_Initialize();
  2806  0317  3187  2763  3183   	fcall	_SYSTEM_Initialize
  2807  031A                     l2656:
  2808                           
  2809                           ;main.c: 247:     (INTCONbits.GIE = 1);
  2810  031A  178B               	bsf	11,7	;volatile
  2811  031B                     l2658:
  2812                           
  2813                           ;main.c: 250:     (INTCONbits.PEIE = 1);
  2814  031B  170B               	bsf	11,6	;volatile
  2815                           
  2816                           ;main.c: 259:     SPI1_Initialize();
  2817  031C  3187  27CB  3183   	fcall	_SPI1_Initialize
  2818  031F                     l2660:
  2819                           
  2820                           ;main.c: 260:     SSP1CON1bits.SSPEN = 0;
  2821  031F  0143               	movlb	3	; select bank3
  2822  0320  1290               	bcf	16,5	;volatile
  2823  0321                     l2662:
  2824                           
  2825                           ;main.c: 261:     TRISCbits.TRISC3 = 0;
  2826  0321  0140               	movlb	0	; select bank0
  2827  0322  1194               	bcf	20,3	;volatile
  2828  0323                     l2664:
  2829                           
  2830                           ;main.c: 262:     TRISAbits.TRISA4 = 1;
  2831  0323  1612               	bsf	18,4	;volatile
  2832  0324                     l2666:
  2833                           
  2834                           ;main.c: 263:     TRISCbits.TRISC5 = 0;
  2835  0324  1294               	bcf	20,5	;volatile
  2836  0325                     l2668:
  2837                           
  2838                           ;main.c: 266:     SSP1CON1bits.SSPEN = 1;
  2839  0325  0143               	movlb	3	; select bank3
  2840  0326  1690               	bsf	16,5	;volatile
  2841                           
  2842                           ;main.c: 269:     EXT_INT_Initialize();
  2843  0327  318F  27AC  3183   	fcall	_EXT_INT_Initialize
  2844                           
  2845                           ;main.c: 270:     INT_SetInterruptHandler(EXT_ISR);
  2846  032A  307F               	movlw	low _EXT_ISR
  2847  032B  00F2               	movwf	INT_SetInterruptHandler@InterruptHandler
  2848  032C  3007               	movlw	high _EXT_ISR
  2849  032D  00F3               	movwf	INT_SetInterruptHandler@InterruptHandler+1
  2850  032E  318F  277F  3183   	fcall	_INT_SetInterruptHandler
  2851  0331                     l2670:
  2852                           
  2853                           ;main.c: 271:     PIE0bits.INTE = 1;
  2854  0331  014E               	movlb	14	; select bank14
  2855  0332  1416               	bsf	22,0	;volatile
  2856                           
  2857                           ;main.c: 274:     TMR0_Initialize();
  2858  0333  3187  279B  3183   	fcall	_TMR0_Initialize
  2859                           
  2860                           ;main.c: 275:     TMR0_SetInterruptHandler(TMR0_ISR_);
  2861  0336  306F               	movlw	low _TMR0_ISR_
  2862  0337  00F2               	movwf	TMR0_SetInterruptHandler@InterruptHandler
  2863  0338  300F               	movlw	high _TMR0_ISR_
  2864  0339  00F3               	movwf	TMR0_SetInterruptHandler@InterruptHandler+1
  2865  033A  318F  278B  3183   	fcall	_TMR0_SetInterruptHandler
  2866  033D                     l2672:
  2867                           
  2868                           ;main.c: 276:     T0CON0bits.T0EN = 0;
  2869  033D  014B               	movlb	11	; select bank11
  2870  033E  139E               	bcf	30,7	;volatile
  2871                           
  2872                           ;main.c: 279:     TMR1_Initialize();
  2873  033F  3187  2725  3183   	fcall	_TMR1_Initialize
  2874                           
  2875                           ;main.c: 280:     TMR1_SetInterruptHandler(TMR1_ISR_);
  2876  0342  3079               	movlw	low _TMR1_ISR_
  2877  0343  00F2               	movwf	TMR1_SetInterruptHandler@InterruptHandler
  2878  0344  3000               	movlw	high _TMR1_ISR_
  2879  0345  00F3               	movwf	TMR1_SetInterruptHandler@InterruptHandler+1
  2880  0346  318F  2791  3183   	fcall	_TMR1_SetInterruptHandler
  2881  0349                     l2674:
  2882                           
  2883                           ;main.c: 281:     T1CONbits.TMR1ON = 0;
  2884  0349  0144               	movlb	4	; select bank4
  2885  034A  100E               	bcf	14,0	;volatile
  2886                           
  2887                           ;main.c: 284:     TMR2_Initialize();
  2888  034B  318F  27D3  3183   	fcall	_TMR2_Initialize
  2889  034E                     l2676:
  2890                           
  2891                           ;main.c: 285:     T2CONbits.TMR2ON = 0;
  2892  034E  0145               	movlb	5	; select bank5
  2893  034F  138E               	bcf	14,7	;volatile
  2894                           
  2895                           ;main.c: 288:     PWM3_Initialize();
  2896  0350  318F  2797  3183   	fcall	_PWM3_Initialize
  2897  0353                     l2678:
  2898  0353  0140               	movlb	0	; select bank0
  2899  0354  111A               	bcf	26,2	;volatile
  2900  0355                     l2680:
  2901  0355  121A               	bcf	26,4	;volatile
  2902  0356                     l2682:
  2903  0356  101A               	bcf	26,0	;volatile
  2904  0357                     l2684:
  2905                           
  2906                           ;main.c: 298:     for (int i = 0; i < 15; i++)
  2907  0357  0142               	movlb	2	; select bank2
  2908  0358  01C3               	clrf	main@i^(0+256)
  2909  0359  01C4               	clrf	(main@i+1)^(0+256)
  2910  035A                     l2690:
  2911                           
  2912                           ;main.c: 299:     {;main.c: 300:         for (int j = 0; j < 12; j++)
  2913  035A  0142               	movlb	2	; select bank2
  2914  035B  01C1               	clrf	main@j^(0+256)
  2915  035C  01C2               	clrf	(main@j+1)^(0+256)
  2916  035D                     l2696:
  2917                           
  2918                           ;main.c: 301:         {;main.c: 302:             displayMatrix(light_array);
  2919  035D  303F               	movlw	(low (_light_array| 0))& (0+255)
  2920  035E  3186  26A1  3183   	fcall	_displayMatrix
  2921  0361                     l2698:
  2922                           
  2923                           ;main.c: 303:         }
  2924  0361  3001               	movlw	1
  2925  0362  0142               	movlb	2	; select bank2
  2926  0363  07C1               	addwf	main@j^(0+256),f
  2927  0364  3000               	movlw	0
  2928  0365  3DC2               	addwfc	(main@j+1)^(0+256),f
  2929  0366                     l2700:
  2930  0366  0842               	movf	(main@j+1)^(0+256),w
  2931  0367  3A80               	xorlw	128
  2932  0368  0141               	movlb	1	; select bank1
  2933  0369  00E8               	movwf	??_main^(0+128)
  2934  036A  3080               	movlw	128
  2935  036B  0268               	subwf	??_main^(0+128),w
  2936  036C  1D03               	skipz
  2937  036D  2B71               	goto	u1615
  2938  036E  300C               	movlw	12
  2939  036F  0142               	movlb	2	; select bank2
  2940  0370  0241               	subwf	main@j^(0+256),w
  2941  0371                     u1615:
  2942  0371  1C03               	skipc
  2943  0372  2B74               	goto	u1611
  2944  0373  2B75               	goto	u1610
  2945  0374                     u1611:
  2946  0374  2B5D               	goto	l2696
  2947  0375                     u1610:
  2948  0375                     l2702:
  2949                           
  2950                           ;main.c: 304:         if (i < 7)
  2951  0375  0142               	movlb	2	; select bank2
  2952  0376  0844               	movf	(main@i+1)^(0+256),w
  2953  0377  3A80               	xorlw	128
  2954  0378  0141               	movlb	1	; select bank1
  2955  0379  00E8               	movwf	??_main^(0+128)
  2956  037A  3080               	movlw	128
  2957  037B  0268               	subwf	??_main^(0+128),w
  2958  037C  1D03               	skipz
  2959  037D  2B81               	goto	u1625
  2960  037E  3007               	movlw	7
  2961  037F  0142               	movlb	2	; select bank2
  2962  0380  0243               	subwf	main@i^(0+256),w
  2963  0381                     u1625:
  2964  0381  1803               	skipnc
  2965  0382  2B84               	goto	u1621
  2966  0383  2B85               	goto	u1620
  2967  0384                     u1621:
  2968  0384  2BC7               	goto	l2716
  2969  0385                     u1620:
  2970  0385                     l2704:
  2971                           
  2972                           ;main.c: 305:         {;main.c: 306:             for (int j = 0; j < 7; j++)
  2973  0385  0142               	movlb	2	; select bank2
  2974  0386  01C5               	clrf	main@j_1165^(0+256)
  2975  0387  01C6               	clrf	(main@j_1165+1)^(0+256)
  2976  0388                     l2710:
  2977                           
  2978                           ;main.c: 307:             {;main.c: 308:                 uint8_t light = (~light_array[j
      +                          ]) << 7;
  2979  0388  0142               	movlb	2	; select bank2
  2980  0389  0845               	movf	main@j_1165^(0+256),w
  2981  038A  3E3F               	addlw	(low (_light_array| 0))& (0+255)
  2982  038B  0086               	movwf	6
  2983  038C  0187               	clrf	7
  2984  038D  0901               	comf	1,w
  2985  038E  0141               	movlb	1	; select bank1
  2986  038F  00E8               	movwf	??_main^(0+128)
  2987  0390  3006               	movlw	6
  2988  0391                     u1635:
  2989  0391  35E8               	lslf	??_main^(0+128),f
  2990  0392  3EFF               	addlw	-1
  2991  0393  1D03               	skipz
  2992  0394  2B91               	goto	u1635
  2993  0395  3568               	lslf	??_main^(0+128),w
  2994  0396  00E9               	movwf	(??_main+1)^(0+128)
  2995  0397  0869               	movf	(??_main+1)^(0+128),w
  2996  0398  0142               	movlb	2	; select bank2
  2997  0399  00C0               	movwf	main@light^(0+256)
  2998                           
  2999                           ;main.c: 309:                 light_array[j] = (light_array[j] << 1) + (light >> 7);
  3000  039A  0840               	movf	main@light^(0+256),w
  3001  039B  0141               	movlb	1	; select bank1
  3002  039C  00E8               	movwf	??_main^(0+128)
  3003  039D  3007               	movlw	7
  3004  039E                     u1645:
  3005  039E  36E8               	lsrf	??_main^(0+128),f
  3006  039F  0B89               	decfsz	9,f
  3007  03A0  2B9E               	goto	u1645
  3008  03A1  0142               	movlb	2	; select bank2
  3009  03A2  0845               	movf	main@j_1165^(0+256),w
  3010  03A3  3E3F               	addlw	(low (_light_array| 0))& (0+255)
  3011  03A4  0086               	movwf	6
  3012  03A5  0187               	clrf	7
  3013  03A6  3501               	lslf	1,w
  3014  03A7  0141               	movlb	1	; select bank1
  3015  03A8  0768               	addwf	??_main^(0+128),w
  3016  03A9  00E9               	movwf	(??_main+1)^(0+128)
  3017  03AA  0142               	movlb	2	; select bank2
  3018  03AB  0845               	movf	main@j_1165^(0+256),w
  3019  03AC  3E3F               	addlw	(low (_light_array| 0))& (0+255)
  3020  03AD  0086               	movwf	6
  3021  03AE  0187               	clrf	7
  3022  03AF  0141               	movlb	1	; select bank1
  3023  03B0  0869               	movf	(??_main+1)^(0+128),w
  3024  03B1  0081               	movwf	1
  3025  03B2                     l2712:
  3026                           
  3027                           ;main.c: 310:             }
  3028  03B2  3001               	movlw	1
  3029  03B3  0142               	movlb	2	; select bank2
  3030  03B4  07C5               	addwf	main@j_1165^(0+256),f
  3031  03B5  3000               	movlw	0
  3032  03B6  3DC6               	addwfc	(main@j_1165+1)^(0+256),f
  3033  03B7                     l2714:
  3034  03B7  0846               	movf	(main@j_1165+1)^(0+256),w
  3035  03B8  3A80               	xorlw	128
  3036  03B9  0141               	movlb	1	; select bank1
  3037  03BA  00E8               	movwf	??_main^(0+128)
  3038  03BB  3080               	movlw	128
  3039  03BC  0268               	subwf	??_main^(0+128),w
  3040  03BD  1D03               	skipz
  3041  03BE  2BC2               	goto	u1655
  3042  03BF  3007               	movlw	7
  3043  03C0  0142               	movlb	2	; select bank2
  3044  03C1  0245               	subwf	main@j_1165^(0+256),w
  3045  03C2                     u1655:
  3046  03C2  1C03               	skipc
  3047  03C3  2BC5               	goto	u1651
  3048  03C4  2BC6               	goto	u1650
  3049  03C5                     u1651:
  3050  03C5  2B88               	goto	l2710
  3051  03C6                     u1650:
  3052  03C6  2BEF               	goto	l2728
  3053  03C7                     l2716:
  3054                           
  3055                           ;main.c: 313:         {;main.c: 314:             for (int j = 0; j < 7; j++)
  3056  03C7  0142               	movlb	2	; select bank2
  3057  03C8  01C7               	clrf	main@j_1167^(0+256)
  3058  03C9  01C8               	clrf	(main@j_1167+1)^(0+256)
  3059  03CA                     l2722:
  3060                           
  3061                           ;main.c: 317:                 light_array[j] = (light_array[j] << 1) + 1;
  3062  03CA  0142               	movlb	2	; select bank2
  3063  03CB  0847               	movf	main@j_1167^(0+256),w
  3064  03CC  3E3F               	addlw	(low (_light_array| 0))& (0+255)
  3065  03CD  0086               	movwf	6
  3066  03CE  0187               	clrf	7
  3067  03CF  1403               	setc
  3068  03D0  0D01               	rlf	1,w
  3069  03D1  0141               	movlb	1	; select bank1
  3070  03D2  00E8               	movwf	??_main^(0+128)
  3071  03D3  0142               	movlb	2	; select bank2
  3072  03D4  0847               	movf	main@j_1167^(0+256),w
  3073  03D5  3E3F               	addlw	(low (_light_array| 0))& (0+255)
  3074  03D6  0086               	movwf	6
  3075  03D7  0187               	clrf	7
  3076  03D8  0141               	movlb	1	; select bank1
  3077  03D9  0868               	movf	??_main^(0+128),w
  3078  03DA  0081               	movwf	1
  3079  03DB                     l2724:
  3080                           
  3081                           ;main.c: 318:             }
  3082  03DB  3001               	movlw	1
  3083  03DC  0142               	movlb	2	; select bank2
  3084  03DD  07C7               	addwf	main@j_1167^(0+256),f
  3085  03DE  3000               	movlw	0
  3086  03DF  3DC8               	addwfc	(main@j_1167+1)^(0+256),f
  3087  03E0                     l2726:
  3088  03E0  0848               	movf	(main@j_1167+1)^(0+256),w
  3089  03E1  3A80               	xorlw	128
  3090  03E2  0141               	movlb	1	; select bank1
  3091  03E3  00E8               	movwf	??_main^(0+128)
  3092  03E4  3080               	movlw	128
  3093  03E5  0268               	subwf	??_main^(0+128),w
  3094  03E6  1D03               	skipz
  3095  03E7  2BEB               	goto	u1665
  3096  03E8  3007               	movlw	7
  3097  03E9  0142               	movlb	2	; select bank2
  3098  03EA  0247               	subwf	main@j_1167^(0+256),w
  3099  03EB                     u1665:
  3100  03EB  1C03               	skipc
  3101  03EC  2BEE               	goto	u1661
  3102  03ED  2BEF               	goto	u1660
  3103  03EE                     u1661:
  3104  03EE  2BCA               	goto	l2722
  3105  03EF                     u1660:
  3106  03EF                     l2728:
  3107                           
  3108                           ;main.c: 320:     }
  3109  03EF  3001               	movlw	1
  3110  03F0  0142               	movlb	2	; select bank2
  3111  03F1  07C3               	addwf	main@i^(0+256),f
  3112  03F2  3000               	movlw	0
  3113  03F3  3DC4               	addwfc	(main@i+1)^(0+256),f
  3114  03F4  0844               	movf	(main@i+1)^(0+256),w
  3115  03F5  3A80               	xorlw	128
  3116  03F6  0141               	movlb	1	; select bank1
  3117  03F7  00E8               	movwf	??_main^(0+128)
  3118  03F8  3080               	movlw	128
  3119  03F9  0268               	subwf	??_main^(0+128),w
  3120  03FA  1D03               	skipz
  3121  03FB  2BFF               	goto	u1675
  3122  03FC  300F               	movlw	15
  3123  03FD  0142               	movlb	2	; select bank2
  3124  03FE  0243               	subwf	main@i^(0+256),w
  3125  03FF                     u1675:
  3126  03FF  1C03               	skipc
  3127  0400  2C02               	goto	u1671
  3128  0401  2C03               	goto	u1670
  3129  0402                     u1671:
  3130  0402  2B5A               	goto	l2690
  3131  0403                     u1670:
  3132  0403                     l531:	
  3133                           ;main.c: 328:     while (1)
  3134                           
  3135                           
  3136                           ;main.c: 329:     {;main.c: 330:         T0CON0bits.T0EN = 1;
  3137  0403  014B               	movlb	11	; select bank11
  3138  0404  179E               	bsf	30,7	;volatile
  3139  0405                     l2730:
  3140                           
  3141                           ;main.c: 331:         shiftBytes(0x02, 0x01);
  3142  0405  01F3               	clrf	shiftBytes@lowSide
  3143  0406  0AF3               	incf	shiftBytes@lowSide,f
  3144  0407  3002               	movlw	2
  3145  0408  318F  27C6  3183   	fcall	_shiftBytes
  3146  040B                     l2732:
  3147  040B  0140               	movlb	0	; select bank0
  3148  040C  111A               	bcf	26,2	;volatile
  3149  040D                     l2734:
  3150  040D  101A               	bcf	26,0	;volatile
  3151  040E                     l2736:
  3152                           
  3153                           ;main.c: 334:         if (presses && TMR0_complete)
  3154  040E  0849               	movf	_presses,w
  3155  040F  1903               	btfsc	3,2
  3156  0410  2C12               	goto	u1681
  3157  0411  2C13               	goto	u1680
  3158  0412                     u1681:
  3159  0412  2D2E               	goto	l2778
  3160  0413                     u1680:
  3161  0413                     l2738:
  3162  0413  084B               	movf	_TMR0_complete,w
  3163  0414  1903               	btfsc	3,2
  3164  0415  2C17               	goto	u1691
  3165  0416  2C18               	goto	u1690
  3166  0417                     u1691:
  3167  0417  2D2E               	goto	l2778
  3168  0418                     u1690:
  3169  0418                     l2740:
  3170                           
  3171                           ;main.c: 335:         {;main.c: 336:             T0CON0bits.T0EN = 0;
  3172  0418  014B               	movlb	11	; select bank11
  3173  0419  139E               	bcf	30,7	;volatile
  3174                           
  3175                           ;main.c: 339:             switch (presses)
  3176  041A  2CA0               	goto	l2758
  3177  041B                     l2742:
  3178                           
  3179                           ;main.c: 342:                     light_array[0] = 0x88;
  3180  041B  3088               	movlw	136
  3181  041C  00E8               	movwf	??_main^(0+128)
  3182  041D  0868               	movf	??_main^(0+128),w
  3183  041E  0140               	movlb	0	; select bank0
  3184  041F  00BF               	movwf	_light_array
  3185                           
  3186                           ;main.c: 343:                     light_array[1] = 0x44;
  3187  0420  3044               	movlw	68
  3188  0421  0141               	movlb	1	; select bank1
  3189  0422  00E8               	movwf	??_main^(0+128)
  3190  0423  0868               	movf	??_main^(0+128),w
  3191  0424  0140               	movlb	0	; select bank0
  3192  0425  00C0               	movwf	_light_array+1
  3193                           
  3194                           ;main.c: 344:                     light_array[2] = 0x22;
  3195  0426  3022               	movlw	34
  3196  0427  0141               	movlb	1	; select bank1
  3197  0428  00E8               	movwf	??_main^(0+128)
  3198  0429  0868               	movf	??_main^(0+128),w
  3199  042A  0140               	movlb	0	; select bank0
  3200  042B  00C1               	movwf	_light_array+2
  3201                           
  3202                           ;main.c: 345:                     light_array[3] = 0x11;
  3203  042C  3011               	movlw	17
  3204  042D  0141               	movlb	1	; select bank1
  3205  042E  00E8               	movwf	??_main^(0+128)
  3206  042F  0868               	movf	??_main^(0+128),w
  3207  0430  0140               	movlb	0	; select bank0
  3208  0431  00C2               	movwf	_light_array+3
  3209                           
  3210                           ;main.c: 346:                     light_array[4] = 0x88;
  3211  0432  3088               	movlw	136
  3212  0433  0141               	movlb	1	; select bank1
  3213  0434  00E8               	movwf	??_main^(0+128)
  3214  0435  0868               	movf	??_main^(0+128),w
  3215  0436  0140               	movlb	0	; select bank0
  3216  0437  00C3               	movwf	_light_array+4
  3217                           
  3218                           ;main.c: 347:                     light_array[5] = 0x44;
  3219  0438  3044               	movlw	68
  3220  0439  0141               	movlb	1	; select bank1
  3221  043A  00E8               	movwf	??_main^(0+128)
  3222  043B  0868               	movf	??_main^(0+128),w
  3223  043C  0140               	movlb	0	; select bank0
  3224  043D  00C4               	movwf	_light_array+5
  3225                           
  3226                           ;main.c: 348:                     light_array[6] = 0x22;
  3227  043E  3022               	movlw	34
  3228  043F  0141               	movlb	1	; select bank1
  3229  0440  00E8               	movwf	??_main^(0+128)
  3230  0441  0868               	movf	??_main^(0+128),w
  3231  0442  0140               	movlb	0	; select bank0
  3232  0443  00C5               	movwf	_light_array+6
  3233  0444                     l2744:
  3234                           
  3235                           ;main.c: 349:                     silent_night_playing = 1;
  3236  0444  01CE               	clrf	_silent_night_playing
  3237  0445  0ACE               	incf	_silent_night_playing,f
  3238                           
  3239                           ;main.c: 350:                     break;
  3240  0446  2CB5               	goto	l539
  3241  0447                     l2746:
  3242                           
  3243                           ;main.c: 352:                     light_array[0] = 0xFE;
  3244  0447  30FE               	movlw	254
  3245  0448  00E8               	movwf	??_main^(0+128)
  3246  0449  0868               	movf	??_main^(0+128),w
  3247  044A  0140               	movlb	0	; select bank0
  3248  044B  00BF               	movwf	_light_array
  3249                           
  3250                           ;main.c: 353:                     light_array[1] = 0xFE;
  3251  044C  30FE               	movlw	254
  3252  044D  0141               	movlb	1	; select bank1
  3253  044E  00E8               	movwf	??_main^(0+128)
  3254  044F  0868               	movf	??_main^(0+128),w
  3255  0450  0140               	movlb	0	; select bank0
  3256  0451  00C0               	movwf	_light_array+1
  3257                           
  3258                           ;main.c: 354:                     light_array[2] = 0xFE;
  3259  0452  30FE               	movlw	254
  3260  0453  0141               	movlb	1	; select bank1
  3261  0454  00E8               	movwf	??_main^(0+128)
  3262  0455  0868               	movf	??_main^(0+128),w
  3263  0456  0140               	movlb	0	; select bank0
  3264  0457  00C1               	movwf	_light_array+2
  3265                           
  3266                           ;main.c: 355:                     light_array[3] = 0xFE;
  3267  0458  30FE               	movlw	254
  3268  0459  0141               	movlb	1	; select bank1
  3269  045A  00E8               	movwf	??_main^(0+128)
  3270  045B  0868               	movf	??_main^(0+128),w
  3271  045C  0140               	movlb	0	; select bank0
  3272  045D  00C2               	movwf	_light_array+3
  3273                           
  3274                           ;main.c: 356:                     light_array[4] = 0xFE;
  3275  045E  30FE               	movlw	254
  3276  045F  0141               	movlb	1	; select bank1
  3277  0460  00E8               	movwf	??_main^(0+128)
  3278  0461  0868               	movf	??_main^(0+128),w
  3279  0462  0140               	movlb	0	; select bank0
  3280  0463  00C3               	movwf	_light_array+4
  3281                           
  3282                           ;main.c: 357:                     light_array[5] = 0xFE;
  3283  0464  30FE               	movlw	254
  3284  0465  0141               	movlb	1	; select bank1
  3285  0466  00E8               	movwf	??_main^(0+128)
  3286  0467  0868               	movf	??_main^(0+128),w
  3287  0468  0140               	movlb	0	; select bank0
  3288  0469  00C4               	movwf	_light_array+5
  3289                           
  3290                           ;main.c: 358:                     light_array[6] = 0xFE;
  3291  046A  30FE               	movlw	254
  3292  046B  0141               	movlb	1	; select bank1
  3293  046C  00E8               	movwf	??_main^(0+128)
  3294  046D  0868               	movf	??_main^(0+128),w
  3295  046E  0140               	movlb	0	; select bank0
  3296  046F  00C5               	movwf	_light_array+6
  3297  0470                     l2748:
  3298                           
  3299                           ;main.c: 359:                     song2_playing = 1;
  3300  0470  01CC               	clrf	_song2_playing
  3301  0471  0ACC               	incf	_song2_playing,f
  3302                           
  3303                           ;main.c: 360:                     break;
  3304  0472  2CB5               	goto	l539
  3305  0473                     l2750:
  3306                           
  3307                           ;main.c: 372:                     light_array[0] = 0xFF;
  3308  0473  30FF               	movlw	255
  3309  0474  00E8               	movwf	??_main^(0+128)
  3310  0475  0868               	movf	??_main^(0+128),w
  3311  0476  0140               	movlb	0	; select bank0
  3312  0477  00BF               	movwf	_light_array
  3313                           
  3314                           ;main.c: 373:                     light_array[1] = 0xFF;
  3315  0478  30FF               	movlw	255
  3316  0479  0141               	movlb	1	; select bank1
  3317  047A  00E8               	movwf	??_main^(0+128)
  3318  047B  0868               	movf	??_main^(0+128),w
  3319  047C  0140               	movlb	0	; select bank0
  3320  047D  00C0               	movwf	_light_array+1
  3321                           
  3322                           ;main.c: 374:                     light_array[2] = 0xFF;
  3323  047E  30FF               	movlw	255
  3324  047F  0141               	movlb	1	; select bank1
  3325  0480  00E8               	movwf	??_main^(0+128)
  3326  0481  0868               	movf	??_main^(0+128),w
  3327  0482  0140               	movlb	0	; select bank0
  3328  0483  00C1               	movwf	_light_array+2
  3329                           
  3330                           ;main.c: 375:                     light_array[3] = 0xFF;
  3331  0484  30FF               	movlw	255
  3332  0485  0141               	movlb	1	; select bank1
  3333  0486  00E8               	movwf	??_main^(0+128)
  3334  0487  0868               	movf	??_main^(0+128),w
  3335  0488  0140               	movlb	0	; select bank0
  3336  0489  00C2               	movwf	_light_array+3
  3337                           
  3338                           ;main.c: 376:                     light_array[4] = 0xFF;
  3339  048A  30FF               	movlw	255
  3340  048B  0141               	movlb	1	; select bank1
  3341  048C  00E8               	movwf	??_main^(0+128)
  3342  048D  0868               	movf	??_main^(0+128),w
  3343  048E  0140               	movlb	0	; select bank0
  3344  048F  00C3               	movwf	_light_array+4
  3345                           
  3346                           ;main.c: 377:                     light_array[5] = 0xFF;
  3347  0490  30FF               	movlw	255
  3348  0491  0141               	movlb	1	; select bank1
  3349  0492  00E8               	movwf	??_main^(0+128)
  3350  0493  0868               	movf	??_main^(0+128),w
  3351  0494  0140               	movlb	0	; select bank0
  3352  0495  00C4               	movwf	_light_array+5
  3353                           
  3354                           ;main.c: 378:                     light_array[6] = 0xFF;
  3355  0496  30FF               	movlw	255
  3356  0497  0141               	movlb	1	; select bank1
  3357  0498  00E8               	movwf	??_main^(0+128)
  3358  0499  0868               	movf	??_main^(0+128),w
  3359  049A  0140               	movlb	0	; select bank0
  3360  049B  00C5               	movwf	_light_array+6
  3361  049C                     l2752:
  3362                           
  3363                           ;main.c: 379:                     cole_counter = 0;
  3364  049C  01C8               	clrf	_cole_counter
  3365  049D                     l2754:
  3366                           
  3367                           ;main.c: 382:                     song3_playing = 1;
  3368  049D  01CD               	clrf	_song3_playing
  3369  049E  0ACD               	incf	_song3_playing,f
  3370                           
  3371                           ;main.c: 383:                     break;
  3372  049F  2CB5               	goto	l539
  3373  04A0                     l2758:
  3374  04A0  0140               	movlb	0	; select bank0
  3375  04A1  0849               	movf	_presses,w
  3376  04A2  0141               	movlb	1	; select bank1
  3377  04A3  00E8               	movwf	??_main^(0+128)
  3378  04A4  01E9               	clrf	(??_main^(0+128)+1)
  3379                           
  3380                           ; Switch on 2 bytes has been partitioned into a top level switch of size 1, and 1 sub-sw
      +                          itches
  3381                           ; Switch size 1, requested type "simple"
  3382                           ; Number of cases is 1, Range of values is 0 to 0
  3383                           ; switch strategies available:
  3384                           ; Name         Instructions Cycles
  3385                           ; simple_byte            4     3 (average)
  3386                           ; direct_byte            8     6 (fixed)
  3387                           ; jumptable            260     6 (fixed)
  3388                           ;	Chosen strategy is simple_byte
  3389  04A5  0869               	movf	(??_main+1)^(0+128),w
  3390  04A6  3A00               	xorlw	0	; case 0
  3391  04A7  1903               	skipnz
  3392  04A8  2CAA               	goto	l2812
  3393  04A9  2CB5               	goto	l539
  3394  04AA                     l2812:
  3395                           
  3396                           ; Switch size 1, requested type "simple"
  3397                           ; Number of cases is 3, Range of values is 1 to 3
  3398                           ; switch strategies available:
  3399                           ; Name         Instructions Cycles
  3400                           ; simple_byte           10     6 (average)
  3401                           ; direct_byte           15     9 (fixed)
  3402                           ; jumptable            263     9 (fixed)
  3403                           ;	Chosen strategy is simple_byte
  3404  04AA  0868               	movf	??_main^(0+128),w
  3405  04AB  3A01               	xorlw	1	; case 1
  3406  04AC  1903               	skipnz
  3407  04AD  2C1B               	goto	l2742
  3408  04AE  3A03               	xorlw	3	; case 2
  3409  04AF  1903               	skipnz
  3410  04B0  2C47               	goto	l2746
  3411  04B1  3A01               	xorlw	1	; case 3
  3412  04B2  1903               	skipnz
  3413  04B3  2C73               	goto	l2750
  3414  04B4  2CB5               	goto	l539
  3415  04B5                     l539:
  3416                           
  3417                           ;main.c: 385:             T1CONbits.TMR1ON = 1;
  3418  04B5  0144               	movlb	4	; select bank4
  3419  04B6  140E               	bsf	14,0	;volatile
  3420                           
  3421                           ;main.c: 386:             T2CONbits.TMR2ON = 1;
  3422  04B7  0145               	movlb	5	; select bank5
  3423  04B8  178E               	bsf	14,7	;volatile
  3424                           
  3425                           ;main.c: 389:             while (presses == 1)
  3426  04B9  2CE3               	goto	l2762
  3427  04BA                     l2760:
  3428                           
  3429                           ;main.c: 390:             {;main.c: 391:                 playNote(silent_night[count], s
      +                          ilent_night_pre[count]);
  3430  04BA  30DC               	movlw	220
  3431  04BB  0141               	movlb	1	; select bank1
  3432  04BC  00E8               	movwf	??_main^(0+128)
  3433  04BD  3022               	movlw	34
  3434  04BE  00E9               	movwf	(??_main^(0+128)+1)
  3435  04BF  0140               	movlb	0	; select bank0
  3436  04C0  0846               	movf	_count,w
  3437  04C1  0141               	movlb	1	; select bank1
  3438  04C2  0768               	addwf	??_main^(0+128),w
  3439  04C3  0086               	movwf	6
  3440  04C4  0140               	movlb	0	; select bank0
  3441  04C5  0847               	movf	_count+1,w
  3442  04C6  0141               	movlb	1	; select bank1
  3443  04C7  3D69               	addwfc	(??_main+1)^(0+128),w
  3444  04C8  0087               	movwf	7
  3445  04C9  0801               	movf	1,w
  3446  04CA  00EA               	movwf	(??_main+2)^(0+128)
  3447  04CB  086A               	movf	(??_main+2)^(0+128),w
  3448  04CC  00F2               	movwf	playNote@prescale
  3449  04CD  3066               	movlw	102
  3450  04CE  00EB               	movwf	(??_main+3)^(0+128)
  3451  04CF  3023               	movlw	35
  3452  04D0  00EC               	movwf	((??_main+3)^(0+128)+1)
  3453  04D1  0140               	movlb	0	; select bank0
  3454  04D2  0846               	movf	_count,w
  3455  04D3  0141               	movlb	1	; select bank1
  3456  04D4  076B               	addwf	(??_main+3)^(0+128),w
  3457  04D5  0086               	movwf	6
  3458  04D6  0140               	movlb	0	; select bank0
  3459  04D7  0847               	movf	_count+1,w
  3460  04D8  0141               	movlb	1	; select bank1
  3461  04D9  3D6C               	addwfc	(??_main+4)^(0+128),w
  3462  04DA  0087               	movwf	7
  3463  04DB  0801               	movf	1,w
  3464  04DC  3187  2745  3183   	fcall	_playNote
  3465                           
  3466                           ;main.c: 392:                 displayMatrix(light_array);
  3467  04DF  303F               	movlw	(low (_light_array| 0))& (0+255)
  3468  04E0  3186  26A1  3183   	fcall	_displayMatrix
  3469  04E3                     l2762:
  3470                           
  3471                           ;main.c: 389:             while (presses == 1)
  3472  04E3  0140               	movlb	0	; select bank0
  3473  04E4  0349               	decf	_presses,w
  3474  04E5  1903               	btfsc	3,2
  3475  04E6  2CE8               	goto	u1701
  3476  04E7  2CE9               	goto	u1700
  3477  04E8                     u1701:
  3478  04E8  2CBA               	goto	l2760
  3479  04E9                     u1700:
  3480  04E9  2D00               	goto	l2766
  3481  04EA                     l2764:
  3482                           
  3483                           ;main.c: 396:             {;main.c: 397:                 playNote(song2[count], song2_pr
      +                          e[count]);
  3484  04EA  0846               	movf	_count,w
  3485  04EB  3EC0               	addlw	(low (_song2_pre| 0))& (0+255)
  3486  04EC  0086               	movwf	6
  3487  04ED  0187               	clrf	7
  3488  04EE  0801               	movf	1,w
  3489  04EF  0141               	movlb	1	; select bank1
  3490  04F0  00E8               	movwf	??_main^(0+128)
  3491  04F1  0868               	movf	??_main^(0+128),w
  3492  04F2  00F2               	movwf	playNote@prescale
  3493  04F3  0140               	movlb	0	; select bank0
  3494  04F4  0846               	movf	_count,w
  3495  04F5  3ED2               	addlw	(low (_song2| 0))& (0+255)
  3496  04F6  0086               	movwf	6
  3497  04F7  0187               	clrf	7
  3498  04F8  0801               	movf	1,w
  3499  04F9  3187  2745  3183   	fcall	_playNote
  3500                           
  3501                           ;main.c: 398:                 displayMatrix(light_array);
  3502  04FC  303F               	movlw	(low (_light_array| 0))& (0+255)
  3503  04FD  3186  26A1  3183   	fcall	_displayMatrix
  3504  0500                     l2766:
  3505                           
  3506                           ;main.c: 395:             while (presses == 2)
  3507  0500  3002               	movlw	2
  3508  0501  0140               	movlb	0	; select bank0
  3509  0502  0649               	xorwf	_presses,w
  3510  0503  1903               	btfsc	3,2
  3511  0504  2D06               	goto	u1711
  3512  0505  2D07               	goto	u1710
  3513  0506                     u1711:
  3514  0506  2CEA               	goto	l2764
  3515  0507                     u1710:
  3516  0507  2D1F               	goto	l2770
  3517  0508                     l2768:
  3518                           
  3519                           ;main.c: 402:             {;main.c: 403:                 playNote(song3[count], song3_pr
      +                          e[count]);
  3520  0508  0846               	movf	_count,w
  3521  0509  3E20               	addlw	(low (_song3_pre| (0+256)))& (0+255)
  3522  050A  0086               	movwf	6
  3523  050B  3001               	movlw	1	; select bank2/3
  3524  050C  0087               	movwf	7
  3525  050D  0801               	movf	1,w
  3526  050E  0141               	movlb	1	; select bank1
  3527  050F  00E8               	movwf	??_main^(0+128)
  3528  0510  0868               	movf	??_main^(0+128),w
  3529  0511  00F2               	movwf	playNote@prescale
  3530  0512  0140               	movlb	0	; select bank0
  3531  0513  0846               	movf	_count,w
  3532  0514  3EA0               	addlw	(low (_song3| 0))& (0+255)
  3533  0515  0086               	movwf	6
  3534  0516  0187               	clrf	7
  3535  0517  0801               	movf	1,w
  3536  0518  3187  2745  3183   	fcall	_playNote
  3537                           
  3538                           ;main.c: 404:                 displayMatrix(light_array);
  3539  051B  303F               	movlw	(low (_light_array| 0))& (0+255)
  3540  051C  3186  26A1  3183   	fcall	_displayMatrix
  3541  051F                     l2770:
  3542                           
  3543                           ;main.c: 401:             while (presses == 3)
  3544  051F  3003               	movlw	3
  3545  0520  0140               	movlb	0	; select bank0
  3546  0521  0649               	xorwf	_presses,w
  3547  0522  1903               	btfsc	3,2
  3548  0523  2D25               	goto	u1721
  3549  0524  2D26               	goto	u1720
  3550  0525                     u1721:
  3551  0525  2D08               	goto	l2768
  3552  0526                     u1720:
  3553  0526                     l2772:
  3554                           
  3555                           ;main.c: 406:             presses = 0;
  3556  0526  01C9               	clrf	_presses
  3557                           
  3558                           ;main.c: 407:             silent_night_playing = 0;
  3559  0527  01CE               	clrf	_silent_night_playing
  3560                           
  3561                           ;main.c: 408:             song2_playing = 0;
  3562  0528  01CC               	clrf	_song2_playing
  3563                           
  3564                           ;main.c: 409:             song3_playing = 0;
  3565  0529  01CD               	clrf	_song3_playing
  3566  052A                     l2774:
  3567                           
  3568                           ;main.c: 410:             T1CONbits.TMR1ON = 0;
  3569  052A  0144               	movlb	4	; select bank4
  3570  052B  100E               	bcf	14,0	;volatile
  3571  052C                     l2776:
  3572                           
  3573                           ;main.c: 411:             T2CONbits.TMR2ON = 0;
  3574  052C  0145               	movlb	5	; select bank5
  3575  052D  138E               	bcf	14,7	;volatile
  3576  052E                     l2778:
  3577                           
  3578                           ;main.c: 414:         if (TMR0_complete && (!presses))
  3579  052E  0140               	movlb	0	; select bank0
  3580  052F  084B               	movf	_TMR0_complete,w
  3581  0530  1903               	btfsc	3,2
  3582  0531  2D33               	goto	u1731
  3583  0532  2D34               	goto	u1730
  3584  0533                     u1731:
  3585  0533  2C03               	goto	l531
  3586  0534                     u1730:
  3587  0534                     l2780:
  3588  0534  0849               	movf	_presses,w
  3589  0535  1D03               	btfss	3,2
  3590  0536  2D38               	goto	u1741
  3591  0537  2D39               	goto	u1740
  3592  0538                     u1741:
  3593  0538  2C03               	goto	l531
  3594  0539                     u1740:
  3595  0539                     l2782:
  3596                           
  3597                           ;main.c: 415:         {;main.c: 416:             T0CON0bits.T0EN = 0;
  3598  0539  014B               	movlb	11	; select bank11
  3599  053A  139E               	bcf	30,7	;volatile
  3600                           
  3601                           ;main.c: 417:             T1CONbits.TMR1ON = 0;
  3602  053B  0144               	movlb	4	; select bank4
  3603  053C  100E               	bcf	14,0	;volatile
  3604                           
  3605                           ;main.c: 418:             T2CONbits.TMR2ON = 0;
  3606  053D  0145               	movlb	5	; select bank5
  3607  053E  138E               	bcf	14,7	;volatile
  3608                           
  3609                           ;main.c: 419:             PIR0bits.INTF = 0;
  3610  053F  014E               	movlb	14	; select bank14
  3611  0540  100C               	bcf	12,0	;volatile
  3612                           
  3613                           ;main.c: 420:             PIE0bits.INTE = 1;
  3614  0541  1416               	bsf	22,0	;volatile
  3615  0542                     l552:	
  3616                           ;main.c: 421:             do { LATCbits.LATC2 = 1; } while(0);
  3617                           
  3618  0542  0140               	movlb	0	; select bank0
  3619  0543  151A               	bsf	26,2	;volatile
  3620  0544                     l554:	
  3621                           ;main.c: 422:             do { LATCbits.LATC0 = 1; } while(0);
  3622                           
  3623  0544  141A               	bsf	26,0	;volatile
  3624  0545                     l555:
  3625  0545  0063               	sleep	;# 
  3626  0546  2C03               	goto	l531
  3627  0547  3180  2831         	ljmp	start
  3628  0549                     __end_of_main:
  3629                           
  3630                           	psect	text1
  3631  0745                     __ptext1:	
  3632 ;; *************** function _playNote *****************
  3633 ;; Defined at:
  3634 ;;		line 682 in file "main.c"
  3635 ;; Parameters:    Size  Location     Type
  3636 ;;  note            1    wreg     unsigned char 
  3637 ;;  prescale        1    2[COMMON] unsigned char 
  3638 ;; Auto vars:     Size  Location     Type
  3639 ;;  note            1    4[COMMON] unsigned char 
  3640 ;; Return value:  Size  Location     Type
  3641 ;;                  1    wreg      void 
  3642 ;; Registers used:
  3643 ;;		wreg
  3644 ;; Tracked objects:
  3645 ;;		On entry : 0/0
  3646 ;;		On exit  : 0/0
  3647 ;;		Unchanged: 0/0
  3648 ;; Data sizes:     COMMON   BANK0   BANK1   BANK2   BANK3   BANK4   BANK5   BANK6   BANK7   BANK8   BANK9  BANK10  BANK1
      +1  BANK12
  3649 ;;      Params:         1       0       0       0       0       0       0       0       0       0       0       0       
      +0       0
  3650 ;;      Locals:         1       0       0       0       0       0       0       0       0       0       0       0       
      +0       0
  3651 ;;      Temps:          1       0       0       0       0       0       0       0       0       0       0       0       
      +0       0
  3652 ;;      Totals:         3       0       0       0       0       0       0       0       0       0       0       0       
      +0       0
  3653 ;;Total ram usage:        3 bytes
  3654 ;; Hardware stack levels used: 1
  3655 ;; Hardware stack levels required when called: 5
  3656 ;; This function calls:
  3657 ;;		Nothing
  3658 ;; This function is called by:
  3659 ;;		_main
  3660 ;; This function uses a non-reentrant model
  3661 ;;
  3662                           
  3663                           
  3664                           ;psect for function _playNote
  3665  0745                     _playNote:
  3666                           
  3667                           ;incstack = 0
  3668                           ; Regs used in _playNote: [wreg]
  3669                           ;playNote@note stored from wreg
  3670  0745  00F4               	movwf	playNote@note
  3671  0746                     l2632:
  3672                           
  3673                           ;main.c: 682: void playNote(uint8_t note, uint8_t prescale);main.c: 683: {;main.c: 685: 
      +                              if (note != last_note)
  3674  0746  0874               	movf	playNote@note,w
  3675  0747  0140               	movlb	0	; select bank0
  3676  0748  064A               	xorwf	_last_note,w
  3677  0749  1903               	skipnz
  3678  074A  2F4C               	goto	u1571
  3679  074B  2F4D               	goto	u1570
  3680  074C                     u1571:
  3681  074C  2F50               	goto	l625
  3682  074D                     u1570:
  3683  074D                     l2634:
  3684                           
  3685                           ;main.c: 686:     {;main.c: 687:         T2PR = note;
  3686  074D  0874               	movf	playNote@note,w
  3687  074E  0145               	movlb	5	; select bank5
  3688  074F  008D               	movwf	13	;volatile
  3689  0750                     l625:	
  3690                           ;main.c: 688:     }
  3691                           
  3692                           
  3693                           ;main.c: 690:     if (prescale != last_prescale)
  3694  0750  0872               	movf	playNote@prescale,w
  3695  0751  0679               	xorwf	_last_prescale,w
  3696  0752  1903               	skipnz
  3697  0753  2F55               	goto	u1581
  3698  0754  2F56               	goto	u1580
  3699  0755                     u1581:
  3700  0755  2F59               	goto	l626
  3701  0756                     u1580:
  3702  0756                     l2636:
  3703                           
  3704                           ;main.c: 691:     {;main.c: 692:         T2CON = prescale;
  3705  0756  0872               	movf	playNote@prescale,w
  3706  0757  0145               	movlb	5	; select bank5
  3707  0758  008E               	movwf	14	;volatile
  3708  0759                     l626:	
  3709                           ;main.c: 693:     }
  3710                           
  3711                           
  3712                           ;main.c: 694:     last_note = note;
  3713  0759  0874               	movf	playNote@note,w
  3714  075A  00F3               	movwf	??_playNote
  3715  075B  0873               	movf	??_playNote,w
  3716  075C  0140               	movlb	0	; select bank0
  3717  075D  00CA               	movwf	_last_note
  3718                           
  3719                           ;main.c: 695:     last_prescale = prescale;
  3720  075E  0872               	movf	playNote@prescale,w
  3721  075F  00F3               	movwf	??_playNote
  3722  0760  0873               	movf	??_playNote,w
  3723  0761  00F9               	movwf	_last_prescale
  3724  0762                     l627:
  3725  0762  0008               	return
  3726  0763                     __end_of_playNote:
  3727                           
  3728                           	psect	text2
  3729  06A1                     __ptext2:	
  3730 ;; *************** function _displayMatrix *****************
  3731 ;; Defined at:
  3732 ;;		line 720 in file "main.c"
  3733 ;; Parameters:    Size  Location     Type
  3734 ;;  states          1    wreg     PTR unsigned char 
  3735 ;;		 -> light_array(7), 
  3736 ;; Auto vars:     Size  Location     Type
  3737 ;;  states          1    0[BANK1 ] PTR unsigned char 
  3738 ;;		 -> light_array(7), 
  3739 ;;  i               2    1[BANK1 ] int 
  3740 ;;  lowSide         1    3[BANK1 ] unsigned char 
  3741 ;; Return value:  Size  Location     Type
  3742 ;;                  1    wreg      void 
  3743 ;; Registers used:
  3744 ;;		wreg, fsr1l, fsr1h, status,2, status,0, pclath, cstack
  3745 ;; Tracked objects:
  3746 ;;		On entry : 0/0
  3747 ;;		On exit  : 0/0
  3748 ;;		Unchanged: 0/0
  3749 ;; Data sizes:     COMMON   BANK0   BANK1   BANK2   BANK3   BANK4   BANK5   BANK6   BANK7   BANK8   BANK9  BANK10  BANK1
      +1  BANK12
  3750 ;;      Params:         0       0       0       0       0       0       0       0       0       0       0       0       
      +0       0
  3751 ;;      Locals:         0       0       4       0       0       0       0       0       0       0       0       0       
      +0       0
  3752 ;;      Temps:          2       0       0       0       0       0       0       0       0       0       0       0       
      +0       0
  3753 ;;      Totals:         2       0       4       0       0       0       0       0       0       0       0       0       
      +0       0
  3754 ;;Total ram usage:        6 bytes
  3755 ;; Hardware stack levels used: 1
  3756 ;; Hardware stack levels required when called: 7
  3757 ;; This function calls:
  3758 ;;		_shiftBytes
  3759 ;; This function is called by:
  3760 ;;		_main
  3761 ;; This function uses a non-reentrant model
  3762 ;;
  3763                           
  3764                           
  3765                           ;psect for function _displayMatrix
  3766  06A1                     _displayMatrix:
  3767                           
  3768                           ;incstack = 0
  3769                           ; Regs used in _displayMatrix: [wreg+fsr1l+fsr1h+status,2+status,0+pclath+cstack]
  3770                           ;displayMatrix@states stored from wreg
  3771  06A1  0141               	movlb	1	; select bank1
  3772  06A2  00E4               	movwf	displayMatrix@states^(0+128)
  3773  06A3                     l2612:
  3774                           
  3775                           ;main.c: 720: void displayMatrix(uint8_t states[8]);main.c: 721: {;main.c: 724:     uint
      +                          8_t lowSide = 0x00;
  3776  06A3  01E7               	clrf	displayMatrix@lowSide^(0+128)
  3777                           
  3778                           ;main.c: 725:     for (int i = 0; i < 7; i++)
  3779  06A4  01E5               	clrf	displayMatrix@i^(0+128)
  3780  06A5  01E6               	clrf	(displayMatrix@i+1)^(0+128)
  3781  06A6                     l2618:
  3782                           
  3783                           ;main.c: 726:     {;main.c: 727:         if (!lowSide)
  3784  06A6  0141               	movlb	1	; select bank1
  3785  06A7  0867               	movf	displayMatrix@lowSide^(0+128),w
  3786  06A8  1D03               	btfss	3,2
  3787  06A9  2EAB               	goto	u1551
  3788  06AA  2EAC               	goto	u1550
  3789  06AB                     u1551:
  3790  06AB  2EB1               	goto	l2622
  3791  06AC                     u1550:
  3792  06AC                     l2620:
  3793                           
  3794                           ;main.c: 728:         {;main.c: 729:             lowSide++;
  3795  06AC  3001               	movlw	1
  3796  06AD  00F5               	movwf	??_displayMatrix
  3797  06AE  0875               	movf	??_displayMatrix,w
  3798  06AF  07E7               	addwf	displayMatrix@lowSide^(0+128),f
  3799                           
  3800                           ;main.c: 730:         }
  3801  06B0  2EB5               	goto	l2624
  3802  06B1                     l2622:
  3803                           
  3804                           ;main.c: 732:         {;main.c: 733:             lowSide = lowSide << 1;
  3805  06B1  3567               	lslf	displayMatrix@lowSide^(0+128),w
  3806  06B2  00F5               	movwf	??_displayMatrix
  3807  06B3  0875               	movf	??_displayMatrix,w
  3808  06B4  00E7               	movwf	displayMatrix@lowSide^(0+128)
  3809  06B5                     l2624:
  3810                           
  3811                           ;main.c: 736:         shiftBytes(states[i], lowSide);
  3812  06B5  0867               	movf	displayMatrix@lowSide^(0+128),w
  3813  06B6  00F5               	movwf	??_displayMatrix
  3814  06B7  0875               	movf	??_displayMatrix,w
  3815  06B8  00F3               	movwf	shiftBytes@lowSide
  3816  06B9  0865               	movf	displayMatrix@i^(0+128),w
  3817  06BA  0764               	addwf	displayMatrix@states^(0+128),w
  3818  06BB  00F6               	movwf	??_displayMatrix+1
  3819  06BC  0876               	movf	??_displayMatrix+1,w
  3820  06BD  0086               	movwf	6
  3821  06BE  0187               	clrf	7
  3822  06BF  0801               	movf	1,w
  3823  06C0  318F  27C6  3186   	fcall	_shiftBytes
  3824  06C3                     l2626:
  3825                           
  3826                           ;main.c: 737:         _delay((unsigned long)((1)*(8000000/4000.0)));
  3827  06C3  3003               	movlw	3
  3828  06C4  00F5               	movwf	??_displayMatrix
  3829  06C5  3098               	movlw	152
  3830  06C6                     u1757:
  3831  06C6  0B89               	decfsz	9,f
  3832  06C7  2EC6               	goto	u1757
  3833  06C8  0BF5               	decfsz	??_displayMatrix,f
  3834  06C9  2EC6               	goto	u1757
  3835  06CA                     l2628:
  3836                           
  3837                           ;main.c: 738:     }
  3838  06CA  3001               	movlw	1
  3839  06CB  0141               	movlb	1	; select bank1
  3840  06CC  07E5               	addwf	displayMatrix@i^(0+128),f
  3841  06CD  3000               	movlw	0
  3842  06CE  3DE6               	addwfc	(displayMatrix@i+1)^(0+128),f
  3843  06CF                     l2630:
  3844  06CF  0866               	movf	(displayMatrix@i+1)^(0+128),w
  3845  06D0  3A80               	xorlw	128
  3846  06D1  00F5               	movwf	??_displayMatrix
  3847  06D2  3080               	movlw	128
  3848  06D3  0275               	subwf	??_displayMatrix,w
  3849  06D4  1D03               	skipz
  3850  06D5  2ED8               	goto	u1565
  3851  06D6  3007               	movlw	7
  3852  06D7  0265               	subwf	displayMatrix@i^(0+128),w
  3853  06D8                     u1565:
  3854  06D8  1C03               	skipc
  3855  06D9  2EDB               	goto	u1561
  3856  06DA  2EDC               	goto	u1560
  3857  06DB                     u1561:
  3858  06DB  2EA6               	goto	l2618
  3859  06DC                     u1560:
  3860  06DC                     l648:
  3861  06DC  0008               	return
  3862  06DD                     __end_of_displayMatrix:
  3863                           
  3864                           	psect	text3
  3865  0FC6                     __ptext3:	
  3866 ;; *************** function _shiftBytes *****************
  3867 ;; Defined at:
  3868 ;;		line 708 in file "main.c"
  3869 ;; Parameters:    Size  Location     Type
  3870 ;;  highSide        1    wreg     unsigned char 
  3871 ;;  lowSide         1    3[COMMON] unsigned char 
  3872 ;; Auto vars:     Size  Location     Type
  3873 ;;  highSide        1    4[COMMON] unsigned char 
  3874 ;; Return value:  Size  Location     Type
  3875 ;;                  1    wreg      void 
  3876 ;; Registers used:
  3877 ;;		wreg, status,2, status,0, pclath, cstack
  3878 ;; Tracked objects:
  3879 ;;		On entry : 0/0
  3880 ;;		On exit  : 0/0
  3881 ;;		Unchanged: 0/0
  3882 ;; Data sizes:     COMMON   BANK0   BANK1   BANK2   BANK3   BANK4   BANK5   BANK6   BANK7   BANK8   BANK9  BANK10  BANK1
      +1  BANK12
  3883 ;;      Params:         1       0       0       0       0       0       0       0       0       0       0       0       
      +0       0
  3884 ;;      Locals:         1       0       0       0       0       0       0       0       0       0       0       0       
      +0       0
  3885 ;;      Temps:          0       0       0       0       0       0       0       0       0       0       0       0       
      +0       0
  3886 ;;      Totals:         2       0       0       0       0       0       0       0       0       0       0       0       
      +0       0
  3887 ;;Total ram usage:        2 bytes
  3888 ;; Hardware stack levels used: 1
  3889 ;; Hardware stack levels required when called: 6
  3890 ;; This function calls:
  3891 ;;		_SPI1_ExchangeByte
  3892 ;; This function is called by:
  3893 ;;		_main
  3894 ;;		_displayMatrix
  3895 ;;		_Initialize_Matrix
  3896 ;; This function uses a non-reentrant model
  3897 ;;
  3898                           
  3899                           
  3900                           ;psect for function _shiftBytes
  3901  0FC6                     _shiftBytes:
  3902                           
  3903                           ;incstack = 0
  3904                           ; Regs used in _shiftBytes: [wreg+status,2+status,0+pclath+cstack]
  3905                           ;shiftBytes@highSide stored from wreg
  3906  0FC6  00F4               	movwf	shiftBytes@highSide
  3907  0FC7                     l2592:
  3908                           
  3909                           ;main.c: 708: void shiftBytes(uint8_t highSide, uint8_t lowSide);main.c: 709: {;main.c: 
      +                          711:     SPI1_ExchangeByte(lowSide);
  3910  0FC7  0873               	movf	shiftBytes@lowSide,w
  3911  0FC8  318F  27B9  318F   	fcall	_SPI1_ExchangeByte
  3912                           
  3913                           ;main.c: 712:     SPI1_ExchangeByte(highSide);
  3914  0FCB  0874               	movf	shiftBytes@highSide,w
  3915  0FCC  318F  27B9  318F   	fcall	_SPI1_ExchangeByte
  3916  0FCF                     l2594:
  3917  0FCF  0140               	movlb	0	; select bank0
  3918  0FD0  161A               	bsf	26,4	;volatile
  3919  0FD1                     l2596:
  3920  0FD1  121A               	bcf	26,4	;volatile
  3921  0FD2                     l641:
  3922  0FD2  0008               	return
  3923  0FD3                     __end_of_shiftBytes:
  3924                           
  3925                           	psect	text4
  3926  0FB9                     __ptext4:	
  3927 ;; *************** function _SPI1_ExchangeByte *****************
  3928 ;; Defined at:
  3929 ;;		line 97 in file "mcc_generated_files/spi1.c"
  3930 ;; Parameters:    Size  Location     Type
  3931 ;;  data            1    wreg     unsigned char 
  3932 ;; Auto vars:     Size  Location     Type
  3933 ;;  data            1    2[COMMON] unsigned char 
  3934 ;; Return value:  Size  Location     Type
  3935 ;;                  1    wreg      unsigned char 
  3936 ;; Registers used:
  3937 ;;		wreg
  3938 ;; Tracked objects:
  3939 ;;		On entry : 0/0
  3940 ;;		On exit  : 0/0
  3941 ;;		Unchanged: 0/0
  3942 ;; Data sizes:     COMMON   BANK0   BANK1   BANK2   BANK3   BANK4   BANK5   BANK6   BANK7   BANK8   BANK9  BANK10  BANK1
      +1  BANK12
  3943 ;;      Params:         0       0       0       0       0       0       0       0       0       0       0       0       
      +0       0
  3944 ;;      Locals:         1       0       0       0       0       0       0       0       0       0       0       0       
      +0       0
  3945 ;;      Temps:          0       0       0       0       0       0       0       0       0       0       0       0       
      +0       0
  3946 ;;      Totals:         1       0       0       0       0       0       0       0       0       0       0       0       
      +0       0
  3947 ;;Total ram usage:        1 bytes
  3948 ;; Hardware stack levels used: 1
  3949 ;; Hardware stack levels required when called: 5
  3950 ;; This function calls:
  3951 ;;		Nothing
  3952 ;; This function is called by:
  3953 ;;		_shiftBytes
  3954 ;;		_SPI1_WriteBlock
  3955 ;;		_SPI1_ReadBlock
  3956 ;; This function uses a non-reentrant model
  3957 ;;
  3958                           
  3959                           
  3960                           ;psect for function _SPI1_ExchangeByte
  3961  0FB9                     _SPI1_ExchangeByte:
  3962                           
  3963                           ;incstack = 0
  3964                           ; Regs used in _SPI1_ExchangeByte: [wreg]
  3965                           ;SPI1_ExchangeByte@data stored from wreg
  3966  0FB9  00F2               	movwf	SPI1_ExchangeByte@data
  3967  0FBA                     l2484:
  3968                           
  3969                           ;mcc_generated_files/spi1.c: 97: uint8_t SPI1_ExchangeByte(uint8_t data);mcc_generated_f
      +                          iles/spi1.c: 98: {;mcc_generated_files/spi1.c: 99:     SSP1BUF = data;
  3970  0FBA  0872               	movf	SPI1_ExchangeByte@data,w
  3971  0FBB  0143               	movlb	3	; select bank3
  3972  0FBC  008C               	movwf	12	;volatile
  3973  0FBD                     l74:	
  3974                           ;mcc_generated_files/spi1.c: 100:     while(!PIR1bits.SSP1IF);
  3975                           
  3976  0FBD  014E               	movlb	14	; select bank14
  3977  0FBE  1C8D               	btfss	13,1	;volatile
  3978  0FBF  2FC1               	goto	u1541
  3979  0FC0  2FC2               	goto	u1540
  3980  0FC1                     u1541:
  3981  0FC1  2FBD               	goto	l74
  3982  0FC2                     u1540:
  3983  0FC2                     l76:
  3984                           
  3985                           ;mcc_generated_files/spi1.c: 101:     PIR1bits.SSP1IF = 0;
  3986  0FC2  108D               	bcf	13,1	;volatile
  3987  0FC3                     l2486:
  3988                           
  3989                           ;mcc_generated_files/spi1.c: 102:     return SSP1BUF;
  3990  0FC3  0143               	movlb	3	; select bank3
  3991  0FC4  080C               	movf	12,w	;volatile
  3992  0FC5                     l77:
  3993  0FC5  0008               	return
  3994  0FC6                     __end_of_SPI1_ExchangeByte:
  3995                           
  3996                           	psect	text5
  3997  0763                     __ptext5:	
  3998 ;; *************** function _SYSTEM_Initialize *****************
  3999 ;; Defined at:
  4000 ;;		line 50 in file "mcc_generated_files/mcc.c"
  4001 ;; Parameters:    Size  Location     Type
  4002 ;;		None
  4003 ;; Auto vars:     Size  Location     Type
  4004 ;;		None
  4005 ;; Return value:  Size  Location     Type
  4006 ;;                  1    wreg      void 
  4007 ;; Registers used:
  4008 ;;		wreg, status,2, status,0, pclath, cstack
  4009 ;; Tracked objects:
  4010 ;;		On entry : 0/0
  4011 ;;		On exit  : 0/0
  4012 ;;		Unchanged: 0/0
  4013 ;; Data sizes:     COMMON   BANK0   BANK1   BANK2   BANK3   BANK4   BANK5   BANK6   BANK7   BANK8   BANK9  BANK10  BANK1
      +1  BANK12
  4014 ;;      Params:         0       0       0       0       0       0       0       0       0       0       0       0       
      +0       0
  4015 ;;      Locals:         0       0       0       0       0       0       0       0       0       0       0       0       
      +0       0
  4016 ;;      Temps:          0       0       0       0       0       0       0       0       0       0       0       0       
      +0       0
  4017 ;;      Totals:         0       0       0       0       0       0       0       0       0       0       0       0       
      +0       0
  4018 ;;Total ram usage:        0 bytes
  4019 ;; Hardware stack levels used: 1
  4020 ;; Hardware stack levels required when called: 7
  4021 ;; This function calls:
  4022 ;;		_EXT_INT_Initialize
  4023 ;;		_OSCILLATOR_Initialize
  4024 ;;		_PIN_MANAGER_Initialize
  4025 ;;		_PWM3_Initialize
  4026 ;;		_SPI1_Initialize
  4027 ;;		_TMR0_Initialize
  4028 ;;		_TMR1_Initialize
  4029 ;;		_TMR2_Initialize
  4030 ;;		_WDT_Initialize
  4031 ;; This function is called by:
  4032 ;;		_main
  4033 ;; This function uses a non-reentrant model
  4034 ;;
  4035                           
  4036                           
  4037                           ;psect for function _SYSTEM_Initialize
  4038  0763                     _SYSTEM_Initialize:
  4039  0763                     l2598:	
  4040                           ;incstack = 0
  4041                           ; Regs used in _SYSTEM_Initialize: [wreg+status,2+status,0+pclath+cstack]
  4042                           
  4043                           
  4044                           ;mcc_generated_files/mcc.c: 53:     SPI1_Initialize();
  4045  0763  3187  27CB  3187   	fcall	_SPI1_Initialize
  4046                           
  4047                           ;mcc_generated_files/mcc.c: 54:     PIN_MANAGER_Initialize();
  4048  0766  3186  26DD  3187   	fcall	_PIN_MANAGER_Initialize
  4049                           
  4050                           ;mcc_generated_files/mcc.c: 55:     OSCILLATOR_Initialize();
  4051  0769  318F  2785  3187   	fcall	_OSCILLATOR_Initialize
  4052  076C                     l2600:
  4053                           
  4054                           ;mcc_generated_files/mcc.c: 56:     WDT_Initialize();
  4055  076C  318F  276C  3187   	fcall	_WDT_Initialize
  4056  076F                     l2602:
  4057                           
  4058                           ;mcc_generated_files/mcc.c: 57:     PWM3_Initialize();
  4059  076F  318F  2797  3187   	fcall	_PWM3_Initialize
  4060  0772                     l2604:
  4061                           
  4062                           ;mcc_generated_files/mcc.c: 58:     TMR2_Initialize();
  4063  0772  318F  27D3  3187   	fcall	_TMR2_Initialize
  4064  0775                     l2606:
  4065                           
  4066                           ;mcc_generated_files/mcc.c: 59:     TMR1_Initialize();
  4067  0775  3187  2725  3187   	fcall	_TMR1_Initialize
  4068  0778                     l2608:
  4069                           
  4070                           ;mcc_generated_files/mcc.c: 60:     EXT_INT_Initialize();
  4071  0778  318F  27AC  3187   	fcall	_EXT_INT_Initialize
  4072  077B                     l2610:
  4073                           
  4074                           ;mcc_generated_files/mcc.c: 61:     TMR0_Initialize();
  4075  077B  3187  279B  3187   	fcall	_TMR0_Initialize
  4076  077E                     l29:
  4077  077E  0008               	return
  4078  077F                     __end_of_SYSTEM_Initialize:
  4079                           
  4080                           	psect	text6
  4081  0F6C                     __ptext6:	
  4082 ;; *************** function _WDT_Initialize *****************
  4083 ;; Defined at:
  4084 ;;		line 74 in file "mcc_generated_files/mcc.c"
  4085 ;; Parameters:    Size  Location     Type
  4086 ;;		None
  4087 ;; Auto vars:     Size  Location     Type
  4088 ;;		None
  4089 ;; Return value:  Size  Location     Type
  4090 ;;                  1    wreg      void 
  4091 ;; Registers used:
  4092 ;;		status,2
  4093 ;; Tracked objects:
  4094 ;;		On entry : 0/0
  4095 ;;		On exit  : 0/0
  4096 ;;		Unchanged: 0/0
  4097 ;; Data sizes:     COMMON   BANK0   BANK1   BANK2   BANK3   BANK4   BANK5   BANK6   BANK7   BANK8   BANK9  BANK10  BANK1
      +1  BANK12
  4098 ;;      Params:         0       0       0       0       0       0       0       0       0       0       0       0       
      +0       0
  4099 ;;      Locals:         0       0       0       0       0       0       0       0       0       0       0       0       
      +0       0
  4100 ;;      Temps:          0       0       0       0       0       0       0       0       0       0       0       0       
      +0       0
  4101 ;;      Totals:         0       0       0       0       0       0       0       0       0       0       0       0       
      +0       0
  4102 ;;Total ram usage:        0 bytes
  4103 ;; Hardware stack levels used: 1
  4104 ;; Hardware stack levels required when called: 5
  4105 ;; This function calls:
  4106 ;;		Nothing
  4107 ;; This function is called by:
  4108 ;;		_SYSTEM_Initialize
  4109 ;; This function uses a non-reentrant model
  4110 ;;
  4111                           
  4112                           
  4113                           ;psect for function _WDT_Initialize
  4114  0F6C                     _WDT_Initialize:
  4115  0F6C                     l2542:	
  4116                           ;incstack = 0
  4117                           ; Regs used in _WDT_Initialize: [status,2]
  4118                           
  4119                           
  4120                           ;mcc_generated_files/mcc.c: 77:     WDTCON = 0x00;
  4121  0F6C  0150               	movlb	16	; select bank16
  4122  0F6D  018C               	clrf	12	;volatile
  4123  0F6E                     l35:
  4124  0F6E  0008               	return
  4125  0F6F                     __end_of_WDT_Initialize:
  4126                           
  4127                           	psect	text7
  4128  0FD3                     __ptext7:	
  4129 ;; *************** function _TMR2_Initialize *****************
  4130 ;; Defined at:
  4131 ;;		line 62 in file "mcc_generated_files/tmr2.c"
  4132 ;; Parameters:    Size  Location     Type
  4133 ;;		None
  4134 ;; Auto vars:     Size  Location     Type
  4135 ;;		None
  4136 ;; Return value:  Size  Location     Type
  4137 ;;                  1    wreg      void 
  4138 ;; Registers used:
  4139 ;;		wreg, status,2
  4140 ;; Tracked objects:
  4141 ;;		On entry : 0/0
  4142 ;;		On exit  : 0/0
  4143 ;;		Unchanged: 0/0
  4144 ;; Data sizes:     COMMON   BANK0   BANK1   BANK2   BANK3   BANK4   BANK5   BANK6   BANK7   BANK8   BANK9  BANK10  BANK1
      +1  BANK12
  4145 ;;      Params:         0       0       0       0       0       0       0       0       0       0       0       0       
      +0       0
  4146 ;;      Locals:         0       0       0       0       0       0       0       0       0       0       0       0       
      +0       0
  4147 ;;      Temps:          0       0       0       0       0       0       0       0       0       0       0       0       
      +0       0
  4148 ;;      Totals:         0       0       0       0       0       0       0       0       0       0       0       0       
      +0       0
  4149 ;;Total ram usage:        0 bytes
  4150 ;; Hardware stack levels used: 1
  4151 ;; Hardware stack levels required when called: 5
  4152 ;; This function calls:
  4153 ;;		Nothing
  4154 ;; This function is called by:
  4155 ;;		_SYSTEM_Initialize
  4156 ;;		_main
  4157 ;; This function uses a non-reentrant model
  4158 ;;
  4159                           
  4160                           
  4161                           ;psect for function _TMR2_Initialize
  4162  0FD3                     _TMR2_Initialize:
  4163  0FD3                     l2546:	
  4164                           ;incstack = 0
  4165                           ; Regs used in _TMR2_Initialize: [wreg+status,2]
  4166                           
  4167                           
  4168                           ;mcc_generated_files/tmr2.c: 67:     T2CLKCON = 0x01;
  4169  0FD3  3001               	movlw	1
  4170  0FD4  0145               	movlb	5	; select bank5
  4171  0FD5  0090               	movwf	16	;volatile
  4172  0FD6                     l2548:
  4173                           
  4174                           ;mcc_generated_files/tmr2.c: 70:     T2HLT = 0x00;
  4175  0FD6  018F               	clrf	15	;volatile
  4176  0FD7                     l2550:
  4177                           
  4178                           ;mcc_generated_files/tmr2.c: 73:     T2RST = 0x00;
  4179  0FD7  0191               	clrf	17	;volatile
  4180                           
  4181                           ;mcc_generated_files/tmr2.c: 76:     T2PR = 0xFF;
  4182  0FD8  30FF               	movlw	255
  4183  0FD9  008D               	movwf	13	;volatile
  4184  0FDA                     l2552:
  4185                           
  4186                           ;mcc_generated_files/tmr2.c: 79:     T2TMR = 0x00;
  4187  0FDA  018C               	clrf	12	;volatile
  4188  0FDB                     l2554:
  4189                           
  4190                           ;mcc_generated_files/tmr2.c: 82:     PIR1bits.TMR2IF = 0;
  4191  0FDB  014E               	movlb	14	; select bank14
  4192  0FDC  130D               	bcf	13,6	;volatile
  4193  0FDD                     l2556:
  4194                           
  4195                           ;mcc_generated_files/tmr2.c: 85:     T2CON = 0xB0;
  4196  0FDD  30B0               	movlw	176
  4197  0FDE  0145               	movlb	5	; select bank5
  4198  0FDF  008E               	movwf	14	;volatile
  4199  0FE0                     l177:
  4200  0FE0  0008               	return
  4201  0FE1                     __end_of_TMR2_Initialize:
  4202                           
  4203                           	psect	text8
  4204  0725                     __ptext8:	
  4205 ;; *************** function _TMR1_Initialize *****************
  4206 ;; Defined at:
  4207 ;;		line 64 in file "mcc_generated_files/tmr1.c"
  4208 ;; Parameters:    Size  Location     Type
  4209 ;;		None
  4210 ;; Auto vars:     Size  Location     Type
  4211 ;;		None
  4212 ;; Return value:  Size  Location     Type
  4213 ;;                  1    wreg      void 
  4214 ;; Registers used:
  4215 ;;		wreg, status,2, status,0, pclath, cstack
  4216 ;; Tracked objects:
  4217 ;;		On entry : 0/0
  4218 ;;		On exit  : 0/0
  4219 ;;		Unchanged: 0/0
  4220 ;; Data sizes:     COMMON   BANK0   BANK1   BANK2   BANK3   BANK4   BANK5   BANK6   BANK7   BANK8   BANK9  BANK10  BANK1
      +1  BANK12
  4221 ;;      Params:         0       0       0       0       0       0       0       0       0       0       0       0       
      +0       0
  4222 ;;      Locals:         0       0       0       0       0       0       0       0       0       0       0       0       
      +0       0
  4223 ;;      Temps:          0       0       0       0       0       0       0       0       0       0       0       0       
      +0       0
  4224 ;;      Totals:         0       0       0       0       0       0       0       0       0       0       0       0       
      +0       0
  4225 ;;Total ram usage:        0 bytes
  4226 ;; Hardware stack levels used: 1
  4227 ;; Hardware stack levels required when called: 6
  4228 ;; This function calls:
  4229 ;;		_TMR1_SetInterruptHandler
  4230 ;; This function is called by:
  4231 ;;		_SYSTEM_Initialize
  4232 ;;		_main
  4233 ;; This function uses a non-reentrant model
  4234 ;;
  4235                           
  4236                           
  4237                           ;psect for function _TMR1_Initialize
  4238  0725                     _TMR1_Initialize:
  4239  0725                     l2558:	
  4240                           ;incstack = 0
  4241                           ; Regs used in _TMR1_Initialize: [wreg+status,2+status,0+pclath+cstack]
  4242                           
  4243                           
  4244                           ;mcc_generated_files/tmr1.c: 69:     T1GCON = 0x00;
  4245  0725  0144               	movlb	4	; select bank4
  4246  0726  018F               	clrf	15	;volatile
  4247                           
  4248                           ;mcc_generated_files/tmr1.c: 72:     T1GATE = 0x00;
  4249  0727  0190               	clrf	16	;volatile
  4250  0728                     l2560:
  4251                           
  4252                           ;mcc_generated_files/tmr1.c: 75:     T1CLK = 0x04;
  4253  0728  3004               	movlw	4
  4254  0729  0091               	movwf	17	;volatile
  4255  072A                     l2562:
  4256                           
  4257                           ;mcc_generated_files/tmr1.c: 78:     TMR1H = 0xE1;
  4258  072A  30E1               	movlw	225
  4259  072B  008D               	movwf	13	;volatile
  4260  072C                     l2564:
  4261                           
  4262                           ;mcc_generated_files/tmr1.c: 81:     TMR1L = 0xBA;
  4263  072C  30BA               	movlw	186
  4264  072D  008C               	movwf	12	;volatile
  4265  072E                     l2566:
  4266                           
  4267                           ;mcc_generated_files/tmr1.c: 84:     PIR1bits.TMR1IF = 0;
  4268  072E  014E               	movlb	14	; select bank14
  4269  072F  128D               	bcf	13,5	;volatile
  4270  0730                     l2568:
  4271                           
  4272                           ;mcc_generated_files/tmr1.c: 87:     timer1ReloadVal=(uint16_t)((TMR1H << 8) | TMR1L);
  4273  0730  0144               	movlb	4	; select bank4
  4274  0731  080D               	movf	13,w	;volatile
  4275  0732  0140               	movlb	0	; select bank0
  4276  0733  00D2               	movwf	_timer1ReloadVal+1	;volatile
  4277  0734  0144               	movlb	4	; select bank4
  4278  0735  080C               	movf	12,w	;volatile
  4279  0736  0140               	movlb	0	; select bank0
  4280  0737  00D1               	movwf	_timer1ReloadVal	;volatile
  4281  0738                     l2570:
  4282                           
  4283                           ;mcc_generated_files/tmr1.c: 90:     PIE1bits.TMR1IE = 1;
  4284  0738  014E               	movlb	14	; select bank14
  4285  0739  1697               	bsf	23,5	;volatile
  4286  073A                     l2572:
  4287                           
  4288                           ;mcc_generated_files/tmr1.c: 93:     TMR1_SetInterruptHandler(TMR1_DefaultInterruptHandl
      +                          er);
  4289  073A  3003               	movlw	low _TMR1_DefaultInterruptHandler
  4290  073B  00F2               	movwf	TMR1_SetInterruptHandler@InterruptHandler
  4291  073C  3000               	movlw	high _TMR1_DefaultInterruptHandler
  4292  073D  00F3               	movwf	TMR1_SetInterruptHandler@InterruptHandler+1
  4293  073E  318F  2791  3187   	fcall	_TMR1_SetInterruptHandler
  4294  0741                     l2574:
  4295                           
  4296                           ;mcc_generated_files/tmr1.c: 96:     T1CON = 0x05;
  4297  0741  3005               	movlw	5
  4298  0742  0144               	movlb	4	; select bank4
  4299  0743  008E               	movwf	14	;volatile
  4300  0744                     l365:
  4301  0744  0008               	return
  4302  0745                     __end_of_TMR1_Initialize:
  4303                           
  4304                           	psect	text9
  4305  0F91                     __ptext9:	
  4306 ;; *************** function _TMR1_SetInterruptHandler *****************
  4307 ;; Defined at:
  4308 ;;		line 178 in file "mcc_generated_files/tmr1.c"
  4309 ;; Parameters:    Size  Location     Type
  4310 ;;  InterruptHan    2    2[COMMON] PTR FTN()void 
  4311 ;;		 -> TMR1_ISR_(1), TMR1_DefaultInterruptHandler(1), 
  4312 ;; Auto vars:     Size  Location     Type
  4313 ;;		None
  4314 ;; Return value:  Size  Location     Type
  4315 ;;                  1    wreg      void 
  4316 ;; Registers used:
  4317 ;;		wreg
  4318 ;; Tracked objects:
  4319 ;;		On entry : 0/0
  4320 ;;		On exit  : 0/0
  4321 ;;		Unchanged: 0/0
  4322 ;; Data sizes:     COMMON   BANK0   BANK1   BANK2   BANK3   BANK4   BANK5   BANK6   BANK7   BANK8   BANK9  BANK10  BANK1
      +1  BANK12
  4323 ;;      Params:         2       0       0       0       0       0       0       0       0       0       0       0       
      +0       0
  4324 ;;      Locals:         0       0       0       0       0       0       0       0       0       0       0       0       
      +0       0
  4325 ;;      Temps:          0       0       0       0       0       0       0       0       0       0       0       0       
      +0       0
  4326 ;;      Totals:         2       0       0       0       0       0       0       0       0       0       0       0       
      +0       0
  4327 ;;Total ram usage:        2 bytes
  4328 ;; Hardware stack levels used: 1
  4329 ;; Hardware stack levels required when called: 5
  4330 ;; This function calls:
  4331 ;;		Nothing
  4332 ;; This function is called by:
  4333 ;;		_TMR1_Initialize
  4334 ;;		_main
  4335 ;; This function uses a non-reentrant model
  4336 ;;
  4337                           
  4338                           
  4339                           ;psect for function _TMR1_SetInterruptHandler
  4340  0F91                     _TMR1_SetInterruptHandler:
  4341  0F91                     l2494:	
  4342                           ;incstack = 0
  4343                           ; Regs used in _TMR1_SetInterruptHandler: [wreg]
  4344                           
  4345                           
  4346                           ;mcc_generated_files/tmr1.c: 179:     TMR1_InterruptHandler = InterruptHandler;
  4347  0F91  0873               	movf	TMR1_SetInterruptHandler@InterruptHandler+1,w
  4348  0F92  0140               	movlb	0	; select bank0
  4349  0F93  00D0               	movwf	_TMR1_InterruptHandler+1
  4350  0F94  0872               	movf	TMR1_SetInterruptHandler@InterruptHandler,w
  4351  0F95  00CF               	movwf	_TMR1_InterruptHandler
  4352  0F96                     l395:
  4353  0F96  0008               	return
  4354  0F97                     __end_of_TMR1_SetInterruptHandler:
  4355                           
  4356                           	psect	text10
  4357  079B                     __ptext10:	
  4358 ;; *************** function _TMR0_Initialize *****************
  4359 ;; Defined at:
  4360 ;;		line 66 in file "mcc_generated_files/tmr0.c"
  4361 ;; Parameters:    Size  Location     Type
  4362 ;;		None
  4363 ;; Auto vars:     Size  Location     Type
  4364 ;;		None
  4365 ;; Return value:  Size  Location     Type
  4366 ;;                  1    wreg      void 
  4367 ;; Registers used:
  4368 ;;		wreg, status,2, status,0, pclath, cstack
  4369 ;; Tracked objects:
  4370 ;;		On entry : 0/0
  4371 ;;		On exit  : 0/0
  4372 ;;		Unchanged: 0/0
  4373 ;; Data sizes:     COMMON   BANK0   BANK1   BANK2   BANK3   BANK4   BANK5   BANK6   BANK7   BANK8   BANK9  BANK10  BANK1
      +1  BANK12
  4374 ;;      Params:         0       0       0       0       0       0       0       0       0       0       0       0       
      +0       0
  4375 ;;      Locals:         0       0       0       0       0       0       0       0       0       0       0       0       
      +0       0
  4376 ;;      Temps:          0       0       0       0       0       0       0       0       0       0       0       0       
      +0       0
  4377 ;;      Totals:         0       0       0       0       0       0       0       0       0       0       0       0       
      +0       0
  4378 ;;Total ram usage:        0 bytes
  4379 ;; Hardware stack levels used: 1
  4380 ;; Hardware stack levels required when called: 6
  4381 ;; This function calls:
  4382 ;;		_TMR0_SetInterruptHandler
  4383 ;; This function is called by:
  4384 ;;		_SYSTEM_Initialize
  4385 ;;		_main
  4386 ;; This function uses a non-reentrant model
  4387 ;;
  4388                           
  4389                           
  4390                           ;psect for function _TMR0_Initialize
  4391  079B                     _TMR0_Initialize:
  4392  079B                     l2582:	
  4393                           ;incstack = 0
  4394                           ; Regs used in _TMR0_Initialize: [wreg+status,2+status,0+pclath+cstack]
  4395                           
  4396                           
  4397                           ;mcc_generated_files/tmr0.c: 71:     T0CON1 = 0x90;
  4398  079B  3090               	movlw	144
  4399  079C  014B               	movlb	11	; select bank11
  4400  079D  009F               	movwf	31	;volatile
  4401                           
  4402                           ;mcc_generated_files/tmr0.c: 74:     TMR0H = 0x86;
  4403  079E  3086               	movlw	134
  4404  079F  009D               	movwf	29	;volatile
  4405                           
  4406                           ;mcc_generated_files/tmr0.c: 77:     TMR0L = 0xE8;
  4407  07A0  30E8               	movlw	232
  4408  07A1  009C               	movwf	28	;volatile
  4409                           
  4410                           ;mcc_generated_files/tmr0.c: 80:     timer0ReloadVal16bit = (TMR0H << 8) | TMR0L;
  4411  07A2  081D               	movf	29,w	;volatile
  4412  07A3  00F8               	movwf	_timer0ReloadVal16bit+1	;volatile
  4413  07A4  081C               	movf	28,w	;volatile
  4414  07A5  00F7               	movwf	_timer0ReloadVal16bit	;volatile
  4415  07A6                     l2584:
  4416                           
  4417                           ;mcc_generated_files/tmr0.c: 83:     PIR0bits.TMR0IF = 0;
  4418  07A6  014E               	movlb	14	; select bank14
  4419  07A7  128C               	bcf	12,5	;volatile
  4420  07A8                     l2586:
  4421                           
  4422                           ;mcc_generated_files/tmr0.c: 86:     PIE0bits.TMR0IE = 1;
  4423  07A8  1696               	bsf	22,5	;volatile
  4424  07A9                     l2588:
  4425                           
  4426                           ;mcc_generated_files/tmr0.c: 89:     TMR0_SetInterruptHandler(TMR0_DefaultInterruptHandl
      +                          er);
  4427  07A9  3002               	movlw	low _TMR0_DefaultInterruptHandler
  4428  07AA  00F2               	movwf	TMR0_SetInterruptHandler@InterruptHandler
  4429  07AB  3000               	movlw	high _TMR0_DefaultInterruptHandler
  4430  07AC  00F3               	movwf	TMR0_SetInterruptHandler@InterruptHandler+1
  4431  07AD  318F  278B  3187   	fcall	_TMR0_SetInterruptHandler
  4432  07B0                     l2590:
  4433                           
  4434                           ;mcc_generated_files/tmr0.c: 92:     T0CON0 = 0x90;
  4435  07B0  3090               	movlw	144
  4436  07B1  014B               	movlb	11	; select bank11
  4437  07B2  009E               	movwf	30	;volatile
  4438  07B3                     l309:
  4439  07B3  0008               	return
  4440  07B4                     __end_of_TMR0_Initialize:
  4441                           
  4442                           	psect	text11
  4443  0F8B                     __ptext11:	
  4444 ;; *************** function _TMR0_SetInterruptHandler *****************
  4445 ;; Defined at:
  4446 ;;		line 151 in file "mcc_generated_files/tmr0.c"
  4447 ;; Parameters:    Size  Location     Type
  4448 ;;  InterruptHan    2    2[COMMON] PTR FTN()void 
  4449 ;;		 -> TMR0_ISR_(1), TMR0_DefaultInterruptHandler(1), 
  4450 ;; Auto vars:     Size  Location     Type
  4451 ;;		None
  4452 ;; Return value:  Size  Location     Type
  4453 ;;                  1    wreg      void 
  4454 ;; Registers used:
  4455 ;;		wreg
  4456 ;; Tracked objects:
  4457 ;;		On entry : 0/0
  4458 ;;		On exit  : 0/0
  4459 ;;		Unchanged: 0/0
  4460 ;; Data sizes:     COMMON   BANK0   BANK1   BANK2   BANK3   BANK4   BANK5   BANK6   BANK7   BANK8   BANK9  BANK10  BANK1
      +1  BANK12
  4461 ;;      Params:         2       0       0       0       0       0       0       0       0       0       0       0       
      +0       0
  4462 ;;      Locals:         0       0       0       0       0       0       0       0       0       0       0       0       
      +0       0
  4463 ;;      Temps:          0       0       0       0       0       0       0       0       0       0       0       0       
      +0       0
  4464 ;;      Totals:         2       0       0       0       0       0       0       0       0       0       0       0       
      +0       0
  4465 ;;Total ram usage:        2 bytes
  4466 ;; Hardware stack levels used: 1
  4467 ;; Hardware stack levels required when called: 5
  4468 ;; This function calls:
  4469 ;;		Nothing
  4470 ;; This function is called by:
  4471 ;;		_TMR0_Initialize
  4472 ;;		_main
  4473 ;; This function uses a non-reentrant model
  4474 ;;
  4475                           
  4476                           
  4477                           ;psect for function _TMR0_SetInterruptHandler
  4478  0F8B                     _TMR0_SetInterruptHandler:
  4479  0F8B                     l2492:	
  4480                           ;incstack = 0
  4481                           ; Regs used in _TMR0_SetInterruptHandler: [wreg]
  4482                           
  4483                           
  4484                           ;mcc_generated_files/tmr0.c: 152:     TMR0_InterruptHandler = InterruptHandler;
  4485  0F8B  0873               	movf	TMR0_SetInterruptHandler@InterruptHandler+1,w
  4486  0F8C  0140               	movlb	0	; select bank0
  4487  0F8D  00D4               	movwf	_TMR0_InterruptHandler+1
  4488  0F8E  0872               	movf	TMR0_SetInterruptHandler@InterruptHandler,w
  4489  0F8F  00D3               	movwf	_TMR0_InterruptHandler
  4490  0F90                     l331:
  4491  0F90  0008               	return
  4492  0F91                     __end_of_TMR0_SetInterruptHandler:
  4493                           
  4494                           	psect	text12
  4495  07CB                     __ptext12:	
  4496 ;; *************** function _SPI1_Initialize *****************
  4497 ;; Defined at:
  4498 ;;		line 62 in file "mcc_generated_files/spi1.c"
  4499 ;; Parameters:    Size  Location     Type
  4500 ;;		None
  4501 ;; Auto vars:     Size  Location     Type
  4502 ;;		None
  4503 ;; Return value:  Size  Location     Type
  4504 ;;                  1    wreg      void 
  4505 ;; Registers used:
  4506 ;;		wreg, status,2
  4507 ;; Tracked objects:
  4508 ;;		On entry : 0/0
  4509 ;;		On exit  : 0/0
  4510 ;;		Unchanged: 0/0
  4511 ;; Data sizes:     COMMON   BANK0   BANK1   BANK2   BANK3   BANK4   BANK5   BANK6   BANK7   BANK8   BANK9  BANK10  BANK1
      +1  BANK12
  4512 ;;      Params:         0       0       0       0       0       0       0       0       0       0       0       0       
      +0       0
  4513 ;;      Locals:         0       0       0       0       0       0       0       0       0       0       0       0       
      +0       0
  4514 ;;      Temps:          0       0       0       0       0       0       0       0       0       0       0       0       
      +0       0
  4515 ;;      Totals:         0       0       0       0       0       0       0       0       0       0       0       0       
      +0       0
  4516 ;;Total ram usage:        0 bytes
  4517 ;; Hardware stack levels used: 1
  4518 ;; Hardware stack levels required when called: 5
  4519 ;; This function calls:
  4520 ;;		Nothing
  4521 ;; This function is called by:
  4522 ;;		_SYSTEM_Initialize
  4523 ;;		_main
  4524 ;; This function uses a non-reentrant model
  4525 ;;
  4526                           
  4527                           
  4528                           ;psect for function _SPI1_Initialize
  4529  07CB                     _SPI1_Initialize:
  4530  07CB                     l2496:	
  4531                           ;incstack = 0
  4532                           ; Regs used in _SPI1_Initialize: [wreg+status,2]
  4533                           
  4534                           
  4535                           ;mcc_generated_files/spi1.c: 65:     SSP1CLKPPS = 21;
  4536  07CB  3015               	movlw	21
  4537  07CC  017D               	movlb	61	; select bank61
  4538  07CD  00C5               	movwf	69	;volatile
  4539                           
  4540                           ;mcc_generated_files/spi1.c: 66:     SSP1DATPPS = 4;
  4541  07CE  3004               	movlw	4
  4542  07CF  00C6               	movwf	70	;volatile
  4543                           
  4544                           ;mcc_generated_files/spi1.c: 67:     RC5PPS = 7;
  4545  07D0  3007               	movlw	7
  4546  07D1  017E               	movlb	62	; select bank62
  4547  07D2  00A5               	movwf	37	;volatile
  4548                           
  4549                           ;mcc_generated_files/spi1.c: 68:     RC3PPS = 8;
  4550  07D3  3008               	movlw	8
  4551  07D4  00A3               	movwf	35	;volatile
  4552                           
  4553                           ;mcc_generated_files/spi1.c: 70:     SSP1STAT = 0x40;
  4554  07D5  3040               	movlw	64
  4555  07D6  0143               	movlb	3	; select bank3
  4556  07D7  008F               	movwf	15	;volatile
  4557  07D8                     l2498:
  4558                           
  4559                           ;mcc_generated_files/spi1.c: 71:     SSP1CON1 = 0x00;
  4560  07D8  0190               	clrf	16	;volatile
  4561  07D9                     l2500:
  4562                           
  4563                           ;mcc_generated_files/spi1.c: 72:     SSP1ADD = 0x01;
  4564  07D9  3001               	movlw	1
  4565  07DA  008D               	movwf	13	;volatile
  4566  07DB                     l2502:
  4567                           
  4568                           ;mcc_generated_files/spi1.c: 73:     TRISCbits.TRISC5 = 0;
  4569  07DB  0140               	movlb	0	; select bank0
  4570  07DC  1294               	bcf	20,5	;volatile
  4571  07DD                     l2504:
  4572                           
  4573                           ;mcc_generated_files/spi1.c: 74:     SSP1CON1bits.SSPEN = 0;
  4574  07DD  0143               	movlb	3	; select bank3
  4575  07DE  1290               	bcf	16,5	;volatile
  4576  07DF                     l64:
  4577  07DF  0008               	return
  4578  07E0                     __end_of_SPI1_Initialize:
  4579                           
  4580                           	psect	text13
  4581  0F97                     __ptext13:	
  4582 ;; *************** function _PWM3_Initialize *****************
  4583 ;; Defined at:
  4584 ;;		line 58 in file "mcc_generated_files/pwm3.c"
  4585 ;; Parameters:    Size  Location     Type
  4586 ;;		None
  4587 ;; Auto vars:     Size  Location     Type
  4588 ;;		None
  4589 ;; Return value:  Size  Location     Type
  4590 ;;                  1    wreg      void 
  4591 ;; Registers used:
  4592 ;;		wreg
  4593 ;; Tracked objects:
  4594 ;;		On entry : 0/0
  4595 ;;		On exit  : 0/0
  4596 ;;		Unchanged: 0/0
  4597 ;; Data sizes:     COMMON   BANK0   BANK1   BANK2   BANK3   BANK4   BANK5   BANK6   BANK7   BANK8   BANK9  BANK10  BANK1
      +1  BANK12
  4598 ;;      Params:         0       0       0       0       0       0       0       0       0       0       0       0       
      +0       0
  4599 ;;      Locals:         0       0       0       0       0       0       0       0       0       0       0       0       
      +0       0
  4600 ;;      Temps:          0       0       0       0       0       0       0       0       0       0       0       0       
      +0       0
  4601 ;;      Totals:         0       0       0       0       0       0       0       0       0       0       0       0       
      +0       0
  4602 ;;Total ram usage:        0 bytes
  4603 ;; Hardware stack levels used: 1
  4604 ;; Hardware stack levels required when called: 5
  4605 ;; This function calls:
  4606 ;;		Nothing
  4607 ;; This function is called by:
  4608 ;;		_SYSTEM_Initialize
  4609 ;;		_main
  4610 ;; This function uses a non-reentrant model
  4611 ;;
  4612                           
  4613                           
  4614                           ;psect for function _PWM3_Initialize
  4615  0F97                     _PWM3_Initialize:
  4616  0F97                     l2544:	
  4617                           ;incstack = 0
  4618                           ; Regs used in _PWM3_Initialize: [wreg]
  4619                           
  4620                           
  4621                           ;mcc_generated_files/pwm3.c: 62:     PWM3CON = 0x80;
  4622  0F97  3080               	movlw	128
  4623  0F98  0146               	movlb	6	; select bank6
  4624  0F99  0096               	movwf	22	;volatile
  4625                           
  4626                           ;mcc_generated_files/pwm3.c: 65:     PWM3DCH = 0x7F;
  4627  0F9A  307F               	movlw	127
  4628  0F9B  0095               	movwf	21	;volatile
  4629                           
  4630                           ;mcc_generated_files/pwm3.c: 68:     PWM3DCL = 0xC0;
  4631  0F9C  30C0               	movlw	192
  4632  0F9D  0094               	movwf	20	;volatile
  4633  0F9E                     l226:
  4634  0F9E  0008               	return
  4635  0F9F                     __end_of_PWM3_Initialize:
  4636                           
  4637                           	psect	text14
  4638  06DD                     __ptext14:	
  4639 ;; *************** function _PIN_MANAGER_Initialize *****************
  4640 ;; Defined at:
  4641 ;;		line 55 in file "mcc_generated_files/pin_manager.c"
  4642 ;; Parameters:    Size  Location     Type
  4643 ;;		None
  4644 ;; Auto vars:     Size  Location     Type
  4645 ;;		None
  4646 ;; Return value:  Size  Location     Type
  4647 ;;                  1    wreg      void 
  4648 ;; Registers used:
  4649 ;;		wreg, status,2
  4650 ;; Tracked objects:
  4651 ;;		On entry : 0/0
  4652 ;;		On exit  : 0/0
  4653 ;;		Unchanged: 0/0
  4654 ;; Data sizes:     COMMON   BANK0   BANK1   BANK2   BANK3   BANK4   BANK5   BANK6   BANK7   BANK8   BANK9  BANK10  BANK1
      +1  BANK12
  4655 ;;      Params:         0       0       0       0       0       0       0       0       0       0       0       0       
      +0       0
  4656 ;;      Locals:         0       0       0       0       0       0       0       0       0       0       0       0       
      +0       0
  4657 ;;      Temps:          0       0       0       0       0       0       0       0       0       0       0       0       
      +0       0
  4658 ;;      Totals:         0       0       0       0       0       0       0       0       0       0       0       0       
      +0       0
  4659 ;;Total ram usage:        0 bytes
  4660 ;; Hardware stack levels used: 1
  4661 ;; Hardware stack levels required when called: 5
  4662 ;; This function calls:
  4663 ;;		Nothing
  4664 ;; This function is called by:
  4665 ;;		_SYSTEM_Initialize
  4666 ;; This function uses a non-reentrant model
  4667 ;;
  4668                           
  4669                           
  4670                           ;psect for function _PIN_MANAGER_Initialize
  4671  06DD                     _PIN_MANAGER_Initialize:
  4672  06DD                     l2506:	
  4673                           ;incstack = 0
  4674                           ; Regs used in _PIN_MANAGER_Initialize: [wreg+status,2]
  4675                           
  4676                           
  4677                           ;mcc_generated_files/pin_manager.c: 60:     LATA = 0x00;
  4678  06DD  0140               	movlb	0	; select bank0
  4679  06DE  0198               	clrf	24	;volatile
  4680                           
  4681                           ;mcc_generated_files/pin_manager.c: 61:     LATC = 0x00;
  4682  06DF  019A               	clrf	26	;volatile
  4683  06E0                     l2508:
  4684                           
  4685                           ;mcc_generated_files/pin_manager.c: 66:     TRISA = 0x1F;
  4686  06E0  301F               	movlw	31
  4687  06E1  0092               	movwf	18	;volatile
  4688  06E2                     l2510:
  4689                           
  4690                           ;mcc_generated_files/pin_manager.c: 67:     TRISC = 0x02;
  4691  06E2  3002               	movlw	2
  4692  06E3  0094               	movwf	20	;volatile
  4693  06E4                     l2512:
  4694                           
  4695                           ;mcc_generated_files/pin_manager.c: 72:     ANSELC = 0x1F;
  4696  06E4  301F               	movlw	31
  4697  06E5  017E               	movlb	62	; select bank62
  4698  06E6  00CE               	movwf	78	;volatile
  4699  06E7                     l2514:
  4700                           
  4701                           ;mcc_generated_files/pin_manager.c: 73:     ANSELA = 0x23;
  4702  06E7  3023               	movlw	35
  4703  06E8  00B8               	movwf	56	;volatile
  4704                           
  4705                           ;mcc_generated_files/pin_manager.c: 78:     WPUA = 0x00;
  4706  06E9  01B9               	clrf	57	;volatile
  4707                           
  4708                           ;mcc_generated_files/pin_manager.c: 79:     WPUC = 0x00;
  4709  06EA  01CF               	clrf	79	;volatile
  4710                           
  4711                           ;mcc_generated_files/pin_manager.c: 84:     ODCONA = 0x00;
  4712  06EB  01BA               	clrf	58	;volatile
  4713                           
  4714                           ;mcc_generated_files/pin_manager.c: 85:     ODCONC = 0x00;
  4715  06EC  01D0               	clrf	80	;volatile
  4716  06ED                     l2516:
  4717                           
  4718                           ;mcc_generated_files/pin_manager.c: 90:     SLRCONA = 0x37;
  4719  06ED  3037               	movlw	55
  4720  06EE  00BB               	movwf	59	;volatile
  4721  06EF                     l2518:
  4722                           
  4723                           ;mcc_generated_files/pin_manager.c: 91:     SLRCONC = 0x3F;
  4724  06EF  303F               	movlw	63
  4725  06F0  00D1               	movwf	81	;volatile
  4726  06F1                     l2520:
  4727                           
  4728                           ;mcc_generated_files/pin_manager.c: 96:     INLVLA = 0x3F;
  4729  06F1  303F               	movlw	63
  4730  06F2  00BC               	movwf	60	;volatile
  4731  06F3                     l2522:
  4732                           
  4733                           ;mcc_generated_files/pin_manager.c: 97:     INLVLC = 0x3F;
  4734  06F3  303F               	movlw	63
  4735  06F4  00D2               	movwf	82	;volatile
  4736  06F5                     l2524:
  4737                           
  4738                           ;mcc_generated_files/pin_manager.c: 106:     INTPPS = 0x02;
  4739  06F5  3002               	movlw	2
  4740  06F6  017D               	movlb	61	; select bank61
  4741  06F7  0090               	movwf	16	;volatile
  4742  06F8                     l2526:
  4743                           
  4744                           ;mcc_generated_files/pin_manager.c: 107:     SSP1CLKPPS = 0x15;
  4745  06F8  3015               	movlw	21
  4746  06F9  00C5               	movwf	69	;volatile
  4747  06FA                     l2528:
  4748                           
  4749                           ;mcc_generated_files/pin_manager.c: 108:     RC3PPS = 0x08;
  4750  06FA  3008               	movlw	8
  4751  06FB  017E               	movlb	62	; select bank62
  4752  06FC  00A3               	movwf	35	;volatile
  4753  06FD                     l2530:
  4754                           
  4755                           ;mcc_generated_files/pin_manager.c: 109:     RA5PPS = 0x03;
  4756  06FD  3003               	movlw	3
  4757  06FE  0095               	movwf	21	;volatile
  4758  06FF                     l2532:
  4759                           
  4760                           ;mcc_generated_files/pin_manager.c: 110:     RC5PPS = 0x07;
  4761  06FF  3007               	movlw	7
  4762  0700  00A5               	movwf	37	;volatile
  4763  0701                     l2534:
  4764                           
  4765                           ;mcc_generated_files/pin_manager.c: 111:     SSP1DATPPS = 0x04;
  4766  0701  3004               	movlw	4
  4767  0702  017D               	movlb	61	; select bank61
  4768  0703  00C6               	movwf	70	;volatile
  4769  0704                     l147:
  4770  0704  0008               	return
  4771  0705                     __end_of_PIN_MANAGER_Initialize:
  4772                           
  4773                           	psect	text15
  4774  0F85                     __ptext15:	
  4775 ;; *************** function _OSCILLATOR_Initialize *****************
  4776 ;; Defined at:
  4777 ;;		line 64 in file "mcc_generated_files/mcc.c"
  4778 ;; Parameters:    Size  Location     Type
  4779 ;;		None
  4780 ;; Auto vars:     Size  Location     Type
  4781 ;;		None
  4782 ;; Return value:  Size  Location     Type
  4783 ;;                  1    wreg      void 
  4784 ;; Registers used:
  4785 ;;		wreg, status,2
  4786 ;; Tracked objects:
  4787 ;;		On entry : 0/0
  4788 ;;		On exit  : 0/0
  4789 ;;		Unchanged: 0/0
  4790 ;; Data sizes:     COMMON   BANK0   BANK1   BANK2   BANK3   BANK4   BANK5   BANK6   BANK7   BANK8   BANK9  BANK10  BANK1
      +1  BANK12
  4791 ;;      Params:         0       0       0       0       0       0       0       0       0       0       0       0       
      +0       0
  4792 ;;      Locals:         0       0       0       0       0       0       0       0       0       0       0       0       
      +0       0
  4793 ;;      Temps:          0       0       0       0       0       0       0       0       0       0       0       0       
      +0       0
  4794 ;;      Totals:         0       0       0       0       0       0       0       0       0       0       0       0       
      +0       0
  4795 ;;Total ram usage:        0 bytes
  4796 ;; Hardware stack levels used: 1
  4797 ;; Hardware stack levels required when called: 5
  4798 ;; This function calls:
  4799 ;;		Nothing
  4800 ;; This function is called by:
  4801 ;;		_SYSTEM_Initialize
  4802 ;; This function uses a non-reentrant model
  4803 ;;
  4804                           
  4805                           
  4806                           ;psect for function _OSCILLATOR_Initialize
  4807  0F85                     _OSCILLATOR_Initialize:
  4808  0F85                     l2536:	
  4809                           ;incstack = 0
  4810                           ; Regs used in _OSCILLATOR_Initialize: [wreg+status,2]
  4811                           
  4812                           
  4813                           ;mcc_generated_files/mcc.c: 67:     OSCEN = 0x00;
  4814  0F85  0151               	movlb	17	; select bank17
  4815  0F86  0191               	clrf	17	;volatile
  4816  0F87                     l2538:
  4817                           
  4818                           ;mcc_generated_files/mcc.c: 69:     OSCFRQ = 0x03;
  4819  0F87  3003               	movlw	3
  4820  0F88  0093               	movwf	19	;volatile
  4821  0F89                     l2540:
  4822                           
  4823                           ;mcc_generated_files/mcc.c: 71:     OSCTUNE = 0x00;
  4824  0F89  0192               	clrf	18	;volatile
  4825  0F8A                     l32:
  4826  0F8A  0008               	return
  4827  0F8B                     __end_of_OSCILLATOR_Initialize:
  4828                           
  4829                           	psect	text16
  4830  0FAC                     __ptext16:	
  4831 ;; *************** function _EXT_INT_Initialize *****************
  4832 ;; Defined at:
  4833 ;;		line 72 in file "mcc_generated_files/ext_int.c"
  4834 ;; Parameters:    Size  Location     Type
  4835 ;;		None
  4836 ;; Auto vars:     Size  Location     Type
  4837 ;;		None
  4838 ;; Return value:  Size  Location     Type
  4839 ;;                  1    wreg      void 
  4840 ;; Registers used:
  4841 ;;		wreg, status,2, status,0, pclath, cstack
  4842 ;; Tracked objects:
  4843 ;;		On entry : 0/0
  4844 ;;		On exit  : 0/0
  4845 ;;		Unchanged: 0/0
  4846 ;; Data sizes:     COMMON   BANK0   BANK1   BANK2   BANK3   BANK4   BANK5   BANK6   BANK7   BANK8   BANK9  BANK10  BANK1
      +1  BANK12
  4847 ;;      Params:         0       0       0       0       0       0       0       0       0       0       0       0       
      +0       0
  4848 ;;      Locals:         0       0       0       0       0       0       0       0       0       0       0       0       
      +0       0
  4849 ;;      Temps:          0       0       0       0       0       0       0       0       0       0       0       0       
      +0       0
  4850 ;;      Totals:         0       0       0       0       0       0       0       0       0       0       0       0       
      +0       0
  4851 ;;Total ram usage:        0 bytes
  4852 ;; Hardware stack levels used: 1
  4853 ;; Hardware stack levels required when called: 6
  4854 ;; This function calls:
  4855 ;;		_INT_SetInterruptHandler
  4856 ;; This function is called by:
  4857 ;;		_SYSTEM_Initialize
  4858 ;;		_main
  4859 ;; This function uses a non-reentrant model
  4860 ;;
  4861                           
  4862                           
  4863                           ;psect for function _EXT_INT_Initialize
  4864  0FAC                     _EXT_INT_Initialize:
  4865  0FAC                     l2576:	
  4866                           ;incstack = 0
  4867                           ; Regs used in _EXT_INT_Initialize: [wreg+status,2+status,0+pclath+cstack]
  4868                           
  4869                           
  4870                           ;mcc_generated_files/ext_int.c: 77:     (PIR0bits.INTF = 0);
  4871  0FAC  014E               	movlb	14	; select bank14
  4872  0FAD  100C               	bcf	12,0	;volatile
  4873                           
  4874                           ;mcc_generated_files/ext_int.c: 78:     (INTCONbits.INTEDG = 1);
  4875  0FAE  140B               	bsf	11,0	;volatile
  4876  0FAF                     l2578:
  4877                           
  4878                           ;mcc_generated_files/ext_int.c: 80:     INT_SetInterruptHandler(INT_DefaultInterruptHand
      +                          ler);
  4879  0FAF  306B               	movlw	low _INT_DefaultInterruptHandler
  4880  0FB0  00F2               	movwf	INT_SetInterruptHandler@InterruptHandler
  4881  0FB1  300F               	movlw	high _INT_DefaultInterruptHandler
  4882  0FB2  00F3               	movwf	INT_SetInterruptHandler@InterruptHandler+1
  4883  0FB3  318F  277F  318F   	fcall	_INT_SetInterruptHandler
  4884  0FB6                     l2580:
  4885                           
  4886                           ;mcc_generated_files/ext_int.c: 81:     (PIE0bits.INTE = 1);
  4887  0FB6  014E               	movlb	14	; select bank14
  4888  0FB7  1416               	bsf	22,0	;volatile
  4889  0FB8                     l284:
  4890  0FB8  0008               	return
  4891  0FB9                     __end_of_EXT_INT_Initialize:
  4892                           
  4893                           	psect	text17
  4894  0F7F                     __ptext17:	
  4895 ;; *************** function _INT_SetInterruptHandler *****************
  4896 ;; Defined at:
  4897 ;;		line 63 in file "mcc_generated_files/ext_int.c"
  4898 ;; Parameters:    Size  Location     Type
  4899 ;;  InterruptHan    2    2[COMMON] PTR FTN()void 
  4900 ;;		 -> EXT_ISR(1), INT_DefaultInterruptHandler(1), 
  4901 ;; Auto vars:     Size  Location     Type
  4902 ;;		None
  4903 ;; Return value:  Size  Location     Type
  4904 ;;                  1    wreg      void 
  4905 ;; Registers used:
  4906 ;;		wreg
  4907 ;; Tracked objects:
  4908 ;;		On entry : 0/0
  4909 ;;		On exit  : 0/0
  4910 ;;		Unchanged: 0/0
  4911 ;; Data sizes:     COMMON   BANK0   BANK1   BANK2   BANK3   BANK4   BANK5   BANK6   BANK7   BANK8   BANK9  BANK10  BANK1
      +1  BANK12
  4912 ;;      Params:         2       0       0       0       0       0       0       0       0       0       0       0       
      +0       0
  4913 ;;      Locals:         0       0       0       0       0       0       0       0       0       0       0       0       
      +0       0
  4914 ;;      Temps:          0       0       0       0       0       0       0       0       0       0       0       0       
      +0       0
  4915 ;;      Totals:         2       0       0       0       0       0       0       0       0       0       0       0       
      +0       0
  4916 ;;Total ram usage:        2 bytes
  4917 ;; Hardware stack levels used: 1
  4918 ;; Hardware stack levels required when called: 5
  4919 ;; This function calls:
  4920 ;;		Nothing
  4921 ;; This function is called by:
  4922 ;;		_EXT_INT_Initialize
  4923 ;;		_main
  4924 ;; This function uses a non-reentrant model
  4925 ;;
  4926                           
  4927                           
  4928                           ;psect for function _INT_SetInterruptHandler
  4929  0F7F                     _INT_SetInterruptHandler:
  4930  0F7F                     l2490:	
  4931                           ;incstack = 0
  4932                           ; Regs used in _INT_SetInterruptHandler: [wreg]
  4933                           
  4934                           
  4935                           ;mcc_generated_files/ext_int.c: 64:     INT_InterruptHandler = InterruptHandler;
  4936  0F7F  0873               	movf	INT_SetInterruptHandler@InterruptHandler+1,w
  4937  0F80  0140               	movlb	0	; select bank0
  4938  0F81  00D6               	movwf	_INT_InterruptHandler+1
  4939  0F82  0872               	movf	INT_SetInterruptHandler@InterruptHandler,w
  4940  0F83  00D5               	movwf	_INT_InterruptHandler
  4941  0F84                     l278:
  4942  0F84  0008               	return
  4943  0F85                     __end_of_INT_SetInterruptHandler:
  4944                           
  4945                           	psect	intentry
  4946  0004                     __pintentry:	
  4947 ;; *************** function _INTERRUPT_InterruptManager *****************
  4948 ;; Defined at:
  4949 ;;		line 52 in file "mcc_generated_files/interrupt_manager.c"
  4950 ;; Parameters:    Size  Location     Type
  4951 ;;		None
  4952 ;; Auto vars:     Size  Location     Type
  4953 ;;		None
  4954 ;; Return value:  Size  Location     Type
  4955 ;;                  1    wreg      void 
  4956 ;; Registers used:
  4957 ;;		wreg, fsr1l, fsr1h, status,2, status,0, pclath, cstack
  4958 ;; Tracked objects:
  4959 ;;		On entry : 0/0
  4960 ;;		On exit  : 0/0
  4961 ;;		Unchanged: 0/0
  4962 ;; Data sizes:     COMMON   BANK0   BANK1   BANK2   BANK3   BANK4   BANK5   BANK6   BANK7   BANK8   BANK9  BANK10  BANK1
      +1  BANK12
  4963 ;;      Params:         0       0       0       0       0       0       0       0       0       0       0       0       
      +0       0
  4964 ;;      Locals:         0       0       0       0       0       0       0       0       0       0       0       0       
      +0       0
  4965 ;;      Temps:          0       0       0       0       0       0       0       0       0       0       0       0       
      +0       0
  4966 ;;      Totals:         0       0       0       0       0       0       0       0       0       0       0       0       
      +0       0
  4967 ;;Total ram usage:        0 bytes
  4968 ;; Hardware stack levels used: 1
  4969 ;; Hardware stack levels required when called: 4
  4970 ;; This function calls:
  4971 ;;		_INT_ISR
  4972 ;;		_TMR0_ISR
  4973 ;;		_TMR1_ISR
  4974 ;; This function is called by:
  4975 ;;		Interrupt level 1
  4976 ;; This function uses a non-reentrant model
  4977 ;;
  4978                           
  4979  0004                     _INTERRUPT_InterruptManager:
  4980                           
  4981                           ;incstack = 0
  4982  0004  147E               	bsf	int$flags,0	;set compiler interrupt flag (level 1)
  4983                           
  4984                           ; Regs used in _INTERRUPT_InterruptManager: [wreg+fsr1l+fsr1h+status,2+status,0+pclath+c
      +                          stack]
  4985  0005  3180               	pagesel	$
  4986  0006                     i1l2308:
  4987                           
  4988                           ;mcc_generated_files/interrupt_manager.c: 55:     if(PIE0bits.TMR0IE == 1 && PIR0bits.TM
      +                          R0IF == 1)
  4989  0006  014E               	movlb	14	; select bank14
  4990  0007  1E96               	btfss	22,5	;volatile
  4991  0008  280A               	goto	u133_21
  4992  0009  280B               	goto	u133_20
  4993  000A                     u133_21:
  4994  000A  2813               	goto	i1l250
  4995  000B                     u133_20:
  4996  000B                     i1l2310:
  4997  000B  1E8C               	btfss	12,5	;volatile
  4998  000C  280E               	goto	u134_21
  4999  000D  280F               	goto	u134_20
  5000  000E                     u134_21:
  5001  000E  2813               	goto	i1l250
  5002  000F                     u134_20:
  5003  000F                     i1l2312:
  5004                           
  5005                           ;mcc_generated_files/interrupt_manager.c: 56:     {;mcc_generated_files/interrupt_manage
      +                          r.c: 57:         TMR0_ISR();
  5006  000F  3187  27E0  3180   	fcall	_TMR0_ISR
  5007                           
  5008                           ;mcc_generated_files/interrupt_manager.c: 58:     }
  5009  0012  282F               	goto	i1l258
  5010  0013                     i1l250:	
  5011                           ;mcc_generated_files/interrupt_manager.c: 59:     else if(PIE0bits.INTE == 1 && PIR0bits
      +                          .INTF == 1)
  5012                           
  5013  0013  1C16               	btfss	22,0	;volatile
  5014  0014  2816               	goto	u135_21
  5015  0015  2817               	goto	u135_20
  5016  0016                     u135_21:
  5017  0016  281F               	goto	i1l252
  5018  0017                     u135_20:
  5019  0017                     i1l2314:
  5020  0017  1C0C               	btfss	12,0	;volatile
  5021  0018  281A               	goto	u136_21
  5022  0019  281B               	goto	u136_20
  5023  001A                     u136_21:
  5024  001A  281F               	goto	i1l252
  5025  001B                     u136_20:
  5026  001B                     i1l2316:
  5027                           
  5028                           ;mcc_generated_files/interrupt_manager.c: 60:     {;mcc_generated_files/interrupt_manage
      +                          r.c: 61:         INT_ISR();
  5029  001B  318F  2779  3180   	fcall	_INT_ISR
  5030                           
  5031                           ;mcc_generated_files/interrupt_manager.c: 62:     }
  5032  001E  282F               	goto	i1l258
  5033  001F                     i1l252:	
  5034                           ;mcc_generated_files/interrupt_manager.c: 63:     else if(INTCONbits.PEIE == 1)
  5035                           
  5036  001F  1F0B               	btfss	11,6	;volatile
  5037  0020  2822               	goto	u137_21
  5038  0021  2823               	goto	u137_20
  5039  0022                     u137_21:
  5040  0022  282F               	goto	i1l253
  5041  0023                     u137_20:
  5042  0023                     i1l2318:
  5043                           
  5044                           ;mcc_generated_files/interrupt_manager.c: 64:     {;mcc_generated_files/interrupt_manage
      +                          r.c: 65:         if(PIE1bits.TMR1IE == 1 && PIR1bits.TMR1IF == 1)
  5045  0023  1E97               	btfss	23,5	;volatile
  5046  0024  2826               	goto	u138_21
  5047  0025  2827               	goto	u138_20
  5048  0026                     u138_21:
  5049  0026  282F               	goto	i1l253
  5050  0027                     u138_20:
  5051  0027                     i1l2320:
  5052  0027  1E8D               	btfss	13,5	;volatile
  5053  0028  282A               	goto	u139_21
  5054  0029  282B               	goto	u139_20
  5055  002A                     u139_21:
  5056  002A  282F               	goto	i1l253
  5057  002B                     u139_20:
  5058  002B                     i1l2322:
  5059                           
  5060                           ;mcc_generated_files/interrupt_manager.c: 66:         {;mcc_generated_files/interrupt_ma
      +                          nager.c: 67:             TMR1_ISR();
  5061  002B  3187  27B4  3180   	fcall	_TMR1_ISR
  5062                           
  5063                           ;mcc_generated_files/interrupt_manager.c: 68:         }
  5064  002E  282F               	goto	i1l258
  5065  002F                     i1l253:
  5066  002F                     i1l258:
  5067  002F  107E               	bcf	int$flags,0	;clear compiler interrupt flag (level 1)
  5068  0030  0009               	retfie
  5069  0031                     __end_of_INTERRUPT_InterruptManager:
  5070                           
  5071                           	psect	text19
  5072  07B4                     __ptext19:	
  5073 ;; *************** function _TMR1_ISR *****************
  5074 ;; Defined at:
  5075 ;;		line 164 in file "mcc_generated_files/tmr1.c"
  5076 ;; Parameters:    Size  Location     Type
  5077 ;;		None
  5078 ;; Auto vars:     Size  Location     Type
  5079 ;;		None
  5080 ;; Return value:  Size  Location     Type
  5081 ;;                  1    wreg      void 
  5082 ;; Registers used:
  5083 ;;		wreg, fsr1l, fsr1h, status,2, status,0, pclath, cstack
  5084 ;; Tracked objects:
  5085 ;;		On entry : 0/0
  5086 ;;		On exit  : 0/0
  5087 ;;		Unchanged: 0/0
  5088 ;; Data sizes:     COMMON   BANK0   BANK1   BANK2   BANK3   BANK4   BANK5   BANK6   BANK7   BANK8   BANK9  BANK10  BANK1
      +1  BANK12
  5089 ;;      Params:         0       0       0       0       0       0       0       0       0       0       0       0       
      +0       0
  5090 ;;      Locals:         0       0       0       0       0       0       0       0       0       0       0       0       
      +0       0
  5091 ;;      Temps:          0       0       0       0       0       0       0       0       0       0       0       0       
      +0       0
  5092 ;;      Totals:         0       0       0       0       0       0       0       0       0       0       0       0       
      +0       0
  5093 ;;Total ram usage:        0 bytes
  5094 ;; Hardware stack levels used: 1
  5095 ;; Hardware stack levels required when called: 1
  5096 ;; This function calls:
  5097 ;;		Absolute function
  5098 ;;		_TMR1_DefaultInterruptHandler
  5099 ;;		_TMR1_ISR_
  5100 ;;		_TMR1_WriteTimer
  5101 ;; This function is called by:
  5102 ;;		_INTERRUPT_InterruptManager
  5103 ;; This function uses a non-reentrant model
  5104 ;;
  5105                           
  5106                           
  5107                           ;psect for function _TMR1_ISR
  5108  07B4                     _TMR1_ISR:
  5109  07B4                     i1l2258:	
  5110                           ;incstack = 0
  5111                           ; Regs used in _TMR1_ISR: [wreg+fsr1l+fsr1h+status,2+status,0+pclath+cstack]
  5112                           
  5113                           
  5114                           ;mcc_generated_files/tmr1.c: 168:     PIR1bits.TMR1IF = 0;
  5115  07B4  014E               	movlb	14	; select bank14
  5116  07B5  128D               	bcf	13,5	;volatile
  5117  07B6                     i1l2260:
  5118                           
  5119                           ;mcc_generated_files/tmr1.c: 169:     TMR1_WriteTimer(timer1ReloadVal);
  5120  07B6  0140               	movlb	0	; select bank0
  5121  07B7  0852               	movf	_timer1ReloadVal+1,w	;volatile
  5122  07B8  00F1               	movwf	TMR1_WriteTimer@timerVal+1
  5123  07B9  0851               	movf	_timer1ReloadVal,w	;volatile
  5124  07BA  00F0               	movwf	TMR1_WriteTimer@timerVal
  5125  07BB  318F  27EF  3187   	fcall	_TMR1_WriteTimer
  5126  07BE                     i1l2262:
  5127                           
  5128                           ;mcc_generated_files/tmr1.c: 171:     if(TMR1_InterruptHandler)
  5129  07BE  0140               	movlb	0	; select bank0
  5130  07BF  084F               	movf	_TMR1_InterruptHandler,w
  5131  07C0  0450               	iorwf	_TMR1_InterruptHandler+1,w
  5132  07C1  1903               	btfsc	3,2
  5133  07C2  2FC4               	goto	u126_21
  5134  07C3  2FC5               	goto	u126_20
  5135  07C4                     u126_21:
  5136  07C4  2FCA               	goto	i1l392
  5137  07C5                     u126_20:
  5138  07C5                     i1l2264:
  5139                           
  5140                           ;mcc_generated_files/tmr1.c: 172:     {;mcc_generated_files/tmr1.c: 173:         TMR1_In
      +                          terruptHandler();
  5141  07C5  0850               	movf	_TMR1_InterruptHandler+1,w
  5142  07C6  008A               	movwf	10
  5143  07C7  084F               	movf	_TMR1_InterruptHandler,w
  5144  07C8  000A               	callw
  5145  07C9  3187               	pagesel	$
  5146  07CA                     i1l392:
  5147  07CA  0008               	return
  5148  07CB                     __end_of_TMR1_ISR:
  5149                           
  5150                           	psect	text20
  5151  0FEF                     __ptext20:	
  5152 ;; *************** function _TMR1_WriteTimer *****************
  5153 ;; Defined at:
  5154 ;;		line 127 in file "mcc_generated_files/tmr1.c"
  5155 ;; Parameters:    Size  Location     Type
  5156 ;;  timerVal        2    0[COMMON] unsigned short 
  5157 ;; Auto vars:     Size  Location     Type
  5158 ;;		None
  5159 ;; Return value:  Size  Location     Type
  5160 ;;                  1    wreg      void 
  5161 ;; Registers used:
  5162 ;;		wreg, status,2
  5163 ;; Tracked objects:
  5164 ;;		On entry : 0/0
  5165 ;;		On exit  : 0/0
  5166 ;;		Unchanged: 0/0
  5167 ;; Data sizes:     COMMON   BANK0   BANK1   BANK2   BANK3   BANK4   BANK5   BANK6   BANK7   BANK8   BANK9  BANK10  BANK1
      +1  BANK12
  5168 ;;      Params:         2       0       0       0       0       0       0       0       0       0       0       0       
      +0       0
  5169 ;;      Locals:         0       0       0       0       0       0       0       0       0       0       0       0       
      +0       0
  5170 ;;      Temps:          0       0       0       0       0       0       0       0       0       0       0       0       
      +0       0
  5171 ;;      Totals:         2       0       0       0       0       0       0       0       0       0       0       0       
      +0       0
  5172 ;;Total ram usage:        2 bytes
  5173 ;; Hardware stack levels used: 1
  5174 ;; This function calls:
  5175 ;;		Nothing
  5176 ;; This function is called by:
  5177 ;;		_TMR1_ISR
  5178 ;;		_TMR1_Reload
  5179 ;; This function uses a non-reentrant model
  5180 ;;
  5181                           
  5182                           
  5183                           ;psect for function _TMR1_WriteTimer
  5184  0FEF                     _TMR1_WriteTimer:
  5185  0FEF                     i1l2014:	
  5186                           ;incstack = 0
  5187                           ; Regs used in _TMR1_WriteTimer: [wreg+status,2]
  5188                           
  5189                           
  5190                           ;mcc_generated_files/tmr1.c: 127: void TMR1_WriteTimer(uint16_t timerVal);mcc_generated_
      +                          files/tmr1.c: 128: {;mcc_generated_files/tmr1.c: 129:     if (T1CONbits.NOT_SYNC == 1)
  5191  0FEF  0144               	movlb	4	; select bank4
  5192  0FF0  1D0E               	btfss	14,2	;volatile
  5193  0FF1  2FF3               	goto	u84_21
  5194  0FF2  2FF4               	goto	u84_20
  5195  0FF3                     u84_21:
  5196  0FF3  2FFB               	goto	i1l2024
  5197  0FF4                     u84_20:
  5198  0FF4                     i1l2016:
  5199                           
  5200                           ;mcc_generated_files/tmr1.c: 130:     {;mcc_generated_files/tmr1.c: 132:         T1CONbi
      +                          ts.TMR1ON = 0;
  5201  0FF4  100E               	bcf	14,0	;volatile
  5202  0FF5                     i1l2018:
  5203                           
  5204                           ;mcc_generated_files/tmr1.c: 135:         TMR1H = (uint8_t)(timerVal >> 8);
  5205  0FF5  0871               	movf	TMR1_WriteTimer@timerVal+1,w
  5206  0FF6  008D               	movwf	13	;volatile
  5207  0FF7                     i1l2020:
  5208                           
  5209                           ;mcc_generated_files/tmr1.c: 136:         TMR1L = (uint8_t)timerVal;
  5210  0FF7  0870               	movf	TMR1_WriteTimer@timerVal,w
  5211  0FF8  008C               	movwf	12	;volatile
  5212  0FF9                     i1l2022:
  5213                           
  5214                           ;mcc_generated_files/tmr1.c: 139:         T1CONbits.TMR1ON =1;
  5215  0FF9  140E               	bsf	14,0	;volatile
  5216                           
  5217                           ;mcc_generated_files/tmr1.c: 140:     }
  5218  0FFA  2FFF               	goto	i1l379
  5219  0FFB                     i1l2024:
  5220                           
  5221                           ;mcc_generated_files/tmr1.c: 142:     {;mcc_generated_files/tmr1.c: 144:         TMR1H =
      +                           (uint8_t)(timerVal >> 8);
  5222  0FFB  0871               	movf	TMR1_WriteTimer@timerVal+1,w
  5223  0FFC  008D               	movwf	13	;volatile
  5224  0FFD                     i1l2026:
  5225                           
  5226                           ;mcc_generated_files/tmr1.c: 145:         TMR1L = (uint8_t)timerVal;
  5227  0FFD  0870               	movf	TMR1_WriteTimer@timerVal,w
  5228  0FFE  008C               	movwf	12	;volatile
  5229  0FFF                     i1l379:
  5230  0FFF  0008               	return
  5231  1000                     __end_of_TMR1_WriteTimer:
  5232                           
  5233                           	psect	text21
  5234  0003                     __ptext21:	
  5235 ;; *************** function _TMR1_DefaultInterruptHandler *****************
  5236 ;; Defined at:
  5237 ;;		line 182 in file "mcc_generated_files/tmr1.c"
  5238 ;; Parameters:    Size  Location     Type
  5239 ;;		None
  5240 ;; Auto vars:     Size  Location     Type
  5241 ;;		None
  5242 ;; Return value:  Size  Location     Type
  5243 ;;                  1    wreg      void 
  5244 ;; Registers used:
  5245 ;;		None
  5246 ;; Tracked objects:
  5247 ;;		On entry : 0/0
  5248 ;;		On exit  : 0/0
  5249 ;;		Unchanged: 0/0
  5250 ;; Data sizes:     COMMON   BANK0   BANK1   BANK2   BANK3   BANK4   BANK5   BANK6   BANK7   BANK8   BANK9  BANK10  BANK1
      +1  BANK12
  5251 ;;      Params:         0       0       0       0       0       0       0       0       0       0       0       0       
      +0       0
  5252 ;;      Locals:         0       0       0       0       0       0       0       0       0       0       0       0       
      +0       0
  5253 ;;      Temps:          0       0       0       0       0       0       0       0       0       0       0       0       
      +0       0
  5254 ;;      Totals:         0       0       0       0       0       0       0       0       0       0       0       0       
      +0       0
  5255 ;;Total ram usage:        0 bytes
  5256 ;; Hardware stack levels used: 1
  5257 ;; This function calls:
  5258 ;;		Nothing
  5259 ;; This function is called by:
  5260 ;;		_TMR1_Initialize
  5261 ;;		_TMR1_ISR
  5262 ;; This function uses a non-reentrant model
  5263 ;;
  5264                           
  5265                           
  5266                           ;psect for function _TMR1_DefaultInterruptHandler
  5267  0003                     _TMR1_DefaultInterruptHandler:
  5268  0003                     i1l398:	
  5269                           ;incstack = 0
  5270                           ; Regs used in _TMR1_DefaultInterruptHandler: []
  5271                           
  5272  0003  0008               	return
  5273  0004                     __end_of_TMR1_DefaultInterruptHandler:
  5274                           
  5275                           	psect	text22
  5276  0079                     __ptext22:	
  5277 ;; *************** function _TMR1_ISR_ *****************
  5278 ;; Defined at:
  5279 ;;		line 462 in file "main.c"
  5280 ;; Parameters:    Size  Location     Type
  5281 ;;		None
  5282 ;; Auto vars:     Size  Location     Type
  5283 ;;  lights          1   17[BANK0 ] unsigned char 
  5284 ;;  i               2   22[BANK0 ] int 
  5285 ;;  lights          1    0[BANK0 ] unsigned char 
  5286 ;;  i               2    9[BANK0 ] int 
  5287 ;;  i               2   15[BANK0 ] int 
  5288 ;;  lights          1    1[BANK0 ] unsigned char 
  5289 ;;  i               2   18[BANK0 ] int 
  5290 ;;  i               2    7[BANK0 ] int 
  5291 ;;  i               2    5[BANK0 ] int 
  5292 ;;  lights          1    2[BANK0 ] unsigned char 
  5293 ;;  i               2    3[BANK0 ] int 
  5294 ;;  i               2   13[BANK0 ] int 
  5295 ;;  i               2   20[BANK0 ] int 
  5296 ;;  i               2   11[BANK0 ] int 
  5297 ;; Return value:  Size  Location     Type
  5298 ;;                  1    wreg      void 
  5299 ;; Registers used:
  5300 ;;		wreg, fsr1l, fsr1h, status,2, status,0
  5301 ;; Tracked objects:
  5302 ;;		On entry : 0/0
  5303 ;;		On exit  : 0/0
  5304 ;;		Unchanged: 0/0
  5305 ;; Data sizes:     COMMON   BANK0   BANK1   BANK2   BANK3   BANK4   BANK5   BANK6   BANK7   BANK8   BANK9  BANK10  BANK1
      +1  BANK12
  5306 ;;      Params:         0       0       0       0       0       0       0       0       0       0       0       0       
      +0       0
  5307 ;;      Locals:         0      24       0       0       0       0       0       0       0       0       0       0       
      +0       0
  5308 ;;      Temps:          2       0       0       0       0       0       0       0       0       0       0       0       
      +0       0
  5309 ;;      Totals:         2      24       0       0       0       0       0       0       0       0       0       0       
      +0       0
  5310 ;;Total ram usage:       26 bytes
  5311 ;; Hardware stack levels used: 1
  5312 ;; This function calls:
  5313 ;;		Nothing
  5314 ;; This function is called by:
  5315 ;;		_main
  5316 ;;		_TMR1_ISR
  5317 ;; This function uses a non-reentrant model
  5318 ;;
  5319                           
  5320                           
  5321                           ;psect for function _TMR1_ISR_
  5322  0079                     _TMR1_ISR_:
  5323  0079                     i1l2036:	
  5324                           ;incstack = 0
  5325                           ; Regs used in _TMR1_ISR_: [wreg+fsr1l+fsr1h+status,2+status,0]
  5326                           
  5327                           
  5328                           ;main.c: 464:     count++;
  5329  0079  3001               	movlw	1
  5330  007A  0140               	movlb	0	; select bank0
  5331  007B  07C6               	addwf	_count,f
  5332  007C  3000               	movlw	0
  5333  007D  3DC7               	addwfc	_count+1,f
  5334  007E                     i1l2038:
  5335                           
  5336                           ;main.c: 467:     if (silent_night_playing)
  5337  007E  084E               	movf	_silent_night_playing,w
  5338  007F  1903               	btfsc	3,2
  5339  0080  2882               	goto	u85_21
  5340  0081  2883               	goto	u85_20
  5341  0082                     u85_21:
  5342  0082  294E               	goto	i1l2086
  5343  0083                     u85_20:
  5344  0083                     i1l2040:
  5345                           
  5346                           ;main.c: 468:     {;main.c: 469:         if (count < 24 || ((count > 48) && (count < 96)
      +                          ))
  5347  0083  0847               	movf	_count+1,w
  5348  0084  3A80               	xorlw	128
  5349  0085  00F0               	movwf	??_TMR1_ISR_
  5350  0086  3080               	movlw	128
  5351  0087  0270               	subwf	??_TMR1_ISR_,w
  5352  0088  1D03               	skipz
  5353  0089  288C               	goto	u86_25
  5354  008A  3018               	movlw	24
  5355  008B  0246               	subwf	_count,w
  5356  008C                     u86_25:
  5357  008C  1C03               	skipc
  5358  008D  288F               	goto	u86_21
  5359  008E  2890               	goto	u86_20
  5360  008F                     u86_21:
  5361  008F  28AC               	goto	i1l2046
  5362  0090                     u86_20:
  5363  0090                     i1l2042:
  5364  0090  0140               	movlb	0	; select bank0
  5365  0091  0847               	movf	_count+1,w
  5366  0092  3A80               	xorlw	128
  5367  0093  00F0               	movwf	??_TMR1_ISR_
  5368  0094  3080               	movlw	128
  5369  0095  0270               	subwf	??_TMR1_ISR_,w
  5370  0096  1D03               	skipz
  5371  0097  289A               	goto	u87_25
  5372  0098  3031               	movlw	49
  5373  0099  0246               	subwf	_count,w
  5374  009A                     u87_25:
  5375  009A  1C03               	skipc
  5376  009B  289D               	goto	u87_21
  5377  009C  289E               	goto	u87_20
  5378  009D                     u87_21:
  5379  009D  28ED               	goto	i1l2060
  5380  009E                     u87_20:
  5381  009E                     i1l2044:
  5382  009E  0140               	movlb	0	; select bank0
  5383  009F  0847               	movf	_count+1,w
  5384  00A0  3A80               	xorlw	128
  5385  00A1  00F0               	movwf	??_TMR1_ISR_
  5386  00A2  3080               	movlw	128
  5387  00A3  0270               	subwf	??_TMR1_ISR_,w
  5388  00A4  1D03               	skipz
  5389  00A5  28A8               	goto	u88_25
  5390  00A6  3060               	movlw	96
  5391  00A7  0246               	subwf	_count,w
  5392  00A8                     u88_25:
  5393  00A8  1803               	skipnc
  5394  00A9  28AB               	goto	u88_21
  5395  00AA  28AC               	goto	u88_20
  5396  00AB                     u88_21:
  5397  00AB  28ED               	goto	i1l2060
  5398  00AC                     u88_20:
  5399  00AC                     i1l2046:
  5400                           
  5401                           ;main.c: 470:         {;main.c: 471:             if (last_note != silent_night[count])
  5402  00AC  3066               	movlw	102
  5403  00AD  00F0               	movwf	??_TMR1_ISR_
  5404  00AE  3023               	movlw	35
  5405  00AF  00F1               	movwf	??_TMR1_ISR_+1
  5406  00B0  0140               	movlb	0	; select bank0
  5407  00B1  0846               	movf	_count,w
  5408  00B2  0770               	addwf	??_TMR1_ISR_,w
  5409  00B3  0086               	movwf	6
  5410  00B4  0847               	movf	_count+1,w
  5411  00B5  3D71               	addwfc	??_TMR1_ISR_+1,w
  5412  00B6  0087               	movwf	7
  5413  00B7  0801               	movf	1,w
  5414  00B8  064A               	xorwf	_last_note,w
  5415  00B9  1903               	skipnz
  5416  00BA  28BC               	goto	u89_21
  5417  00BB  28BD               	goto	u89_20
  5418  00BC                     u89_21:
  5419  00BC  294E               	goto	i1l2086
  5420  00BD                     u89_20:
  5421  00BD                     i1l2048:
  5422                           
  5423                           ;main.c: 472:             {;main.c: 473:                 for (int i = 0; i < 7; i++)
  5424  00BD  01B2               	clrf	TMR1_ISR_@i
  5425  00BE  01B3               	clrf	TMR1_ISR_@i+1
  5426  00BF                     i1l2054:
  5427                           
  5428                           ;main.c: 474:                 {;main.c: 475:                     uint8_t lights = light_
      +                          array[i] >> 7;
  5429  00BF  0140               	movlb	0	; select bank0
  5430  00C0  0832               	movf	TMR1_ISR_@i,w
  5431  00C1  3E3F               	addlw	(low (_light_array| 0))& (0+255)
  5432  00C2  0086               	movwf	6
  5433  00C3  0187               	clrf	7
  5434  00C4  0801               	movf	1,w
  5435  00C5  00F0               	movwf	??_TMR1_ISR_
  5436  00C6  3007               	movlw	7
  5437  00C7                     u90_25:
  5438  00C7  36F0               	lsrf	??_TMR1_ISR_,f
  5439  00C8  0B89               	decfsz	9,f
  5440  00C9  28C7               	goto	u90_25
  5441  00CA  0870               	movf	??_TMR1_ISR_,w
  5442  00CB  00F1               	movwf	??_TMR1_ISR_+1
  5443  00CC  0871               	movf	??_TMR1_ISR_+1,w
  5444  00CD  00A0               	movwf	TMR1_ISR_@lights
  5445                           
  5446                           ;main.c: 476:                     light_array[i] = (light_array[i] << 1) + lights;
  5447  00CE  0832               	movf	TMR1_ISR_@i,w
  5448  00CF  3E3F               	addlw	(low (_light_array| 0))& (0+255)
  5449  00D0  0086               	movwf	6
  5450  00D1  0187               	clrf	7
  5451  00D2  3501               	lslf	1,w
  5452  00D3  0720               	addwf	TMR1_ISR_@lights,w
  5453  00D4  00F0               	movwf	??_TMR1_ISR_
  5454  00D5  0832               	movf	TMR1_ISR_@i,w
  5455  00D6  3E3F               	addlw	(low (_light_array| 0))& (0+255)
  5456  00D7  0086               	movwf	6
  5457  00D8  0187               	clrf	7
  5458  00D9  0870               	movf	??_TMR1_ISR_,w
  5459  00DA  0081               	movwf	1
  5460  00DB                     i1l2056:
  5461                           
  5462                           ;main.c: 477:                 }
  5463  00DB  3001               	movlw	1
  5464  00DC  07B2               	addwf	TMR1_ISR_@i,f
  5465  00DD  3000               	movlw	0
  5466  00DE  3DB3               	addwfc	TMR1_ISR_@i+1,f
  5467  00DF                     i1l2058:
  5468  00DF  0833               	movf	TMR1_ISR_@i+1,w
  5469  00E0  3A80               	xorlw	128
  5470  00E1  00F0               	movwf	??_TMR1_ISR_
  5471  00E2  3080               	movlw	128
  5472  00E3  0270               	subwf	??_TMR1_ISR_,w
  5473  00E4  1D03               	skipz
  5474  00E5  28E8               	goto	u91_25
  5475  00E6  3007               	movlw	7
  5476  00E7  0232               	subwf	TMR1_ISR_@i,w
  5477  00E8                     u91_25:
  5478  00E8  1C03               	skipc
  5479  00E9  28EB               	goto	u91_21
  5480  00EA  28EC               	goto	u91_20
  5481  00EB                     u91_21:
  5482  00EB  28BF               	goto	i1l2054
  5483  00EC                     u91_20:
  5484  00EC  294E               	goto	i1l2086
  5485  00ED                     i1l2060:
  5486  00ED  0140               	movlb	0	; select bank0
  5487  00EE  0847               	movf	_count+1,w
  5488  00EF  3A80               	xorlw	128
  5489  00F0  00F0               	movwf	??_TMR1_ISR_
  5490  00F1  3080               	movlw	128
  5491  00F2  0270               	subwf	??_TMR1_ISR_,w
  5492  00F3  1D03               	skipz
  5493  00F4  28F7               	goto	u92_25
  5494  00F5  307F               	movlw	127
  5495  00F6  0246               	subwf	_count,w
  5496  00F7                     u92_25:
  5497  00F7  1C03               	skipc
  5498  00F8  28FA               	goto	u92_21
  5499  00F9  28FB               	goto	u92_20
  5500  00FA                     u92_21:
  5501  00FA  291E               	goto	i1l2074
  5502  00FB                     u92_20:
  5503  00FB                     i1l2062:
  5504                           
  5505                           ;main.c: 481:         {;main.c: 482:             for (int i = 0; i < 7; i++)
  5506  00FB  0140               	movlb	0	; select bank0
  5507  00FC  01AB               	clrf	TMR1_ISR_@i_1175
  5508  00FD  01AC               	clrf	TMR1_ISR_@i_1175+1
  5509  00FE                     i1l2068:
  5510                           
  5511                           ;main.c: 483:             {;main.c: 484:                 light_array[i] = (light_array[i
      +                          ] << 1) + 1;
  5512  00FE  0140               	movlb	0	; select bank0
  5513  00FF  082B               	movf	TMR1_ISR_@i_1175,w
  5514  0100  3E3F               	addlw	(low (_light_array| 0))& (0+255)
  5515  0101  0086               	movwf	6
  5516  0102  0187               	clrf	7
  5517  0103  1403               	setc
  5518  0104  0D01               	rlf	1,w
  5519  0105  00F0               	movwf	??_TMR1_ISR_
  5520  0106  082B               	movf	TMR1_ISR_@i_1175,w
  5521  0107  3E3F               	addlw	(low (_light_array| 0))& (0+255)
  5522  0108  0086               	movwf	6
  5523  0109  0187               	clrf	7
  5524  010A  0870               	movf	??_TMR1_ISR_,w
  5525  010B  0081               	movwf	1
  5526  010C                     i1l2070:
  5527                           
  5528                           ;main.c: 485:             }
  5529  010C  3001               	movlw	1
  5530  010D  07AB               	addwf	TMR1_ISR_@i_1175,f
  5531  010E  3000               	movlw	0
  5532  010F  3DAC               	addwfc	TMR1_ISR_@i_1175+1,f
  5533  0110                     i1l2072:
  5534  0110  082C               	movf	TMR1_ISR_@i_1175+1,w
  5535  0111  3A80               	xorlw	128
  5536  0112  00F0               	movwf	??_TMR1_ISR_
  5537  0113  3080               	movlw	128
  5538  0114  0270               	subwf	??_TMR1_ISR_,w
  5539  0115  1D03               	skipz
  5540  0116  2919               	goto	u93_25
  5541  0117  3007               	movlw	7
  5542  0118  022B               	subwf	TMR1_ISR_@i_1175,w
  5543  0119                     u93_25:
  5544  0119  1C03               	skipc
  5545  011A  291C               	goto	u93_21
  5546  011B  291D               	goto	u93_20
  5547  011C                     u93_21:
  5548  011C  28FE               	goto	i1l2068
  5549  011D                     u93_20:
  5550  011D  294E               	goto	i1l2086
  5551  011E                     i1l2074:
  5552                           
  5553                           ;main.c: 488:         {;main.c: 489:             for (int i = 0; i < 7; i++)
  5554  011E  0140               	movlb	0	; select bank0
  5555  011F  01B4               	clrf	TMR1_ISR_@i_1176
  5556  0120  01B5               	clrf	TMR1_ISR_@i_1176+1
  5557  0121                     i1l2080:
  5558                           
  5559                           ;main.c: 490:             {;main.c: 491:                 uint8_t lights = light_array[i]
      +                           >> 7;
  5560  0121  0140               	movlb	0	; select bank0
  5561  0122  0834               	movf	TMR1_ISR_@i_1176,w
  5562  0123  3E3F               	addlw	(low (_light_array| 0))& (0+255)
  5563  0124  0086               	movwf	6
  5564  0125  0187               	clrf	7
  5565  0126  0801               	movf	1,w
  5566  0127  00F0               	movwf	??_TMR1_ISR_
  5567  0128  3007               	movlw	7
  5568  0129                     u94_25:
  5569  0129  36F0               	lsrf	??_TMR1_ISR_,f
  5570  012A  0B89               	decfsz	9,f
  5571  012B  2929               	goto	u94_25
  5572  012C  0870               	movf	??_TMR1_ISR_,w
  5573  012D  00F1               	movwf	??_TMR1_ISR_+1
  5574  012E  0871               	movf	??_TMR1_ISR_+1,w
  5575  012F  00A1               	movwf	TMR1_ISR_@lights_1177
  5576                           
  5577                           ;main.c: 492:                 light_array[i] = (light_array[i] << 1) + lights;
  5578  0130  0834               	movf	TMR1_ISR_@i_1176,w
  5579  0131  3E3F               	addlw	(low (_light_array| 0))& (0+255)
  5580  0132  0086               	movwf	6
  5581  0133  0187               	clrf	7
  5582  0134  3501               	lslf	1,w
  5583  0135  0721               	addwf	TMR1_ISR_@lights_1177,w
  5584  0136  00F0               	movwf	??_TMR1_ISR_
  5585  0137  0834               	movf	TMR1_ISR_@i_1176,w
  5586  0138  3E3F               	addlw	(low (_light_array| 0))& (0+255)
  5587  0139  0086               	movwf	6
  5588  013A  0187               	clrf	7
  5589  013B  0870               	movf	??_TMR1_ISR_,w
  5590  013C  0081               	movwf	1
  5591  013D                     i1l2082:
  5592                           
  5593                           ;main.c: 493:             }
  5594  013D  3001               	movlw	1
  5595  013E  07B4               	addwf	TMR1_ISR_@i_1176,f
  5596  013F  3000               	movlw	0
  5597  0140  3DB5               	addwfc	TMR1_ISR_@i_1176+1,f
  5598  0141                     i1l2084:
  5599  0141  0835               	movf	TMR1_ISR_@i_1176+1,w
  5600  0142  3A80               	xorlw	128
  5601  0143  00F0               	movwf	??_TMR1_ISR_
  5602  0144  3080               	movlw	128
  5603  0145  0270               	subwf	??_TMR1_ISR_,w
  5604  0146  1D03               	skipz
  5605  0147  294A               	goto	u95_25
  5606  0148  3007               	movlw	7
  5607  0149  0234               	subwf	TMR1_ISR_@i_1176,w
  5608  014A                     u95_25:
  5609  014A  1C03               	skipc
  5610  014B  294D               	goto	u95_21
  5611  014C  294E               	goto	u95_20
  5612  014D                     u95_21:
  5613  014D  2921               	goto	i1l2080
  5614  014E                     u95_20:
  5615  014E                     i1l2086:
  5616                           
  5617                           ;main.c: 498:     if (song2_playing)
  5618  014E  0140               	movlb	0	; select bank0
  5619  014F  084C               	movf	_song2_playing,w
  5620  0150  1903               	btfsc	3,2
  5621  0151  2953               	goto	u96_21
  5622  0152  2954               	goto	u96_20
  5623  0153                     u96_21:
  5624  0153  29D8               	goto	i1l2130
  5625  0154                     u96_20:
  5626  0154                     i1l2088:
  5627                           
  5628                           ;main.c: 499:     {;main.c: 501:         if (count < 8)
  5629  0154  0847               	movf	_count+1,w
  5630  0155  3A80               	xorlw	128
  5631  0156  00F0               	movwf	??_TMR1_ISR_
  5632  0157  3080               	movlw	128
  5633  0158  0270               	subwf	??_TMR1_ISR_,w
  5634  0159  1D03               	skipz
  5635  015A  295D               	goto	u97_25
  5636  015B  3008               	movlw	8
  5637  015C  0246               	subwf	_count,w
  5638  015D                     u97_25:
  5639  015D  1803               	skipnc
  5640  015E  2960               	goto	u97_21
  5641  015F  2961               	goto	u97_20
  5642  0160                     u97_21:
  5643  0160  2983               	goto	i1l2102
  5644  0161                     u97_20:
  5645  0161                     i1l2090:
  5646                           
  5647                           ;main.c: 502:         {;main.c: 503:           for (int i = 0; i < 7; i++)
  5648  0161  0140               	movlb	0	; select bank0
  5649  0162  01AD               	clrf	TMR1_ISR_@i_1178
  5650  0163  01AE               	clrf	TMR1_ISR_@i_1178+1
  5651  0164                     i1l2096:
  5652                           
  5653                           ;main.c: 504:             {;main.c: 505:                 light_array[i] = (light_array[i
      +                          ] << 1);
  5654  0164  0140               	movlb	0	; select bank0
  5655  0165  082D               	movf	TMR1_ISR_@i_1178,w
  5656  0166  3E3F               	addlw	(low (_light_array| 0))& (0+255)
  5657  0167  0086               	movwf	6
  5658  0168  0187               	clrf	7
  5659  0169  3501               	lslf	1,w
  5660  016A  00F0               	movwf	??_TMR1_ISR_
  5661  016B  082D               	movf	TMR1_ISR_@i_1178,w
  5662  016C  3E3F               	addlw	(low (_light_array| 0))& (0+255)
  5663  016D  0086               	movwf	6
  5664  016E  0187               	clrf	7
  5665  016F  0870               	movf	??_TMR1_ISR_,w
  5666  0170  0081               	movwf	1
  5667  0171                     i1l2098:
  5668                           
  5669                           ;main.c: 506:             }
  5670  0171  3001               	movlw	1
  5671  0172  07AD               	addwf	TMR1_ISR_@i_1178,f
  5672  0173  3000               	movlw	0
  5673  0174  3DAE               	addwfc	TMR1_ISR_@i_1178+1,f
  5674  0175                     i1l2100:
  5675  0175  082E               	movf	TMR1_ISR_@i_1178+1,w
  5676  0176  3A80               	xorlw	128
  5677  0177  00F0               	movwf	??_TMR1_ISR_
  5678  0178  3080               	movlw	128
  5679  0179  0270               	subwf	??_TMR1_ISR_,w
  5680  017A  1D03               	skipz
  5681  017B  297E               	goto	u98_25
  5682  017C  3007               	movlw	7
  5683  017D  022D               	subwf	TMR1_ISR_@i_1178,w
  5684  017E                     u98_25:
  5685  017E  1C03               	skipc
  5686  017F  2981               	goto	u98_21
  5687  0180  2982               	goto	u98_20
  5688  0181                     u98_21:
  5689  0181  2964               	goto	i1l2096
  5690  0182                     u98_20:
  5691  0182  29D8               	goto	i1l2130
  5692  0183                     i1l2102:
  5693  0183  3008               	movlw	8
  5694  0184  0140               	movlb	0	; select bank0
  5695  0185  0646               	xorwf	_count,w
  5696  0186  0447               	iorwf	_count+1,w
  5697  0187  1D03               	btfss	3,2
  5698  0188  298A               	goto	u99_21
  5699  0189  298B               	goto	u99_20
  5700  018A                     u99_21:
  5701  018A  29A8               	goto	i1l589
  5702  018B                     u99_20:
  5703  018B                     i1l2104:
  5704                           
  5705                           ;main.c: 509:         {;main.c: 510:             for (int i = 0; i < 7; i++)
  5706  018B  01A3               	clrf	TMR1_ISR_@i_1179
  5707  018C  01A4               	clrf	TMR1_ISR_@i_1179+1
  5708  018D                     i1l2110:
  5709                           
  5710                           ;main.c: 511:             {;main.c: 512:                 light_array[i] = 0xAA;
  5711  018D  30AA               	movlw	170
  5712  018E  00F0               	movwf	??_TMR1_ISR_
  5713  018F  0140               	movlb	0	; select bank0
  5714  0190  0823               	movf	TMR1_ISR_@i_1179,w
  5715  0191  3E3F               	addlw	(low (_light_array| 0))& (0+255)
  5716  0192  0086               	movwf	6
  5717  0193  0187               	clrf	7
  5718  0194  0870               	movf	??_TMR1_ISR_,w
  5719  0195  0081               	movwf	1
  5720  0196                     i1l2112:
  5721                           
  5722                           ;main.c: 513:             }
  5723  0196  3001               	movlw	1
  5724  0197  07A3               	addwf	TMR1_ISR_@i_1179,f
  5725  0198  3000               	movlw	0
  5726  0199  3DA4               	addwfc	TMR1_ISR_@i_1179+1,f
  5727  019A                     i1l2114:
  5728  019A  0824               	movf	TMR1_ISR_@i_1179+1,w
  5729  019B  3A80               	xorlw	128
  5730  019C  00F0               	movwf	??_TMR1_ISR_
  5731  019D  3080               	movlw	128
  5732  019E  0270               	subwf	??_TMR1_ISR_,w
  5733  019F  1D03               	skipz
  5734  01A0  29A3               	goto	u100_25
  5735  01A1  3007               	movlw	7
  5736  01A2  0223               	subwf	TMR1_ISR_@i_1179,w
  5737  01A3                     u100_25:
  5738  01A3  1C03               	skipc
  5739  01A4  29A6               	goto	u100_21
  5740  01A5  29A7               	goto	u100_20
  5741  01A6                     u100_21:
  5742  01A6  298D               	goto	i1l2110
  5743  01A7                     u100_20:
  5744  01A7  29D8               	goto	i1l2130
  5745  01A8                     i1l589:	
  5746                           ;main.c: 515:         else
  5747                           
  5748                           
  5749                           ;main.c: 516:         {;main.c: 517:             if (count & 0x01)
  5750  01A8  1C46               	btfss	_count,0
  5751  01A9  29AB               	goto	u101_21
  5752  01AA  29AC               	goto	u101_20
  5753  01AB                     u101_21:
  5754  01AB  29D8               	goto	i1l588
  5755  01AC                     u101_20:
  5756  01AC                     i1l2116:
  5757                           
  5758                           ;main.c: 518:             {;main.c: 519:                 uint8_t lights = light_array[0]
      +                           >> 7;
  5759  01AC  083F               	movf	_light_array,w
  5760  01AD  00F0               	movwf	??_TMR1_ISR_
  5761  01AE  3007               	movlw	7
  5762  01AF                     u102_25:
  5763  01AF  36F0               	lsrf	??_TMR1_ISR_,f
  5764  01B0  0B89               	decfsz	9,f
  5765  01B1  29AF               	goto	u102_25
  5766  01B2  0870               	movf	??_TMR1_ISR_,w
  5767  01B3  00F1               	movwf	??_TMR1_ISR_+1
  5768  01B4  0871               	movf	??_TMR1_ISR_+1,w
  5769  01B5  00A2               	movwf	TMR1_ISR_@lights_1180
  5770  01B6                     i1l2118:
  5771                           
  5772                           ;main.c: 520:                 for (int i = 0; i < 7; i++)
  5773  01B6  01AF               	clrf	TMR1_ISR_@i_1181
  5774  01B7  01B0               	clrf	TMR1_ISR_@i_1181+1
  5775  01B8                     i1l2124:
  5776                           
  5777                           ;main.c: 521:                 {;main.c: 522:                     light_array[i] = (light
      +                          _array[i] << 1) + lights;
  5778  01B8  0140               	movlb	0	; select bank0
  5779  01B9  082F               	movf	TMR1_ISR_@i_1181,w
  5780  01BA  3E3F               	addlw	(low (_light_array| 0))& (0+255)
  5781  01BB  0086               	movwf	6
  5782  01BC  0187               	clrf	7
  5783  01BD  3501               	lslf	1,w
  5784  01BE  0722               	addwf	TMR1_ISR_@lights_1180,w
  5785  01BF  00F0               	movwf	??_TMR1_ISR_
  5786  01C0  082F               	movf	TMR1_ISR_@i_1181,w
  5787  01C1  3E3F               	addlw	(low (_light_array| 0))& (0+255)
  5788  01C2  0086               	movwf	6
  5789  01C3  0187               	clrf	7
  5790  01C4  0870               	movf	??_TMR1_ISR_,w
  5791  01C5  0081               	movwf	1
  5792  01C6                     i1l2126:
  5793                           
  5794                           ;main.c: 523:                 }
  5795  01C6  3001               	movlw	1
  5796  01C7  07AF               	addwf	TMR1_ISR_@i_1181,f
  5797  01C8  3000               	movlw	0
  5798  01C9  3DB0               	addwfc	TMR1_ISR_@i_1181+1,f
  5799  01CA                     i1l2128:
  5800  01CA  0830               	movf	TMR1_ISR_@i_1181+1,w
  5801  01CB  3A80               	xorlw	128
  5802  01CC  00F0               	movwf	??_TMR1_ISR_
  5803  01CD  3080               	movlw	128
  5804  01CE  0270               	subwf	??_TMR1_ISR_,w
  5805  01CF  1D03               	skipz
  5806  01D0  29D3               	goto	u103_25
  5807  01D1  3007               	movlw	7
  5808  01D2  022F               	subwf	TMR1_ISR_@i_1181,w
  5809  01D3                     u103_25:
  5810  01D3  1C03               	skipc
  5811  01D4  29D6               	goto	u103_21
  5812  01D5  29D7               	goto	u103_20
  5813  01D6                     u103_21:
  5814  01D6  29B8               	goto	i1l2124
  5815  01D7                     u103_20:
  5816  01D7  29D8               	goto	i1l2130
  5817  01D8                     i1l588:
  5818  01D8                     i1l2130:
  5819                           
  5820                           ;main.c: 530:     if (song3_playing)
  5821  01D8  0140               	movlb	0	; select bank0
  5822  01D9  084D               	movf	_song3_playing,w
  5823  01DA  1903               	btfsc	3,2
  5824  01DB  29DD               	goto	u104_21
  5825  01DC  29DE               	goto	u104_20
  5826  01DD                     u104_21:
  5827  01DD  2AAB               	goto	i1l2198
  5828  01DE                     u104_20:
  5829  01DE                     i1l2132:
  5830                           
  5831                           ;main.c: 531:     {;main.c: 592:        if (song3[count] == 212)
  5832  01DE  0846               	movf	_count,w
  5833  01DF  3EA0               	addlw	(low (_song3| 0))& (0+255)
  5834  01E0  0086               	movwf	6
  5835  01E1  0187               	clrf	7
  5836  01E2  30D4               	movlw	212
  5837  01E3  0601               	xorwf	1,w
  5838  01E4  1D03               	btfss	3,2
  5839  01E5  29E7               	goto	u105_21
  5840  01E6  29E8               	goto	u105_20
  5841  01E7                     u105_21:
  5842  01E7  2A02               	goto	i1l2146
  5843  01E8                     u105_20:
  5844  01E8                     i1l2134:
  5845                           
  5846                           ;main.c: 593:        {;main.c: 594:            for (int i = 0; i < 7; i++)
  5847  01E8  01A5               	clrf	TMR1_ISR_@i_1182
  5848  01E9  01A6               	clrf	TMR1_ISR_@i_1182+1
  5849  01EA                     i1l2140:
  5850                           
  5851                           ;main.c: 595:             {;main.c: 596:                 light_array[i] = 0x00;
  5852  01EA  0140               	movlb	0	; select bank0
  5853  01EB  0825               	movf	TMR1_ISR_@i_1182,w
  5854  01EC  3E3F               	addlw	(low (_light_array| 0))& (0+255)
  5855  01ED  0086               	movwf	6
  5856  01EE  0187               	clrf	7
  5857  01EF  0181               	clrf	1
  5858  01F0                     i1l2142:
  5859                           
  5860                           ;main.c: 597:             }
  5861  01F0  3001               	movlw	1
  5862  01F1  07A5               	addwf	TMR1_ISR_@i_1182,f
  5863  01F2  3000               	movlw	0
  5864  01F3  3DA6               	addwfc	TMR1_ISR_@i_1182+1,f
  5865  01F4                     i1l2144:
  5866  01F4  0826               	movf	TMR1_ISR_@i_1182+1,w
  5867  01F5  3A80               	xorlw	128
  5868  01F6  00F0               	movwf	??_TMR1_ISR_
  5869  01F7  3080               	movlw	128
  5870  01F8  0270               	subwf	??_TMR1_ISR_,w
  5871  01F9  1D03               	skipz
  5872  01FA  29FD               	goto	u106_25
  5873  01FB  3007               	movlw	7
  5874  01FC  0225               	subwf	TMR1_ISR_@i_1182,w
  5875  01FD                     u106_25:
  5876  01FD  1C03               	skipc
  5877  01FE  2A00               	goto	u106_21
  5878  01FF  2A01               	goto	u106_20
  5879  0200                     u106_21:
  5880  0200  29EA               	goto	i1l2140
  5881  0201                     u106_20:
  5882  0201  2AAB               	goto	i1l2198
  5883  0202                     i1l2146:
  5884  0202  0846               	movf	_count,w
  5885  0203  3EA0               	addlw	(low (_song3| 0))& (0+255)
  5886  0204  0086               	movwf	6
  5887  0205  0187               	clrf	7
  5888  0206  0801               	movf	1,w
  5889  0207  1D03               	btfss	3,2
  5890  0208  2A0A               	goto	u107_21
  5891  0209  2A0B               	goto	u107_20
  5892  020A                     u107_21:
  5893  020A  2A28               	goto	i1l2160
  5894  020B                     u107_20:
  5895  020B                     i1l2148:
  5896                           
  5897                           ;main.c: 600:        {;main.c: 601:            for (int i = 0; i < 7; i++)
  5898  020B  01A7               	clrf	TMR1_ISR_@i_1183
  5899  020C  01A8               	clrf	TMR1_ISR_@i_1183+1
  5900  020D                     i1l2154:
  5901                           
  5902                           ;main.c: 602:             {;main.c: 603:                 light_array[i] = 0xFF;
  5903  020D  30FF               	movlw	255
  5904  020E  00F0               	movwf	??_TMR1_ISR_
  5905  020F  0140               	movlb	0	; select bank0
  5906  0210  0827               	movf	TMR1_ISR_@i_1183,w
  5907  0211  3E3F               	addlw	(low (_light_array| 0))& (0+255)
  5908  0212  0086               	movwf	6
  5909  0213  0187               	clrf	7
  5910  0214  0870               	movf	??_TMR1_ISR_,w
  5911  0215  0081               	movwf	1
  5912  0216                     i1l2156:
  5913                           
  5914                           ;main.c: 604:             }
  5915  0216  3001               	movlw	1
  5916  0217  07A7               	addwf	TMR1_ISR_@i_1183,f
  5917  0218  3000               	movlw	0
  5918  0219  3DA8               	addwfc	TMR1_ISR_@i_1183+1,f
  5919  021A                     i1l2158:
  5920  021A  0828               	movf	TMR1_ISR_@i_1183+1,w
  5921  021B  3A80               	xorlw	128
  5922  021C  00F0               	movwf	??_TMR1_ISR_
  5923  021D  3080               	movlw	128
  5924  021E  0270               	subwf	??_TMR1_ISR_,w
  5925  021F  1D03               	skipz
  5926  0220  2A23               	goto	u108_25
  5927  0221  3007               	movlw	7
  5928  0222  0227               	subwf	TMR1_ISR_@i_1183,w
  5929  0223                     u108_25:
  5930  0223  1C03               	skipc
  5931  0224  2A26               	goto	u108_21
  5932  0225  2A27               	goto	u108_20
  5933  0226                     u108_21:
  5934  0226  2A0D               	goto	i1l2154
  5935  0227                     u108_20:
  5936  0227  2AAB               	goto	i1l2198
  5937  0228                     i1l2160:
  5938                           
  5939                           ;main.c: 607:        {;main.c: 608:            if ((light_array[1] == 0x00) || (light_ar
      +                          ray[1] == 0xFF))
  5940  0228  0840               	movf	_light_array+1,w
  5941  0229  1903               	btfsc	3,2
  5942  022A  2A2C               	goto	u109_21
  5943  022B  2A2D               	goto	u109_20
  5944  022C                     u109_21:
  5945  022C  2A32               	goto	i1l2164
  5946  022D                     u109_20:
  5947  022D                     i1l2162:
  5948  022D  0A40               	incf	_light_array+1,w
  5949  022E  1D03               	btfss	3,2
  5950  022F  2A31               	goto	u110_21
  5951  0230  2A32               	goto	u110_20
  5952  0231                     u110_21:
  5953  0231  2A4F               	goto	i1l2176
  5954  0232                     u110_20:
  5955  0232                     i1l2164:
  5956                           
  5957                           ;main.c: 609:            {;main.c: 610:                 for (int i = 0; i < 7; i++)
  5958  0232  01A9               	clrf	TMR1_ISR_@i_1184
  5959  0233  01AA               	clrf	TMR1_ISR_@i_1184+1
  5960  0234                     i1l2170:
  5961                           
  5962                           ;main.c: 611:                 {;main.c: 612:                     light_array[i] = 0xFA;
  5963  0234  30FA               	movlw	250
  5964  0235  00F0               	movwf	??_TMR1_ISR_
  5965  0236  0140               	movlb	0	; select bank0
  5966  0237  0829               	movf	TMR1_ISR_@i_1184,w
  5967  0238  3E3F               	addlw	(low (_light_array| 0))& (0+255)
  5968  0239  0086               	movwf	6
  5969  023A  0187               	clrf	7
  5970  023B  0870               	movf	??_TMR1_ISR_,w
  5971  023C  0081               	movwf	1
  5972  023D                     i1l2172:
  5973                           
  5974                           ;main.c: 613:                 }
  5975  023D  3001               	movlw	1
  5976  023E  07A9               	addwf	TMR1_ISR_@i_1184,f
  5977  023F  3000               	movlw	0
  5978  0240  3DAA               	addwfc	TMR1_ISR_@i_1184+1,f
  5979  0241                     i1l2174:
  5980  0241  082A               	movf	TMR1_ISR_@i_1184+1,w
  5981  0242  3A80               	xorlw	128
  5982  0243  00F0               	movwf	??_TMR1_ISR_
  5983  0244  3080               	movlw	128
  5984  0245  0270               	subwf	??_TMR1_ISR_,w
  5985  0246  1D03               	skipz
  5986  0247  2A4A               	goto	u111_25
  5987  0248  3007               	movlw	7
  5988  0249  0229               	subwf	TMR1_ISR_@i_1184,w
  5989  024A                     u111_25:
  5990  024A  1C03               	skipc
  5991  024B  2A4D               	goto	u111_21
  5992  024C  2A4E               	goto	u111_20
  5993  024D                     u111_21:
  5994  024D  2A34               	goto	i1l2170
  5995  024E                     u111_20:
  5996  024E  2AAB               	goto	i1l2198
  5997  024F                     i1l2176:
  5998                           
  5999                           ;main.c: 616:            {;main.c: 617:                 if (last_note != song3[count])
  6000  024F  0846               	movf	_count,w
  6001  0250  3EA0               	addlw	(low (_song3| 0))& (0+255)
  6002  0251  0086               	movwf	6
  6003  0252  0187               	clrf	7
  6004  0253  0801               	movf	1,w
  6005  0254  064A               	xorwf	_last_note,w
  6006  0255  1903               	skipnz
  6007  0256  2A58               	goto	u112_21
  6008  0257  2A59               	goto	u112_20
  6009  0258                     u112_21:
  6010  0258  2AAB               	goto	i1l2198
  6011  0259                     u112_20:
  6012  0259                     i1l2178:
  6013                           
  6014                           ;main.c: 618:                 {;main.c: 619:                     for (int i = 0; i < 7; 
      +                          i++)
  6015  0259  01B6               	clrf	TMR1_ISR_@i_1185
  6016  025A  01B7               	clrf	TMR1_ISR_@i_1185+1
  6017  025B                     i1l2184:
  6018                           
  6019                           ;main.c: 620:                     {;main.c: 621:                         uint8_t lights 
      +                          = (light_array[i]) << 1;
  6020  025B  0140               	movlb	0	; select bank0
  6021  025C  0836               	movf	TMR1_ISR_@i_1185,w
  6022  025D  3E3F               	addlw	(low (_light_array| 0))& (0+255)
  6023  025E  0086               	movwf	6
  6024  025F  0187               	clrf	7
  6025  0260  3501               	lslf	1,w
  6026  0261  00F0               	movwf	??_TMR1_ISR_
  6027  0262  0870               	movf	??_TMR1_ISR_,w
  6028  0263  00B1               	movwf	TMR1_ISR_@lights_1186
  6029  0264                     i1l2186:
  6030                           
  6031                           ;main.c: 622:                         lights = lights >> 7;
  6032  0264  0831               	movf	TMR1_ISR_@lights_1186,w
  6033  0265  00F0               	movwf	??_TMR1_ISR_
  6034  0266  3007               	movlw	7
  6035  0267                     u113_25:
  6036  0267  36F0               	lsrf	??_TMR1_ISR_,f
  6037  0268  0B89               	decfsz	9,f
  6038  0269  2A67               	goto	u113_25
  6039  026A  0870               	movf	??_TMR1_ISR_,w
  6040  026B  00F1               	movwf	??_TMR1_ISR_+1
  6041  026C  0871               	movf	??_TMR1_ISR_+1,w
  6042  026D  00B1               	movwf	TMR1_ISR_@lights_1186
  6043  026E                     i1l2188:
  6044                           
  6045                           ;main.c: 623:                         light_array[i] = (light_array[i] << 1) + lights;
  6046  026E  0836               	movf	TMR1_ISR_@i_1185,w
  6047  026F  3E3F               	addlw	(low (_light_array| 0))& (0+255)
  6048  0270  0086               	movwf	6
  6049  0271  0187               	clrf	7
  6050  0272  3501               	lslf	1,w
  6051  0273  0731               	addwf	TMR1_ISR_@lights_1186,w
  6052  0274  00F0               	movwf	??_TMR1_ISR_
  6053  0275  0836               	movf	TMR1_ISR_@i_1185,w
  6054  0276  3E3F               	addlw	(low (_light_array| 0))& (0+255)
  6055  0277  0086               	movwf	6
  6056  0278  0187               	clrf	7
  6057  0279  0870               	movf	??_TMR1_ISR_,w
  6058  027A  0081               	movwf	1
  6059  027B                     i1l2190:
  6060                           
  6061                           ;main.c: 624:                         lights = (light_array[i]) << 1;
  6062  027B  0836               	movf	TMR1_ISR_@i_1185,w
  6063  027C  3E3F               	addlw	(low (_light_array| 0))& (0+255)
  6064  027D  0086               	movwf	6
  6065  027E  0187               	clrf	7
  6066  027F  3501               	lslf	1,w
  6067  0280  00F0               	movwf	??_TMR1_ISR_
  6068  0281  0870               	movf	??_TMR1_ISR_,w
  6069  0282  00B1               	movwf	TMR1_ISR_@lights_1186
  6070  0283                     i1l2192:
  6071                           
  6072                           ;main.c: 625:                         lights = lights >> 7;
  6073  0283  0831               	movf	TMR1_ISR_@lights_1186,w
  6074  0284  00F0               	movwf	??_TMR1_ISR_
  6075  0285  3007               	movlw	7
  6076  0286                     u114_25:
  6077  0286  36F0               	lsrf	??_TMR1_ISR_,f
  6078  0287  0B89               	decfsz	9,f
  6079  0288  2A86               	goto	u114_25
  6080  0289  0870               	movf	??_TMR1_ISR_,w
  6081  028A  00F1               	movwf	??_TMR1_ISR_+1
  6082  028B  0871               	movf	??_TMR1_ISR_+1,w
  6083  028C  00B1               	movwf	TMR1_ISR_@lights_1186
  6084                           
  6085                           ;main.c: 626:                         light_array[i] = (light_array[i] << 1) + lights;
  6086  028D  0836               	movf	TMR1_ISR_@i_1185,w
  6087  028E  3E3F               	addlw	(low (_light_array| 0))& (0+255)
  6088  028F  0086               	movwf	6
  6089  0290  0187               	clrf	7
  6090  0291  3501               	lslf	1,w
  6091  0292  0731               	addwf	TMR1_ISR_@lights_1186,w
  6092  0293  00F0               	movwf	??_TMR1_ISR_
  6093  0294  0836               	movf	TMR1_ISR_@i_1185,w
  6094  0295  3E3F               	addlw	(low (_light_array| 0))& (0+255)
  6095  0296  0086               	movwf	6
  6096  0297  0187               	clrf	7
  6097  0298  0870               	movf	??_TMR1_ISR_,w
  6098  0299  0081               	movwf	1
  6099  029A                     i1l2194:
  6100                           
  6101                           ;main.c: 627:                     }
  6102  029A  3001               	movlw	1
  6103  029B  07B6               	addwf	TMR1_ISR_@i_1185,f
  6104  029C  3000               	movlw	0
  6105  029D  3DB7               	addwfc	TMR1_ISR_@i_1185+1,f
  6106  029E                     i1l2196:
  6107  029E  0837               	movf	TMR1_ISR_@i_1185+1,w
  6108  029F  3A80               	xorlw	128
  6109  02A0  00F0               	movwf	??_TMR1_ISR_
  6110  02A1  3080               	movlw	128
  6111  02A2  0270               	subwf	??_TMR1_ISR_,w
  6112  02A3  1D03               	skipz
  6113  02A4  2AA7               	goto	u115_25
  6114  02A5  3007               	movlw	7
  6115  02A6  0236               	subwf	TMR1_ISR_@i_1185,w
  6116  02A7                     u115_25:
  6117  02A7  1C03               	skipc
  6118  02A8  2AAA               	goto	u115_21
  6119  02A9  2AAB               	goto	u115_20
  6120  02AA                     u115_21:
  6121  02AA  2A5B               	goto	i1l2184
  6122  02AB                     u115_20:
  6123  02AB                     i1l2198:
  6124                           
  6125                           ;main.c: 636:     if (song2_playing)
  6126  02AB  0140               	movlb	0	; select bank0
  6127  02AC  084C               	movf	_song2_playing,w
  6128  02AD  1903               	btfsc	3,2
  6129  02AE  2AB0               	goto	u116_21
  6130  02AF  2AB1               	goto	u116_20
  6131  02B0                     u116_21:
  6132  02B0  2AB8               	goto	i1l2202
  6133  02B1                     u116_20:
  6134  02B1                     i1l2200:
  6135                           
  6136                           ;main.c: 637:     {;main.c: 638:         TMR1H = timer_high_2;
  6137  02B1  083D               	movf	_timer_high_2,w
  6138  02B2  0144               	movlb	4	; select bank4
  6139  02B3  008D               	movwf	13	;volatile
  6140                           
  6141                           ;main.c: 639:         TMR1L = timer_low_2;
  6142  02B4  0140               	movlb	0	; select bank0
  6143  02B5  083C               	movf	_timer_low_2,w
  6144  02B6  0144               	movlb	4	; select bank4
  6145  02B7  008C               	movwf	12	;volatile
  6146  02B8                     i1l2202:
  6147                           
  6148                           ;main.c: 643:     if (song3_playing)
  6149  02B8  0140               	movlb	0	; select bank0
  6150  02B9  084D               	movf	_song3_playing,w
  6151  02BA  1903               	btfsc	3,2
  6152  02BB  2ABD               	goto	u117_21
  6153  02BC  2ABE               	goto	u117_20
  6154  02BD                     u117_21:
  6155  02BD  2AC5               	goto	i1l615
  6156  02BE                     u117_20:
  6157  02BE                     i1l2204:
  6158                           
  6159                           ;main.c: 644:     {;main.c: 645:         TMR1H = timer_high_3;
  6160  02BE  083A               	movf	_timer_high_3,w
  6161  02BF  0144               	movlb	4	; select bank4
  6162  02C0  008D               	movwf	13	;volatile
  6163                           
  6164                           ;main.c: 646:         TMR1L = timer_low_3;
  6165  02C1  0140               	movlb	0	; select bank0
  6166  02C2  0839               	movf	_timer_low_3,w
  6167  02C3  0144               	movlb	4	; select bank4
  6168  02C4  008C               	movwf	12	;volatile
  6169  02C5                     i1l615:	
  6170                           ;main.c: 647:     }
  6171                           
  6172                           
  6173                           ;main.c: 650:     if ((count > 138) && silent_night_playing)
  6174  02C5  0140               	movlb	0	; select bank0
  6175  02C6  0847               	movf	_count+1,w
  6176  02C7  3A80               	xorlw	128
  6177  02C8  00F0               	movwf	??_TMR1_ISR_
  6178  02C9  3080               	movlw	128
  6179  02CA  0270               	subwf	??_TMR1_ISR_,w
  6180  02CB  1D03               	skipz
  6181  02CC  2ACF               	goto	u118_25
  6182  02CD  308B               	movlw	139
  6183  02CE  0246               	subwf	_count,w
  6184  02CF                     u118_25:
  6185  02CF  1C03               	skipc
  6186  02D0  2AD2               	goto	u118_21
  6187  02D1  2AD3               	goto	u118_20
  6188  02D2                     u118_21:
  6189  02D2  2ADD               	goto	i1l2210
  6190  02D3                     u118_20:
  6191  02D3                     i1l2206:
  6192  02D3  0140               	movlb	0	; select bank0
  6193  02D4  084E               	movf	_silent_night_playing,w
  6194  02D5  1903               	btfsc	3,2
  6195  02D6  2AD8               	goto	u119_21
  6196  02D7  2AD9               	goto	u119_20
  6197  02D8                     u119_21:
  6198  02D8  2ADD               	goto	i1l2210
  6199  02D9                     u119_20:
  6200  02D9                     i1l2208:
  6201                           
  6202                           ;main.c: 651:     {;main.c: 652:         presses = 0;
  6203  02D9  01C9               	clrf	_presses
  6204                           
  6205                           ;main.c: 653:         count = 0;
  6206  02DA  01C6               	clrf	_count
  6207  02DB  01C7               	clrf	_count+1
  6208                           
  6209                           ;main.c: 654:     }
  6210  02DC  2B16               	goto	i1l622
  6211  02DD                     i1l2210:
  6212  02DD  0140               	movlb	0	; select bank0
  6213  02DE  0847               	movf	_count+1,w
  6214  02DF  3A80               	xorlw	128
  6215  02E0  3C80               	sublw	128
  6216  02E1  1D03               	skipz
  6217  02E2  2AE5               	goto	u120_25
  6218  02E3  0846               	movf	_count,w
  6219  02E4  023B               	subwf	_song2_length,w
  6220  02E5                     u120_25:
  6221  02E5  1803               	skipnc
  6222  02E6  2AE8               	goto	u120_21
  6223  02E7  2AE9               	goto	u120_20
  6224  02E8                     u120_21:
  6225  02E8  2AF0               	goto	i1l2216
  6226  02E9                     u120_20:
  6227  02E9                     i1l2212:
  6228  02E9  0140               	movlb	0	; select bank0
  6229  02EA  084C               	movf	_song2_playing,w
  6230  02EB  1903               	btfsc	3,2
  6231  02EC  2AEE               	goto	u121_21
  6232  02ED  2AEF               	goto	u121_20
  6233  02EE                     u121_21:
  6234  02EE  2AF0               	goto	i1l2216
  6235  02EF                     u121_20:
  6236  02EF  2AD9               	goto	i1l2208
  6237  02F0                     i1l2216:
  6238  02F0  0140               	movlb	0	; select bank0
  6239  02F1  0847               	movf	_count+1,w
  6240  02F2  3A80               	xorlw	128
  6241  02F3  3C80               	sublw	128
  6242  02F4  1D03               	skipz
  6243  02F5  2AF8               	goto	u122_25
  6244  02F6  0846               	movf	_count,w
  6245  02F7  0238               	subwf	_song3_length,w
  6246  02F8                     u122_25:
  6247  02F8  1803               	skipnc
  6248  02F9  2AFB               	goto	u122_21
  6249  02FA  2AFC               	goto	u122_20
  6250  02FB                     u122_21:
  6251  02FB  2B16               	goto	i1l622
  6252  02FC                     u122_20:
  6253  02FC                     i1l2218:
  6254  02FC  0140               	movlb	0	; select bank0
  6255  02FD  084D               	movf	_song3_playing,w
  6256  02FE  1903               	btfsc	3,2
  6257  02FF  2B01               	goto	u123_21
  6258  0300  2B02               	goto	u123_20
  6259  0301                     u123_21:
  6260  0301  2B16               	goto	i1l622
  6261  0302                     u123_20:
  6262  0302                     i1l2220:
  6263                           
  6264                           ;main.c: 665:     {;main.c: 666:         presses = 0;
  6265  0302  01C9               	clrf	_presses
  6266                           
  6267                           ;main.c: 667:         count = 0;
  6268  0303  01C6               	clrf	_count
  6269  0304  01C7               	clrf	_count+1
  6270  0305                     i1l2222:
  6271                           
  6272                           ;main.c: 669:         if (cole_counter < 2)
  6273  0305  3002               	movlw	2
  6274  0306  0248               	subwf	_cole_counter,w
  6275  0307  1803               	skipnc
  6276  0308  2B0A               	goto	u124_21
  6277  0309  2B0B               	goto	u124_20
  6278  030A                     u124_21:
  6279  030A  2B16               	goto	i1l619
  6280  030B                     u124_20:
  6281  030B                     i1l2224:
  6282                           
  6283                           ;main.c: 670:         {;main.c: 671:             count = 0;
  6284  030B  01C6               	clrf	_count
  6285  030C  01C7               	clrf	_count+1
  6286  030D                     i1l2226:
  6287                           
  6288                           ;main.c: 672:             presses = 3;
  6289  030D  3003               	movlw	3
  6290  030E  00F0               	movwf	??_TMR1_ISR_
  6291  030F  0870               	movf	??_TMR1_ISR_,w
  6292  0310  00C9               	movwf	_presses
  6293  0311                     i1l2228:
  6294                           
  6295                           ;main.c: 673:             cole_counter++;
  6296  0311  3001               	movlw	1
  6297  0312  00F0               	movwf	??_TMR1_ISR_
  6298  0313  0870               	movf	??_TMR1_ISR_,w
  6299  0314  07C8               	addwf	_cole_counter,f
  6300  0315  2B16               	goto	i1l622
  6301  0316                     i1l619:
  6302  0316                     i1l622:
  6303  0316  0008               	return
  6304  0317                     __end_of_TMR1_ISR_:
  6305                           
  6306                           	psect	text23
  6307  07E0                     __ptext23:	
  6308 ;; *************** function _TMR0_ISR *****************
  6309 ;; Defined at:
  6310 ;;		line 134 in file "mcc_generated_files/tmr0.c"
  6311 ;; Parameters:    Size  Location     Type
  6312 ;;		None
  6313 ;; Auto vars:     Size  Location     Type
  6314 ;;		None
  6315 ;; Return value:  Size  Location     Type
  6316 ;;                  1    wreg      void 
  6317 ;; Registers used:
  6318 ;;		wreg, status,2, status,0, pclath, cstack
  6319 ;; Tracked objects:
  6320 ;;		On entry : 0/0
  6321 ;;		On exit  : 0/0
  6322 ;;		Unchanged: 0/0
  6323 ;; Data sizes:     COMMON   BANK0   BANK1   BANK2   BANK3   BANK4   BANK5   BANK6   BANK7   BANK8   BANK9  BANK10  BANK1
      +1  BANK12
  6324 ;;      Params:         0       0       0       0       0       0       0       0       0       0       0       0       
      +0       0
  6325 ;;      Locals:         0       0       0       0       0       0       0       0       0       0       0       0       
      +0       0
  6326 ;;      Temps:          0       0       0       0       0       0       0       0       0       0       0       0       
      +0       0
  6327 ;;      Totals:         0       0       0       0       0       0       0       0       0       0       0       0       
      +0       0
  6328 ;;Total ram usage:        0 bytes
  6329 ;; Hardware stack levels used: 1
  6330 ;; Hardware stack levels required when called: 1
  6331 ;; This function calls:
  6332 ;;		Absolute function
  6333 ;;		_TMR0_DefaultInterruptHandler
  6334 ;;		_TMR0_ISR_
  6335 ;; This function is called by:
  6336 ;;		_INTERRUPT_InterruptManager
  6337 ;; This function uses a non-reentrant model
  6338 ;;
  6339                           
  6340                           
  6341                           ;psect for function _TMR0_ISR
  6342  07E0                     _TMR0_ISR:
  6343  07E0                     i1l2244:	
  6344                           ;incstack = 0
  6345                           ; Regs used in _TMR0_ISR: [wreg+status,2+status,0+pclath+cstack]
  6346                           
  6347                           
  6348                           ;mcc_generated_files/tmr0.c: 137:     PIR0bits.TMR0IF = 0;
  6349  07E0  014E               	movlb	14	; select bank14
  6350  07E1  128C               	bcf	12,5	;volatile
  6351  07E2                     i1l2246:
  6352                           
  6353                           ;mcc_generated_files/tmr0.c: 139:     TMR0H = timer0ReloadVal16bit >> 8;
  6354  07E2  0878               	movf	_timer0ReloadVal16bit+1,w	;volatile
  6355  07E3  014B               	movlb	11	; select bank11
  6356  07E4  009D               	movwf	29	;volatile
  6357  07E5                     i1l2248:
  6358                           
  6359                           ;mcc_generated_files/tmr0.c: 140:     TMR0L = (uint8_t) timer0ReloadVal16bit;
  6360  07E5  0877               	movf	_timer0ReloadVal16bit,w	;volatile
  6361  07E6  009C               	movwf	28	;volatile
  6362  07E7                     i1l2250:
  6363                           
  6364                           ;mcc_generated_files/tmr0.c: 142:     if(TMR0_InterruptHandler)
  6365  07E7  0140               	movlb	0	; select bank0
  6366  07E8  0853               	movf	_TMR0_InterruptHandler,w
  6367  07E9  0454               	iorwf	_TMR0_InterruptHandler+1,w
  6368  07EA  1903               	btfsc	3,2
  6369  07EB  2FED               	goto	u125_21
  6370  07EC  2FEE               	goto	u125_20
  6371  07ED                     u125_21:
  6372  07ED  2FF3               	goto	i1l328
  6373  07EE                     u125_20:
  6374  07EE                     i1l2252:
  6375                           
  6376                           ;mcc_generated_files/tmr0.c: 143:     {;mcc_generated_files/tmr0.c: 144:         TMR0_In
      +                          terruptHandler();
  6377  07EE  0854               	movf	_TMR0_InterruptHandler+1,w
  6378  07EF  008A               	movwf	10
  6379  07F0  0853               	movf	_TMR0_InterruptHandler,w
  6380  07F1  000A               	callw
  6381  07F2  3187               	pagesel	$
  6382  07F3                     i1l328:
  6383  07F3  0008               	return
  6384  07F4                     __end_of_TMR0_ISR:
  6385                           
  6386                           	psect	text24
  6387  0002                     __ptext24:	
  6388 ;; *************** function _TMR0_DefaultInterruptHandler *****************
  6389 ;; Defined at:
  6390 ;;		line 155 in file "mcc_generated_files/tmr0.c"
  6391 ;; Parameters:    Size  Location     Type
  6392 ;;		None
  6393 ;; Auto vars:     Size  Location     Type
  6394 ;;		None
  6395 ;; Return value:  Size  Location     Type
  6396 ;;                  1    wreg      void 
  6397 ;; Registers used:
  6398 ;;		None
  6399 ;; Tracked objects:
  6400 ;;		On entry : 0/0
  6401 ;;		On exit  : 0/0
  6402 ;;		Unchanged: 0/0
  6403 ;; Data sizes:     COMMON   BANK0   BANK1   BANK2   BANK3   BANK4   BANK5   BANK6   BANK7   BANK8   BANK9  BANK10  BANK1
      +1  BANK12
  6404 ;;      Params:         0       0       0       0       0       0       0       0       0       0       0       0       
      +0       0
  6405 ;;      Locals:         0       0       0       0       0       0       0       0       0       0       0       0       
      +0       0
  6406 ;;      Temps:          0       0       0       0       0       0       0       0       0       0       0       0       
      +0       0
  6407 ;;      Totals:         0       0       0       0       0       0       0       0       0       0       0       0       
      +0       0
  6408 ;;Total ram usage:        0 bytes
  6409 ;; Hardware stack levels used: 1
  6410 ;; This function calls:
  6411 ;;		Nothing
  6412 ;; This function is called by:
  6413 ;;		_TMR0_Initialize
  6414 ;;		_TMR0_ISR
  6415 ;; This function uses a non-reentrant model
  6416 ;;
  6417                           
  6418                           
  6419                           ;psect for function _TMR0_DefaultInterruptHandler
  6420  0002                     _TMR0_DefaultInterruptHandler:
  6421  0002                     i1l334:	
  6422                           ;incstack = 0
  6423                           ; Regs used in _TMR0_DefaultInterruptHandler: []
  6424                           
  6425  0002  0008               	return
  6426  0003                     __end_of_TMR0_DefaultInterruptHandler:
  6427                           
  6428                           	psect	text25
  6429  0F6F                     __ptext25:	
  6430 ;; *************** function _TMR0_ISR_ *****************
  6431 ;; Defined at:
  6432 ;;		line 456 in file "main.c"
  6433 ;; Parameters:    Size  Location     Type
  6434 ;;		None
  6435 ;; Auto vars:     Size  Location     Type
  6436 ;;		None
  6437 ;; Return value:  Size  Location     Type
  6438 ;;                  1    wreg      void 
  6439 ;; Registers used:
  6440 ;;		None
  6441 ;; Tracked objects:
  6442 ;;		On entry : 0/0
  6443 ;;		On exit  : 0/0
  6444 ;;		Unchanged: 0/0
  6445 ;; Data sizes:     COMMON   BANK0   BANK1   BANK2   BANK3   BANK4   BANK5   BANK6   BANK7   BANK8   BANK9  BANK10  BANK1
      +1  BANK12
  6446 ;;      Params:         0       0       0       0       0       0       0       0       0       0       0       0       
      +0       0
  6447 ;;      Locals:         0       0       0       0       0       0       0       0       0       0       0       0       
      +0       0
  6448 ;;      Temps:          0       0       0       0       0       0       0       0       0       0       0       0       
      +0       0
  6449 ;;      Totals:         0       0       0       0       0       0       0       0       0       0       0       0       
      +0       0
  6450 ;;Total ram usage:        0 bytes
  6451 ;; Hardware stack levels used: 1
  6452 ;; This function calls:
  6453 ;;		Nothing
  6454 ;; This function is called by:
  6455 ;;		_main
  6456 ;;		_TMR0_ISR
  6457 ;; This function uses a non-reentrant model
  6458 ;;
  6459                           
  6460                           
  6461                           ;psect for function _TMR0_ISR_
  6462  0F6F                     _TMR0_ISR_:
  6463  0F6F                     i1l2034:	
  6464                           ;incstack = 0
  6465                           ; Regs used in _TMR0_ISR_: []
  6466                           
  6467                           
  6468                           ;main.c: 458:     TMR0_complete = 1;
  6469  0F6F  0140               	movlb	0	; select bank0
  6470  0F70  01CB               	clrf	_TMR0_complete
  6471  0F71  0ACB               	incf	_TMR0_complete,f
  6472  0F72                     i1l567:
  6473  0F72  0008               	return
  6474  0F73                     __end_of_TMR0_ISR_:
  6475                           
  6476                           	psect	text26
  6477  0F79                     __ptext26:	
  6478 ;; *************** function _INT_ISR *****************
  6479 ;; Defined at:
  6480 ;;		line 33 in file "mcc_generated_files/ext_int.c"
  6481 ;; Parameters:    Size  Location     Type
  6482 ;;		None
  6483 ;; Auto vars:     Size  Location     Type
  6484 ;;		None
  6485 ;; Return value:  Size  Location     Type
  6486 ;;                  1    wreg      void 
  6487 ;; Registers used:
  6488 ;;		wreg, status,2, status,0, pclath, cstack
  6489 ;; Tracked objects:
  6490 ;;		On entry : 0/0
  6491 ;;		On exit  : 0/0
  6492 ;;		Unchanged: 0/0
  6493 ;; Data sizes:     COMMON   BANK0   BANK1   BANK2   BANK3   BANK4   BANK5   BANK6   BANK7   BANK8   BANK9  BANK10  BANK1
      +1  BANK12
  6494 ;;      Params:         0       0       0       0       0       0       0       0       0       0       0       0       
      +0       0
  6495 ;;      Locals:         0       0       0       0       0       0       0       0       0       0       0       0       
      +0       0
  6496 ;;      Temps:          0       0       0       0       0       0       0       0       0       0       0       0       
      +0       0
  6497 ;;      Totals:         0       0       0       0       0       0       0       0       0       0       0       0       
      +0       0
  6498 ;;Total ram usage:        0 bytes
  6499 ;; Hardware stack levels used: 1
  6500 ;; Hardware stack levels required when called: 3
  6501 ;; This function calls:
  6502 ;;		_INT_CallBack
  6503 ;; This function is called by:
  6504 ;;		_INTERRUPT_InterruptManager
  6505 ;; This function uses a non-reentrant model
  6506 ;;
  6507                           
  6508                           
  6509                           ;psect for function _INT_ISR
  6510  0F79                     _INT_ISR:
  6511  0F79                     i1l2254:	
  6512                           ;incstack = 0
  6513                           ; Regs used in _INT_ISR: [wreg+status,2+status,0+pclath+cstack]
  6514                           
  6515                           
  6516                           ;mcc_generated_files/ext_int.c: 47:     (PIR0bits.INTF = 0);
  6517  0F79  014E               	movlb	14	; select bank14
  6518  0F7A  100C               	bcf	12,0	;volatile
  6519  0F7B                     i1l2256:
  6520                           
  6521                           ;mcc_generated_files/ext_int.c: 50:     INT_CallBack();
  6522  0F7B  318F  279F  318F   	fcall	_INT_CallBack
  6523  0F7E                     i1l271:
  6524  0F7E  0008               	return
  6525  0F7F                     __end_of_INT_ISR:
  6526                           
  6527                           	psect	text27
  6528  0F9F                     __ptext27:	
  6529 ;; *************** function _INT_CallBack *****************
  6530 ;; Defined at:
  6531 ;;		line 54 in file "mcc_generated_files/ext_int.c"
  6532 ;; Parameters:    Size  Location     Type
  6533 ;;		None
  6534 ;; Auto vars:     Size  Location     Type
  6535 ;;		None
  6536 ;; Return value:  Size  Location     Type
  6537 ;;                  1    wreg      void 
  6538 ;; Registers used:
  6539 ;;		wreg, status,2, status,0, pclath, cstack
  6540 ;; Tracked objects:
  6541 ;;		On entry : 0/0
  6542 ;;		On exit  : 0/0
  6543 ;;		Unchanged: 0/0
  6544 ;; Data sizes:     COMMON   BANK0   BANK1   BANK2   BANK3   BANK4   BANK5   BANK6   BANK7   BANK8   BANK9  BANK10  BANK1
      +1  BANK12
  6545 ;;      Params:         0       0       0       0       0       0       0       0       0       0       0       0       
      +0       0
  6546 ;;      Locals:         0       0       0       0       0       0       0       0       0       0       0       0       
      +0       0
  6547 ;;      Temps:          0       0       0       0       0       0       0       0       0       0       0       0       
      +0       0
  6548 ;;      Totals:         0       0       0       0       0       0       0       0       0       0       0       0       
      +0       0
  6549 ;;Total ram usage:        0 bytes
  6550 ;; Hardware stack levels used: 1
  6551 ;; Hardware stack levels required when called: 2
  6552 ;; This function calls:
  6553 ;;		Absolute function
  6554 ;;		_EXT_ISR
  6555 ;;		_INT_DefaultInterruptHandler
  6556 ;; This function is called by:
  6557 ;;		_INT_ISR
  6558 ;; This function uses a non-reentrant model
  6559 ;;
  6560                           
  6561                           
  6562                           ;psect for function _INT_CallBack
  6563  0F9F                     _INT_CallBack:
  6564  0F9F                     i1l2010:	
  6565                           ;incstack = 0
  6566                           ; Regs used in _INT_CallBack: [wreg+status,2+status,0+pclath+cstack]
  6567                           
  6568                           
  6569                           ;mcc_generated_files/ext_int.c: 57:     if(INT_InterruptHandler)
  6570  0F9F  0140               	movlb	0	; select bank0
  6571  0FA0  0855               	movf	_INT_InterruptHandler,w
  6572  0FA1  0456               	iorwf	_INT_InterruptHandler+1,w
  6573  0FA2  1903               	btfsc	3,2
  6574  0FA3  2FA5               	goto	u83_21
  6575  0FA4  2FA6               	goto	u83_20
  6576  0FA5                     u83_21:
  6577  0FA5  2FAB               	goto	i1l275
  6578  0FA6                     u83_20:
  6579  0FA6                     i1l2012:
  6580                           
  6581                           ;mcc_generated_files/ext_int.c: 58:     {;mcc_generated_files/ext_int.c: 59:         INT
      +                          _InterruptHandler();
  6582  0FA6  0856               	movf	_INT_InterruptHandler+1,w
  6583  0FA7  008A               	movwf	10
  6584  0FA8  0855               	movf	_INT_InterruptHandler,w
  6585  0FA9  000A               	callw
  6586  0FAA  318F               	pagesel	$
  6587  0FAB                     i1l275:
  6588  0FAB  0008               	return
  6589  0FAC                     __end_of_INT_CallBack:
  6590                           
  6591                           	psect	text28
  6592  077F                     __ptext28:	
  6593 ;; *************** function _EXT_ISR *****************
  6594 ;; Defined at:
  6595 ;;		line 432 in file "main.c"
  6596 ;; Parameters:    Size  Location     Type
  6597 ;;		None
  6598 ;; Auto vars:     Size  Location     Type
  6599 ;;		None
  6600 ;; Return value:  Size  Location     Type
  6601 ;;                  1    wreg      void 
  6602 ;; Registers used:
  6603 ;;		wreg, status,2, status,0, pclath, cstack
  6604 ;; Tracked objects:
  6605 ;;		On entry : 0/0
  6606 ;;		On exit  : 0/0
  6607 ;;		Unchanged: 0/0
  6608 ;; Data sizes:     COMMON   BANK0   BANK1   BANK2   BANK3   BANK4   BANK5   BANK6   BANK7   BANK8   BANK9  BANK10  BANK1
      +1  BANK12
  6609 ;;      Params:         0       0       0       0       0       0       0       0       0       0       0       0       
      +0       0
  6610 ;;      Locals:         0       0       0       0       0       0       0       0       0       0       0       0       
      +0       0
  6611 ;;      Temps:          1       0       0       0       0       0       0       0       0       0       0       0       
      +0       0
  6612 ;;      Totals:         1       0       0       0       0       0       0       0       0       0       0       0       
      +0       0
  6613 ;;Total ram usage:        1 bytes
  6614 ;; Hardware stack levels used: 1
  6615 ;; Hardware stack levels required when called: 1
  6616 ;; This function calls:
  6617 ;;		_TMR0_Reload
  6618 ;; This function is called by:
  6619 ;;		_main
  6620 ;;		_INT_CallBack
  6621 ;; This function uses a non-reentrant model
  6622 ;;
  6623                           
  6624                           
  6625                           ;psect for function _EXT_ISR
  6626  077F                     _EXT_ISR:
  6627  077F                     i1l1900:	
  6628                           ;incstack = 0
  6629                           ; Regs used in _EXT_ISR: [wreg+status,2+status,0+pclath+cstack]
  6630                           
  6631                           
  6632                           ;main.c: 434:     presses++;
  6633  077F  3001               	movlw	1
  6634  0780  00F0               	movwf	??_EXT_ISR
  6635  0781  0870               	movf	??_EXT_ISR,w
  6636  0782  0140               	movlb	0	; select bank0
  6637  0783  07C9               	addwf	_presses,f
  6638  0784                     i1l1902:
  6639                           
  6640                           ;main.c: 435:     TMR0_Reload();
  6641  0784  318F  2773  3187   	fcall	_TMR0_Reload
  6642  0787                     i1l1904:
  6643                           
  6644                           ;main.c: 438:     if (T1CONbits.TMR1ON)
  6645  0787  0144               	movlb	4	; select bank4
  6646  0788  1C0E               	btfss	14,0	;volatile
  6647  0789  2F8B               	goto	u81_21
  6648  078A  2F8C               	goto	u81_20
  6649  078B                     u81_21:
  6650  078B  2F91               	goto	i1l1908
  6651  078C                     u81_20:
  6652  078C                     i1l1906:
  6653                           
  6654                           ;main.c: 439:     {;main.c: 440:         presses = 0;
  6655  078C  0140               	movlb	0	; select bank0
  6656  078D  01C9               	clrf	_presses
  6657                           
  6658                           ;main.c: 441:         count = 0;
  6659  078E  01C6               	clrf	_count
  6660  078F  01C7               	clrf	_count+1
  6661                           
  6662                           ;main.c: 442:     }
  6663  0790  2F93               	goto	i1l1910
  6664  0791                     i1l1908:
  6665                           
  6666                           ;main.c: 445:     {;main.c: 446:         TMR0_complete = 0;
  6667  0791  0140               	movlb	0	; select bank0
  6668  0792  01CB               	clrf	_TMR0_complete
  6669  0793                     i1l1910:
  6670                           
  6671                           ;main.c: 449:     if (presses > num_songs)
  6672  0793  0849               	movf	_presses,w
  6673  0794  023E               	subwf	_num_songs,w
  6674  0795  1803               	skipnc
  6675  0796  2F98               	goto	u82_21
  6676  0797  2F99               	goto	u82_20
  6677  0798                     u82_21:
  6678  0798  2F9A               	goto	i1l564
  6679  0799                     u82_20:
  6680  0799                     i1l1912:
  6681                           
  6682                           ;main.c: 450:     {;main.c: 451:         presses = 0;
  6683  0799  01C9               	clrf	_presses
  6684  079A                     i1l564:
  6685  079A  0008               	return
  6686  079B                     __end_of_EXT_ISR:
  6687                           
  6688                           	psect	text29
  6689  0F6B                     __ptext29:	
  6690 ;; *************** function _INT_DefaultInterruptHandler *****************
  6691 ;; Defined at:
  6692 ;;		line 67 in file "mcc_generated_files/ext_int.c"
  6693 ;; Parameters:    Size  Location     Type
  6694 ;;		None
  6695 ;; Auto vars:     Size  Location     Type
  6696 ;;		None
  6697 ;; Return value:  Size  Location     Type
  6698 ;;                  1    wreg      void 
  6699 ;; Registers used:
  6700 ;;		None
  6701 ;; Tracked objects:
  6702 ;;		On entry : 0/0
  6703 ;;		On exit  : 0/0
  6704 ;;		Unchanged: 0/0
  6705 ;; Data sizes:     COMMON   BANK0   BANK1   BANK2   BANK3   BANK4   BANK5   BANK6   BANK7   BANK8   BANK9  BANK10  BANK1
      +1  BANK12
  6706 ;;      Params:         0       0       0       0       0       0       0       0       0       0       0       0       
      +0       0
  6707 ;;      Locals:         0       0       0       0       0       0       0       0       0       0       0       0       
      +0       0
  6708 ;;      Temps:          0       0       0       0       0       0       0       0       0       0       0       0       
      +0       0
  6709 ;;      Totals:         0       0       0       0       0       0       0       0       0       0       0       0       
      +0       0
  6710 ;;Total ram usage:        0 bytes
  6711 ;; Hardware stack levels used: 1
  6712 ;; This function calls:
  6713 ;;		Nothing
  6714 ;; This function is called by:
  6715 ;;		_EXT_INT_Initialize
  6716 ;;		_INT_CallBack
  6717 ;; This function uses a non-reentrant model
  6718 ;;
  6719                           
  6720                           
  6721                           ;psect for function _INT_DefaultInterruptHandler
  6722  0F6B                     _INT_DefaultInterruptHandler:
  6723  0F6B                     i1l281:	
  6724                           ;incstack = 0
  6725                           ; Regs used in _INT_DefaultInterruptHandler: []
  6726                           
  6727  0F6B  0008               	return
  6728  0F6C                     __end_of_INT_DefaultInterruptHandler:
  6729                           
  6730                           	psect	text30
  6731  0F73                     __ptext30:	
  6732 ;; *************** function _TMR0_Reload *****************
  6733 ;; Defined at:
  6734 ;;		line 127 in file "mcc_generated_files/tmr0.c"
  6735 ;; Parameters:    Size  Location     Type
  6736 ;;		None
  6737 ;; Auto vars:     Size  Location     Type
  6738 ;;		None
  6739 ;; Return value:  Size  Location     Type
  6740 ;;                  1    wreg      void 
  6741 ;; Registers used:
  6742 ;;		wreg, status,2
  6743 ;; Tracked objects:
  6744 ;;		On entry : 0/0
  6745 ;;		On exit  : 0/0
  6746 ;;		Unchanged: 0/0
  6747 ;; Data sizes:     COMMON   BANK0   BANK1   BANK2   BANK3   BANK4   BANK5   BANK6   BANK7   BANK8   BANK9  BANK10  BANK1
      +1  BANK12
  6748 ;;      Params:         0       0       0       0       0       0       0       0       0       0       0       0       
      +0       0
  6749 ;;      Locals:         0       0       0       0       0       0       0       0       0       0       0       0       
      +0       0
  6750 ;;      Temps:          0       0       0       0       0       0       0       0       0       0       0       0       
      +0       0
  6751 ;;      Totals:         0       0       0       0       0       0       0       0       0       0       0       0       
      +0       0
  6752 ;;Total ram usage:        0 bytes
  6753 ;; Hardware stack levels used: 1
  6754 ;; This function calls:
  6755 ;;		Nothing
  6756 ;; This function is called by:
  6757 ;;		_EXT_ISR
  6758 ;; This function uses a non-reentrant model
  6759 ;;
  6760                           
  6761                           
  6762                           ;psect for function _TMR0_Reload
  6763  0F73                     _TMR0_Reload:
  6764  0F73                     i1l1884:	
  6765                           ;incstack = 0
  6766                           ; Regs used in _TMR0_Reload: [wreg+status,2]
  6767                           
  6768                           
  6769                           ;mcc_generated_files/tmr0.c: 130:     TMR0H = timer0ReloadVal16bit >> 8;
  6770  0F73  0878               	movf	_timer0ReloadVal16bit+1,w	;volatile
  6771  0F74  014B               	movlb	11	; select bank11
  6772  0F75  009D               	movwf	29	;volatile
  6773  0F76                     i1l1886:
  6774                           
  6775                           ;mcc_generated_files/tmr0.c: 131:     TMR0L = (uint8_t) timer0ReloadVal16bit;
  6776  0F76  0877               	movf	_timer0ReloadVal16bit,w	;volatile
  6777  0F77  009C               	movwf	28	;volatile
  6778  0F78                     i1l324:
  6779  0F78  0008               	return
  6780  0F79                     __end_of_TMR0_Reload:
  6781  007E                     btemp	set	126	;btemp
  6782  007E                     int$flags	set	126
  6783  007E                     wtemp0	set	126
  6784  22DC                     
  6785                           	psect	config
  6786                           
  6787                           ;Config register CONFIG1 @ 0x8007
  6788                           ;	External Oscillator Mode Selection bits
  6789                           ;	FEXTOSC = OFF, Oscillator not enabled
  6790                           ;	Power-up Default Value for COSC bits
  6791                           ;	RSTOSC = HFINTOSC_1MHZ, HFINTOSC (1 MHz)
  6792                           ;	Clock Out Enable bit
  6793                           ;	CLKOUTEN = OFF, CLKOUT function is disabled; I/O function on RA4
  6794                           ;	VDD Range Analog Calibration Selection bit
  6795                           ;	VDDAR = HI, Internal analog systems are calibrated for operation between VDD = 2.3V - 
      +                          5.5V
  6796  8007                     	org	32775
  6797  8007  3FED               	dw	16365
  6798                           
  6799                           ;Config register CONFIG2 @ 0x8008
  6800                           ;	Master Clear Enable bit
  6801                           ;	MCLRE = EXTMCLR, If LVP = 0, MCLR pin is MCLR; If LVP = 1, RA3 pin function is MCLR
  6802                           ;	Power-up Timer Selection bits
  6803                           ;	PWRTS = PWRT_OFF, PWRT is disabled
  6804                           ;	WDT Operating Mode bits
  6805                           ;	WDTE = OFF, WDT disabled; SEN is ignored
  6806                           ;	Brown-out Reset Enable bits
  6807                           ;	BOREN = ON, Brown-out Reset Enabled, SBOREN bit is ignored
  6808                           ;	Brown-out Reset Voltage Selection bit
  6809                           ;	BORV = LO, Brown-out Reset Voltage (VBOR) set to 1.9V
  6810                           ;	PPSLOCKED One-Way Set Enable bit
  6811                           ;	PPS1WAY = ON, The PPSLOCKED bit can be set once after an unlocking sequence is execute
      +                          d; once PPSLOCKED is set, all future changes to PPS registers are prevented
  6812                           ;	Stack Overflow/Underflow Reset Enable bit
  6813                           ;	STVREN = ON, Stack Overflow or Underflow will cause a reset
  6814  8008                     	org	32776
  6815  8008  3FE7               	dw	16359
  6816                           
  6817                           ;Config register CONFIG4 @ 0x800A
  6818                           ;	Boot Block Size Selection bits
  6819                           ;	BBSIZE = BB512, 512 words boot block size
  6820                           ;	Boot Block Enable bit
  6821                           ;	BBEN = OFF, Boot Block is disabled
  6822                           ;	SAF Enable bit
  6823                           ;	SAFEN = OFF, SAF is disabled
  6824                           ;	Application Block Write Protection bit
  6825                           ;	WRTAPP = OFF, Application Block is not write-protected
  6826                           ;	Boot Block Write Protection bit
  6827                           ;	WRTB = OFF, Boot Block is not write-protected
  6828                           ;	Configuration Registers Write Protection bit
  6829                           ;	WRTC = OFF, Configuration Registers are not write-protected
  6830                           ;	Storage Area Flash (SAF) Write Protection bit
  6831                           ;	WRTSAF = OFF, SAF is not write-protected
  6832                           ;	Low Voltage Programming Enable bit
  6833                           ;	LVP = ON, Low Voltage programming enabled. MCLR/Vpp pin function is MCLR. MCLRE Config
      +                          uration bit is ignored.
  6834  800A                     	org	32778
  6835  800A  3FFF               	dw	16383
  6836                           
  6837                           ;Config register CONFIG5 @ 0x800B
  6838                           ;	User Program Flash Memory Code Protection bit
  6839                           ;	CP = OFF, User Program Flash Memory code protection is disabled
  6840  800B                     	org	32779
  6841  800B  3FFF               	dw	16383

Data Sizes:
    Strings     0
    Constant    4
    Data        390
    BSS         10
    Persistent  42
    Stack       0

Auto Spaces:
    Space          Size  Autos    Used
    COMMON           14      7      10
    BANK0            80     24      55
    BANK1            80      9      77
    BANK2            80      9      41
    BANK3            80      0       0
    BANK4            80      0       0
    BANK5            80      0       0
    BANK6            80      0       0
    BANK7            80      0       0
    BANK8            80      0       0
    BANK9            12      0       0
    BANK10            0      0       0
    BANK11            0      0       0
    BANK12            0      0       0

Pointer List with Targets:

    displayMatrix@states	PTR unsigned char  size(1) Largest target is 7
		 -> light_array(BANK0[7]), 

    TMR1_SetInterruptHandler@InterruptHandler	PTR FTN()void  size(2) Largest target is 1
		 -> TMR1_ISR_(), TMR1_DefaultInterruptHandler(), 

    TMR1_InterruptHandler	PTR FTN()void  size(2) Largest target is 1
		 -> TMR1_ISR_(), TMR1_DefaultInterruptHandler(), Absolute function(), 

    TMR0_SetInterruptHandler@InterruptHandler	PTR FTN()void  size(2) Largest target is 1
		 -> TMR0_ISR_(), TMR0_DefaultInterruptHandler(), 

    TMR0_InterruptHandler	PTR FTN()void  size(2) Largest target is 1
		 -> TMR0_ISR_(), TMR0_DefaultInterruptHandler(), Absolute function(), 

    INT_SetInterruptHandler@InterruptHandler	PTR FTN()void  size(2) Largest target is 1
		 -> EXT_ISR(), INT_DefaultInterruptHandler(), 

    INT_InterruptHandler	PTR FTN()void  size(2) Largest target is 1
		 -> EXT_ISR(), INT_DefaultInterruptHandler(), Absolute function(), 


Critical Paths under _main in COMMON

    _main->_displayMatrix
    _displayMatrix->_shiftBytes
    _shiftBytes->_SPI1_ExchangeByte
    _TMR1_Initialize->_TMR1_SetInterruptHandler
    _TMR0_Initialize->_TMR0_SetInterruptHandler
    _EXT_INT_Initialize->_INT_SetInterruptHandler

Critical Paths under _INTERRUPT_InterruptManager in COMMON

    _TMR1_ISR->_TMR1_ISR_
    _TMR1_ISR->_TMR1_WriteTimer
    _INT_CallBack->_EXT_ISR

Critical Paths under _main in BANK0

    None.

Critical Paths under _INTERRUPT_InterruptManager in BANK0

    _TMR1_ISR->_TMR1_ISR_

Critical Paths under _main in BANK1

    _main->_displayMatrix

Critical Paths under _INTERRUPT_InterruptManager in BANK1

    None.

Critical Paths under _main in BANK2

    None.

Critical Paths under _INTERRUPT_InterruptManager in BANK2

    None.

Critical Paths under _main in BANK3

    None.

Critical Paths under _INTERRUPT_InterruptManager in BANK3

    None.

Critical Paths under _main in BANK4

    None.

Critical Paths under _INTERRUPT_InterruptManager in BANK4

    None.

Critical Paths under _main in BANK5

    None.

Critical Paths under _INTERRUPT_InterruptManager in BANK5

    None.

Critical Paths under _main in BANK6

    None.

Critical Paths under _INTERRUPT_InterruptManager in BANK6

    None.

Critical Paths under _main in BANK7

    None.

Critical Paths under _INTERRUPT_InterruptManager in BANK7

    None.

Critical Paths under _main in BANK8

    None.

Critical Paths under _INTERRUPT_InterruptManager in BANK8

    None.

Critical Paths under _main in BANK9

    None.

Critical Paths under _INTERRUPT_InterruptManager in BANK9

    None.

Critical Paths under _main in BANK10

    None.

Critical Paths under _INTERRUPT_InterruptManager in BANK10

    None.

Critical Paths under _main in BANK11

    None.

Critical Paths under _INTERRUPT_InterruptManager in BANK11

    None.

Critical Paths under _main in BANK12

    None.

Critical Paths under _INTERRUPT_InterruptManager in BANK12

    None.

Call Graph Tables:

 ---------------------------------------------------------------------------------
 (Depth) Function   	        Calls       Base Space   Used Autos Params    Refs
 ---------------------------------------------------------------------------------
 (0) _main                                                15    15      0    3983
                                              4 BANK1      5     5      0
                                              0 BANK2      9     9      0
                 _EXT_INT_Initialize
            _INT_SetInterruptHandler
                    _PWM3_Initialize
                    _SPI1_Initialize
                  _SYSTEM_Initialize
                    _TMR0_Initialize
           _TMR0_SetInterruptHandler
                    _TMR1_Initialize
           _TMR1_SetInterruptHandler
                    _TMR2_Initialize
                      _displayMatrix
                           _playNote
                         _shiftBytes
 ---------------------------------------------------------------------------------
 (1) _playNote                                             3     2      1     456
                                              2 COMMON     3     2      1
 ---------------------------------------------------------------------------------
 (1) _displayMatrix                                        6     6      0     739
                                              5 COMMON     2     2      0
                                              0 BANK1      4     4      0
                         _shiftBytes
 ---------------------------------------------------------------------------------
 (1) _shiftBytes                                           2     1      1     363
                                              3 COMMON     2     1      1
                  _SPI1_ExchangeByte
 ---------------------------------------------------------------------------------
 (2) _SPI1_ExchangeByte                                    1     1      0      31
                                              2 COMMON     1     1      0
 ---------------------------------------------------------------------------------
 (1) _SYSTEM_Initialize                                    0     0      0     633
                 _EXT_INT_Initialize
              _OSCILLATOR_Initialize
             _PIN_MANAGER_Initialize
                    _PWM3_Initialize
                    _SPI1_Initialize
                    _TMR0_Initialize
                    _TMR1_Initialize
                    _TMR2_Initialize
                     _WDT_Initialize
 ---------------------------------------------------------------------------------
 (2) _WDT_Initialize                                       0     0      0       0
 ---------------------------------------------------------------------------------
 (1) _TMR2_Initialize                                      0     0      0       0
 ---------------------------------------------------------------------------------
 (1) _TMR1_Initialize                                      0     0      0     211
           _TMR1_SetInterruptHandler
 ---------------------------------------------------------------------------------
 (1) _TMR1_SetInterruptHandler                             2     0      2     211
                                              2 COMMON     2     0      2
 ---------------------------------------------------------------------------------
 (1) _TMR0_Initialize                                      0     0      0     211
           _TMR0_SetInterruptHandler
 ---------------------------------------------------------------------------------
 (1) _TMR0_SetInterruptHandler                             2     0      2     211
                                              2 COMMON     2     0      2
 ---------------------------------------------------------------------------------
 (2) _SPI1_Initialize                                      0     0      0       0
 ---------------------------------------------------------------------------------
 (2) _PWM3_Initialize                                      0     0      0       0
 ---------------------------------------------------------------------------------
 (2) _PIN_MANAGER_Initialize                               0     0      0       0
 ---------------------------------------------------------------------------------
 (2) _OSCILLATOR_Initialize                                0     0      0       0
 ---------------------------------------------------------------------------------
 (2) _EXT_INT_Initialize                                   0     0      0     211
            _INT_SetInterruptHandler
 ---------------------------------------------------------------------------------
 (3) _INT_SetInterruptHandler                              2     0      2     211
                                              2 COMMON     2     0      2
 ---------------------------------------------------------------------------------
 Estimated maximum stack depth 3
 ---------------------------------------------------------------------------------
 (Depth) Function   	        Calls       Base Space   Used Autos Params    Refs
 ---------------------------------------------------------------------------------
 (4) _INTERRUPT_InterruptManager                           0     0      0    1345
                            _INT_ISR
                           _TMR0_ISR
                           _TMR1_ISR
 ---------------------------------------------------------------------------------
 (5) _TMR1_ISR                                             0     0      0    1345
                   Absolute function *
       _TMR1_DefaultInterruptHandler *
                          _TMR1_ISR_ *
                    _TMR1_WriteTimer
 ---------------------------------------------------------------------------------
 (6) _TMR1_WriteTimer                                      2     0      2     240
                                              0 COMMON     2     0      2
 ---------------------------------------------------------------------------------
 (6) _TMR1_ISR_                                           26    26      0    1105
                                              0 COMMON     2     2      0
                                              0 BANK0     24    24      0
 ---------------------------------------------------------------------------------
 (6) _TMR1_DefaultInterruptHandler                         0     0      0       0
 ---------------------------------------------------------------------------------
 (5) _TMR0_ISR                                             0     0      0       0
                   Absolute function *
       _TMR0_DefaultInterruptHandler *
                          _TMR0_ISR_ *
 ---------------------------------------------------------------------------------
 (6) _TMR0_ISR_                                            0     0      0       0
 ---------------------------------------------------------------------------------
 (6) _TMR0_DefaultInterruptHandler                         0     0      0       0
 ---------------------------------------------------------------------------------
 (5) _INT_ISR                                              0     0      0       0
                       _INT_CallBack
 ---------------------------------------------------------------------------------
 (6) _INT_CallBack                                         0     0      0       0
                   Absolute function *
                            _EXT_ISR *
        _INT_DefaultInterruptHandler *
 ---------------------------------------------------------------------------------
 (7) _INT_DefaultInterruptHandler                          0     0      0       0
 ---------------------------------------------------------------------------------
 (7) _EXT_ISR                                              1     1      0       0
                                              0 COMMON     1     1      0
                        _TMR0_Reload
 ---------------------------------------------------------------------------------
 (8) _TMR0_Reload                                          0     0      0       0
 ---------------------------------------------------------------------------------
 (6) Absolute function(Fake)                               0     0      0       0
 ---------------------------------------------------------------------------------
 Estimated maximum stack depth 8
 ---------------------------------------------------------------------------------

 Call Graph Graphs:

 _main (ROOT)
   _EXT_INT_Initialize
     _INT_SetInterruptHandler
   _INT_SetInterruptHandler
   _PWM3_Initialize
   _SPI1_Initialize
   _SYSTEM_Initialize
     _EXT_INT_Initialize
     _OSCILLATOR_Initialize
     _PIN_MANAGER_Initialize
     _PWM3_Initialize
     _SPI1_Initialize
     _TMR0_Initialize
       _TMR0_SetInterruptHandler
     _TMR1_Initialize
       _TMR1_SetInterruptHandler
     _TMR2_Initialize
     _WDT_Initialize
   _TMR0_Initialize
   _TMR0_SetInterruptHandler
   _TMR1_Initialize
   _TMR1_SetInterruptHandler
   _TMR2_Initialize
   _displayMatrix
     _shiftBytes
       _SPI1_ExchangeByte
   _playNote
   _shiftBytes

 _INTERRUPT_InterruptManager (ROOT)
   _INT_ISR
     _INT_CallBack
       Absolute function(Fake) *
       _EXT_ISR *
         _TMR0_Reload
       _INT_DefaultInterruptHandler *
   _TMR0_ISR
     Absolute function(Fake) *
     _TMR0_DefaultInterruptHandler *
     _TMR0_ISR_ *
   _TMR1_ISR
     Absolute function(Fake) *
     _TMR1_DefaultInterruptHandler *
     _TMR1_ISR_ *
     _TMR1_WriteTimer *

 Address spaces:
Name               Size   Autos  Total    Cost      Usage
BIGRAM             3F0      0       0       0        0.0%
NULL                 0      0       0       0        0.0%
CODE                 0      0       0       0        0.0%
BITCOMMON            E      0       0       1        0.0%
BITSFR0              0      0       0       1        0.0%
SFR0                 0      0       0       1        0.0%
COMMON               E      7       A       2       71.4%
BITSFR1              0      0       0       2        0.0%
SFR1                 0      0       0       2        0.0%
BITSFR2              0      0       0       3        0.0%
SFR2                 0      0       0       3        0.0%
STACK                0      0       0       3        0.0%
BITSFR3              0      0       0       4        0.0%
SFR3                 0      0       0       4        0.0%
ABS                  0      0      B7       4        0.0%
BITBANK0            50      0       0       5        0.0%
BITSFR4              0      0       0       5        0.0%
SFR4                 0      0       0       5        0.0%
BANK0               50     18      37       6       68.8%
BITSFR5              0      0       0       6        0.0%
SFR5                 0      0       0       6        0.0%
BITBANK1            50      0       0       7        0.0%
BITSFR6              0      0       0       7        0.0%
SFR6                 0      0       0       7        0.0%
BANK1               50      9      4D       8       96.2%
BITSFR7              0      0       0       8        0.0%
SFR7                 0      0       0       8        0.0%
BITBANK2            50      0       0       9        0.0%
BITSFR8              0      0       0       9        0.0%
SFR8                 0      0       0       9        0.0%
BANK2               50      9      29      10       51.2%
BITSFR9              0      0       0      10        0.0%
SFR9                 0      0       0      10        0.0%
BITBANK3            50      0       0      11        0.0%
BITSFR10             0      0       0      11        0.0%
SFR10                0      0       0      11        0.0%
BANK3               50      0       0      12        0.0%
BITSFR11             0      0       0      12        0.0%
SFR11                0      0       0      12        0.0%
BITBANK4            50      0       0      13        0.0%
BITSFR12             0      0       0      13        0.0%
SFR12                0      0       0      13        0.0%
BANK4               50      0       0      14        0.0%
BITSFR13             0      0       0      14        0.0%
SFR13                0      0       0      14        0.0%
BITBANK5            50      0       0      15        0.0%
BITSFR14             0      0       0      15        0.0%
SFR14                0      0       0      15        0.0%
BANK5               50      0       0      16        0.0%
BITSFR15             0      0       0      16        0.0%
SFR15                0      0       0      16        0.0%
BITBANK6            50      0       0      17        0.0%
BITSFR16             0      0       0      17        0.0%
SFR16                0      0       0      17        0.0%
BANK6               50      0       0      18        0.0%
BITSFR17             0      0       0      18        0.0%
SFR17                0      0       0      18        0.0%
BITBANK7            50      0       0      19        0.0%
BITSFR18             0      0       0      19        0.0%
SFR18                0      0       0      19        0.0%
BANK7               50      0       0      20        0.0%
BITSFR19             0      0       0      20        0.0%
SFR19                0      0       0      20        0.0%
BITBANK8            50      0       0      21        0.0%
BITSFR20             0      0       0      21        0.0%
SFR20                0      0       0      21        0.0%
BANK8               50      0       0      22        0.0%
BITSFR21             0      0       0      22        0.0%
SFR21                0      0       0      22        0.0%
BITBANK9            50      0       0      23        0.0%
BITSFR22             0      0       0      23        0.0%
SFR22                0      0       0      23        0.0%
BANK9                C      0       0      24        0.0%
BITSFR23             0      0       0      24        0.0%
SFR23                0      0       0      24        0.0%
BITBANK10           50      0       0      25        0.0%
BITSFR24             0      0       0      25        0.0%
SFR24                0      0       0      25        0.0%
BITSFR25             0      0       0      26        0.0%
SFR25                0      0       0      26        0.0%
BANK10               0      0       0      26        0.0%
BITBANK11           50      0       0      27        0.0%
BITSFR26             0      0       0      27        0.0%
SFR26                0      0       0      27        0.0%
BITSFR27             0      0       0      28        0.0%
SFR27                0      0       0      28        0.0%
BANK11               0      0       0      28        0.0%
BITBANK12           30      0       0      29        0.0%
BITSFR28             0      0       0      29        0.0%
SFR28                0      0       0      29        0.0%
BITSFR29             0      0       0      30        0.0%
SFR29                0      0       0      30        0.0%
BANK12               0      0       0      30        0.0%
BITSFR30             0      0       0      31        0.0%
SFR30                0      0       0      31        0.0%
DATA                 0      0      B7      31        0.0%
BITSFR31             0      0       0      32        0.0%
SFR31                0      0       0      32        0.0%
BITSFR32             0      0       0      33        0.0%
SFR32                0      0       0      33        0.0%
BITSFR33             0      0       0      34        0.0%
SFR33                0      0       0      34        0.0%
BITSFR34             0      0       0      35        0.0%
SFR34                0      0       0      35        0.0%
BITSFR35             0      0       0      36        0.0%
SFR35                0      0       0      36        0.0%
BITSFR36             0      0       0      37        0.0%
SFR36                0      0       0      37        0.0%
BITSFR37             0      0       0      38        0.0%
SFR37                0      0       0      38        0.0%
BITSFR38             0      0       0      39        0.0%
SFR38                0      0       0      39        0.0%
BITSFR39             0      0       0      40        0.0%
SFR39                0      0       0      40        0.0%
BITSFR40             0      0       0      41        0.0%
SFR40                0      0       0      41        0.0%
BITSFR41             0      0       0      42        0.0%
SFR41                0      0       0      42        0.0%
BITSFR42             0      0       0      43        0.0%
SFR42                0      0       0      43        0.0%
BITSFR43             0      0       0      44        0.0%
SFR43                0      0       0      44        0.0%
BITSFR44             0      0       0      45        0.0%
SFR44                0      0       0      45        0.0%
BITSFR45             0      0       0      46        0.0%
SFR45                0      0       0      46        0.0%
BITSFR46             0      0       0      47        0.0%
SFR46                0      0       0      47        0.0%
BITSFR47             0      0       0      48        0.0%
SFR47                0      0       0      48        0.0%
BITSFR48             0      0       0      49        0.0%
SFR48                0      0       0      49        0.0%
BITSFR49             0      0       0      50        0.0%
SFR49                0      0       0      50        0.0%
BITSFR50             0      0       0      51        0.0%
SFR50                0      0       0      51        0.0%
BITSFR51             0      0       0      52        0.0%
SFR51                0      0       0      52        0.0%
BITSFR52             0      0       0      53        0.0%
SFR52                0      0       0      53        0.0%
BITSFR53             0      0       0      54        0.0%
SFR53                0      0       0      54        0.0%
BITSFR54             0      0       0      55        0.0%
SFR54                0      0       0      55        0.0%
BITSFR55             0      0       0      56        0.0%
SFR55                0      0       0      56        0.0%
BITSFR56             0      0       0      57        0.0%
SFR56                0      0       0      57        0.0%
BITSFR57             0      0       0      58        0.0%
SFR57                0      0       0      58        0.0%
BITSFR58             0      0       0      59        0.0%
SFR58                0      0       0      59        0.0%
BITSFR59             0      0       0      60        0.0%
SFR59                0      0       0      60        0.0%
BITSFR60             0      0       0      61        0.0%
SFR60                0      0       0      61        0.0%
BITSFR61             0      0       0      62        0.0%
SFR61                0      0       0      62        0.0%
BITSFR62             0      0       0      63        0.0%
SFR62                0      0       0      63        0.0%
BITSFR63             0      0       0      64        0.0%
SFR63                0      0       0      64        0.0%


Microchip Technology PIC Macro Assembler V2.32 build 20210201212658 
Symbol Table                                                                                   Mon Dec 13 10:33:35 2021

                       _SPI1_ExchangeByte 0FB9                                        l32 0F8A  
                                      l35 0F6E                                        l29 077E  
                                      l64 07DF                                        l74 0FBD  
                                      l76 0FC2                                        l77 0FC5  
                      ?_SPI1_ExchangeByte 0070                                       l226 0F9E  
                                     l147 0704                                       l331 0F90  
                                     l309 07B3                                       l177 0FE0  
                                     l531 0403                                       l284 0FB8  
                                     l365 0744                                       l278 0F84  
                                     l552 0542                                       l641 0FD2  
                                     l625 0750                                       l626 0759  
                                     l554 0544                                       l395 0F96  
                                     l627 0762                                       l555 0545  
                                     l539 04B5                                       l648 06DC  
                                     _PR2 028D                           _timer1ReloadVal 0051  
                     ??_SPI1_ExchangeByte 0072                           _TMR2_Initialize 0FD3  
                                     wreg 0009                            ?_displayMatrix 0070  
                                    l2500 07D9                                      l2510 06E2  
                                    l2502 07DB                                      l2520 06F1  
                                    l2512 06E4                                      l2504 07DD  
                                    l2600 076C                                      l2530 06FD  
                                    l2522 06F3                                      l2514 06E7  
                                    l2506 06DD                                      l2610 077B  
                                    l2602 076F                                      l2540 0F89  
                                    l2532 06FF                                      l2524 06F5  
                                    l2516 06ED                                      l2508 06E0  
                                    l2604 0772                                      l2620 06AC  
                                    l2612 06A3                                      l2700 0366  
                                    l2534 0701                                      l2526 06F8  
                                    l2518 06EF                                      l2550 0FD7  
                                    l2542 0F6C                                      l2606 0775  
                                    l2630 06CF                                      l2622 06B1  
                                    l2710 0388                                      l2702 0375  
                                    l2536 0F85                                      l2528 06FA  
                                    l2544 0F97                                      l2560 0728  
                                    l2552 0FDA                                      l2608 0778  
                                    l2624 06B5                                      l2632 0746  
                                    l2712 03B2                                      l2704 0385  
                                    l2490 0F7F                                      l2538 0F87  
                                    l2570 0738                                      l2562 072A  
                                    l2554 0FDB                                      l2546 0FD3  
                                    l2626 06C3                                      l2618 06A6  
                                    l2634 074D                                      l2730 0405  
                                    l2722 03CA                                      l2714 03B7  
                                    l2580 0FB6                                      l2492 0F8B  
                                    l2572 073A                                      l2564 072C  
                                    l2556 0FDD                                      l2548 0FD6  
                                    l2484 0FBA                                      l2628 06CA  
                                    l2636 0756                                      l2812 04AA  
                                    l2740 0418                                      l2732 040B  
                                    l2724 03DB                                      l2716 03C7  
                                    l2660 031F                                      l2590 07B0  
                                    l2582 079B                                      l2494 0F91  
                                    l2574 0741                                      l2566 072E  
                                    l2558 0725                                      l2486 0FC3  
                                    l2750 0473                                      l2742 041B  
                                    l2734 040D                                      l2726 03E0  
                                    l2670 0331                                      l2662 0321  
                                    l2654 0317                                      l2576 0FAC  
                                    l2496 07CB                                      l2584 07A6  
                                    l2568 0730                                      l2592 0FC7  
                                    l2760 04BA                                      l2752 049C  
                                    l2744 0444                                      l2736 040E  
                                    l2728 03EF                                      l2680 0355  
                                    l2672 033D                                      l2664 0323  
                                    l2656 031A                                      l2578 0FAF  
                                    l2498 07D8                                      l2586 07A8  
                                    l2594 0FCF                                      l2770 051F  
                                    l2762 04E3                                      l2754 049D  
                                    l2746 0447                                      l2738 0413  
                                    l2690 035A                                      l2682 0356  
                                    l2674 0349                                      l2666 0324  
                                    l2658 031B                                      l2588 07A9  
                                    l2596 0FD1                                      l2780 0534  
                                    l2772 0526                                      l2764 04EA  
                                    l2748 0470                                      l2684 0357  
                                    l2676 034E                                      l2668 0325  
                                    l2598 0763                                      l2782 0539  
                                    l2774 052A                                      l2766 0500  
                                    l2758 04A0                                      l2678 0353  
                                    l2776 052C                                      l2768 0508  
                                    l2696 035D                                      l2778 052E  
                                    l2698 0361                                      _LATA 0018  
                         __end_of_INT_ISR 0F7F                                      _LATC 001A  
                                    u1610 0375                                      u1611 0374  
                                    u1540 0FC2                                      u1700 04E9  
                                    u1620 0385                                      u1541 0FC1  
                                    u1701 04E8                                      u1621 0384  
                                    u1550 06AC                                      u1710 0507  
                                    u1551 06AB                                      u1711 0506  
                                    u1615 0371                                      u1560 06DC  
                                    u1720 0526                                      u1561 06DB  
                                    u1721 0525                                      u1625 0381  
                                    u1570 074D                                      u1730 0534  
                                    u1650 03C6                                      _T2PR 028D  
                                    u1571 074C                                      u1731 0533  
                                    u1651 03C5                                      u1635 0391  
                                    u1580 0756                                      u1740 0539  
                                    u1660 03EF                                      u1565 06D8  
                                    u1581 0755                                      u1741 0538  
                                    u1661 03EE                                      u1645 039E  
                                    u1670 0403                                      u1671 0402  
                                    u1655 03C2                                      u1680 0413  
                                    u1681 0412                                      u1665 03EB  
                                    u1690 0418                                      u1691 0417  
                                    u1675 03FF                                      u1757 06C6  
                         __end_of_EXT_ISR 079B                                      _TMR2 028C  
                                    _WPUA 1F39                                      _WPUC 1F4F  
                                    _main 0317                                      fsr0h 0005  
                                    fsr1h 0007                                      fsr0l 0004  
                                    indf1 0001                                      fsr1l 0006  
                                    btemp 007E       __end_of_INT_DefaultInterruptHandler 0F6C  
             _INT_DefaultInterruptHandler 0F6B                                      start 0031  
         __end_of_INT_SetInterruptHandler 0F85                 __end_of_SPI1_ExchangeByte 0FC6  
              ??_TMR1_SetInterruptHandler 0074                   __end_of_TMR0_Initialize 07B4  
          ??_TMR0_DefaultInterruptHandler 0070            __size_of_OSCILLATOR_Initialize 0006  
           __end_of_OSCILLATOR_Initialize 0F8B                                     ?_main 0070  
                                   _T1CLK 0211                                     _T1CON 020E  
                                   _T2CON 028E                                     _T2HLT 028F  
                                   _T2TMR 028C                                     i1l250 0013  
                                   _T2RST 0291                                     i1l324 0F78  
                                   i1l252 001F                                     i1l253 002F  
                                   i1l334 0002                                     i1l271 0F7E  
                                   i1l328 07F3                                     i1l281 0F6B  
                                   i1l258 002F                                     i1l275 0FAB  
                                   i1l622 0316                                     i1l615 02C5  
                                   i1l392 07CA                                     i1l619 0316  
                                   i1l379 0FFF                                     i1l564 079A  
                                   i1l398 0003                                     i1l567 0F72  
                                   i1l588 01D8                                     i1l589 01A8  
                                   _OSCEN 0891                                     _TMR0H 059D  
                        playNote@prescale 0072                                     _TMR1H 020D  
                                   _TMR0L 059C                                     _TMR1L 020C  
                                   u81_20 078C                                     u81_21 078B  
                                   _TRISA 0012                                     _TRISC 0014  
                                   u82_20 0799                                     u82_21 0798  
                                   u90_25 00C7                                     u83_20 0FA6  
                                   u91_20 00EC                                     u83_21 0FA5  
                                   u91_21 00EB                                     u91_25 00E8  
                                   u92_20 00FB                                     u84_20 0FF4  
                                   u92_21 00FA                                     u84_21 0FF3  
                                   u92_25 00F7                                     u93_20 011D  
                                   u85_20 0083                                     u93_21 011C  
                                   u85_21 0082                                     u93_25 0119  
                                   u86_20 0090                                     u86_21 008F  
                                   u94_25 0129                                     u86_25 008C  
                                   u95_20 014E                                     u87_20 009E  
                                   u95_21 014D                                     u87_21 009D  
                                   u95_25 014A                                     u87_25 009A  
                                   u96_20 0154                                     u88_20 00AC  
                                   u96_21 0153                                     u88_21 00AB  
                                   u88_25 00A8                                     u97_20 0161  
                                   u89_20 00BD                                     u97_21 0160  
                                   u89_21 00BC                                     u97_25 015D  
                                   u98_20 0182                                     u98_21 0181  
                                   u98_25 017E                                     u99_20 018B  
                                   u99_21 018A         __size_of_TMR0_SetInterruptHandler 0006  
               ?_TMR0_SetInterruptHandler 0072                        __size_of_TMR0_ISR_ 0004  
                      __size_of_TMR1_ISR_ 029E                          __end_of_TMR0_ISR 07F4  
                        __end_of_TMR1_ISR 07CB                            _WDT_Initialize 0F6C  
                                   _count 0046                                     _song2 00D2  
                                   _song3 00A0                                     main@i 0143  
                                   main@j 0141                   __end_of_PWM3_Initialize 0F9F  
                 __end_of_TMR1_Initialize 0745                                     pclath 000A  
                                   status 0003                                     wtemp0 007E  
                         _TMR1_WriteTimer 0FEF                  __size_of_SPI1_Initialize 0015  
                         __initialization 0033                              __end_of_main 0549  
                 __end_of_TMR2_Initialize 0FE1               ?_INTERRUPT_InterruptManager 0070  
                    TMR1_ISR_@lights_1180 0022                      TMR1_ISR_@lights_1177 0021  
                    TMR1_ISR_@lights_1186 0031                                    ??_main 00E8  
                         ??_displayMatrix 0075                    __end_of_WDT_Initialize 0F6F  
                               ??_INT_ISR 0071                                 ??_EXT_ISR 0070  
                                  _ANSELA 1F38                                    _ANSELC 1F4E  
                                  _T0CON0 059E                                    _T0CON1 059F  
                                  _T1GATE 0210                                    _T1GCON 020F  
                                  _RA5PPS 1F15                                    u100_20 01A7  
                                  u100_21 01A6                                    u100_25 01A3  
                                  u101_20 01AC                                    u101_21 01AB  
                                  _RC3PPS 1F23                                    u110_20 0232  
                                  u110_21 0231                                    i1l2010 0F9F  
                 TMR1_WriteTimer@timerVal 0070                                    i1l2012 0FA6  
                                  i1l2100 0175                                    i1l2020 0FF7  
                                  u102_25 01AF                                    i1l2110 018D  
                                  i1l2102 0183                                    i1l2022 0FF9  
                                  i1l2014 0FEF                                    i1l2200 02B1  
                                  u111_20 024E                                    u103_20 01D7  
                                  i1l2112 0196                                    i1l2104 018B  
                                  i1l2040 0083                                    i1l2016 0FF4  
                                  i1l2024 0FFB                                    u111_21 024D  
                                  u103_21 01D6                                    i1l2034 0F6F  
                                  i1l2210 02DD                                    i1l2202 02B8  
                                  i1l2114 019A                                    i1l2130 01D8  
                                  i1l2042 0090                                    i1l2026 0FFD  
                                  i1l2018 0FF5                                    _RC5PPS 1F25  
                                  i1l2220 0302                                    i1l2212 02E9  
                                  i1l2204 02BE                                    i1l2140 01EA  
                                  i1l2132 01DE                                    i1l2124 01B8  
                                  i1l2116 01AC                                    i1l2044 009E  
                                  i1l2060 00ED                                    i1l2036 0079  
                                  u111_25 024A                                    u103_25 01D3  
                                  i1l2222 0305                                    i1l2206 02D3  
                                  i1l2142 01F0                                    i1l2134 01E8  
                                  i1l2126 01C6                                    i1l2118 01B6  
                                  i1l2070 010C                                    i1l2062 00FB  
                                  i1l2054 00BF                                    i1l2046 00AC  
                                  i1l2038 007E                                    i1l2310 000B  
                                  i1l2224 030B                                    i1l2216 02F0  
                                  u120_20 02E9                                    i1l2208 02D9  
                                  u112_20 0259                                    i1l2160 0228  
                                  i1l2144 01F4                                    u104_20 01DE  
                                  i1l2128 01CA                                    i1l2080 0121  
                                  i1l2072 0110                                    i1l2056 00DB  
                                  i1l2048 00BD                                    i1l2320 0027  
                                  i1l2312 000F                                    u120_21 02E8  
                                  u112_21 0258                                    u104_21 01DD  
                                  _ODCONA 1F3A                                    i1l2250 07E7  
                                  i1l2226 030D                                    i1l2218 02FC  
                                  i1l2170 0234                                    i1l2162 022D  
                                  i1l2154 020D                                    i1l2146 0202  
                                  i1l2090 0161                                    i1l2082 013D  
                                  i1l2074 011E                                    i1l2058 00DF  
                                  i1l2322 002B                                    i1l2314 0017  
                                  _ODCONC 1F50                                    i1l2252 07EE  
                                  i1l2244 07E0                                    i1l2228 0311  
                                  i1l2172 023D                                    i1l2164 0232  
                                  i1l2156 0216                                    i1l2148 020B  
                                  i1l2084 0141                                    i1l2068 00FE  
                                  i1l2260 07B6                                    i1l2316 001B  
                                  i1l2308 0006                                    u120_25 02E5  
                                  i1l2254 0F79                                    i1l2246 07E2  
                                  i1l2190 027B                                    i1l2174 0241  
                                  i1l2158 021A                                    i1l2086 014E  
                                  i1l2262 07BE                                    i1l2318 0023  
                                  i1l2256 0F7B                                    i1l2248 07E5  
                                  u121_20 02EF                                    i1l2192 0283  
                                  i1l2184 025B                                    i1l2176 024F  
                                  u105_20 01E8                                    i1l2096 0164  
                                  i1l2088 0154                                    i1l2264 07C5  
                                  u121_21 02EE                                    u105_21 01E7  
                                  i1l2194 029A                                    i1l2186 0264  
                                  i1l2178 0259                                    i1l2098 0171  
                                  i1l2258 07B4                                    i1l1900 077F  
                                  i1l2196 029E                                    i1l2188 026E  
                                  u113_25 0267                                    i1l1910 0793  
                                  i1l1902 0784                                    i1l2198 02AB  
                                  i1l1912 0799                                    i1l1904 0787  
                                  u122_20 02FC                                    u106_20 0201  
                                  u122_21 02FB                                    u106_21 0200  
                                  i1l1906 078C                                    i1l1908 0791  
                                  u122_25 02F8                                    u114_25 0286  
                                  u106_25 01FD                                    u123_20 0302  
                                  u115_20 02AB                                    u107_20 020B  
                                  u123_21 0301                                    u115_21 02AA  
                                  u107_21 020A                                    i1l1884 0F73  
                                  u115_25 02A7                                    i1l1886 0F76  
                                  u124_20 030B                                    u116_20 02B1  
                                  u108_20 0227                                    u124_21 030A  
                                  u116_21 02B0                                    u108_21 0226  
                                  u108_25 0223                                    u125_20 07EE  
                                  u117_20 02BE                                    u109_20 022D  
                                  u133_20 000B                                    u125_21 07ED  
                                  u117_21 02BD                                    u109_21 022C  
                                  u133_21 000A                                    u118_20 02D3  
                                  u126_20 07C5                                    u134_20 000F  
                                  u118_21 02D2                                    u126_21 07C4  
                                  u134_21 000E                                    u118_25 02CF  
                                  u119_20 02D9                                    u135_20 0017  
                                  u119_21 02D8                                    u135_21 0016  
                                  u136_20 001B                                    u136_21 001A  
                                  _INLVLA 1F3C                                    _INLVLC 1F52  
                                  u137_20 0023                                    u137_21 0022  
                                  u138_20 0027                                    u138_21 0026  
                                  u139_20 002B                                    u139_21 002A  
                                  _INTPPS 1E90                                    _OSCFRQ 0893  
                                  _WDTCON 080C                __size_of_SPI1_ExchangeByte 000D  
    __end_of_TMR1_DefaultInterruptHandler 0004     __size_of_TMR1_DefaultInterruptHandler 0001  
            _TMR1_DefaultInterruptHandler 0003                         __end_of_TMR0_ISR_ 0F73  
                       __end_of_TMR1_ISR_ 0317                              ?_TMR0_Reload 0070  
                        ?_TMR0_Initialize 0070                             ?_INT_CallBack 0070  
                        __end_of_playNote 0763                              __pdataBIGRAM 22DC  
                         ?_WDT_Initialize 0070          __size_of_INT_SetInterruptHandler 0006  
TMR1_SetInterruptHandler@InterruptHandler 0072  TMR0_SetInterruptHandler@InterruptHandler 0072  
 INT_SetInterruptHandler@InterruptHandler 0072                   __end_of_TMR1_WriteTimer 1000  
                        ?_TMR1_Initialize 0070                          ?_PWM3_Initialize 0070  
                       _SYSTEM_Initialize 0763                   __end_of__initialization 0075  
                      ?_SYSTEM_Initialize 0070                             _last_prescale 0079  
                    _silent_night_playing 004E                            __pcstackCOMMON 0070  
                            __pidataBANK0 0FE1                              __pidataBANK1 065D  
                            __pidataBANK2 0705                       ??_SYSTEM_Initialize 0074  
                               ?_TMR0_ISR 0070                                 ?_TMR1_ISR 0070  
           ?_TMR1_DefaultInterruptHandler 0070                         ??_SPI1_Initialize 0072  
                        ?_TMR2_Initialize 0070                            ??_INT_CallBack 0071  
                   SPI1_ExchangeByte@data 0072                         shiftBytes@lowSide 0073  
                      _spi1_configuration 1000               __size_of_EXT_INT_Initialize 000D  
               __end_of_SYSTEM_Initialize 077F                                __pbssBANK0 0046  
                              __pnvCOMMON 0077                                __pmaintext 0317  
        __end_of_TMR0_SetInterruptHandler 0F91                                ??_TMR0_ISR 0070  
                              ??_TMR1_ISR 0072                                __pintentry 0004  
                    displayMatrix@lowSide 00E7                                   _INT_ISR 0F79  
                                 _EXT_ISR 077F                                   _OSCTUNE 0892  
                                 _PWM3DCH 0315                                   _PWM3DCL 0314  
                                 _PWM3CON 0316                                   _SSP1ADD 018D  
                                 _SLRCONA 1F3B                                   _SLRCONC 1F51  
                                 _SSP1BUF 018C                          ?_TMR1_WriteTimer 0070  
                               ?_playNote 0072                      __size_of_TMR0_Reload 0006  
                                 __ptext1 0745                                   __ptext2 06A1  
                                 __ptext3 0FC6                                   __ptext4 0FB9  
                                 __ptext5 0763                                   __ptext6 0F6C  
                                 __ptext7 0FD3                                   __ptext8 0725  
                                 __ptext9 0F91            ??_TMR1_DefaultInterruptHandler 0070  
                               _T1CONbits 020E                     _OSCILLATOR_Initialize 0F85  
                               _T2CONbits 028E                            displayMatrix@i 00E5  
                            _cole_counter 0048         __size_of_TMR1_SetInterruptHandler 0006  
                ??_PIN_MANAGER_Initialize 0072                 ?_TMR1_SetInterruptHandler 0072  
                               _T2HLTbits 028F                   _INT_SetInterruptHandler 0F7F  
                                 _presses 0049                __size_of_SYSTEM_Initialize 001C  
                    end_of_initialization 0075                                 _T2RSTbits 0291  
                                 init_ram 07F4                                   initloop 07F5  
                    __end_of_INT_CallBack 0FAC                                _shiftBytes 0FC6  
                              ??_playNote 0073                                 _TMR0_ISR_ 0F6F  
                               _TMR1_ISR_ 0079                          ??_WDT_Initialize 0072  
                _TMR0_SetInterruptHandler 0F8B                                 _TRISAbits 0012  
                               _TRISCbits 0014                     __end_of_displayMatrix 06DD  
                              main@j_1165 0145                                main@j_1167 0147  
                        _silent_night_pre 22DC                           _SPI1_Initialize 07CB  
                    _timer0ReloadVal16bit 0077                             __pidataBIGRAM 0549  
                              ?_TMR0_ISR_ 0070                                ?_TMR1_ISR_ 0070  
                       __size_of_TMR0_ISR 0014                         __size_of_TMR1_ISR 0017  
                  ?_OSCILLATOR_Initialize 0070                 ??_INT_SetInterruptHandler 0074  
                      shiftBytes@highSide 0074                       start_initialization 0033  
                __size_of_TMR0_Initialize 0019           __size_of_PIN_MANAGER_Initialize 0028  
            ?_INT_DefaultInterruptHandler 0070                               ?_shiftBytes 0073  
                __size_of_PWM3_Initialize 0008                  __size_of_TMR1_Initialize 0020  
                             __pdataBANK0 0038                               __pdataBANK1 00A0  
                             __pdataBANK2 0120                __end_of_EXT_INT_Initialize 0FB9  
                             __pbssCOMMON 0079                                 ___latbits 0002  
                                ?_INT_ISR 0070                             __pcstackBANK0 0020  
                           __pcstackBANK1 00E4                             __pcstackBANK2 0140  
                                ?_EXT_ISR 0070                  __size_of_TMR2_Initialize 000E  
                 __end_of_SPI1_Initialize 07E0                     __size_of_INT_CallBack 000D  
                         TMR1_ISR_@i_1181 002F                           TMR1_ISR_@i_1182 0025  
                         TMR1_ISR_@i_1175 002B                           TMR1_ISR_@i_1183 0027  
                         TMR1_ISR_@i_1176 0034                           TMR1_ISR_@i_1184 0029  
                         TMR1_ISR_@i_1185 0036                           TMR1_ISR_@i_1178 002D  
                         TMR1_ISR_@i_1179 0023                     _TMR0_InterruptHandler 0053  
                               __pnvBANK0 004F                           TMR1_ISR_@lights 0020  
                  _PIN_MANAGER_Initialize 06DD             ??_INT_DefaultInterruptHandler 0070  
                       __size_of_playNote 001E          __end_of_TMR1_SetInterruptHandler 0F97  
                             ??_TMR0_ISR_ 0070                               ??_TMR1_ISR_ 0070  
            ??_INTERRUPT_InterruptManager 0072                       displayMatrix@states 00E4  
                            _INT_CallBack 0F9F                              playNote@note 0074  
                     __size_of_shiftBytes 000D                                 _last_note 004A  
                              TMR1_ISR_@i 0032                                  _T2CLKCON 0290  
                       ??_TMR0_Initialize 0074                                  _LATCbits 001A  
                                _PIE0bits 0716                                  _PIE1bits 0717  
                __size_of_TMR1_WriteTimer 0011       __size_of_INTERRUPT_InterruptManager 002D  
              ??_TMR0_SetInterruptHandler 0074                                  _PIR0bits 070C  
                                _PIR1bits 070D                             ??_TMR0_Reload 0070  
                               _song2_pre 00C0                                 _song3_pre 0120  
                                _SSP1CON1 0190                                  _SSP1CON2 0191  
                                _TMR0_ISR 07E0                                  _TMR1_ISR 07B4  
                               _num_songs 003E                                  _SSP1STAT 018F  
                       ??_TMR1_Initialize 0074                         ??_PWM3_Initialize 0072  
                               main@light 0140      __size_of_INT_DefaultInterruptHandler 0001  
                        __size_of_INT_ISR 0006                          __size_of_EXT_ISR 001C  
                        ?_SPI1_Initialize 0070                         ??_TMR2_Initialize 0072  
                           _song2_playing 004C                             _song3_playing 004D  
                           _TMR0_complete 004B                   ??_OSCILLATOR_Initialize 0072  
                             _light_array 003F                  _TMR1_SetInterruptHandler 0F91  
                     __end_of_TMR0_Reload 0F79                     _TMR1_InterruptHandler 004F  
                              _T0CON0bits 059E                                  __ptext10 079B  
                                __ptext11 0F8B                                  __ptext20 0FEF  
                                __ptext12 07CB                                  __ptext21 0003  
                                __ptext13 0F97                                _T1GCONbits 020F  
                                __ptext30 0F73                                  __ptext22 0079  
                                __ptext14 06DD                                  __ptext23 07E0  
                                __ptext15 0F85                                  __ptext24 0002  
                                __ptext16 0FAC                                  __ptext25 0F6F  
                                __ptext17 0F7F                                  __ptext26 0F79  
                                __ptext27 0F9F                                  __ptext19 07B4  
                                __ptext28 077F                                  __ptext29 0F6B  
                            _SSP1CON1bits 0190                             __size_of_main 0232  
    __end_of_TMR0_DefaultInterruptHandler 0003     __size_of_TMR0_DefaultInterruptHandler 0001  
            _TMR0_DefaultInterruptHandler 0002                              ??_shiftBytes 0074  
                                _playNote 0745                    __size_of_displayMatrix 003C  
                                int$flags 007E        __end_of_INTERRUPT_InterruptManager 0031  
              _INTERRUPT_InterruptManager 0004                         ??_TMR1_WriteTimer 0072  
                            _song2_length 003B                              _song3_length 0038  
                              _INTCONbits 000B                      _INT_InterruptHandler 0055  
                      __end_of_shiftBytes 0FD3                              _silent_night 2366  
                      _EXT_INT_Initialize 0FAC                   __size_of_WDT_Initialize 0003  
                                intlevel1 0000                   ?_PIN_MANAGER_Initialize 0070  
                     ?_EXT_INT_Initialize 0070             ?_TMR0_DefaultInterruptHandler 0070  
                             _TMR0_Reload 0F73                              _timer_high_2 003D  
                            _timer_high_3 003A                  ?_INT_SetInterruptHandler 0072  
                           __pstringtext1 1000                      ??_EXT_INT_Initialize 0074  
                              _SSP1DATPPS 1EC6                                _SSP1CLKPPS 1EC5  
                         _TMR0_Initialize 079B                               _timer_low_2 003C  
                             _timer_low_3 0039                             _displayMatrix 06A1  
          __end_of_PIN_MANAGER_Initialize 0705                           _TMR1_Initialize 0725  
                         _PWM3_Initialize 0F97                __end_of_spi1_configuration 1004  
